 QemuVideoDxe

 Timestamp is 62c3c2b9 (Tue Jul  5 12:48:57 2022)

 Preferred load address is 0000000000000000

 Start         Length     Name                   Class
 0001:00000000 000001e8H .text                   CODE
 0001:000001e8 00004bf6H .text$mn                CODE
 0002:00000000 00001f08H .rdata                  DATA
 0002:00001f08 0000002cH .rdata$voltmd           DATA
 0002:00001f34 0000013cH .rdata$zzzdbg           DATA
 0003:00000000 00000490H .data                   DATA
 0003:00000490 0000003bH .bss                    DATA
 0004:00000000 00000318H .pdata                  DATA
 0005:00000000 000002b8H .xdata                  DATA

  Address         Publics by Value              Rva+Base               Lib:Object

 0000:00000000       __x64_code_ranges_to_entry_points_count 0000000000000000     <absolute>
 0000:00000000       __arm64x_redirection_metadata 0000000000000000     <absolute>
 0000:00000000       __hybrid_code_map          0000000000000000     <absolute>
 0000:00000000       __guard_iat_table          0000000000000000     <absolute>
 0000:00000000       __guard_fids_count         0000000000000000     <absolute>
 0000:00000000       __arm64x_extra_rfe_table_size 0000000000000000     <absolute>
 0000:00000000       __guard_iat_count          0000000000000000     <absolute>
 0000:00000000       __guard_longjmp_count      0000000000000000     <absolute>
 0000:00000000       __dynamic_value_reloc_table 0000000000000000     <absolute>
 0000:00000000       __arm64x_extra_rfe_table   0000000000000000     <absolute>
 0000:00000000       __hybrid_auxiliary_iat     0000000000000000     <absolute>
 0000:00000000       __x64_code_ranges_to_entry_points 0000000000000000     <absolute>
 0000:00000000       __hybrid_auxiliary_iat_copy 0000000000000000     <absolute>
 0000:00000000       __hybrid_code_map_count    0000000000000000     <absolute>
 0000:00000000       __AbsoluteZero             0000000000000000     <absolute>
 0000:00000000       __guard_flags              0000000000000000     <absolute>
 0000:00000000       __guard_check_icall_a64n_fptr 0000000000000000     <absolute>
 0000:00000000       __guard_eh_cont_count      0000000000000000     <absolute>
 0000:00000000       __guard_fids_table         0000000000000000     <absolute>
 0000:00000000       __guard_longjmp_table      0000000000000000     <absolute>
 0000:00000000       __arm64x_redirection_metadata_count 0000000000000000     <absolute>
 0000:00000000       __enclave_config           0000000000000000     <absolute>
 0000:00000000       __guard_eh_cont_table      0000000000000000     <absolute>
 0000:00000000       __arm64x_native_entrypoint 0000000000000000     <absolute>
 0000:00000000       __ImageBase                0000000000000000     <linker-defined>
 0001:00000000       InternalMemZeroMem         00000000000002c0     BaseMemoryLibRepStr:ZeroMem.obj
 0001:00000020       InternalMemCopyMem         00000000000002e0     BaseMemoryLibRepStr:CopyMem.obj
 0001:00000060       CpuPause                   0000000000000320     BaseLib:CpuPause.obj
 0001:00000070       InternalMemSetMem          0000000000000330     BaseMemoryLibRepStr:SetMem.obj
 0001:00000090       InternalMemSetMem64        0000000000000350     BaseMemoryLibRepStr:SetMem64.obj
 0001:000000b0       InternalMemSetMem32        0000000000000370     BaseMemoryLibRepStr:SetMem32.obj
 0001:000000d0       TdVmCall                   0000000000000390     BaseLib:TdVmcall.obj
 0001:00000160       EnableInterrupts           0000000000000420     BaseLib:EnableInterrupts.obj
 0001:00000170       DisableInterrupts          0000000000000430     BaseLib:DisableInterrupts.obj
 0001:00000180       AsmReadEflags              0000000000000440     BaseLib:ReadEflags.obj
 0001:00000190       TdCall                     0000000000000450     BaseLib:TdCall.obj
 0001:000001e8       _ModuleEntryPoint          00000000000004a8 f   UefiDriverEntryPoint:DriverEntryPoint.obj
 0001:00000204       ProcessLibraryConstructorList 00000000000004c4 f   QemuVideoDxe:AutoGen.obj
 0001:000004fc       ProcessModuleEntryPointList 00000000000007bc f   QemuVideoDxe:AutoGen.obj
 0001:00000624       QemuVideoControllerDriverSupported 00000000000008e4 f   QemuVideoDxe:Driver.obj
 0001:0000070c       QemuVideoControllerDriverStart 00000000000009cc f   QemuVideoDxe:Driver.obj
 0001:00000c74       QemuVideoControllerDriverStop 0000000000000f34 f   QemuVideoDxe:Driver.obj
 0001:00000e14       outb                       00000000000010d4 f   QemuVideoDxe:Driver.obj
 0001:00000e48       outw                       0000000000001108 f   QemuVideoDxe:Driver.obj
 0001:00000e7c       SetDefaultPalette          000000000000113c f   QemuVideoDxe:Driver.obj
 0001:00000f48       InitializeCirrusGraphicsMode 0000000000001208 f   QemuVideoDxe:Driver.obj
 0001:00001194       BochsWrite                 0000000000001454 f   QemuVideoDxe:Driver.obj
 0001:00001230       BochsRead                  00000000000014f0 f   QemuVideoDxe:Driver.obj
 0001:000012e8       VgaOutb                    00000000000015a8 f   QemuVideoDxe:Driver.obj
 0001:0000135c       InitializeBochsGraphicsMode 000000000000161c f   QemuVideoDxe:Driver.obj
 0001:000015d0       QemuVideoGraphicsOutputQueryMode 0000000000001890 f   QemuVideoDxe:Gop.obj
 0001:000016a0       QemuVideoGraphicsOutputSetMode 0000000000001960 f   QemuVideoDxe:Gop.obj
 0001:000018bc       QemuVideoGraphicsOutputBlt 0000000000001b7c f   QemuVideoDxe:Gop.obj
 0001:000019cc       QemuVideoGraphicsOutputConstructor 0000000000001c8c f   QemuVideoDxe:Gop.obj
 0001:00001ac0       QemuVideoGraphicsOutputDestructor 0000000000001d80 f   QemuVideoDxe:Gop.obj
 0001:00001b0c       QemuVideoCirrusModeSetup   0000000000001dcc f   QemuVideoDxe:Initialize.obj
 0001:00001e60       QemuVideoBochsModeSetup    0000000000002120 f   QemuVideoDxe:Initialize.obj
 0001:00002004       InstallVbeShim             00000000000022c4 f   QemuVideoDxe:VbeShim.obj
 0001:00002408       QemuVideoComponentNameGetDriverName 00000000000026c8 f   QemuVideoDxe:ComponentName.obj
 0001:0000243c       QemuVideoComponentNameGetControllerName 00000000000026fc f   QemuVideoDxe:ComponentName.obj
 0001:0000250c       GetPcdProtocol             00000000000027cc f   DxePcdLib:DxePcdLib.obj
 0001:00002598       ZeroMem                    0000000000002858 f   BaseMemoryLibRepStr:ZeroMemWrapper.obj
 0001:00002608       CopyMem                    00000000000028c8 f   BaseMemoryLibRepStr:CopyMemWrapper.obj
 0001:000026a4       AsciiSPrint                0000000000002964 f   BasePrintLib:PrintLib.obj
 0001:000026d0       BasePrintLibFillBuffer     0000000000002990 f   BasePrintLib:PrintLibInternal.obj
 0001:00002704       BasePrintLibValueToString  00000000000029c4 f   BasePrintLib:PrintLibInternal.obj
 0001:00002770       BasePrintLibSPrintMarker   0000000000002a30 f   BasePrintLib:PrintLibInternal.obj
 0001:0000367c       BasePrintLibSPrint         000000000000393c f   BasePrintLib:PrintLibInternal.obj
 0001:000036a0       DebugPrint                 0000000000003960 f   BaseDebugLibSerialPort:DebugLib.obj
 0001:000036c4       DebugPrintMarker           0000000000003984 f   BaseDebugLibSerialPort:DebugLib.obj
 0001:00003774       DebugAssert                0000000000003a34 f   BaseDebugLibSerialPort:DebugLib.obj
 0001:000037ec       InternalAllocatePool       0000000000003aac f   UefiMemoryAllocationLib:MemoryAllocationLib.obj
 0001:0000381c       FreePool                   0000000000003adc f   UefiMemoryAllocationLib:MemoryAllocationLib.obj
 0001:00003860       IsLanguageSupported        0000000000003b20 f   UefiLib:UefiLib.obj
 0001:000038e8       LookupUnicodeString2       0000000000003ba8 f   UefiLib:UefiLib.obj
 0001:000039dc       GetHobList                 0000000000003c9c f   DxeHobLib:HobLib.obj
 0001:00003abc       FrameBufferBltLibConfigurePixelFormat 0000000000003d7c f   FrameBufferBltLib:FrameBufferBltLib.obj
 0001:00003c2c       FrameBufferBltConfigure    0000000000003eec f   FrameBufferBltLib:FrameBufferBltLib.obj
 0001:00003d8c       FrameBufferBltLibVideoFill 000000000000404c f   FrameBufferBltLib:FrameBufferBltLib.obj
 0001:000040b4       FrameBufferBltLibVideoToBltBuffer 0000000000004374 f   FrameBufferBltLib:FrameBufferBltLib.obj
 0001:00004244       FrameBufferBltLibBufferToVideo 0000000000004504 f   FrameBufferBltLib:FrameBufferBltLib.obj
 0001:000043e8       FrameBufferBltLibVideoToVideo 00000000000046a8 f   FrameBufferBltLib:FrameBufferBltLib.obj
 0001:000044e0       FrameBufferBlt             00000000000047a0 f   FrameBufferBltLib:FrameBufferBltLib.obj
 0001:0000463c       StrnLenS                   00000000000048fc f   BaseLib:SafeString.obj
 0001:00004694       AsciiStrLen                0000000000004954 f   BaseLib:String.obj
 0001:00004700       AsciiStrnCmp               00000000000049c0 f   BaseLib:String.obj
 0001:000047cc       SetMem                     0000000000004a8c f   BaseMemoryLibRepStr:SetMemWrapper.obj
 0001:00004830       CompareGuid                0000000000004af0 f   BaseMemoryLibRepStr:MemLibGuid.obj
 0001:000048f4       SetMem64                   0000000000004bb4 f   BaseMemoryLibRepStr:SetMem64Wrapper.obj
 0001:000049b8       SetMem32                   0000000000004c78 f   BaseMemoryLibRepStr:SetMem32Wrapper.obj
 0001:00004a7c       IoRead32                   0000000000004d3c f   BaseIoLibIntrinsicSev:IoLibMsc.obj
 0001:00004ab0       PciExpressRead8            0000000000004d70 f   BasePciExpressLib:PciExpressLib.obj
 0001:00004af8       PciExpressWrite8           0000000000004db8 f   BasePciExpressLib:PciExpressLib.obj
 0001:00004b50       PciExpressRead32           0000000000004e10 f   BasePciExpressLib:PciExpressLib.obj
 0001:00004ba0       PciCf8Read8                0000000000004e60 f   BasePciCf8Lib:PciCf8Lib.obj
 0001:00004c40       PciCf8Write8               0000000000004f00 f   BasePciCf8Lib:PciCf8Lib.obj
 0001:00004cec       PciCf8Read32               0000000000004fac f   BasePciCf8Lib:PciCf8Lib.obj
 0001:00004d8c       SaveAndDisableInterrupts   000000000000504c f   BaseLib:Cpu.obj
 0001:00004db0       MmioRead32                 0000000000005070 f   BaseIoLibIntrinsicSev:IoLib.obj
 0002:00000000       ??_C@_0CB@DMEJJJHA@?6ASSERT_EFI_ERROR?5?$CIStatus?5?$DN?5?$CFr?$CJ@ 00000000000050a0     UefiDriverEntryPoint:DriverEntryPoint.obj
 0002:00000028       ??_C@_0CH@BBNBJKHK@?$CB?$CI?$CI?$CIINTN?$CJ?$CIRETURN_STATUS?$CJ?$CIStatus@ 00000000000050c8     UefiDriverEntryPoint:DriverEntryPoint.obj
 0002:00000050       ??_C@_0N@LLBGCFPN@QemuVideoDxe@ 00000000000050f0     QemuVideoDxe:AutoGen.obj
 0002:00000060       ??_C@_0CE@IBFOBMLB@?6ASSERT_RETURN_ERROR?5?$CIStatus?5?$DN?5@ 0000000000005100     QemuVideoDxe:AutoGen.obj
 0002:00000090       ??_C@_0GA@GNDLOJAD@d?3?2myedk2?2edk2?2Build?2OvmfX64?2DE@ 0000000000005130     QemuVideoDxe:AutoGen.obj
 0002:000000f0       ??_C@_1BI@NBGOPNMJ@?$AAC?$AAi?$AAr?$AAr?$AAu?$AAs?$AA?5?$AA5?$AA4?$AA3?$AA0@ 0000000000005190     QemuVideoDxe:Driver.obj
 0002:00000108       ??_C@_1BI@OJAAJCKN@?$AAC?$AAi?$AAr?$AAr?$AAu?$AAs?$AA?5?$AA5?$AA4?$AA4?$AA6@ 00000000000051a8     QemuVideoDxe:Driver.obj
 0002:00000120       ??_C@_1CE@PANPBOLC@?$AAQ?$AAE?$AAM?$AAU?$AA?5?$AAS?$AAt?$AAa?$AAn?$AAd?$AAa?$AAr?$AAd?$AA?5?$AAV@ 00000000000051c0     QemuVideoDxe:Driver.obj
 0002:00000148       ??_C@_1DM@JBODOLGA@?$AAQ?$AAE?$AAM?$AAU?$AA?5?$AAS?$AAt?$AAa?$AAn?$AAd?$AAa?$AAr?$AAd?$AA?5?$AAV@ 00000000000051e8     QemuVideoDxe:Driver.obj
 0002:00000188       ??_C@_1BK@CGOEMBOF@?$AAQ?$AAE?$AAM?$AAU?$AA?5?$AAQ?$AAX?$AAL?$AA?5?$AAV?$AAG?$AAA@ 0000000000005228     QemuVideoDxe:Driver.obj
 0002:000001a8       ??_C@_1CA@NBLGEFOK@?$AAQ?$AAE?$AAM?$AAU?$AA?5?$AAV?$AAi?$AAr?$AAt?$AAI?$AAO?$AA?5?$AAV?$AAG?$AAA@ 0000000000005248     QemuVideoDxe:Driver.obj
 0002:000001c8       ??_C@_1CC@JKGPCJEO@?$AAQ?$AAE?$AAM?$AAU?$AA?5?$AAV?$AAM?$AAW?$AAa?$AAr?$AAe?$AA?5?$AAS?$AAV?$AAG@ 0000000000005268     QemuVideoDxe:Driver.obj
 0002:000001f0       ??_C@_0BI@CMEKGCIK@QemuVideo?3?5?$CFs?5detected?6@ 0000000000005290     QemuVideoDxe:Driver.obj
 0002:00000208       ??_C@_0CN@PJBNFGIA@QemuVideo?3?5No?5mmio?5bar?0?5fallbac@ 00000000000052a8     QemuVideoDxe:Driver.obj
 0002:00000238       ??_C@_0CD@OCJLGFHB@QemuVideo?3?5Using?5mmio?5bar?5?$EA?50x?$CF@ 00000000000052d8     QemuVideoDxe:Driver.obj
 0002:00000260       ??_C@_0CI@NNNLJFHP@QemuVideo?3?5BochsID?5mismatch?5?$CIgo@ 0000000000005300     QemuVideoDxe:Driver.obj
 0002:00000288       ??_C@_0BC@FEDIJHFF@?$CI?$CIBOOLEAN?$CJ?$CI0?$DN?$DN1?$CJ?$CJ@ 0000000000005328     QemuVideoDxe:Driver.obj
 0002:000002a0       ??_C@_0CN@DKDFGJKG@d?3?2myedk2?2edk2?2OvmfPkg?2QemuVide@ 0000000000005340     QemuVideoDxe:Driver.obj
 0002:000002d0       ??_C@_0BG@GHMKDGHJ@NumberOfChildren?5?$DN?$DN?51@ 0000000000005370     QemuVideoDxe:Driver.obj
 0002:000002e8       ??_C@_0BF@NDBIKIKC@CR?5has?5Bad?5Signature@ 0000000000005388     QemuVideoDxe:Driver.obj
 0002:00000300       ??_C@_0CI@MBOBAPDE@Private?9?$DOHandle?5?$DN?$DN?5ChildHandleB@ 00000000000053a0     QemuVideoDxe:Driver.obj
 0002:00000328       ??_C@_0CJ@MNBABJLA@InitializeBochsGraphicsMode?3?5?$CFd@ 00000000000053c8     QemuVideoDxe:Driver.obj
 0002:00000358       ??_C@_0CH@IMBIJFHF@PixelBlueGreenRedReserved8BitPe@ 00000000000053f8     QemuVideoDxe:Gop.obj
 0002:00000380       ??_C@_0DA@PEPIACPF@FrameBufferBase?3?50x?$CFLx?0?5FrameBu@ 0000000000005420     QemuVideoDxe:Gop.obj
 0002:000003b0       ??_C@_0CK@NOLKAFMC@d?3?2myedk2?2edk2?2OvmfPkg?2QemuVide@ 0000000000005450     QemuVideoDxe:Gop.obj
 0002:000003e0       ??_C@_0DB@COJCBMHK@Private?9?$DOFrameBufferBltConfigur@ 0000000000005480     QemuVideoDxe:Gop.obj
 0002:00000418       ??_C@_0M@JADJBBKG@Status?5?$DN?$DN?50@ 00000000000054b8     QemuVideoDxe:Gop.obj
 0002:00000428       GraphicsController         00000000000054c8     QemuVideoDxe:Initialize.obj
 0002:00000440       AttributeController        00000000000054e0     QemuVideoDxe:Initialize.obj
 0002:00000458       ??_C@_0DK@DHHBNDMH@Adding?5Mode?5?$CFd?5as?5Cirrus?5Intern@ 00000000000054f8     QemuVideoDxe:Initialize.obj
 0002:00000498       ??_C@_0DF@NBIIAIMP@Skipping?5Bochs?5Mode?5?$CFdx?$CFd?0?532?9b@ 0000000000005538     QemuVideoDxe:Initialize.obj
 0002:000004d0       ??_C@_0CO@HIEDMFO@Adding?5Bochs?5Internal?5Mode?5?$CFd?3?5@ 0000000000005570     QemuVideoDxe:Initialize.obj
 0002:00000500       ??_C@_0BD@EIKLHBPF@QemuVideoBochsEdid@ 00000000000055a0     QemuVideoDxe:Initialize.obj
 0002:00000518       ??_C@_0BG@PJAAHIIF@?$CFa?3?5mmio?5read?5failed?6@ 00000000000055b8     QemuVideoDxe:Initialize.obj
 0002:00000530       ??_C@_0BI@NJCNLEJD@?$CFa?3?5magic?5check?5failed?6@ 00000000000055d0     QemuVideoDxe:Initialize.obj
 0002:00000548       ??_C@_0CB@MADDILEB@?$CFa?3?5blob?5found?5?$CIextensions?3?5?$CFd?$CJ@ 00000000000055e8     QemuVideoDxe:Initialize.obj
 0002:00000570       ??_C@_0CD@NENLIJMD@?$CFa?3?5no?5detailed?5timing?5descript@ 0000000000005610     QemuVideoDxe:Initialize.obj
 0002:00000598       ??_C@_0BP@DHEHCNNI@?$CFa?3?5default?5resolution?3?5?$CFdx?$CFd?6@ 0000000000005638     QemuVideoDxe:Initialize.obj
 0002:000005b8       ??_C@_0DB@KEGGJDHH@d?3?2myedk2?2edk2?2OvmfPkg?2QemuVide@ 0000000000005658     QemuVideoDxe:Initialize.obj
 0002:000005f0       ??_C@_0BI@FALKMJPG@QemuVideoBochsModeSetup@ 0000000000005690     QemuVideoDxe:Initialize.obj
 0002:00000608       ??_C@_0DF@MGANLHFJ@?$CFa?3?5can?8t?5read?5size?5of?5drawable@ 00000000000056a8     QemuVideoDxe:Initialize.obj
 0002:00000640       ??_C@_0BK@KNBCKMML@?$CFa?3?5AvailableFbSize?$DN0x?$CFx?6@ 00000000000056e0     QemuVideoDxe:Initialize.obj
 0002:00000660       ??_C@_0P@NCGKIJAC@InstallVbeShim@ 0000000000005700     QemuVideoDxe:VbeShim.obj
 0002:00000670       ??_C@_0CL@BIBEAGLN@?$CFa?3?5Video?5BIOS?5handler?5found?5at@ 0000000000005710     QemuVideoDxe:VbeShim.obj
 0002:000006a0       ??_C@_0CJ@FNAHKPOL@?$CFa?3?5failed?5to?5allocate?5page?5at?5@ 0000000000005740     QemuVideoDxe:VbeShim.obj
 0002:000006d0       ??_C@_0BL@ICLKHMPC@Int0x10?9?$DOSegment?5?$DN?$DN?50x0000@ 0000000000005770     QemuVideoDxe:VbeShim.obj
 0002:000006f0       ??_C@_0CO@GOKDEHAN@d?3?2myedk2?2edk2?2OvmfPkg?2QemuVide@ 0000000000005790     QemuVideoDxe:VbeShim.obj
 0002:00000720       ??_C@_0BK@NMPCHGPO@Int0x10?9?$DOOffset?5?$DN?$DN?50x0000@ 00000000000057c0     QemuVideoDxe:VbeShim.obj
 0002:00000740       ??_C@_0CL@PPJOAEMO@?$CFa?3?5unknown?5host?5bridge?5device?5@ 00000000000057e0     QemuVideoDxe:VbeShim.obj
 0002:0000076c       ??_C@_04KFNMHECL@VESA@     000000000000580c     QemuVideoDxe:VbeShim.obj
 0002:00000774       ??_C@_04CPOKPBBE@QEMU@     0000000000005814     QemuVideoDxe:VbeShim.obj
 0002:0000077c       ??_C@_04NDHJGBBE@OVMF@     000000000000581c     QemuVideoDxe:VbeShim.obj
 0002:00000784       ??_C@_02DKCKIIND@?$CFs@    0000000000005824     QemuVideoDxe:VbeShim.obj
 0002:00000788       ??_C@_0DI@OOBECLLN@sizeof?5VbeInfoFull?9?$DOBuffer?5?$DO?$DN?5P@ 0000000000005828     QemuVideoDxe:VbeShim.obj
 0002:000007c0       ??_C@_0BI@FFFCHPHI@?$CFa?3?5VBE?5shim?5installed?6@ 0000000000005860     QemuVideoDxe:VbeShim.obj
 0002:00000b4c       ??_C@_03LKLGDMJI@eng@      0000000000005bec     QemuVideoDxe:ComponentName.obj
 0002:00000b50       ??_C@_02LFNMGJAP@en@       0000000000005bf0     QemuVideoDxe:ComponentName.obj
 0002:00000b54       ??_C@_06DALJLGPG@eng?$DLen@ 0000000000005bf4     QemuVideoDxe:ComponentName.obj
 0002:00000b60       ??_C@_1CE@PPDLBEON@?$AAQ?$AAE?$AAM?$AAU?$AA?5?$AAV?$AAi?$AAd?$AAe?$AAo?$AA?5?$AAD?$AAr?$AAi?$AAv@ 0000000000005c00     QemuVideoDxe:ComponentName.obj
 0002:00000b88       ??_C@_1CO@HAPHIBDK@?$AAQ?$AAE?$AAM?$AAU?$AA?5?$AAV?$AAi?$AAd?$AAe?$AAo?$AA?5?$AAP?$AAC?$AAI?$AA?5@ 0000000000005c28     QemuVideoDxe:ComponentName.obj
 0002:00000bb8       ??_C@_0DE@IBFOALAL@d?3?2myedk2?2edk2?2MdePkg?2Library?2D@ 0000000000005c58     DxePcdLib:DxePcdLib.obj
 0002:00000bf0       ??_C@_0BF@OOKDELHM@mPcd?5?$CB?$DN?5?$CI?$CIvoid?5?$CK?$CJ?50?$CJ@ 0000000000005c90     DxePcdLib:DxePcdLib.obj
 0002:00000c08       ??_C@_0BH@IACGKAP@Buffer?5?$CB?$DN?5?$CI?$CIvoid?5?$CK?$CJ?50?$CJ@ 0000000000005ca8     DxePcdLib:DxePcdLib.obj
 0002:00000c20       ??_C@_0ED@CECKBBNJ@d?3?2myedk2?2edk2?2MdePkg?2Library?2B@ 0000000000005cc0     BaseMemoryLibRepStr:ZeroMemWrapper.obj
 0002:00000c68       ??_C@_0DG@EEENIGGL@Length?5?$DM?$DN?5?$CI0xFFFFFFFFFFFFFFFFUL@ 0000000000005d08     BaseMemoryLibRepStr:ZeroMemWrapper.obj
 0002:00000ca0       ??_C@_0ED@MKGCMJG@?$CILength?5?9?51?$CJ?5?$DM?$DN?5?$CI0xFFFFFFFFFFFF@ 0000000000005d40     BaseMemoryLibRepStr:CopyMemWrapper.obj
 0002:00000cf0       ??_C@_0ED@JAIIHABO@d?3?2myedk2?2edk2?2MdePkg?2Library?2B@ 0000000000005d90     BaseMemoryLibRepStr:CopyMemWrapper.obj
 0002:00000d38       ??_C@_0DO@MAOBOFEG@?$CILength?5?9?51?$CJ?5?$DM?$DN?5?$CI0xFFFFFFFFFFFF@ 0000000000005dd8     BaseMemoryLibRepStr:CopyMemWrapper.obj
 0002:00000d78       ??_C@_0DO@DLJLNPNA@d?3?2myedk2?2edk2?2MdePkg?2Library?2B@ 0000000000005e18     BasePrintLib:PrintLibInternal.obj
 0002:00000db8       ??_C@_0BJ@CNKJJNE@?$CIBuffer?5?$CB?$DN?5?$CI?$CIvoid?5?$CK?$CJ?50?$CJ?$CJ@ 0000000000005e58     BasePrintLib:PrintLibInternal.obj
 0002:00000de0       ??_C@_0EB@HDGIDCIO@?$CIBufferSize?5?$DM?$DN?5?$CI_gPcd_FixedAtBu@ 0000000000005e80     BasePrintLib:PrintLibInternal.obj
 0002:00000e28       ??_C@_0BJ@PPAKKDJG@?$CIFormat?5?$CB?$DN?5?$CI?$CIvoid?5?$CK?$CJ?50?$CJ?$CJ@ 0000000000005ec8     BasePrintLib:PrintLibInternal.obj
 0002:00000e50       ??_C@_0ED@LPDDCECB@?$CIBufferSize?5?$DM?$DN?5?$CI_gPcd_FixedAtBu@ 0000000000005ef0     BasePrintLib:PrintLibInternal.obj
 0002:00000ea0       ??_C@_0IM@BFJJFLGB@?$CIStrnLenS?5?$CI?$CICHAR16?5?$CK?$CJFormat?0?5?$CI_@ 0000000000005f40     BasePrintLib:PrintLibInternal.obj
 0002:00000f30       ??_C@_0ID@PLGJGION@?$CIAsciiStrnLenS?5?$CIFormat?0?5?$CI_gPcd_@ 0000000000005fd0     BasePrintLib:PrintLibInternal.obj
 0002:00000fb8       ??_C@_0O@MLOLIMFM@?$DMnull?5string?$DO@ 0000000000006058     BasePrintLib:PrintLibInternal.obj
 0002:00000fc8       ??_C@_0M@BJJDNPHK@?$DMnull?5guid?$DO@ 0000000000006068     BasePrintLib:PrintLibInternal.obj
 0002:00000fd8       ??_C@_0DB@PMLHLBMO@?$CF08x?9?$CF04x?9?$CF04x?9?$CF02x?$CF02x?9?$CF02x?$CF02@ 0000000000006078     BasePrintLib:PrintLibInternal.obj
 0002:00001010       ??_C@_0M@LHGBCIKM@?$DMnull?5time?$DO@ 00000000000060b0     BasePrintLib:PrintLibInternal.obj
 0002:00001020       ??_C@_0BK@FCPKCIDD@?$CF02d?1?$CF02d?1?$CF04d?5?5?$CF02d?3?$CF02d@ 00000000000060c0     BasePrintLib:PrintLibInternal.obj
 0002:0000103c       ??_C@_04JIMNDDED@?$CF08X@  00000000000060dc     BasePrintLib:PrintLibInternal.obj
 0002:00001044       ??_C@_02PCIJFNDE@?$AN?6@   00000000000060e4     BasePrintLib:PrintLibInternal.obj
 0002:00001048       ??_C@_01LIIJDEN@?$AN@      00000000000060e8     BasePrintLib:PrintLibInternal.obj
 0002:00001050       mWarningString             00000000000060f0     BasePrintLib:PrintLibInternal.obj
 0002:000010f0       mErrorString               0000000000006190     BasePrintLib:PrintLibInternal.obj
 0002:000013b0       mHexStr                    0000000000006450     BasePrintLib:PrintLibInternal.obj
 0002:000013c0       ??_C@_0BH@LKMBFCBF@Format?5?$CB?$DN?5?$CI?$CIvoid?5?$CK?$CJ?50?$CJ@ 0000000000006460     BaseDebugLibSerialPort:DebugLib.obj
 0002:000013e0       ??_C@_0EA@MCEJFCHO@d?3?2myedk2?2edk2?2MdePkg?2Library?2B@ 0000000000006480     BaseDebugLibSerialPort:DebugLib.obj
 0002:00001420       ??_C@_0BI@NOCKJDBJ@ASSERT?5?$FL?$CFa?$FN?5?$CFa?$CI?$CFd?$CJ?3?5?$CFa?6@ 00000000000064c0     BaseDebugLibSerialPort:DebugLib.obj
 0002:00001438       ??_C@_0BN@COECPDCC@gImageHandle?5?$CB?$DN?5?$CI?$CIvoid?5?$CK?$CJ?50?$CJ@ 00000000000064d8     UefiBootServicesTableLib:UefiBootServicesTableLib.obj
 0002:00001460       ??_C@_0FC@HJEJKBBP@d?3?2myedk2?2edk2?2MdePkg?2Library?2U@ 0000000000006500     UefiBootServicesTableLib:UefiBootServicesTableLib.obj
 0002:000014b8       ??_C@_0BE@DGNHAHIL@gST?5?$CB?$DN?5?$CI?$CIvoid?5?$CK?$CJ?50?$CJ@ 0000000000006558     UefiBootServicesTableLib:UefiBootServicesTableLib.obj
 0002:000014d0       ??_C@_0BE@BDFJLGLN@gBS?5?$CB?$DN?5?$CI?$CIvoid?5?$CK?$CJ?50?$CJ@ 0000000000006570     UefiBootServicesTableLib:UefiBootServicesTableLib.obj
 0002:000014f0       ??_C@_0EM@BLKCBDHP@d?3?2myedk2?2edk2?2MdePkg?2Library?2U@ 0000000000006590     UefiMemoryAllocationLib:MemoryAllocationLib.obj
 0002:00001540       ??_C@_0BE@OBDFIHND@gRT?5?$CB?$DN?5?$CI?$CIvoid?5?$CK?$CJ?50?$CJ@ 00000000000065e0     UefiRuntimeServicesTableLib:UefiRuntimeServicesTableLib.obj
 0002:00001560       ??_C@_0FI@ELFALICJ@d?3?2myedk2?2edk2?2MdePkg?2Library?2U@ 0000000000006600     UefiRuntimeServicesTableLib:UefiRuntimeServicesTableLib.obj
 0002:000015c0       ??_C@_0FG@PKIHNGDJ@d?3?2myedk2?2edk2?2MdePkg?2Library?2U@ 0000000000006660     UefiDevicePathLibDevicePathProtocol:UefiDevicePathLib.obj
 0002:00001618       ??_C@_0DC@CNNBPJA@mDevicePathLibDevicePathUtiliti@ 00000000000066b8     UefiDevicePathLibDevicePathProtocol:UefiDevicePathLib.obj
 0002:00001650       ??_C@_0DI@BANHGNLM@d?3?2myedk2?2edk2?2MdePkg?2Library?2U@ 00000000000066f0     UefiLib:UefiDriverModel.obj
 0002:00001688       ??_C@_0DB@IMLKCNBK@d?3?2myedk2?2edk2?2MdePkg?2Library?2D@ 0000000000006728     DxeHobLib:HobLib.obj
 0002:000016c0       ??_C@_0BJ@OBFMLLDO@mHobList?5?$CB?$DN?5?$CI?$CIvoid?5?$CK?$CJ?50?$CJ@ 0000000000006760     DxeHobLib:HobLib.obj
 0002:000016e0       ??_C@_0BJ@NOLLDKJB@HobStart?5?$CB?$DN?5?$CI?$CIvoid?5?$CK?$CJ?50?$CJ@ 0000000000006780     DxeHobLib:HobLib.obj
 0002:00001700       ??_C@_0BO@CEBGFDFP@BytesPerPixel?5?$CB?$DN?5?$CI?$CIvoid?5?$CK?$CJ?50?$CJ@ 00000000000067a0     FrameBufferBltLib:FrameBufferBltLib.obj
 0002:00001720       ??_C@_0EK@OHFDPNDH@d?3?2myedk2?2edk2?2MdeModulePkg?2Lib@ 00000000000067c0     FrameBufferBltLib:FrameBufferBltLib.obj
 0002:00001770       ??_C@_0CC@IOJKJMJP@?$CIMergedMasks?5?$CG?5Masks?$FLIndex?$FN?$CJ?5?$DN?$DN@ 0000000000006810     FrameBufferBltLib:FrameBufferBltLib.obj
 0002:00001798       ??_C@_0BL@IFADNIPL@?$CFd?3?5shl?3?$CFd?5shr?3?$CFd?5mask?3?$CFx?6@ 0000000000006838     FrameBufferBltLib:FrameBufferBltLib.obj
 0002:000017b8       ??_C@_0BB@OBCDAJNL@MergedMasks?5?$CB?$DN?50@ 0000000000006858     FrameBufferBltLib:FrameBufferBltLib.obj
 0002:000017d0       ??_C@_0BF@ONNGEJHN@Bytes?5per?5pixel?3?5?$CFd?6@ 0000000000006870     FrameBufferBltLib:FrameBufferBltLib.obj
 0002:000017e8       ??_C@_0CN@LABNLNPC@FrameBufferInfo?9?$DOPixelFormat?5?$CB?$DN@ 0000000000006888     FrameBufferBltLib:FrameBufferBltLib.obj
 0002:00001818       ??_C@_0BM@DCDIIHCL@VideoFill?3?5Past?5screen?5?$CIY?$CJ?6@ 00000000000068b8     FrameBufferBltLib:FrameBufferBltLib.obj
 0002:00001838       ??_C@_0BM@IKIEOAEO@VideoFill?3?5Past?5screen?5?$CIX?$CJ?6@ 00000000000068d8     FrameBufferBltLib:FrameBufferBltLib.obj
 0002:00001858       ??_C@_0CB@KCLILPEE@VideoFill?3?5Width?5or?5Height?5is?50@ 00000000000068f8     FrameBufferBltLib:FrameBufferBltLib.obj
 0002:00001880       ??_C@_0CH@NBIEGODH@VideoFill?3?5color?$DN0x?$CFx?0?5wide?9fil@ 0000000000006920     FrameBufferBltLib:FrameBufferBltLib.obj
 0002:000018a8       ??_C@_0BM@FDOEAIKD@VideoFill?5?$CIwide?0?5one?9shot?$CJ?6@ 0000000000006948     FrameBufferBltLib:FrameBufferBltLib.obj
 0002:000018c8       ??_C@_0BC@GMIMICOL@VideoFill?5?$CIwide?$CJ?6@ 0000000000006968     FrameBufferBltLib:FrameBufferBltLib.obj
 0002:000018e0       ??_C@_0BG@HFFGFLFF@VideoFill?5?$CInot?5wide?$CJ?6@ 0000000000006980     FrameBufferBltLib:FrameBufferBltLib.obj
 0002:00001900       mBgrPixelMasks             00000000000069a0     FrameBufferBltLib:FrameBufferBltLib.obj
 0002:00001910       mRgbPixelMasks             00000000000069b0     FrameBufferBltLib:FrameBufferBltLib.obj
 0002:00001920       ??_C@_0BP@LHBKJBMC@PlatformInfoHob?5is?5not?5found?4?6@ 00000000000069c0     DxeAcpiTimerLib:DxeAcpiTimerLib.obj
 0002:00001940       ??_C@_0DO@DECBCOF@d?3?2myedk2?2edk2?2OvmfPkg?2Library?2@ 00000000000069e0     DxeAcpiTimerLib:DxeAcpiTimerLib.obj
 0002:00001980       ??_C@_0BI@HAGPDMHJ@AcpiTimerLibConstructor@ 0000000000006a20     DxeAcpiTimerLib:DxeAcpiTimerLib.obj
 0002:00001998       ??_C@_0CL@DGCOIACG@?$CFa?3?5Unknown?5Host?5Bridge?5Device?5@ 0000000000006a38     DxeAcpiTimerLib:DxeAcpiTimerLib.obj
 0002:000019c8       ??_C@_0DC@DDBICJIK@d?3?2myedk2?2edk2?2MdePkg?2Library?2B@ 0000000000006a68     BaseLib:Unaligned.obj
 0002:00001a00       ??_C@_0N@KGHEHMDL@Divisor?5?$CB?$DN?50@ 0000000000006aa0     BaseLib:DivU64x32Remainder.obj
 0002:00001a10       ??_C@_0DL@JEBMKBEC@d?3?2myedk2?2edk2?2MdePkg?2Library?2B@ 0000000000006ab0     BaseLib:DivU64x32Remainder.obj
 0002:00001a50       ??_C@_0CC@GFNLNIOC@?$CI?$CIUINTN?$CJString?5?$CG?50x00000001?$CJ?5?$DN?$DN@ 0000000000006af0     BaseLib:SafeString.obj
 0002:00001a78       ??_C@_0DD@OKIGPFG@d?3?2myedk2?2edk2?2MdePkg?2Library?2B@ 0000000000006b18     BaseLib:SafeString.obj
 0002:00001ab0       ??_C@_0BH@MAAHKCPC@String?5?$CB?$DN?5?$CI?$CIvoid?5?$CK?$CJ?50?$CJ@ 0000000000006b50     BaseLib:String.obj
 0002:00001ac8       ??_C@_0CP@DJBLNMJI@d?3?2myedk2?2edk2?2MdePkg?2Library?2B@ 0000000000006b68     BaseLib:String.obj
 0002:00001af8       ??_C@_0DI@MDIKFADO@Length?5?$DM?5_gPcd_FixedAtBuild_Pcd@ 0000000000006b98     BaseLib:String.obj
 0002:00001b30       ??_C@_0BL@IKFBNFIL@AsciiStrSize?5?$CIFirstString?$CJ@ 0000000000006bd0     BaseLib:String.obj
 0002:00001b50       ??_C@_0BM@EDNOKLLE@AsciiStrSize?5?$CISecondString?$CJ@ 0000000000006bf0     BaseLib:String.obj
 0002:00001b70       ??_C@_0DJ@JJHGIFMP@Length?5?$DM?$DN?5_gPcd_FixedAtBuild_Pc@ 0000000000006c10     BaseLib:String.obj
 0002:00001bb0       ??_C@_0DI@DAGDPLPG@?$CILength?5?9?51?$CJ?5?$DM?$DN?5?$CI0xFFFFFFFFFFFF@ 0000000000006c50     BaseMemoryLibRepStr:SetMemWrapper.obj
 0002:00001bf0       ??_C@_0EC@NJPJFNGD@d?3?2myedk2?2edk2?2MdePkg?2Library?2B@ 0000000000006c90     BaseMemoryLibRepStr:SetMemWrapper.obj
 0002:00001c40       ??_C@_0EE@OOKBMMBN@d?3?2myedk2?2edk2?2MdePkg?2Library?2B@ 0000000000006ce0     BaseMemoryLibRepStr:SetMem64Wrapper.obj
 0002:00001c88       ??_C@_0CO@LECKNDNC@?$CI?$CI?$CIUINTN?$CJBuffer?$CJ?5?$CG?5?$CIsizeof?5?$CIVal@ 0000000000006d28     BaseMemoryLibRepStr:SetMem64Wrapper.obj
 0002:00001cb8       ??_C@_0CF@LEICOABD@?$CILength?5?$CG?5?$CIsizeof?5?$CIValue?$CJ?5?9?51?$CJ?$CJ@ 0000000000006d58     BaseMemoryLibRepStr:SetMem64Wrapper.obj
 0002:00001ce0       ??_C@_0EE@JOLHHBEO@d?3?2myedk2?2edk2?2MdePkg?2Library?2B@ 0000000000006d80     BaseMemoryLibRepStr:SetMem32Wrapper.obj
 0002:00001d28       ??_C@_0DM@HGIGHENF@d?3?2myedk2?2edk2?2MdePkg?2Library?2B@ 0000000000006dc8     BaseIoLibIntrinsicSev:IoLibMsc.obj
 0002:00001d68       ??_C@_0BA@HCECIDGN@?$CIPort?5?$CG?53?$CJ?5?$DN?$DN?50@ 0000000000006e08     BaseIoLibIntrinsicSev:IoLibMsc.obj
 0002:00001d78       ??_C@_0BD@OMMAJMCK@?$CIAddress?5?$CG?53?$CJ?5?$DN?$DN?50@ 0000000000006e18     BaseIoLibIntrinsicSev:IoLibInternalTdx.obj
 0002:00001d90       ??_C@_0BO@BAKALPJK@?$CI?$CIAddress?$CJ?5?$CG?5?$HO0xfffffff?$CJ?5?$DN?$DN?50@ 0000000000006e30     BasePciExpressLib:PciExpressLib.obj
 0002:00001db0       ??_C@_0EA@GAFEKIHN@d?3?2myedk2?2edk2?2MdePkg?2Library?2B@ 0000000000006e50     BasePciExpressLib:PciExpressLib.obj
 0002:00001df0       ??_C@_0CG@KIJMJHBN@?$CI?$CIAddress?$CJ?5?$CG?5?$CI?$HO0xffff0ff?5?$HM?5?$CI0?$CJ?$CJ@ 0000000000006e90     BasePciCf8Lib:PciCf8Lib.obj
 0002:00001e18       ??_C@_0DI@EGELJHOH@d?3?2myedk2?2edk2?2MdePkg?2Library?2B@ 0000000000006eb8     BasePciCf8Lib:PciCf8Lib.obj
 0002:00001e50       ??_C@_0CG@EDKLCMBO@?$CI?$CIAddress?$CJ?5?$CG?5?$CI?$HO0xffff0ff?5?$HM?5?$CI3?$CJ?$CJ@ 0000000000006ef0     BasePciCf8Lib:PciCf8Lib.obj
 0002:00001e78       ??_C@_0DJ@PLEMCDAL@d?3?2myedk2?2edk2?2MdePkg?2Library?2B@ 0000000000006f18     BaseIoLibIntrinsicSev:IoLib.obj
 0002:00001f08       __volatile_metadata        0000000000006fa8     <linker-defined>
 0003:00000000       gEfiComponentName2ProtocolGuid 0000000000007120     QemuVideoDxe:AutoGen.obj
 0003:00000010       gPcdProtocolGuid           0000000000007130     QemuVideoDxe:AutoGen.obj
 0003:00000020       gEfiDevicePathProtocolGuid 0000000000007140     QemuVideoDxe:AutoGen.obj
 0003:00000030       gEfiPciIoProtocolGuid      0000000000007150     QemuVideoDxe:AutoGen.obj
 0003:00000040       gUefiOvmfPkgPlatformInfoGuid 0000000000007160     QemuVideoDxe:AutoGen.obj
 0003:00000050       gEfiDevicePathUtilitiesProtocolGuid 0000000000007170     QemuVideoDxe:AutoGen.obj
 0003:00000060       gEfiGraphicsOutputProtocolGuid 0000000000007180     QemuVideoDxe:AutoGen.obj
 0003:00000070       gEfiHobListGuid            0000000000007190     QemuVideoDxe:AutoGen.obj
 0003:00000080       gEfiDriverBindingProtocolGuid 00000000000071a0     QemuVideoDxe:AutoGen.obj
 0003:00000090       gEfiComponentNameProtocolGuid 00000000000071b0     QemuVideoDxe:AutoGen.obj
 0003:000000a0       gQemuVideoDriverBinding    00000000000071c0     QemuVideoDxe:Driver.obj
 0003:000000d0       gQemuVideoCardList         00000000000071f0     QemuVideoDxe:Driver.obj
 0003:000001b0       QemuVideoCirrusModes       00000000000072d0     QemuVideoDxe:Initialize.obj
 0003:00000228       Crtc_640_480_32bpp_60      0000000000007348     QemuVideoDxe:Initialize.obj
 0003:00000248       Crtc_1024_768_24bpp_60     0000000000007368     QemuVideoDxe:Initialize.obj
 0003:00000398       Seq_640_480_32bpp_60       00000000000074b8     QemuVideoDxe:Initialize.obj
 0003:000003b8       Seq_1024_768_24bpp_60      00000000000074d8     QemuVideoDxe:Initialize.obj
 0003:000003d8       Crtc_800_600_32bpp_60      00000000000074f8     QemuVideoDxe:Initialize.obj
 0003:000003f8       Seq_800_600_32bpp_60       0000000000007518     QemuVideoDxe:Initialize.obj
 0003:00000418       gQemuVideoComponentName2   0000000000007538     QemuVideoDxe:ComponentName.obj
 0003:00000430       gQemuVideoComponentName    0000000000007550     QemuVideoDxe:ComponentName.obj
 0003:00000450       mQemuVideoControllerNameTable 0000000000007570     QemuVideoDxe:ComponentName.obj
 0003:00000470       mQemuVideoDriverNameTable  0000000000007590     QemuVideoDxe:ComponentName.obj
 0003:00000490       mPcd                       00000000000075b0     DxePcdLib:DxePcdLib.obj
 0003:00000498       gST                        00000000000075b8     UefiBootServicesTableLib:UefiBootServicesTableLib.obj
 0003:000004a0       gBS                        00000000000075c0     UefiBootServicesTableLib:UefiBootServicesTableLib.obj
 0003:000004a8       gImageHandle               00000000000075c8     UefiBootServicesTableLib:UefiBootServicesTableLib.obj
 0003:000004b0       gRT                        00000000000075d0     UefiRuntimeServicesTableLib:UefiRuntimeServicesTableLib.obj
 0003:000004b8       mDevicePathLibDevicePathUtilities 00000000000075d8     UefiDevicePathLibDevicePathProtocol:UefiDevicePathLib.obj
 0003:000004c0       mHobList                   00000000000075e0     DxeHobLib:HobLib.obj
 0003:000004c8       gParity                    00000000000075e8     PcAtSerialPortLib:SerialPortLib.obj
 0003:000004c9       gBreakSet                  00000000000075e9     PcAtSerialPortLib:SerialPortLib.obj

 entry point at        0001:000001e8

 Static symbols

 0001:0000003a       InternalMemCopyMem.0       00000000000002fa     BaseMemoryLibRepStr:CopyMem.obj
 0001:0000004a       @CopyBackward              000000000000030a     BaseMemoryLibRepStr:CopyMem.obj
 0001:00000053       @CopyBytes                 0000000000000313     BaseMemoryLibRepStr:CopyMem.obj
 0001:0000012e       TdVmCall.no_return_data    00000000000003ee     BaseLib:TdVmcall.obj
 0001:000001db       TdCall.exit                000000000000049b     BaseLib:TdCall.obj
 0001:000005d4       QemuVideoDetect            0000000000000894 f   QemuVideoDxe:Driver.obj
 0001:00001484       QemuVideoCompleteModeInfo  0000000000001744 f   QemuVideoDxe:Gop.obj
 0001:00001508       QemuVideoCompleteModeData  00000000000017c8 f   QemuVideoDxe:Gop.obj
 0001:00001bc8       QemuVideoBochsAddMode      0000000000001e88 f   QemuVideoDxe:Initialize.obj
 0001:00001c54       QemuVideoBochsEdid         0000000000001f14 f   QemuVideoDxe:Initialize.obj
 0002:000007e0       mVbeShim                   0000000000005880     QemuVideoDxe:VbeShim.obj
 0002:00000b38       mProductRevision           0000000000005bd8     QemuVideoDxe:VbeShim.obj
 0003:00000270       QemuVideoBochsModes        0000000000007390     QemuVideoDxe:Initialize.obj
 0003:000004ca       mRunningOnQ35              00000000000075ea     DxePciLibI440FxQ35:PciLib.obj
 0005:00000000       $unwind$MmioRead32         0000000000007920     BaseIoLibIntrinsicSev:IoLib.obj
 0005:00000000       $unwind$IoRead32           0000000000007920     BaseIoLibIntrinsicSev:IoLibMsc.obj
 0005:00000000       $unwind$SaveAndDisableInterrupts 0000000000007920     BaseLib:Cpu.obj
 0005:00000000       $unwind$StrnLenS           0000000000007920     BaseLib:SafeString.obj
 0005:00000000       $unwind$PciExpressRead32   0000000000007920     BasePciExpressLib:PciExpressLib.obj
 0005:00000000       $unwind$PciExpressRead8    0000000000007920     BasePciExpressLib:PciExpressLib.obj
 0005:00000000       $unwind$_ModuleEntryPoint  0000000000007920     UefiDriverEntryPoint:DriverEntryPoint.obj
 0005:00000000       $unwind$QemuVideoCompleteModeInfo 0000000000007920     QemuVideoDxe:Gop.obj
 0005:00000000       $unwind$QemuVideoGraphicsOutputDestructor 0000000000007920     QemuVideoDxe:Gop.obj
 0005:00000008       $unwind$LookupUnicodeString2 0000000000007928     UefiLib:UefiLib.obj
 0005:00000008       $unwind$ProcessLibraryConstructorList 0000000000007928     QemuVideoDxe:AutoGen.obj
 0005:00000020       $unwind$ProcessModuleEntryPointList 0000000000007940     QemuVideoDxe:AutoGen.obj
 0005:0000002c       $unwind$QemuVideoControllerDriverSupported 000000000000794c     QemuVideoDxe:Driver.obj
 0005:0000003c       $unwind$QemuVideoControllerDriverStart 000000000000795c     QemuVideoDxe:Driver.obj
 0005:00000058       $unwind$QemuVideoControllerDriverStop 0000000000007978     QemuVideoDxe:Driver.obj
 0005:0000006c       $unwind$BasePrintLibSPrint 000000000000798c     BasePrintLib:PrintLibInternal.obj
 0005:0000006c       $unwind$VgaOutb            000000000000798c     QemuVideoDxe:Driver.obj
 0005:0000006c       $unwind$outb               000000000000798c     QemuVideoDxe:Driver.obj
 0005:00000074       $unwind$outw               0000000000007994     QemuVideoDxe:Driver.obj
 0005:0000007c       $unwind$SetDefaultPalette  000000000000799c     QemuVideoDxe:Driver.obj
 0005:00000098       $unwind$InitializeCirrusGraphicsMode 00000000000079b8     QemuVideoDxe:Driver.obj
 0005:000000ac       $unwind$BochsWrite         00000000000079cc     QemuVideoDxe:Driver.obj
 0005:000000b4       $unwind$BochsRead          00000000000079d4     QemuVideoDxe:Driver.obj
 0005:000000bc       $unwind$InitializeBochsGraphicsMode 00000000000079dc     QemuVideoDxe:Driver.obj
 0005:000000c8       $unwind$QemuVideoCompleteModeData 00000000000079e8     QemuVideoDxe:Gop.obj
 0005:000000dc       $unwind$FrameBufferBltLibVideoToVideo 00000000000079fc     FrameBufferBltLib:FrameBufferBltLib.obj
 0005:000000dc       $unwind$QemuVideoGraphicsOutputQueryMode 00000000000079fc     QemuVideoDxe:Gop.obj
 0005:000000f4       $unwind$QemuVideoGraphicsOutputSetMode 0000000000007a14     QemuVideoDxe:Gop.obj
 0005:00000108       $unwind$QemuVideoGraphicsOutputBlt 0000000000007a28     QemuVideoDxe:Gop.obj
 0005:00000120       $unwind$QemuVideoGraphicsOutputConstructor 0000000000007a40     QemuVideoDxe:Gop.obj
 0005:00000138       $unwind$QemuVideoCirrusModeSetup 0000000000007a58     QemuVideoDxe:Initialize.obj
 0005:0000014c       $unwind$QemuVideoBochsAddMode 0000000000007a6c     QemuVideoDxe:Initialize.obj
 0005:00000158       $unwind$QemuVideoBochsEdid 0000000000007a78     QemuVideoDxe:Initialize.obj
 0005:0000016c       $unwind$QemuVideoBochsModeSetup 0000000000007a8c     QemuVideoDxe:Initialize.obj
 0005:00000180       $unwind$InstallVbeShim     0000000000007aa0     QemuVideoDxe:VbeShim.obj
 0005:00000198       $unwind$QemuVideoComponentNameGetDriverName 0000000000007ab8     QemuVideoDxe:ComponentName.obj
 0005:000001a0       $unwind$QemuVideoComponentNameGetControllerName 0000000000007ac0     QemuVideoDxe:ComponentName.obj
 0005:000001b4       $unwind$GetPcdProtocol     0000000000007ad4     DxePcdLib:DxePcdLib.obj
 0005:000001b4       $unwind$FreePool           0000000000007ad4     UefiMemoryAllocationLib:MemoryAllocationLib.obj
 0005:000001b4       $unwind$InternalAllocatePool 0000000000007ad4     UefiMemoryAllocationLib:MemoryAllocationLib.obj
 0005:000001bc       $unwind$AsciiStrLen        0000000000007adc     BaseLib:String.obj
 0005:000001bc       $unwind$ZeroMem            0000000000007adc     BaseMemoryLibRepStr:ZeroMemWrapper.obj
 0005:000001bc       $unwind$PciCf8Read8        0000000000007adc     BasePciCf8Lib:PciCf8Lib.obj
 0005:000001bc       $unwind$PciExpressWrite8   0000000000007adc     BasePciExpressLib:PciExpressLib.obj
 0005:000001c8       $unwind$CopyMem            0000000000007ae8     BaseMemoryLibRepStr:CopyMemWrapper.obj
 0005:000001dc       $unwind$AsciiSPrint        0000000000007afc     BasePrintLib:PrintLib.obj
 0005:000001e4       $unwind$AsciiStrnCmp       0000000000007b04     BaseLib:String.obj
 0005:000001e4       $unwind$SetMem32           0000000000007b04     BaseMemoryLibRepStr:SetMem32Wrapper.obj
 0005:000001e4       $unwind$SetMem64           0000000000007b04     BaseMemoryLibRepStr:SetMem64Wrapper.obj
 0005:000001e4       $unwind$SetMem             0000000000007b04     BaseMemoryLibRepStr:SetMemWrapper.obj
 0005:000001e4       $unwind$PciCf8Read32       0000000000007b04     BasePciCf8Lib:PciCf8Lib.obj
 0005:000001e4       $unwind$PciCf8Write8       0000000000007b04     BasePciCf8Lib:PciCf8Lib.obj
 0005:000001e4       $unwind$BasePrintLibValueToString 0000000000007b04     BasePrintLib:PrintLibInternal.obj
 0005:000001e4       $unwind$GetHobList         0000000000007b04     DxeHobLib:HobLib.obj
 0005:000001e4       $unwind$IsLanguageSupported 0000000000007b04     UefiLib:UefiLib.obj
 0005:000001f4       $unwind$BasePrintLibSPrintMarker 0000000000007b14     BasePrintLib:PrintLibInternal.obj
 0005:00000210       $unwind$DebugPrint         0000000000007b30     BaseDebugLibSerialPort:DebugLib.obj
 0005:00000218       $unwind$DebugPrintMarker   0000000000007b38     BaseDebugLibSerialPort:DebugLib.obj
 0005:0000022c       $unwind$DebugAssert        0000000000007b4c     BaseDebugLibSerialPort:DebugLib.obj
 0005:00000234       $unwind$FrameBufferBltLibConfigurePixelFormat 0000000000007b54     FrameBufferBltLib:FrameBufferBltLib.obj
 0005:00000250       $unwind$FrameBufferBltConfigure 0000000000007b70     FrameBufferBltLib:FrameBufferBltLib.obj
 0005:00000268       $unwind$FrameBufferBltLibVideoFill 0000000000007b88     FrameBufferBltLib:FrameBufferBltLib.obj
 0005:00000280       $unwind$FrameBufferBltLibBufferToVideo 0000000000007ba0     FrameBufferBltLib:FrameBufferBltLib.obj
 0005:00000280       $unwind$FrameBufferBltLibVideoToBltBuffer 0000000000007ba0     FrameBufferBltLib:FrameBufferBltLib.obj
 0005:00000298       $unwind$FrameBufferBlt     0000000000007bb8     FrameBufferBltLib:FrameBufferBltLib.obj
 0005:000002a0       $unwind$CompareGuid        0000000000007bc0     BaseMemoryLibRepStr:MemLibGuid.obj
