 VariableSmm

 Timestamp is 62c3c33c (Tue Jul  5 12:51:08 2022)

 Preferred load address is 0000000000000000

 Start         Length     Name                   Class
 0001:00000000 00000428H .text                   CODE
 0001:00000428 000733d1H .text$mn                CODE
 0002:00000000 0003fca4H .rdata                  DATA
 0002:0003fca4 00000574H .rdata$voltmd           DATA
 0002:00040218 00000150H .rdata$zzzdbg           DATA
 0003:00000000 00001840H .data                   DATA
 0003:00001840 00004e40H .bss                    DATA
 0004:00000000 000040b0H .pdata                  DATA
 0005:00000000 0000242cH .xdata                  DATA

  Address         Publics by Value              Rva+Base               Lib:Object

 0000:00000000       __dynamic_value_reloc_table 0000000000000000     <absolute>
 0000:00000000       __guard_iat_count          0000000000000000     <absolute>
 0000:00000000       __hybrid_auxiliary_iat     0000000000000000     <absolute>
 0000:00000000       __hybrid_auxiliary_iat_copy 0000000000000000     <absolute>
 0000:00000000       __guard_iat_table          0000000000000000     <absolute>
 0000:00000000       __arm64x_redirection_metadata 0000000000000000     <absolute>
 0000:00000000       __x64_code_ranges_to_entry_points_count 0000000000000000     <absolute>
 0000:00000000       __AbsoluteZero             0000000000000000     <absolute>
 0000:00000000       __guard_check_icall_a64n_fptr 0000000000000000     <absolute>
 0000:00000000       __guard_longjmp_count      0000000000000000     <absolute>
 0000:00000000       __guard_longjmp_table      0000000000000000     <absolute>
 0000:00000000       __guard_fids_table         0000000000000000     <absolute>
 0000:00000000       __x64_code_ranges_to_entry_points 0000000000000000     <absolute>
 0000:00000000       __guard_fids_count         0000000000000000     <absolute>
 0000:00000000       __arm64x_extra_rfe_table   0000000000000000     <absolute>
 0000:00000000       __hybrid_code_map          0000000000000000     <absolute>
 0000:00000000       __arm64x_extra_rfe_table_size 0000000000000000     <absolute>
 0000:00000000       __arm64x_redirection_metadata_count 0000000000000000     <absolute>
 0000:00000000       __enclave_config           0000000000000000     <absolute>
 0000:00000000       __guard_eh_cont_table      0000000000000000     <absolute>
 0000:00000000       __arm64x_native_entrypoint 0000000000000000     <absolute>
 0000:00000000       __guard_flags              0000000000000000     <absolute>
 0000:00000000       __guard_eh_cont_count      0000000000000000     <absolute>
 0000:00000000       __hybrid_code_map_count    0000000000000000     <absolute>
 0000:00000000       __ImageBase                0000000000000000     <linker-defined>
 0001:00000000       InternalMemCopyMem         00000000000002c0     BaseMemoryLibRepStr:CopyMem.obj
 0001:00000040       InternalMemCompareMem      0000000000000300     BaseMemoryLibRepStr:CompareMem.obj
 0001:00000060       InternalMemZeroMem         0000000000000320     BaseMemoryLibRepStr:ZeroMem.obj
 0001:00000080       InternalMemSetMem          0000000000000340     BaseMemoryLibRepStr:SetMem.obj
 0001:000000a0       InternalMemSetMem64        0000000000000360     BaseMemoryLibRepStr:SetMem64.obj
 0001:000000c0       InternalMemSetMem32        0000000000000380     BaseMemoryLibRepStr:SetMem32.obj
 0001:000000e0       SetJump                    00000000000003a0     BaseLib:SetJump.obj
 0001:000001b0       InternalLongJump           0000000000000470     BaseLib:LongJump.obj
 0001:00000260       AsmLfence                  0000000000000520     BaseLib:Lfence.obj
 0001:00000270       AsmCpuid                   0000000000000530     BaseLib:CpuId.obj
 0001:000002a0       CpuPause                   0000000000000560     BaseLib:CpuPause.obj
 0001:000002b0       TdVmCall                   0000000000000570     BaseLib:TdVmcall.obj
 0001:00000340       EnableInterrupts           0000000000000600     BaseLib:EnableInterrupts.obj
 0001:00000350       DisableInterrupts          0000000000000610     BaseLib:DisableInterrupts.obj
 0001:00000360       AsmReadEflags              0000000000000620     BaseLib:ReadEflags.obj
 0001:00000370       InternalMemScanMem8        0000000000000630     BaseMemoryLibRepStr:ScanMem8.obj
 0001:00000390       InternalMemScanMem64       0000000000000650     BaseMemoryLibRepStr:ScanMem64.obj
 0001:000003b0       InternalMemScanMem32       0000000000000670     BaseMemoryLibRepStr:ScanMem32.obj
 0001:000003d0       TdCall                     0000000000000690     BaseLib:TdCall.obj
 0001:00000428       _ModuleEntryPoint          00000000000006e8 f   UefiDriverEntryPoint:DriverEntryPoint.obj
 0001:00000450       ProcessLibraryConstructorList 0000000000000710 f   VariableSmm:AutoGen.obj
 0001:00000b3c       ProcessLibraryDestructorList 0000000000000dfc f   VariableSmm:AutoGen.obj
 0001:00000b98       ProcessModuleEntryPointList 0000000000000e58 f   VariableSmm:AutoGen.obj
 0001:00000c44       SmmVariableSetVariable     0000000000000f04 f   VariableSmm:VariableSmm.obj
 0001:00000c70       SmmVariableGetStatistics   0000000000000f30 f   VariableSmm:VariableSmm.obj
 0001:00000e00       SmmVariableHandler         00000000000010c0 f   VariableSmm:VariableSmm.obj
 0001:00001578       SmmEndOfDxeCallback        0000000000001838 f   VariableSmm:VariableSmm.obj
 0001:000015f0       VariableWriteServiceInitializeSmm 00000000000018b0 f   VariableSmm:VariableSmm.obj
 0001:00001670       SmmFtwNotificationEvent    0000000000001930 f   VariableSmm:VariableSmm.obj
 0001:000017e4       MmVariableServiceInitialize 0000000000001aa4 f   VariableSmm:VariableSmm.obj
 0001:00001bac       UpdateVariableStore        0000000000001e6c f   VariableSmm:Variable.obj
 0001:00001dd4       RecordVarErrorFlag         0000000000002094 f   VariableSmm:Variable.obj
 0001:00001f84       InitializeVarErrorFlag     0000000000002244 f   VariableSmm:Variable.obj
 0001:00002058       IsUserVariable             0000000000002318 f   VariableSmm:Variable.obj
 0001:000020cc       CalculateCommonUserVariableTotalSize 000000000000238c f   VariableSmm:Variable.obj
 0001:000021e4       Reclaim                    00000000000024a4 f   VariableSmm:Variable.obj
 0001:00002974       FindVariable               0000000000002c34 f   VariableSmm:Variable.obj
 0001:00002a68       GetIndexFromSupportedLangCodes 0000000000002d28 f   VariableSmm:Variable.obj
 0001:00002b74       GetLangFromSupportedLangCodes 0000000000002e34 f   VariableSmm:Variable.obj
 0001:00002c3c       VariableGetBestLanguage    0000000000002efc f   VariableSmm:Variable.obj
 0001:00002d74       CheckRemainingSpaceForConsistencyInternal 0000000000003034 f   VariableSmm:Variable.obj
 0001:00002efc       CheckRemainingSpaceForConsistency 00000000000031bc f   VariableSmm:Variable.obj
 0001:00002efc       VariableExLibCheckRemainingSpaceForConsistency 00000000000031bc f   VariableSmm:VariableExLib.obj
 0001:00002f20       AutoUpdateLangVariable     00000000000031e0 f   VariableSmm:Variable.obj
 0001:00003400       UpdateVariable             00000000000036c0 f   VariableSmm:Variable.obj
 0001:00004004       VariableServiceGetVariable 00000000000042c4 f   VariableSmm:Variable.obj
 0001:00004168       VariableServiceGetNextVariableName 0000000000004428 f   VariableSmm:Variable.obj
 0001:000042bc       VariableServiceSetVariable 000000000000457c f   VariableSmm:Variable.obj
 0001:000047e8       VariableServiceQueryVariableInfoInternal 0000000000004aa8 f   VariableSmm:Variable.obj
 0001:00004a4c       VariableServiceQueryVariableInfo 0000000000004d0c f   VariableSmm:Variable.obj
 0001:00004ac4       ReclaimForOS               0000000000004d84 f   VariableSmm:Variable.obj
 0001:00004b6c       FlushHobVariableToFlash    0000000000004e2c f   VariableSmm:Variable.obj
 0001:00004e30       VariableWriteServiceInitialize 00000000000050f0 f   VariableSmm:Variable.obj
 0001:00005060       ConvertNormalVarStorageToAuthVarStorage 0000000000005320 f   VariableSmm:Variable.obj
 0001:000052a4       GetHobVariableStore        0000000000005564 f   VariableSmm:Variable.obj
 0001:00005438       GetFvbInfoByAddress        00000000000056f8 f   VariableSmm:Variable.obj
 0001:000055f4       VarCheckRegisterSetVariableCheckHandler 00000000000058b4 f   VariableSmm:VarCheck.obj
 0001:000055fc       VarCheckVariablePropertySet 00000000000058bc f   VariableSmm:VarCheck.obj
 0001:00005604       VarCheckVariablePropertyGet 00000000000058c4 f   VariableSmm:VarCheck.obj
 0001:0000560c       GetVariableStoreStatus     00000000000058cc f   VariableSmm:VariableParsing.obj
 0001:00005684       NameSizeOfVariable         0000000000005944 f   VariableSmm:VariableParsing.obj
 0001:000056bc       DataSizeOfVariable         000000000000597c f   VariableSmm:VariableParsing.obj
 0001:000056f4       FindVariableEx             00000000000059b4 f   VariableSmm:VariableParsing.obj
 0001:0000588c       VariableServiceGetNextVariableInternal 0000000000005b4c f   VariableSmm:VariableParsing.obj
 0001:00005bf0       VariableLockRequestToLock  0000000000005eb0 f   VariableSmm:VariableLockRequestToLock.obj
 0001:00005d3c       FlushPendingRuntimeVariableCacheUpdates 0000000000005ffc f   VariableSmm:VariableRuntimeCache.obj
 0001:00005e0c       SynchronizeRuntimeVariableCache 00000000000060cc f   VariableSmm:VariableRuntimeCache.obj
 0001:00005e88       SetMorLockVariable         0000000000006148 f   VariableSmm:TcgMorLockSmm.obj
 0001:00005ecc       SetVariableCheckHandlerMorLock 000000000000618c f   VariableSmm:TcgMorLockSmm.obj
 0001:00006094       SetVariableCheckHandlerMor 0000000000006354 f   VariableSmm:TcgMorLockSmm.obj
 0001:000061c0       MorLockInitAtEndOfDxe      0000000000006480 f   VariableSmm:TcgMorLockSmm.obj
 0001:0000645c       InitRealNonVolatileVariableStore 000000000000671c f   VariableSmm:VariableNonVolatile.obj
 0001:00006760       InitNonVolatileVariableStore 0000000000006a20 f   VariableSmm:VariableNonVolatile.obj
 0001:0000685c       GetLbaAndOffsetByAddress   0000000000006b1c f   VariableSmm:Reclaim.obj
 0001:00006910       FtwVariableSpace           0000000000006bd0 f   VariableSmm:Reclaim.obj
 0001:000069e4       VariableExLibFindVariable  0000000000006ca4 f   VariableSmm:VariableExLib.obj
 0001:00006abc       VariableExLibFindNextVariable 0000000000006d7c f   VariableSmm:VariableExLib.obj
 0001:00006be8       VariableExLibUpdateVariable 0000000000006ea8 f   VariableSmm:VariableExLib.obj
 0001:00006c54       VariableExLibGetScratchBuffer 0000000000006f14 f   VariableSmm:VariableExLib.obj
 0001:00006c90       VariableExLibAtRuntime     0000000000006f50 f   VariableSmm:VariableExLib.obj
 0001:00006c98       GetPcdProtocol             0000000000006f58 f   DxePcdLib:DxePcdLib.obj
 0001:00006d24       CopyGuid                   0000000000006fe4 f   BaseMemoryLibRepStr:MemLibGuid.obj
 0001:00006dd4       CompareGuid                0000000000007094 f   BaseMemoryLibRepStr:MemLibGuid.obj
 0001:00006e98       CopyMem                    0000000000007158 f   BaseMemoryLibRepStr:CopyMemWrapper.obj
 0001:00006f34       CompareMem                 00000000000071f4 f   BaseMemoryLibRepStr:CompareMemWrapper.obj
 0001:0000700c       ZeroMem                    00000000000072cc f   BaseMemoryLibRepStr:ZeroMemWrapper.obj
 0001:0000707c       SetMem                     000000000000733c f   BaseMemoryLibRepStr:SetMemWrapper.obj
 0001:000070e0       StrLen                     00000000000073a0 f   BaseLib:String.obj
 0001:00007168       StrCmp                     0000000000007428 f   BaseLib:String.obj
 0001:00007210       StrnCmp                    00000000000074d0 f   BaseLib:String.obj
 0001:000072f8       AsciiStrLen                00000000000075b8 f   BaseLib:String.obj
 0001:00007364       AsciiStrCmp                0000000000007624 f   BaseLib:String.obj
 0001:000073f0       AsciiStriCmp               00000000000076b0 f   BaseLib:String.obj
 0001:000074dc       AsciiStrnCmp               000000000000779c f   BaseLib:String.obj
 0001:000075a8       StrnLenS                   0000000000007868 f   BaseLib:SafeString.obj
 0001:00007610       StrCpyS                    00000000000078d0 f   BaseLib:SafeString.obj
 0001:000077b4       AsciiStrnCpyS              0000000000007a74 f   BaseLib:SafeString.obj
 0001:00007904       AsciiStrCatS               0000000000007bc4 f   BaseLib:SafeString.obj
 0001:00007a78       AsciiStrDecimalToUintnS    0000000000007d38 f   BaseLib:SafeString.obj
 0001:00007b90       InternalAssertJumpBuffer   0000000000007e50 f   BaseLib:SetJump.obj
 0001:00007bc8       LShiftU64                  0000000000007e88 f   BaseLib:LShiftU64.obj
 0001:00007c0c       DebugPrint                 0000000000007ecc f   BaseDebugLibSerialPort:DebugLib.obj
 0001:00007c30       DebugPrintMarker           0000000000007ef0 f   BaseDebugLibSerialPort:DebugLib.obj
 0001:00007ce0       DebugAssert                0000000000007fa0 f   BaseDebugLibSerialPort:DebugLib.obj
 0001:00007d58       BufferInSmram              0000000000008018 f   SmmMemoryAllocationLib:MemoryAllocationLib.obj
 0001:00007d9c       InternalAllocatePool       000000000000805c f   SmmMemoryAllocationLib:MemoryAllocationLib.obj
 0001:00007dcc       AllocateZeroPool           000000000000808c f   SmmMemoryAllocationLib:MemoryAllocationLib.obj
 0001:00007df4       InternalAllocateCopyPool   00000000000080b4 f   SmmMemoryAllocationLib:MemoryAllocationLib.obj
 0001:00007e6c       InternalReallocatePool     000000000000812c f   SmmMemoryAllocationLib:MemoryAllocationLib.obj
 0001:00007ee8       FreePool                   00000000000081a8 f   SmmMemoryAllocationLib:MemoryAllocationLib.obj
 0001:00007f4c       IsDevicePathValid          000000000000820c f   UefiDevicePathLibDevicePathProtocol:UefiDevicePathLib.obj
 0001:000080a0       NextDevicePathNode         0000000000008360 f   UefiDevicePathLibDevicePathProtocol:UefiDevicePathLib.obj
 0001:00008110       EfiGetSystemConfigurationTable 00000000000083d0 f   UefiLib:UefiLib.obj
 0001:000081d4       GetHobList                 0000000000008494 f   DxeHobLib:HobLib.obj
 0001:00008258       GetNextGuidHob             0000000000008518 f   DxeHobLib:HobLib.obj
 0001:000084c4       RegisterVariablePolicy     0000000000008784 f   VariablePolicyLib:VariablePolicyLib.obj
 0001:0000863c       ValidateSetVariable        00000000000088fc f   VariablePolicyLib:VariablePolicyLib.obj
 0001:00008844       DumpVariablePolicy         0000000000008b04 f   VariablePolicyLib:VariablePolicyLib.obj
 0001:000088b8       LockVariablePolicy         0000000000008b78 f   VariablePolicyLib:VariablePolicyLib.obj
 0001:000088ec       VariablePropertyGetFunction 0000000000008bac f   VarCheckLib:VarCheckLib.obj
 0001:00008ab4       VarCheckAddTableEntry      0000000000008d74 f   VarCheckLib:VarCheckLib.obj
 0001:00008b30       VarCheckLibInitializeAtEndOfDxe 0000000000008df0 f   VarCheckLib:VarCheckLib.obj
 0001:00008bb8       VarCheckLibRegisterSetVariableCheckHandler 0000000000008e78 f   VarCheckLib:VarCheckLib.obj
 0001:00008c30       VarCheckLibVariablePropertySet 0000000000008ef0 f   VarCheckLib:VarCheckLib.obj
 0001:00008d94       VarCheckLibVariablePropertyGet 0000000000009054 f   VarCheckLib:VarCheckLib.obj
 0001:00008e00       VarCheckLibSetVariableCheck 00000000000090c0 f   VarCheckLib:VarCheckLib.obj
 0001:00008fe8       CreateBasicVariablePolicy  00000000000092a8 f   VariablePolicyHelperLib:VariablePolicyHelperLib.obj
 0001:00009104       SmmIsBufferOutsideSmmValid 00000000000093c4 f   SmmMemLib:SmmMemLib.obj
 0001:0000933c       SmmLibInternalEndOfDxeNotify 00000000000095fc f   SmmMemLib:SmmMemLib.obj
 0001:000096b4       SmmLibInternalReadyToLockNotify 0000000000009974 f   SmmMemLib:SmmMemLib.obj
 0001:000096c0       SmmMemLibConstructor       0000000000009980 f   SmmMemLib:SmmMemLib.obj
 0001:0000995c       AuthVariableLibInitialize  0000000000009c1c f   AuthVariableLib:AuthVariableLib.obj
 0001:00009dc0       AuthVariableLibProcessVariable 000000000000a080 f   AuthVariableLib:AuthVariableLib.obj
 0001:00009f1c       AuthServiceInternalFindVariable 000000000000a1dc f   AuthVariableLib:AuthService.obj
 0001:00009f88       AuthServiceInternalUpdateVariable 000000000000a248 f   AuthVariableLib:AuthService.obj
 0001:00009ffc       AuthServiceInternalUpdateVariableWithTimeStamp 000000000000a2bc f   AuthVariableLib:AuthService.obj
 0001:0000a120       UpdatePlatformMode         000000000000a3e0 f   AuthVariableLib:AuthService.obj
 0001:0000a264       CheckSignatureListFormat   000000000000a524 f   AuthVariableLib:AuthService.obj
 0001:0000a4b4       VendorKeyIsModified        000000000000a774 f   AuthVariableLib:AuthService.obj
 0001:0000a528       ProcessVarWithPk           000000000000a7e8 f   AuthVariableLib:AuthService.obj
 0001:0000a6d8       ProcessVarWithKek          000000000000a998 f   AuthVariableLib:AuthService.obj
 0001:0000a7e0       ProcessVariable            000000000000aaa0 f   AuthVariableLib:AuthService.obj
 0001:0000a984       FilterSignatureList        000000000000ac44 f   AuthVariableLib:AuthService.obj
 0001:0000abb0       CalculatePrivAuthVarSignChainSHA256Digest 000000000000ae70 f   AuthVariableLib:AuthService.obj
 0001:0000ad5c       FindCertsFromDb            000000000000b01c f   AuthVariableLib:AuthService.obj
 0001:0000af28       GetCertsFromDb             000000000000b1e8 f   AuthVariableLib:AuthService.obj
 0001:0000b03c       DeleteCertsFromDb          000000000000b2fc f   AuthVariableLib:AuthService.obj
 0001:0000b1ec       CleanCertsFromDb           000000000000b4ac f   AuthVariableLib:AuthService.obj
 0001:0000b3c0       VerifyTimeBasedPayload     000000000000b680 f   AuthVariableLib:AuthService.obj
 0001:0000ca64       VerifyTimeBasedPayloadAndUpdate 000000000000cd24 f   AuthVariableLib:AuthService.obj
 0001:0000cc34       InternalVarCheckLoadOption 000000000000cef4 f   VarCheckUefiLib:VarCheckUefiLibNullClass.obj
 0001:0000cc94       InternalVarCheckKeyOption  000000000000cf54 f   VarCheckUefiLib:VarCheckUefiLibNullClass.obj
 0001:0000ccb0       InternalVarCheckDevicePath 000000000000cf70 f   VarCheckUefiLib:VarCheckUefiLibNullClass.obj
 0001:0000ccd8       InternalVarCheckAsciiString 000000000000cf98 f   VarCheckUefiLib:VarCheckUefiLibNullClass.obj
 0001:0000cd14       InternalVarCheckSizeArray  000000000000cfd4 f   VarCheckUefiLib:VarCheckUefiLibNullClass.obj
 0001:0000cd34       IsHwErrRecVariable         000000000000cff4 f   VarCheckUefiLib:VarCheckUefiLibNullClass.obj
 0001:0000ce2c       GetUefiDefinedVarCheckFunction 000000000000d0ec f   VarCheckUefiLib:VarCheckUefiLibNullClass.obj
 0001:0000cfd0       SetVariableCheckHandlerUefiDefined 000000000000d290 f   VarCheckUefiLib:VarCheckUefiLibNullClass.obj
 0001:0000d584       IoRead32                   000000000000d844 f   BaseIoLibIntrinsicSev:IoLibMsc.obj
 0001:0000d5b8       AsciiSPrint                000000000000d878 f   BasePrintLib:PrintLib.obj
 0001:0000d5e4       BasePrintLibFillBuffer     000000000000d8a4 f   BasePrintLib:PrintLibInternal.obj
 0001:0000d618       BasePrintLibValueToString  000000000000d8d8 f   BasePrintLib:PrintLibInternal.obj
 0001:0000d668       BasePrintLibSPrintMarker   000000000000d928 f   BasePrintLib:PrintLibInternal.obj
 0001:0000e580       BasePrintLibSPrint         000000000000e840 f   BasePrintLib:PrintLibInternal.obj
 0001:0000e5a4       PciExpressRead32           000000000000e864 f   BasePciExpressLib:PciExpressLib.obj
 0001:0000e5f4       PciCf8Read32               000000000000e8b4 f   BasePciCf8Lib:PciCf8Lib.obj
 0001:0000e694       InternalAcpiDelay          000000000000e954 f   DxeAcpiTimerLib:AcpiTimerLib.obj
 0001:0000e6f8       X509ConstructCertificate   000000000000e9b8 f   SmmCryptLib:CryptX509.obj
 0001:0000e8c0       RsaGetPublicKeyFromX509    000000000000eb80 f   SmmCryptLib:CryptX509.obj
 0001:0000ea08       WrapPkcs7Data              000000000000ecc8 f   SmmCryptLib:CryptPkcs7VerifyCommon.obj
 0001:0000eb14       X509PopCertificate         000000000000edd4 f   SmmCryptLib:CryptPkcs7VerifyCommon.obj
 0001:0000ec24       Pkcs7GetSigners            000000000000eee4 f   SmmCryptLib:CryptPkcs7VerifyCommon.obj
 0001:0000ef58       malloc                     000000000000f218 f   SmmCryptLib:BaseMemAllocation.obj
 0001:0000ef84       free                       000000000000f244 f   SmmCryptLib:BaseMemAllocation.obj
 0001:0000efc0       DivU64x32Remainder         000000000000f280 f   BaseLib:DivU64x32Remainder.obj
 0001:0000f020       SaveAndDisableInterrupts   000000000000f2e0 f   BaseLib:Cpu.obj
 0001:0000f044       MmioRead32                 000000000000f304 f   BaseIoLibIntrinsicSev:IoLib.obj
 0001:0000f074       SHA224_Init                000000000000f334 f   OpensslLib:sha256.obj
 0001:0000f0d4       SHA256_Init                000000000000f394 f   OpensslLib:sha256.obj
 0001:0000f134       SHA256_Update              000000000000f3f4 f   OpensslLib:sha256.obj
 0001:0000f248       SHA256_Final               000000000000f508 f   OpensslLib:sha256.obj
 0001:0000f9bc       X509_verify_cert           000000000000fc7c f   OpensslLib:x509_vfy.obj
 0001:00011cc8       x509_check_cert_time       0000000000011f88 f   OpensslLib:x509_vfy.obj
 0001:00012058       X509_cmp_time              0000000000012318 f   OpensslLib:x509_vfy.obj
 0001:000120e8       X509_get_pubkey_parameters 00000000000123a8 f   OpensslLib:x509_vfy.obj
 0001:000121e0       X509_STORE_CTX_init        00000000000124a0 f   OpensslLib:x509_vfy.obj
 0001:00012498       X509_STORE_CTX_cleanup     0000000000012758 f   OpensslLib:x509_vfy.obj
 0001:000139ec       X509_free                  0000000000013cac f   OpensslLib:x_x509.obj
 0001:00013a10       OPENSSL_sk_dup             0000000000013cd0 f   OpensslLib:stack.obj
 0001:00013b90       OPENSSL_sk_new_reserve     0000000000013e50 f   OpensslLib:stack.obj
 0001:00013bfc       OPENSSL_sk_insert          0000000000013ebc f   OpensslLib:stack.obj
 0001:00013da8       OPENSSL_sk_pop_free        0000000000014068 f   OpensslLib:stack.obj
 0001:00013e10       OPENSSL_sk_sort            00000000000140d0 f   OpensslLib:stack.obj
 0001:0001411c       EVP_PKEY_copy_parameters   00000000000143dc f   OpensslLib:p_lib.obj
 0001:00014208       EVP_PKEY_new               00000000000144c8 f   OpensslLib:p_lib.obj
 0001:00014328       EVP_PKEY_assign            00000000000145e8 f   OpensslLib:p_lib.obj
 0001:00014370       EVP_PKEY_get0_EC_KEY       0000000000014630 f   OpensslLib:p_lib.obj
 0001:000143b4       EVP_PKEY_free              0000000000014674 f   OpensslLib:p_lib.obj
 0001:00014418       EVP_add_cipher             00000000000146d8 f   OpensslLib:names.obj
 0001:00014468       EVP_add_digest             0000000000014728 f   OpensslLib:names.obj
 0001:000144fc       EVP_get_cipherbyname       00000000000147bc f   OpensslLib:names.obj
 0001:00014530       EVP_get_digestbyname       00000000000147f0 f   OpensslLib:names.obj
 0001:00014564       X509_NAME_ENTRY_free       0000000000014824 f   OpensslLib:x_name.obj
 0001:00014588       i2d_X509_NAME              0000000000014848 f   OpensslLib:x_name.obj
 0001:00014fa0       X509_NAME_print            0000000000015260 f   OpensslLib:x_name.obj
 0001:000150d0       CRYPTO_zalloc              0000000000015390 f   OpensslLib:mem.obj
 0001:00015118       CRYPTO_realloc             00000000000153d8 f   OpensslLib:mem.obj
 0001:000151e0       CRYPTO_clear_realloc       00000000000154a0 f   OpensslLib:mem.obj
 0001:000152bc       X509_NAME_get_index_by_NID 000000000001557c f   OpensslLib:x509name.obj
 0001:000152f8       X509_NAME_get_index_by_OBJ 00000000000155b8 f   OpensslLib:x509name.obj
 0001:00015394       X509_NAME_get_entry        0000000000015654 f   OpensslLib:x509name.obj
 0001:000153cc       X509_NAME_delete_entry     000000000001568c f   OpensslLib:x509name.obj
 0001:000154dc       X509_NAME_add_entry        000000000001579c f   OpensslLib:x509name.obj
 0001:00015644       X509_NAME_ENTRY_create_by_OBJ 0000000000015904 f   OpensslLib:x509name.obj
 0001:00015748       X509_cmp                   0000000000015a08 f   OpensslLib:x509_cmp.obj
 0001:000157e0       X509_NAME_cmp              0000000000015aa0 f   OpensslLib:x509_cmp.obj
 0001:00015850       X509_find_by_issuer_and_serial 0000000000015b10 f   OpensslLib:x509_cmp.obj
 0001:00015994       X509_chain_check_suiteb    0000000000015c54 f   OpensslLib:x509_cmp.obj
 0001:00015b78       X509_STORE_new             0000000000015e38 f   OpensslLib:x509_lu.obj
 0001:00015cd0       X509_STORE_free            0000000000015f90 f   OpensslLib:x509_lu.obj
 0001:00015df4       X509_STORE_CTX_get_by_subject 00000000000160b4 f   OpensslLib:x509_lu.obj
 0001:00015ff0       X509_OBJECT_new            00000000000162b0 f   OpensslLib:x509_lu.obj
 0001:00016020       X509_OBJECT_free           00000000000162e0 f   OpensslLib:x509_lu.obj
 0001:00016154       X509_STORE_CTX_get1_certs  0000000000016414 f   OpensslLib:x509_lu.obj
 0001:000163d0       X509_STORE_CTX_get1_crls   0000000000016690 f   OpensslLib:x509_lu.obj
 0001:000165a4       X509_OBJECT_retrieve_match 0000000000016864 f   OpensslLib:x509_lu.obj
 0001:000166ac       X509_STORE_CTX_get1_issuer 000000000001696c f   OpensslLib:x509_lu.obj
 0001:0001688c       ASN1_get_object            0000000000016b4c f   OpensslLib:asn1_lib.obj
 0001:00016a20       ASN1_put_object            0000000000016ce0 f   OpensslLib:asn1_lib.obj
 0001:00016b18       ASN1_object_size           0000000000016dd8 f   OpensslLib:asn1_lib.obj
 0001:00016b6c       ASN1_STRING_copy           0000000000016e2c f   OpensslLib:asn1_lib.obj
 0001:00016bbc       ASN1_STRING_dup            0000000000016e7c f   OpensslLib:asn1_lib.obj
 0001:00016c0c       ASN1_STRING_set            0000000000016ecc f   OpensslLib:asn1_lib.obj
 0001:00016d04       ASN1_STRING_set0           0000000000016fc4 f   OpensslLib:asn1_lib.obj
 0001:00016d3c       ASN1_STRING_type_new       0000000000016ffc f   OpensslLib:asn1_lib.obj
 0001:00016d74       ASN1_STRING_free           0000000000017034 f   OpensslLib:asn1_lib.obj
 0001:00016db8       ASN1_STRING_clear_free     0000000000017078 f   OpensslLib:asn1_lib.obj
 0001:00016df0       ASN1_STRING_cmp            00000000000170b0 f   OpensslLib:asn1_lib.obj
 0001:000179d8       ASN1_STRING_to_UTF8        0000000000017c98 f   OpensslLib:a_strex.obj
 0001:00017af4       BIO_new_mem_buf            0000000000017db4 f   OpensslLib:bss_mem.obj
 0001:000181b4       BIO_new                    0000000000018474 f   OpensslLib:bio_lib.obj
 0001:000182c0       BIO_free                   0000000000018580 f   OpensslLib:bio_lib.obj
 0001:0001859c       BIO_puts                   000000000001885c f   OpensslLib:bio_lib.obj
 0001:000186d0       BIO_indent                 0000000000018990 f   OpensslLib:bio_lib.obj
 0001:0001871c       BIO_ctrl                   00000000000189dc f   OpensslLib:bio_lib.obj
 0001:00018804       BIO_callback_ctrl          0000000000018ac4 f   OpensslLib:bio_lib.obj
 0001:000188e8       BIO_push                   0000000000018ba8 f   OpensslLib:bio_lib.obj
 0001:00018934       BIO_pop                    0000000000018bf4 f   OpensslLib:bio_lib.obj
 0001:00018998       BIO_free_all               0000000000018c58 f   OpensslLib:bio_lib.obj
 0001:000189d0       PKCS7_verify               0000000000018c90 f   OpensslLib:pk7_smime.obj
 0001:00018dac       PKCS7_get0_signers         000000000001906c f   OpensslLib:pk7_smime.obj
 0001:000190b4       OBJ_NAME_get               0000000000019374 f   OpensslLib:o_names.obj
 0001:0001916c       OBJ_NAME_add               000000000001942c f   OpensslLib:o_names.obj
 0001:00019268       X509_verify                0000000000019528 f   OpensslLib:x_all.obj
 0001:00019494       OBJ_add_object             0000000000019754 f   OpensslLib:obj_dat.obj
 0001:0001960c       OBJ_nid2obj                00000000000198cc f   OpensslLib:obj_dat.obj
 0001:00019698       OBJ_nid2sn                 0000000000019958 f   OpensslLib:obj_dat.obj
 0001:00019728       OBJ_nid2ln                 00000000000199e8 f   OpensslLib:obj_dat.obj
 0001:000197f4       OBJ_obj2nid                0000000000019ab4 f   OpensslLib:obj_dat.obj
 0001:00019890       OBJ_txt2obj                0000000000019b50 f   OpensslLib:obj_dat.obj
 0001:00019994       OBJ_obj2txt                0000000000019c54 f   OpensslLib:obj_dat.obj
 0001:00019cb8       OBJ_ln2nid                 0000000000019f78 f   OpensslLib:obj_dat.obj
 0001:00019d4c       OBJ_sn2nid                 000000000001a00c f   OpensslLib:obj_dat.obj
 0001:00019de0       OBJ_bsearch_ex_            000000000001a0a0 f   OpensslLib:obj_dat.obj
 0001:00019eb8       OBJ_create                 000000000001a178 f   OpensslLib:obj_dat.obj
 0001:00019f9c       BN_num_bits_word           000000000001a25c f   OpensslLib:bn_lib.obj
 0001:0001a074       BN_num_bits                000000000001a334 f   OpensslLib:bn_lib.obj
 0001:0001a188       BN_clear_free              000000000001a448 f   OpensslLib:bn_lib.obj
 0001:0001a1d4       BN_free                    000000000001a494 f   OpensslLib:bn_lib.obj
 0001:0001a234       BN_new                     000000000001a4f4 f   OpensslLib:bn_lib.obj
 0001:0001a270       bn_expand2                 000000000001a530 f   OpensslLib:bn_lib.obj
 0001:0001a324       BN_dup                     000000000001a5e4 f   OpensslLib:bn_lib.obj
 0001:0001a388       BN_copy                    000000000001a648 f   OpensslLib:bn_lib.obj
 0001:0001a400       BN_set_word                000000000001a6c0 f   OpensslLib:bn_lib.obj
 0001:0001a44c       BN_bin2bn                  000000000001a70c f   OpensslLib:bn_lib.obj
 0001:0001a674       BN_ucmp                    000000000001a934 f   OpensslLib:bn_lib.obj
 0001:0001a6bc       BN_cmp                     000000000001a97c f   OpensslLib:bn_lib.obj
 0001:0001a740       BN_set_bit                 000000000001aa00 f   OpensslLib:bn_lib.obj
 0001:0001a7d0       BN_is_bit_set              000000000001aa90 f   OpensslLib:bn_lib.obj
 0001:0001a800       BN_consttime_swap          000000000001aac0 f   OpensslLib:bn_lib.obj
 0001:0001a8a4       BN_security_bits           000000000001ab64 f   OpensslLib:bn_lib.obj
 0001:0001a90c       BN_is_word                 000000000001abcc f   OpensslLib:bn_lib.obj
 0001:0001a93c       bn_correct_top             000000000001abfc f   OpensslLib:bn_lib.obj
 0001:0001a96c       RSA_new_method             000000000001ac2c f   OpensslLib:rsa_lib.obj
 0001:0001ab30       RSA_free                   000000000001adf0 f   OpensslLib:rsa_lib.obj
 0001:0001ac30       RSA_pkey_ctx_ctrl          000000000001aef0 f   OpensslLib:rsa_lib.obj
 0001:0001ad54       RSA_sign                   000000000001b014 f   OpensslLib:rsa_sign.obj
 0001:0001aebc       int_rsa_verify             000000000001b17c f   OpensslLib:rsa_sign.obj
 0001:0001b3cc       asn1_time_to_tm            000000000001b68c f   OpensslLib:a_time.obj
 0001:0001b78c       ASN1_TIME_diff             000000000001ba4c f   OpensslLib:a_time.obj
 0001:0001b810       ASN1_TIME_print            000000000001bad0 f   OpensslLib:a_time.obj
 0001:0001bb04       X509V3_add_value           000000000001bdc4 f   OpensslLib:v3_utl.obj
 0001:0001bb34       X509V3_conf_free           000000000001bdf4 f   OpensslLib:v3_utl.obj
 0001:0001bc7c       i2s_ASN1_INTEGER           000000000001bf3c f   OpensslLib:v3_utl.obj
 0001:0001bce0       s2i_ASN1_INTEGER           000000000001bfa0 f   OpensslLib:v3_utl.obj
 0001:0001bde4       X509V3_add_value_int       000000000001c0a4 f   OpensslLib:v3_utl.obj
 0001:0001be3c       X509V3_get_value_bool      000000000001c0fc f   OpensslLib:v3_utl.obj
 0001:0001bfcc       X509V3_get_value_int       000000000001c28c f   OpensslLib:v3_utl.obj
 0001:0001c03c       X509V3_parse_list          000000000001c2fc f   OpensslLib:v3_utl.obj
 0001:0001c2c0       name_cmp                   000000000001c580 f   OpensslLib:v3_utl.obj
 0001:0001cb30       a2i_IPADDRESS_NC           000000000001cdf0 f   OpensslLib:v3_utl.obj
 0001:0001cc18       a2i_ipadd                  000000000001ced8 f   OpensslLib:v3_utl.obj
 0001:0001ceb4       X509V3_NAME_from_section   000000000001d174 f   OpensslLib:v3_utl.obj
 0001:0001d068       ERR_put_error              000000000001d328 f   OpensslLib:err.obj
 0001:0001d16c       ERR_clear_error            000000000001d42c f   OpensslLib:err.obj
 0001:0001d3bc       ERR_get_state              000000000001d67c f   OpensslLib:err.obj
 0001:0001d518       ERR_add_error_data         000000000001d7d8 f   OpensslLib:err.obj
 0001:0001d620       ERR_set_mark               000000000001d8e0 f   OpensslLib:err.obj
 0001:0001d650       ERR_pop_to_mark            000000000001d910 f   OpensslLib:err.obj
 0001:0001d740       err_clear_last_constant_time 000000000001da00 f   OpensslLib:err.obj
 0001:0001d78c       X509v3_get_ext_by_NID      000000000001da4c f   OpensslLib:x509_v3.obj
 0001:0001d7c8       X509v3_get_ext_by_OBJ      000000000001da88 f   OpensslLib:x509_v3.obj
 0001:0001d854       X509_check_purpose         000000000001db14 f   OpensslLib:v3_purp.obj
 0001:0001d8d0       X509_PURPOSE_get_by_id     000000000001db90 f   OpensslLib:v3_purp.obj
 0001:0001e440       x509_likely_issued         000000000001e700 f   OpensslLib:v3_purp.obj
 0001:0001e4c8       X509_check_akid            000000000001e788 f   OpensslLib:v3_purp.obj
 0001:0001ec9c       X509_CRL_free              000000000001ef5c f   OpensslLib:x_crl.obj
 0001:0001eea4       GENERAL_NAME_free          000000000001f164 f   OpensslLib:v3_genn.obj
 0001:0001eec8       GENERAL_NAMES_free         000000000001f188 f   OpensslLib:v3_genn.obj
 0001:0001f08c       policy_node_free           000000000001f34c f   OpensslLib:pcy_node.obj
 0001:0001f094       X509_VERIFY_PARAM_free     000000000001f354 f   OpensslLib:x509_vpm.obj
 0001:0001f0ec       X509_VERIFY_PARAM_inherit  000000000001f3ac f   OpensslLib:x509_vpm.obj
 0001:0001f374       X509_VERIFY_PARAM_set1_policies 000000000001f634 f   OpensslLib:x509_vpm.obj
 0001:0001f4cc       X509_VERIFY_PARAM_lookup   000000000001f78c f   OpensslLib:x509_vpm.obj
 0001:00020218       X509_policy_tree_free      00000000000204d8 f   OpensslLib:pcy_tree.obj
 0001:000202c4       X509_policy_check          0000000000020584 f   OpensslLib:pcy_tree.obj
 0001:00020754       X509_PUBKEY_get0           0000000000020a14 f   OpensslLib:x_pubkey.obj
 0001:00020828       X509_PUBKEY_set0_param     0000000000020ae8 f   OpensslLib:x_pubkey.obj
 0001:0002088c       X509_check_trust           0000000000020b4c f   OpensslLib:x509_trs.obj
 0001:00020910       X509_TRUST_get_by_id       0000000000020bd0 f   OpensslLib:x509_trs.obj
 0001:00020b40       EVP_MD_CTX_reset           0000000000020e00 f   OpensslLib:digest.obj
 0001:00020b84       EVP_DigestInit_ex          0000000000020e44 f   OpensslLib:digest.obj
 0001:00020c3c       EVP_DigestFinal_ex         0000000000020efc f   OpensslLib:digest.obj
 0001:00020ca8       EVP_DigestFinalXOF         0000000000020f68 f   OpensslLib:digest.obj
 0001:00020d40       EVP_MD_CTX_copy_ex         0000000000021000 f   OpensslLib:digest.obj
 0001:00020e5c       EVP_Digest                 000000000002111c f   OpensslLib:digest.obj
 0001:00020fb8       CRYPTO_new_ex_data         0000000000021278 f   OpensslLib:ex_data.obj
 0001:00021118       CRYPTO_dup_ex_data         00000000000213d8 f   OpensslLib:ex_data.obj
 0001:00021304       CRYPTO_free_ex_data        00000000000215c4 f   OpensslLib:ex_data.obj
 0001:00021488       CRYPTO_set_ex_data         0000000000021748 f   OpensslLib:ex_data.obj
 0001:000218a0       NAME_CONSTRAINTS_check     0000000000021b60 f   OpensslLib:v3_ncons.obj
 0001:00021a68       NAME_CONSTRAINTS_check_CN  0000000000021d28 f   OpensslLib:v3_ncons.obj
 0001:0002212c       EC_KEY_free                00000000000223ec f   OpensslLib:ec_key.obj
 0001:000221d8       EC_KEY_copy                0000000000022498 f   OpensslLib:ec_key.obj
 0001:0002237c       EC_KEY_dup                 000000000002263c f   OpensslLib:ec_key.obj
 0001:000223c4       ossl_ec_key_gen            0000000000022684 f   OpensslLib:ec_key.obj
 0001:000223d4       ec_key_simple_generate_key 0000000000022694 f   OpensslLib:ec_key.obj
 0001:000224c4       ec_key_simple_generate_public_key 0000000000022784 f   OpensslLib:ec_key.obj
 0001:000224f0       EC_KEY_check_key           00000000000227b0 f   OpensslLib:ec_key.obj
 0001:00022544       ec_key_simple_check_key    0000000000022804 f   OpensslLib:ec_key.obj
 0001:000226e8       EC_KEY_set_group           00000000000229a8 f   OpensslLib:ec_key.obj
 0001:00022740       EC_KEY_oct2key             0000000000022a00 f   OpensslLib:ec_key.obj
 0001:000227c4       ec_key_simple_priv2oct     0000000000022a84 f   OpensslLib:ec_key.obj
 0001:00022850       ec_key_simple_oct2priv     0000000000022b10 f   OpensslLib:ec_key.obj
 0001:000228d0       EC_KEY_priv2buf            0000000000022b90 f   OpensslLib:ec_key.obj
 0001:000229bc       ossl_tolower               0000000000022c7c f   OpensslLib:ctype.obj
 0001:000229e8       ASN1_INTEGER_cmp           0000000000022ca8 f   OpensslLib:a_int.obj
 0001:00022c68       c2i_ASN1_INTEGER           0000000000022f28 f   OpensslLib:a_int.obj
 0001:00022fbc       ASN1_INTEGER_get           000000000002327c f   OpensslLib:a_int.obj
 0001:00023000       ASN1_ENUMERATED_get        00000000000232c0 f   OpensslLib:a_int.obj
 0001:00023054       c2i_uint64_int             0000000000023314 f   OpensslLib:a_int.obj
 0001:000230ec       ASN1_INTEGER_free          00000000000233ac f   OpensslLib:tasn_typ.obj
 0001:000230f4       ASN1_TYPE_free             00000000000233b4 f   OpensslLib:tasn_typ.obj
 0001:00023118       ASN1_item_dup              00000000000233d8 f   OpensslLib:a_dup.obj
 0001:000231c8       ASN1_item_d2i              0000000000023488 f   OpensslLib:tasn_dec.obj
 0001:00023218       ASN1_item_ex_d2i           00000000000234d8 f   OpensslLib:tasn_dec.obj
 0001:00024804       X509_ALGOR_free            0000000000024ac4 f   OpensslLib:x_algor.obj
 0001:00024828       X509_ALGOR_set0            0000000000024ae8 f   OpensslLib:x_algor.obj
 0001:00025000       DIST_POINT_free            00000000000252c0 f   OpensslLib:v3_crld.obj
 0001:000253c4       DIST_POINT_set_dpname      0000000000025684 f   OpensslLib:v3_crld.obj
 0001:000254a4       ASN1_item_new              0000000000025764 f   OpensslLib:tasn_new.obj
 0001:00025ce0       asn1_item_embed_free       0000000000025fa0 f   OpensslLib:tasn_fre.obj
 0001:00025f2c       asn1_template_free         00000000000261ec f   OpensslLib:tasn_fre.obj
 0001:00025fe8       asn1_primitive_free        00000000000262a8 f   OpensslLib:tasn_fre.obj
 0001:0002619c       ASN1_item_ex_i2d           000000000002645c f   OpensslLib:tasn_enc.obj
 0001:00026d58       SHA384_Init                0000000000027018 f   OpensslLib:sha512.obj
 0001:00026de8       SHA512_Init                00000000000270a8 f   OpensslLib:sha512.obj
 0001:00026e78       SHA512_Final               0000000000027138 f   OpensslLib:sha512.obj
 0001:000271b8       SHA512_Update              0000000000027478 f   OpensslLib:sha512.obj
 0001:00027724       SHA1_Update                00000000000279e4 f   OpensslLib:sha1dgst.obj
 0001:00027838       SHA1_Final                 0000000000027af8 f   OpensslLib:sha1dgst.obj
 0001:00027984       SHA1_Init                  0000000000027c44 f   OpensslLib:sha1dgst.obj
 0001:00027c9c       EVP_CIPHER_param_to_asn1   0000000000027f5c f   OpensslLib:evp_lib.obj
 0001:00027d4c       EVP_CIPHER_get_asn1_iv     000000000002800c f   OpensslLib:evp_lib.obj
 0001:00027dec       EVP_CIPHER_set_asn1_iv     00000000000280ac f   OpensslLib:evp_lib.obj
 0001:00027e7c       EVP_CIPHER_type            000000000002813c f   OpensslLib:evp_lib.obj
 0001:00027f6c       EVP_CIPHER_CTX_iv_length   000000000002822c f   OpensslLib:evp_lib.obj
 0001:00027fa4       DH_new                     0000000000028264 f   OpensslLib:dh_lib.obj
 0001:0002811c       DH_free                    00000000000283dc f   OpensslLib:dh_lib.obj
 0001:000281dc       EVP_PKEY_asn1_find         000000000002849c f   OpensslLib:ameth_lib.obj
 0001:00028270       X509_ATTRIBUTE_free        0000000000028530 f   OpensslLib:x_attrib.obj
 0001:00028294       X509_ATTRIBUTE_create      0000000000028554 f   OpensslLib:x_attrib.obj
 0001:000283bc       CMAC_CTX_new               000000000002867c f   OpensslLib:cmac.obj
 0001:0002841c       CMAC_CTX_free              00000000000286dc f   OpensslLib:cmac.obj
 0001:000284b4       CMAC_CTX_copy              0000000000028774 f   OpensslLib:cmac.obj
 0001:00028550       CMAC_Init                  0000000000028810 f   OpensslLib:cmac.obj
 0001:000289cc       ossl_init_thread_start     0000000000028c8c f   OpensslLib:init.obj
 0001:00028a14       OPENSSL_init_crypto        0000000000028cd4 f   OpensslLib:init.obj
 0001:00028ca8       OBJ_find_sigid_algs        0000000000028f68 f   OpensslLib:obj_xref.obj
 0001:00028d50       OBJ_find_sigid_by_algs     0000000000029010 f   OpensslLib:obj_xref.obj
 0001:00028f34       EVP_PKEY_CTX_dup           00000000000291f4 f   OpensslLib:pmeth_lib.obj
 0001:00029004       EVP_PKEY_CTX_free          00000000000292c4 f   OpensslLib:pmeth_lib.obj
 0001:00029044       EVP_PKEY_CTX_ctrl          0000000000029304 f   OpensslLib:pmeth_lib.obj
 0001:00029104       EVP_PKEY_CTX_str2ctrl      00000000000293c4 f   OpensslLib:pmeth_lib.obj
 0001:00029144       EVP_PKEY_CTX_hex2ctrl      0000000000029404 f   OpensslLib:pmeth_lib.obj
 0001:000291a0       EVP_PKEY_CTX_md            0000000000029460 f   OpensslLib:pmeth_lib.obj
 0001:0002920c       X509_NAME_oneline          00000000000294cc f   OpensslLib:x509_obj.obj
 0001:00029570       BUF_MEM_new                0000000000029830 f   OpensslLib:buffer.obj
 0001:0002959c       BUF_MEM_free               000000000002985c f   OpensslLib:buffer.obj
 0001:00029670       BUF_MEM_grow               0000000000029930 f   OpensslLib:buffer.obj
 0001:00029758       BUF_MEM_grow_clean         0000000000029a18 f   OpensslLib:buffer.obj
 0001:0002984c       OBJ_dup                    0000000000029b0c f   OpensslLib:obj_lib.obj
 0001:0002993c       a2d_ASN1_OBJECT            0000000000029bfc f   OpensslLib:a_object.obj
 0001:00029c98       i2a_ASN1_OBJECT            0000000000029f58 f   OpensslLib:a_object.obj
 0001:00029dd4       d2i_ASN1_OBJECT            000000000002a094 f   OpensslLib:a_object.obj
 0001:00029e5c       c2i_ASN1_OBJECT            000000000002a11c f   OpensslLib:a_object.obj
 0001:0002a03c       ASN1_OBJECT_free           000000000002a2fc f   OpensslLib:a_object.obj
 0001:0002a098       ASN1_STRING_set_by_NID     000000000002a358 f   OpensslLib:a_strnid.obj
 0001:0002a128       ASN1_STRING_TABLE_get      000000000002a3e8 f   OpensslLib:a_strnid.obj
 0001:0002a1b4       ASN1_STRING_print          000000000002a474 f   OpensslLib:a_print.obj
 0001:0002a290       MD5_Update                 000000000002a550 f   OpensslLib:md5_dgst.obj
 0001:0002a3a4       MD5_Final                  000000000002a664 f   OpensslLib:md5_dgst.obj
 0001:0002a530       md5_block_data_order       000000000002a7f0 f   OpensslLib:md5_dgst.obj
 0001:0002afd8       EC_GROUP_new               000000000002b298 f   OpensslLib:ec_lib.obj
 0001:0002b098       EC_GROUP_free              000000000002b358 f   OpensslLib:ec_lib.obj
 0001:0002b110       EC_GROUP_clear_free        000000000002b3d0 f   OpensslLib:ec_lib.obj
 0001:0002b1d0       EC_GROUP_copy              000000000002b490 f   OpensslLib:ec_lib.obj
 0001:0002b3d4       EC_GROUP_dup               000000000002b694 f   OpensslLib:ec_lib.obj
 0001:0002b608       EC_GROUP_set_generator     000000000002b8c8 f   OpensslLib:ec_lib.obj
 0001:0002b794       EC_GROUP_set_seed          000000000002ba54 f   OpensslLib:ec_lib.obj
 0001:0002b824       EC_GROUP_cmp               000000000002bae4 f   OpensslLib:ec_lib.obj
 0001:0002b9dc       EC_POINT_new               000000000002bc9c f   OpensslLib:ec_lib.obj
 0001:0002ba5c       EC_POINT_free              000000000002bd1c f   OpensslLib:ec_lib.obj
 0001:0002ba88       EC_POINT_clear_free        000000000002bd48 f   OpensslLib:ec_lib.obj
 0001:0002bad0       EC_POINT_copy              000000000002bd90 f   OpensslLib:ec_lib.obj
 0001:0002bb2c       EC_POINT_set_to_infinity   000000000002bdec f   OpensslLib:ec_lib.obj
 0001:0002bb6c       EC_POINT_set_affine_coordinates 000000000002be2c f   OpensslLib:ec_lib.obj
 0001:0002bc08       EC_POINT_get_affine_coordinates 000000000002bec8 f   OpensslLib:ec_lib.obj
 0001:0002bcb4       EC_POINT_add               000000000002bf74 f   OpensslLib:ec_lib.obj
 0001:0002bd34       EC_POINT_dbl               000000000002bff4 f   OpensslLib:ec_lib.obj
 0001:0002bd9c       EC_POINT_invert            000000000002c05c f   OpensslLib:ec_lib.obj
 0001:0002bdf0       EC_POINT_is_at_infinity    000000000002c0b0 f   OpensslLib:ec_lib.obj
 0001:0002be44       EC_POINT_is_on_curve       000000000002c104 f   OpensslLib:ec_lib.obj
 0001:0002be98       EC_POINT_cmp               000000000002c158 f   OpensslLib:ec_lib.obj
 0001:0002bf00       EC_POINTs_make_affine      000000000002c1c0 f   OpensslLib:ec_lib.obj
 0001:0002bf80       EC_POINT_mul               000000000002c240 f   OpensslLib:ec_lib.obj
 0001:0002c1c0       ec_group_simple_order_bits 000000000002c480 f   OpensslLib:ec_lib.obj
 0001:0002c2cc       ASN1_tag2str               000000000002c58c f   OpensslLib:asn1_par.obj
 0001:0002c2fc       UTF8_getc                  000000000002c5bc f   OpensslLib:a_utf8.obj
 0001:0002c5ec       UTF8_putc                  000000000002c8ac f   OpensslLib:a_utf8.obj
 0001:0002c7ac       ASN1_mbstring_ncopy        000000000002ca6c f   OpensslLib:a_mbstr.obj
 0001:0002cd6c       rsa_multip_info_free       000000000002d02c f   OpensslLib:rsa_mp.obj
 0001:0002cda8       rsa_multip_info_new        000000000002d068 f   OpensslLib:rsa_mp.obj
 0001:0002ce68       rsa_multip_calc_product    000000000002d128 f   OpensslLib:rsa_mp.obj
 0001:0002d4b4       bwrite_conv                000000000002d774 f   OpensslLib:bio_meth.obj
 0001:0002d4f0       bread_conv                 000000000002d7b0 f   OpensslLib:bio_meth.obj
 0001:0002d52c       PKCS7_ctrl                 000000000002d7ec f   OpensslLib:pk7_lib.obj
 0001:0002d57c       PKCS7_get_signer_info      000000000002d83c f   OpensslLib:pk7_lib.obj
 0001:0002d5c0       PKCS7_stream               000000000002d880 f   OpensslLib:pk7_lib.obj
 0001:0002d67c       PKCS7_add1_attrib_digest   000000000002d93c f   OpensslLib:pk7_attr.obj
 0001:0002dc18       PKCS7_dataInit             000000000002ded8 f   OpensslLib:pk7_doit.obj
 0001:0002e15c       PKCS7_dataFinal            000000000002e41c f   OpensslLib:pk7_doit.obj
 0001:0002e5a8       PKCS7_SIGNER_INFO_sign     000000000002e868 f   OpensslLib:pk7_doit.obj
 0001:0002e890       PKCS7_signatureVerify      000000000002eb50 f   OpensslLib:pk7_doit.obj
 0001:0002ecd4       X509_verify_cert_error_string 000000000002ef94 f   OpensslLib:x509_txt.obj
 0001:0002f110       OPENSSL_LH_new             000000000002f3d0 f   OpensslLib:lhash.obj
 0001:0002f1b8       OPENSSL_LH_insert          000000000002f478 f   OpensslLib:lhash.obj
 0001:0002f268       OPENSSL_LH_retrieve        000000000002f528 f   OpensslLib:lhash.obj
 0001:0002f438       OPENSSL_LH_strhash         000000000002f6f8 f   OpensslLib:lhash.obj
 0001:0002f4b0       openssl_lh_strcasehash     000000000002f770 f   OpensslLib:lhash.obj
 0001:0002f530       PKCS8_pkey_set0            000000000002f7f0 f   OpensslLib:p8_pkey.obj
 0001:0002f988       EC_GROUP_get_ecparameters  000000000002fc48 f   OpensslLib:ec_asn1.obj
 0001:0002fb20       EC_GROUP_get_ecpkparameters 000000000002fde0 f   OpensslLib:ec_asn1.obj
 0001:0002fc1c       EC_GROUP_new_from_ecparameters 000000000002fedc f   OpensslLib:ec_asn1.obj
 0001:00030024       EC_GROUP_new_from_ecpkparameters 00000000000302e4 f   OpensslLib:ec_asn1.obj
 0001:000300a0       d2i_ECPKParameters         0000000000030360 f   OpensslLib:ec_asn1.obj
 0001:0003017c       d2i_ECPrivateKey           000000000003043c f   OpensslLib:ec_asn1.obj
 0001:00030360       i2d_ECPrivateKey           0000000000030620 f   OpensslLib:ec_asn1.obj
 0001:000305c8       i2d_ECParameters           0000000000030888 f   OpensslLib:ec_asn1.obj
 0001:00030694       d2i_ECParameters           0000000000030954 f   OpensslLib:ec_asn1.obj
 0001:00030720       i2o_ECPublicKey            00000000000309e0 f   OpensslLib:ec_asn1.obj
 0001:00030820       ECDSA_SIG_new              0000000000030ae0 f   OpensslLib:ec_asn1.obj
 0001:00030854       ECDSA_size                 0000000000030b14 f   OpensslLib:ec_asn1.obj
 0001:000308dc       ASN1_item_digest           0000000000030b9c f   OpensslLib:a_digest.obj
 0001:000309a4       ASN1_item_verify           0000000000030c64 f   OpensslLib:a_verify.obj
 0001:00030c60       ASN1_item_i2d_bio          0000000000030f20 f   OpensslLib:a_i2d_fp.obj
 0001:00030d38       BN_bn2hex                  0000000000030ff8 f   OpensslLib:bn_print.obj
 0001:00030e14       BN_bn2dec                  00000000000310d4 f   OpensslLib:bn_print.obj
 0001:00031030       BN_hex2bn                  00000000000312f0 f   OpensslLib:bn_print.obj
 0001:000311e4       BN_dec2bn                  00000000000314a4 f   OpensslLib:bn_print.obj
 0001:00031458       CRYPTO_strdup              0000000000031718 f   OpensslLib:o_str.obj
 0001:000314c0       CRYPTO_strndup             0000000000031780 f   OpensslLib:o_str.obj
 0001:0003153c       CRYPTO_memdup              00000000000317fc f   OpensslLib:o_str.obj
 0001:000315a8       OPENSSL_strlcpy            0000000000031868 f   OpensslLib:o_str.obj
 0001:000315fc       OPENSSL_hexchar2int        00000000000318bc f   OpensslLib:o_str.obj
 0001:000316bc       OPENSSL_hexstr2buf         000000000003197c f   OpensslLib:o_str.obj
 0001:000317c0       OPENSSL_buf2hexstr         0000000000031a80 f   OpensslLib:o_str.obj
 0001:00031860       BN_mod_word                0000000000031b20 f   OpensslLib:bn_word.obj
 0001:00031904       BN_div_word                0000000000031bc4 f   OpensslLib:bn_word.obj
 0001:000319f0       BN_add_word                0000000000031cb0 f   OpensslLib:bn_word.obj
 0001:00031ac4       BN_sub_word                0000000000031d84 f   OpensslLib:bn_word.obj
 0001:00031b94       BN_mul_word                0000000000031e54 f   OpensslLib:bn_word.obj
 0001:00031ca0       BN_lshift1                 0000000000031f60 f   OpensslLib:bn_shift.obj
 0001:00031d48       BN_rshift1                 0000000000032008 f   OpensslLib:bn_shift.obj
 0001:00031e1c       BN_lshift                  00000000000320dc f   OpensslLib:bn_shift.obj
 0001:00031e60       bn_lshift_fixed_top        0000000000032120 f   OpensslLib:bn_shift.obj
 0001:00031f98       BN_rshift                  0000000000032258 f   OpensslLib:bn_shift.obj
 0001:00031fd4       bn_rshift_fixed_top        0000000000032294 f   OpensslLib:bn_shift.obj
 0001:000320dc       bn_mul_mont_fixed_top      000000000003239c f   OpensslLib:bn_mont.obj
 0001:00032330       bn_from_mont_fixed_top     00000000000325f0 f   OpensslLib:bn_mont.obj
 0001:000323b4       BN_MONT_CTX_new            0000000000032674 f   OpensslLib:bn_mont.obj
 0001:00032428       BN_MONT_CTX_free           00000000000326e8 f   OpensslLib:bn_mont.obj
 0001:00032464       BN_MONT_CTX_set            0000000000032724 f   OpensslLib:bn_mont.obj
 0001:00032728       BN_MONT_CTX_copy           00000000000329e8 f   OpensslLib:bn_mont.obj
 0001:000327a8       BN_MONT_CTX_set_locked     0000000000032a68 f   OpensslLib:bn_mont.obj
 0001:0003428c       BN_BLINDING_new            000000000003454c f   OpensslLib:bn_blind.obj
 0001:00034330       BN_BLINDING_free           00000000000345f0 f   OpensslLib:bn_blind.obj
 0001:00034380       BN_BLINDING_update         0000000000034640 f   OpensslLib:bn_blind.obj
 0001:0003448c       BN_BLINDING_convert_ex     000000000003474c f   OpensslLib:bn_blind.obj
 0001:0003454c       BN_BLINDING_invert_ex      000000000003480c f   OpensslLib:bn_blind.obj
 0001:00034634       BN_BLINDING_create_param   00000000000348f4 f   OpensslLib:bn_blind.obj
 0001:000348f0       RSA_setup_blinding         0000000000034bb0 f   OpensslLib:rsa_crpt.obj
 0001:00034a50       OPENSSL_gmtime_adj         0000000000034d10 f   OpensslLib:o_time.obj
 0001:00034b24       OPENSSL_gmtime_diff        0000000000034de4 f   OpensslLib:o_time.obj
 0001:00034df4       ACCESS_DESCRIPTION_free    00000000000350b4 f   OpensslLib:v3_info.obj
 0001:00035260       CONF_parse_list            0000000000035520 f   OpensslLib:conf_mod.obj
 0001:00035360       X509V3_EXT_get_nid         0000000000035620 f   OpensslLib:v3_lib.obj
 0001:000353f4       X509V3_EXT_d2i             00000000000356b4 f   OpensslLib:v3_lib.obj
 0001:00035458       X509V3_get_d2i             0000000000035718 f   OpensslLib:v3_lib.obj
 0001:000356e4       ASN1_TYPE_set              00000000000359a4 f   OpensslLib:a_type.obj
 0001:00035748       ASN1_TYPE_cmp              0000000000035a08 f   OpensslLib:a_type.obj
 0001:000357bc       ASN1_TYPE_unpack_sequence  0000000000035a7c f   OpensslLib:a_type.obj
 0001:00035850       level_add_node             0000000000035b10 f   OpensslLib:pcy_node.obj
 0001:00035974       policy_data_free           0000000000035c34 f   OpensslLib:pcy_data.obj
 0001:000359c0       policy_data_new            0000000000035c80 f   OpensslLib:pcy_data.obj
 0001:00035ab4       i2v_GENERAL_NAMES          0000000000035d74 f   OpensslLib:v3_alt.obj
 0001:00035b64       i2v_GENERAL_NAME           0000000000035e24 f   OpensslLib:v3_alt.obj
 0001:00035dd0       GENERAL_NAME_print         0000000000036090 f   OpensslLib:v3_alt.obj
 0001:00036380       v2i_GENERAL_NAMES          0000000000036640 f   OpensslLib:v3_alt.obj
 0001:0003644c       a2i_GENERAL_NAME           000000000003670c f   OpensslLib:v3_alt.obj
 0001:00036680       v2i_GENERAL_NAME_ex        0000000000036940 f   OpensslLib:v3_alt.obj
 0001:0003696c       BN_CTX_new                 0000000000036c2c f   OpensslLib:bn_ctx.obj
 0001:000369b0       BN_CTX_free                0000000000036c70 f   OpensslLib:bn_ctx.obj
 0001:00036a30       BN_CTX_start               0000000000036cf0 f   OpensslLib:bn_ctx.obj
 0001:00036a78       BN_CTX_end                 0000000000036d38 f   OpensslLib:bn_ctx.obj
 0001:00036af0       BN_CTX_get                 0000000000036db0 f   OpensslLib:bn_ctx.obj
 0001:000370b4       EC_GROUP_new_by_curve_name 0000000000037374 f   OpensslLib:ec_curve.obj
 0001:00037120       EC_curve_nist2nid          00000000000373e0 f   OpensslLib:ec_curve.obj
 0001:00037180       ec_curve_nid_from_params   0000000000037440 f   OpensslLib:ec_curve.obj
 0001:00037438       bn_compute_wNAF            00000000000376f8 f   OpensslLib:bn_intern.obj
 0001:000375e0       EC_POINT_set_compressed_coordinates 00000000000378a0 f   OpensslLib:ec_oct.obj
 0001:00037664       EC_POINT_point2oct         0000000000037924 f   OpensslLib:ec_oct.obj
 0001:000376e4       EC_POINT_oct2point         00000000000379a4 f   OpensslLib:ec_oct.obj
 0001:0003776c       EC_POINT_point2buf         0000000000037a2c f   OpensslLib:ec_oct.obj
 0001:00037824       EC_KEY_new_method          0000000000037ae4 f   OpensslLib:ec_kmeth.obj
 0001:0003798c       ECDH_compute_key           0000000000037c4c f   OpensslLib:ec_kmeth.obj
 0001:00037d7c       BN_generate_dsa_nonce      000000000003803c f   OpensslLib:bn_rand.obj
 0001:00037f5c       i2c_ASN1_BIT_STRING        000000000003821c f   OpensslLib:a_bitstr.obj
 0001:00038074       c2i_ASN1_BIT_STRING        0000000000038334 f   OpensslLib:a_bitstr.obj
 0001:000381c4       ASN1_BIT_STRING_set_bit    0000000000038484 f   OpensslLib:a_bitstr.obj
 0001:000382cc       asn1_do_lock               000000000003858c f   OpensslLib:tasn_utl.obj
 0001:0003836c       asn1_do_adb                000000000003862c f   OpensslLib:tasn_utl.obj
 0001:00038420       X509V3_get_section         00000000000386e0 f   OpensslLib:v3_conf.obj
 0001:000385fc       POLICYINFO_free            00000000000388bc f   OpensslLib:v3_cpols.obj
 0001:00038620       POLICYQUALINFO_free        00000000000388e0 f   OpensslLib:v3_cpols.obj
 0001:000392c4       policy_cache_set_mapping   0000000000039584 f   OpensslLib:pcy_map.obj
 0001:00039454       EVP_CIPHER_CTX_reset       0000000000039714 f   OpensslLib:evp_enc.obj
 0001:000394c0       EVP_CipherInit_ex          0000000000039780 f   OpensslLib:evp_enc.obj
 0001:00039960       EVP_EncryptFinal_ex        0000000000039c20 f   OpensslLib:evp_enc.obj
 0001:00039a2c       EVP_DecryptUpdate          0000000000039cec f   OpensslLib:evp_enc.obj
 0001:00039c68       EVP_DecryptFinal_ex        0000000000039f28 f   OpensslLib:evp_enc.obj
 0001:00039d78       EVP_CIPHER_CTX_set_key_length 000000000003a038 f   OpensslLib:evp_enc.obj
 0001:00039dd0       EVP_CIPHER_CTX_ctrl        000000000003a090 f   OpensslLib:evp_enc.obj
 0001:00039e18       EVP_CIPHER_CTX_copy        000000000003a0d8 f   OpensslLib:evp_enc.obj
 0001:0003d2d8       rsa_pss_params_create      000000000003d598 f   OpensslLib:rsa_ameth.obj
 0001:0003d7f0       rsa_pss_get_param          000000000003dab0 f   OpensslLib:rsa_ameth.obj
 0001:0003e9f8       openssl_add_all_ciphers_int 000000000003ecb8 f   OpensslLib:c_allc.obj
 0001:0003ee94       RAND_DRBG_set              000000000003f154 f   OpensslLib:drbg_lib.obj
 0001:0003f068       RAND_DRBG_free             000000000003f328 f   OpensslLib:drbg_lib.obj
 0001:0003f0d8       RAND_DRBG_instantiate      000000000003f398 f   OpensslLib:drbg_lib.obj
 0001:0003f2fc       RAND_DRBG_reseed           000000000003f5bc f   OpensslLib:drbg_lib.obj
 0001:0003f460       rand_drbg_restart          000000000003f720 f   OpensslLib:drbg_lib.obj
 0001:0003f7a0       RAND_DRBG_generate         000000000003fa60 f   OpensslLib:drbg_lib.obj
 0001:0003f904       RAND_DRBG_bytes            000000000003fbc4 f   OpensslLib:drbg_lib.obj
 0001:0003fe10       RAND_DRBG_get0_master      00000000000400d0 f   OpensslLib:drbg_lib.obj
 0001:0003fe44       RAND_DRBG_get0_private     0000000000040104 f   OpensslLib:drbg_lib.obj
 0001:0003ff78       rand_drbg_get_entropy      0000000000040238 f   OpensslLib:rand_lib.obj
 0001:000400dc       rand_drbg_cleanup_entropy  000000000004039c f   OpensslLib:rand_lib.obj
 0001:00040118       rand_drbg_get_nonce        00000000000403d8 f   OpensslLib:rand_lib.obj
 0001:000401dc       rand_drbg_cleanup_nonce    000000000004049c f   OpensslLib:rand_lib.obj
 0001:00040278       rand_pool_new              0000000000040538 f   OpensslLib:rand_lib.obj
 0001:00040370       rand_pool_free             0000000000040630 f   OpensslLib:rand_lib.obj
 0001:000404cc       rand_pool_bytes_needed     000000000004078c f   OpensslLib:rand_lib.obj
 0001:00040554       rand_pool_add              0000000000040814 f   OpensslLib:rand_lib.obj
 0001:000405e8       rand_pool_add_begin        00000000000408a8 f   OpensslLib:rand_lib.obj
 0001:00040640       rand_pool_add_end          0000000000040900 f   OpensslLib:rand_lib.obj
 0001:00040684       RAND_get_rand_method       0000000000040944 f   OpensslLib:rand_lib.obj
 0001:000406d0       RAND_priv_bytes            0000000000040990 f   OpensslLib:rand_lib.obj
 0001:00040728       RAND_bytes                 00000000000409e8 f   OpensslLib:rand_lib.obj
 0001:000452a4       BIO_dump_indent_cb         0000000000045564 f   OpensslLib:b_dump.obj
 0001:00045468       BN_add                     0000000000045728 f   OpensslLib:bn_add.obj
 0001:000454d8       BN_sub                     0000000000045798 f   OpensslLib:bn_add.obj
 0001:00045550       BN_uadd                    0000000000045810 f   OpensslLib:bn_add.obj
 0001:0004561c       BN_usub                    00000000000458dc f   OpensslLib:bn_add.obj
 0001:0004570c       EC_ec_pre_comp_free        00000000000459cc f   OpensslLib:ec_mult.obj
 0001:0004577c       ec_scalar_mul_ladder       0000000000045a3c f   OpensslLib:ec_mult.obj
 0001:00045d80       ec_wNAF_mul                0000000000046040 f   OpensslLib:ec_mult.obj
 0001:0004690c       BN_div                     0000000000046bcc f   OpensslLib:bn_div.obj
 0001:00046994       bn_div_fixed_top           0000000000046c54 f   OpensslLib:bn_div.obj
 0001:00046d94       BN_mod_exp                 0000000000047054 f   OpensslLib:bn_exp.obj
 0001:00046e04       BN_mod_exp_recp            00000000000470c4 f   OpensslLib:bn_exp.obj
 0001:000471d8       BN_mod_exp_mont            0000000000047498 f   OpensslLib:bn_exp.obj
 0001:000479bc       BN_mod_exp_mont_consttime  0000000000047c7c f   OpensslLib:bn_exp.obj
 0001:00047ec4       BN_mod_exp_mont_word       0000000000048184 f   OpensslLib:bn_exp.obj
 0001:000482fc       bn_mul_fixed_top           00000000000485bc f   OpensslLib:bn_mul.obj
 0001:00048400       bn_mul_normal              00000000000486c0 f   OpensslLib:bn_mul.obj
 0001:00048e64       EVP_DigestSignFinal        0000000000049124 f   OpensslLib:m_sigver.obj
 0001:00049044       EVP_DigestVerifyFinal      0000000000049304 f   OpensslLib:m_sigver.obj
 0001:00049488       EVP_SignFinal              0000000000049748 f   OpensslLib:p_sign.obj
 0001:00049660       EVP_PKEY_sign_init         0000000000049920 f   OpensslLib:pmeth_fn.obj
 0001:000496bc       EVP_PKEY_sign              000000000004997c f   OpensslLib:pmeth_fn.obj
 0001:000497cc       EVP_PKEY_verify_init       0000000000049a8c f   OpensslLib:pmeth_fn.obj
 0001:00049828       EVP_PKEY_verify            0000000000049ae8 f   OpensslLib:pmeth_fn.obj
 0001:00049884       X509at_get_attr_by_OBJ     0000000000049b44 f   OpensslLib:x509_att.obj
 0001:00049908       EVP_VerifyFinal            0000000000049bc8 f   OpensslLib:p_verify.obj
 0001:00049a44       EC_GROUP_new_curve_GFp     0000000000049d04 f   OpensslLib:ec_cvt.obj
 0001:00049b80       bn_mul_add_words           0000000000049e40 f   OpensslLib:bn_asm.obj
 0001:00049c50       bn_mul_words               0000000000049f10 f   OpensslLib:bn_asm.obj
 0001:00049d10       bn_div_words               0000000000049fd0 f   OpensslLib:bn_asm.obj
 0001:00049e74       bn_add_words               000000000004a134 f   OpensslLib:bn_asm.obj
 0001:00049ecc       bn_sub_words               000000000004a18c f   OpensslLib:bn_asm.obj
 0001:0004a2a0       int_bn_mod_inverse         000000000004a560 f   OpensslLib:bn_gcd.obj
 0001:0004a950       BN_mod_inverse             000000000004ac10 f   OpensslLib:bn_gcd.obj
 0001:0004a9f0       BN_gcd                     000000000004acb0 f   OpensslLib:bn_gcd.obj
 0001:0004acb4       bn_sqr_fixed_top           000000000004af74 f   OpensslLib:bn_sqr.obj
 0001:0004ade0       bn_sqr_normal              000000000004b0a0 f   OpensslLib:bn_sqr.obj
 0001:0004af18       RSA_X931_hash_id           000000000004b1d8 f   OpensslLib:rsa_x931.obj
 0001:0004af4c       RSA_padding_check_PKCS1_type_1 000000000004b20c f   OpensslLib:rsa_pk1.obj
 0001:0004b01c       RSA_padding_add_PKCS1_type_2 000000000004b2dc f   OpensslLib:rsa_pk1.obj
 0001:0004b0d4       RSA_padding_check_PKCS1_type_2 000000000004b394 f   OpensslLib:rsa_pk1.obj
 0001:0004b3e4       RSA_padding_add_SSLv23     000000000004b6a4 f   OpensslLib:rsa_ssl.obj
 0001:0004b4b0       RSA_padding_check_SSLv23   000000000004b770 f   OpensslLib:rsa_ssl.obj
 0001:0004b89c       BN_nnmod                   000000000004bb5c f   OpensslLib:bn_mod.obj
 0001:0004b900       bn_mod_add_fixed_top       000000000004bbc0 f   OpensslLib:bn_mod.obj
 0001:0004baa8       bn_mod_sub_fixed_top       000000000004bd68 f   OpensslLib:bn_mod.obj
 0001:0004bc28       BN_mod_sub_quick           000000000004bee8 f   OpensslLib:bn_mod.obj
 0001:0004bc68       BN_mod_mul                 000000000004bf28 f   OpensslLib:bn_mod.obj
 0001:0004bd20       BN_mod_sqr                 000000000004bfe0 f   OpensslLib:bn_mod.obj
 0001:0004bd78       BN_mod_lshift1_quick       000000000004c038 f   OpensslLib:bn_mod.obj
 0001:0004bdc0       BN_mod_lshift_quick        000000000004c080 f   OpensslLib:bn_mod.obj
 0001:0004be80       RSA_padding_add_PKCS1_OAEP_mgf1 000000000004c140 f   OpensslLib:rsa_oaep.obj
 0001:0004c130       RSA_padding_check_PKCS1_OAEP_mgf1 000000000004c3f0 f   OpensslLib:rsa_oaep.obj
 0001:0004c67c       PKCS1_MGF1                 000000000004c93c f   OpensslLib:rsa_oaep.obj
 0001:0004c9b0       i2v_ASN1_BIT_STRING        000000000004cc70 f   OpensslLib:v3_bitst.obj
 0001:0004ca44       v2i_ASN1_BIT_STRING        000000000004cd04 f   OpensslLib:v3_bitst.obj
 0001:0004d440       i2s_ASN1_IA5STRING         000000000004d700 f   OpensslLib:v3_ia5.obj
 0001:0004d4b0       s2i_ASN1_IA5STRING         000000000004d770 f   OpensslLib:v3_ia5.obj
 0001:0004db1c       i2s_ASN1_OCTET_STRING      000000000004dddc f   OpensslLib:v3_skey.obj
 0001:0004dc78       i2s_ASN1_ENUMERATED_TABLE  000000000004df38 f   OpensslLib:v3_enum.obj
 0001:0004ddbc       POLICY_MAPPING_free        000000000004e07c f   OpensslLib:v3_pmaps.obj
 0001:0004e1e8       SXNET_add_id_INTEGER       000000000004e4a8 f   OpensslLib:v3_sxnet.obj
 0001:0004e3b0       SXNET_get_id_INTEGER       000000000004e670 f   OpensslLib:v3_sxnet.obj
 0001:0004ef80       ASN1_item_pack             000000000004f240 f   OpensslLib:asn_pack.obj
 0001:0004f060       ASN1_generate_v3           000000000004f320 f   OpensslLib:asn1_gen.obj
 0001:0004fe54       ec_GFp_simple_set_compressed_coordinates 0000000000050114 f   OpensslLib:ecp_oct.obj
 0001:000501e4       ec_GFp_simple_point2oct    00000000000504a4 f   OpensslLib:ecp_oct.obj
 0001:00050474       ec_GFp_simple_oct2point    0000000000050734 f   OpensslLib:ecp_oct.obj
 0001:00050670       ossl_ecdsa_sign            0000000000050930 f   OpensslLib:ecdsa_ossl.obj
 0001:000509cc       ossl_ecdsa_sign_setup      0000000000050c8c f   OpensslLib:ecdsa_ossl.obj
 0001:000509e8       ossl_ecdsa_sign_sig        0000000000050ca8 f   OpensslLib:ecdsa_ossl.obj
 0001:00050d88       ossl_ecdsa_verify          0000000000051048 f   OpensslLib:ecdsa_ossl.obj
 0001:00050ebc       ossl_ecdsa_verify_sig      000000000005117c f   OpensslLib:ecdsa_ossl.obj
 0001:000511f0       ossl_ecdh_compute_key      00000000000514b0 f   OpensslLib:ecdh_ossl.obj
 0001:00051228       ecdh_simple_compute_key    00000000000514e8 f   OpensslLib:ecdh_ossl.obj
 0001:00051484       DH_check_params            0000000000051744 f   OpensslLib:dh_check.obj
 0001:00051568       DH_check                   0000000000051828 f   OpensslLib:dh_check.obj
 0001:0005172c       DH_check_pub_key           00000000000519ec f   OpensslLib:dh_check.obj
 0001:00051984       c448_ed448_sign            0000000000051c44 f   OpensslLib:eddsa.obj
 0001:00051cec       c448_ed448_verify          0000000000051fac f   OpensslLib:eddsa.obj
 0001:00051f00       ED448_public_from_private  00000000000521c0 f   OpensslLib:eddsa.obj
 0001:00058008       ED25519_sign               00000000000582c8 f   OpensslLib:curve25519.obj
 0001:000581a4       ED25519_verify             0000000000058464 f   OpensslLib:curve25519.obj
 0001:000583d0       X25519_public_from_private 0000000000058690 f   OpensslLib:curve25519.obj
 0001:00058494       ASN1_buf_print             0000000000058754 f   OpensslLib:t_pkey.obj
 0001:0005857c       ASN1_bn_print              000000000005883c f   OpensslLib:t_pkey.obj
 0001:00059004       curve448_precomputed_scalarmul 00000000000592c4 f   OpensslLib:curve448.obj
 0001:00059214       curve448_point_mul_by_ratio_and_encode_like_eddsa 00000000000594d4 f   OpensslLib:curve448.obj
 0001:000594a0       curve448_point_decode_like_eddsa_and_mul_by_ratio 0000000000059760 f   OpensslLib:curve448.obj
 0001:00059770       x448_int                   0000000000059a30 f   OpensslLib:curve448.obj
 0001:00059dac       curve448_base_double_scalarmul_non_secret 000000000005a06c f   OpensslLib:curve448.obj
 0001:0005a178       X448_public_from_private   000000000005a438 f   OpensslLib:curve448.obj
 0001:0005a2d4       ECPKParameters_print       000000000005a594 f   OpensslLib:eck_prn.obj
 0001:0005ac1c       EC_GROUP_check             000000000005aedc f   OpensslLib:ec_check.obj
 0001:0005ad54       RSA_check_key_ex           000000000005b014 f   OpensslLib:rsa_chk.obj
 0001:0005b49c       X509_signature_dump        000000000005b75c f   OpensslLib:t_x509.obj
 0001:0005b5a8       i2a_ASN1_INTEGER           000000000005b868 f   OpensslLib:f_int.obj
 0001:0005b744       d2i_DHxparams              000000000005ba04 f   OpensslLib:dh_asn1.obj
 0001:0005b820       HMAC_Init_ex               000000000005bae0 f   OpensslLib:hmac.obj
 0001:0005ba40       HMAC_Final                 000000000005bd00 f   OpensslLib:hmac.obj
 0001:0005bad0       HMAC_CTX_new               000000000005bd90 f   OpensslLib:hmac.obj
 0001:0005bb4c       HMAC_CTX_free              000000000005be0c f   OpensslLib:hmac.obj
 0001:0005bc28       HMAC_CTX_copy              000000000005bee8 f   OpensslLib:hmac.obj
 0001:0005f664       drbg_ctr_init              000000000005f924 f   OpensslLib:drbg_ctr.obj
 0001:0005ff2c       rand_pool_acquire_entropy  00000000000601ec f   OpensslLib:rand_pool.obj
 0001:0005fffc       DH_new_by_nid              00000000000602bc f   OpensslLib:dh_rfc7919.obj
 0001:00060234       RSA_sign_ASN1_OCTET_STRING 00000000000604f4 f   OpensslLib:rsa_saos.obj
 0001:00060d10       RSA_verify_PKCS1_PSS_mgf1  0000000000060fd0 f   OpensslLib:rsa_pss.obj
 0001:00061034       RSA_padding_add_PKCS1_PSS_mgf1 00000000000612f4 f   OpensslLib:rsa_pss.obj
 0001:00061344       sm2_compute_z_digest       0000000000061604 f   OpensslLib:sm2_sign.obj
 0001:00061cfc       sm2_sign                   0000000000061fbc f   OpensslLib:sm2_sign.obj
 0001:00061e88       sm2_encrypt                0000000000062148 f   OpensslLib:sm2_crypt.obj
 0001:00062340       sm2_decrypt                0000000000062600 f   OpensslLib:sm2_crypt.obj
 0001:0006284c       SipHash_Init               0000000000062b0c f   OpensslLib:siphash.obj
 0001:00062988       SipHash_Update             0000000000062c48 f   OpensslLib:siphash.obj
 0001:00062ba4       SipHash_Final              0000000000062e64 f   OpensslLib:siphash.obj
 0001:00062de8       ecdh_KDF_X9_63             00000000000630a8 f   OpensslLib:ecdh_kdf.obj
 0001:00062fcc       BN_mod_mul_reciprocal      000000000006328c f   OpensslLib:bn_recp.obj
 0001:0006308c       BN_div_recp                000000000006334c f   OpensslLib:bn_recp.obj
 0001:00063508       ec_GFp_nist_group_copy     00000000000637c8 f   OpensslLib:ecp_nist.obj
 0001:0006351c       ec_GFp_nist_group_set_curve 00000000000637dc f   OpensslLib:ecp_nist.obj
 0001:00063660       ec_GFp_nist_field_mul      0000000000063920 f   OpensslLib:ecp_nist.obj
 0001:00063734       ec_GFp_nist_field_sqr      00000000000639f4 f   OpensslLib:ecp_nist.obj
 0001:00063840       BN_nist_mod_192            0000000000063b00 f   OpensslLib:bn_nist.obj
 0001:00063a8c       BN_nist_mod_224            0000000000063d4c f   OpensslLib:bn_nist.obj
 0001:00063de0       BN_nist_mod_256            00000000000640a0 f   OpensslLib:bn_nist.obj
 0001:00064130       BN_nist_mod_384            00000000000643f0 f   OpensslLib:bn_nist.obj
 0001:000644f4       BN_nist_mod_521            00000000000647b4 f   OpensslLib:bn_nist.obj
 0001:000646c8       ec_GFp_mont_group_init     0000000000064988 f   OpensslLib:ecp_mont.obj
 0001:000646ec       ec_GFp_mont_group_finish   00000000000649ac f   OpensslLib:ecp_mont.obj
 0001:00064724       ec_GFp_mont_group_clear_finish 00000000000649e4 f   OpensslLib:ecp_mont.obj
 0001:0006475c       ec_GFp_mont_group_copy     0000000000064a1c f   OpensslLib:ecp_mont.obj
 0001:00064858       ec_GFp_mont_group_set_curve 0000000000064b18 f   OpensslLib:ecp_mont.obj
 0001:00064a7c       ec_GFp_mont_field_mul      0000000000064d3c f   OpensslLib:ecp_mont.obj
 0001:00064ad4       ec_GFp_mont_field_sqr      0000000000064d94 f   OpensslLib:ecp_mont.obj
 0001:00064b20       ec_GFp_mont_field_inv      0000000000064de0 f   OpensslLib:ecp_mont.obj
 0001:00064c30       ec_GFp_mont_field_encode   0000000000064ef0 f   OpensslLib:ecp_mont.obj
 0001:00064c84       ec_GFp_mont_field_decode   0000000000064f44 f   OpensslLib:ecp_mont.obj
 0001:00064ccc       ec_GFp_mont_field_set_to_one 0000000000064f8c f   OpensslLib:ecp_mont.obj
 0001:00064d10       i2a_ASN1_STRING            0000000000064fd0 f   OpensslLib:f_string.obj
 0001:00064e30       BN_mod_sqrt                00000000000650f0 f   OpensslLib:bn_sqrt.obj
 0001:0006556c       BN_kronecker               000000000006582c f   OpensslLib:bn_kron.obj
 0001:000657f4       BN_GENCB_call              0000000000065ab4 f   OpensslLib:bn_prime.obj
 0001:00065848       BN_generate_prime_ex       0000000000065b08 f   OpensslLib:bn_prime.obj
 0001:00065ab0       BN_is_prime_fasttest_ex    0000000000065d70 f   OpensslLib:bn_prime.obj
 0001:000664b4       curve448_scalar_add        0000000000066774 f   OpensslLib:scalar.obj
 0001:00066508       curve448_scalar_decode_long 00000000000667c8 f   OpensslLib:scalar.obj
 0001:000666cc       curve448_scalar_halve      000000000006698c f   OpensslLib:scalar.obj
 0001:000667e0       gf_serialize               0000000000066aa0 f   OpensslLib:f_generic.obj
 0001:00066870       gf_deserialize             0000000000066b30 f   OpensslLib:f_generic.obj
 0001:0006693c       gf_strong_reduce           0000000000066bfc f   OpensslLib:f_generic.obj
 0001:000669c0       gf_sub                     0000000000066c80 f   OpensslLib:f_generic.obj
 0001:00066a10       gf_add                     0000000000066cd0 f   OpensslLib:f_generic.obj
 0001:00066a3c       gf_eq                      0000000000066cfc f   OpensslLib:f_generic.obj
 0001:00066aac       gf_isr                     0000000000066d6c f   OpensslLib:f_generic.obj
 0001:00066cd0       gf_mul                     0000000000066f90 f   OpensslLib:f_impl.obj
 0001:00066ee8       gf_mulw_unsigned           00000000000671a8 f   OpensslLib:f_impl.obj
 0001:00066ffc       SM4_set_key                00000000000672bc f   OpensslLib:sm4.obj
 0001:000671b8       SM4_encrypt                0000000000067478 f   OpensslLib:sm4.obj
 0001:00067a68       SM4_decrypt                0000000000067d28 f   OpensslLib:sm4.obj
 0001:00068318       CRYPTO_cbc128_encrypt      00000000000685d8 f   OpensslLib:cbc128.obj
 0001:000683ec       CRYPTO_cbc128_decrypt      00000000000686ac f   OpensslLib:cbc128.obj
 0001:000684ac       CRYPTO_ofb128_encrypt      000000000006876c f   OpensslLib:ofb128.obj
 0001:00068534       CRYPTO_ctr128_encrypt      00000000000687f4 f   OpensslLib:ctr128.obj
 0001:000685e4       CRYPTO_ctr128_encrypt_ctr32 00000000000688a4 f   OpensslLib:ctr128.obj
 0001:000687dc       CRYPTO_cfb128_encrypt      0000000000068a9c f   OpensslLib:cfb128.obj
 0001:000689dc       CRYPTO_cfb128_1_encrypt    0000000000068c9c f   OpensslLib:cfb128.obj
 0001:00068ad0       CRYPTO_cfb128_8_encrypt    0000000000068d90 f   OpensslLib:cfb128.obj
 0001:00068cd4       CRYPTO_gcm128_init         0000000000068f94 f   OpensslLib:gcm128.obj
 0001:00068eb0       CRYPTO_gcm128_setiv        0000000000069170 f   OpensslLib:gcm128.obj
 0001:00069074       CRYPTO_gcm128_aad          0000000000069334 f   OpensslLib:gcm128.obj
 0001:000691b0       CRYPTO_gcm128_encrypt      0000000000069470 f   OpensslLib:gcm128.obj
 0001:000692f8       CRYPTO_gcm128_decrypt      00000000000695b8 f   OpensslLib:gcm128.obj
 0001:00069440       CRYPTO_gcm128_finish       0000000000069700 f   OpensslLib:gcm128.obj
 0001:000695c8       CRYPTO_gcm128_tag          0000000000069888 f   OpensslLib:gcm128.obj
 0001:00069600       CRYPTO_ccm128_init         00000000000698c0 f   OpensslLib:ccm128.obj
 0001:00069668       CRYPTO_ccm128_setiv        0000000000069928 f   OpensslLib:ccm128.obj
 0001:000696fc       CRYPTO_ccm128_aad          00000000000699bc f   OpensslLib:ccm128.obj
 0001:00069878       CRYPTO_ccm128_encrypt      0000000000069b38 f   OpensslLib:ccm128.obj
 0001:00069b2c       CRYPTO_ccm128_decrypt      0000000000069dec f   OpensslLib:ccm128.obj
 0001:00069d28       CRYPTO_ccm128_encrypt_ccm64 0000000000069fe8 f   OpensslLib:ccm128.obj
 0001:00069f70       CRYPTO_ccm128_decrypt_ccm64 000000000006a230 f   OpensslLib:ccm128.obj
 0001:0006a168       CRYPTO_ccm128_tag          000000000006a428 f   OpensslLib:ccm128.obj
 0001:0006a500       aria_encrypt               000000000006a7c0 f   OpensslLib:aria.obj
 0001:0006a5f4       aria_set_encrypt_key       000000000006a8b4 f   OpensslLib:aria.obj
 0001:0006a920       aria_set_decrypt_key       000000000006abe0 f   OpensslLib:aria.obj
 0001:0006a9d4       CRYPTO_xts128_encrypt      000000000006ac94 f   OpensslLib:xts128.obj
 0001:0006ac74       AES_set_encrypt_key        000000000006af34 f   OpensslLib:aes_core.obj
 0001:0006b25c       AES_set_decrypt_key        000000000006b51c f   OpensslLib:aes_core.obj
 0001:0006b498       AES_encrypt                000000000006b758 f   OpensslLib:aes_core.obj
 0001:0006badc       AES_decrypt                000000000006bd9c f   OpensslLib:aes_core.obj
 0001:0006c10c       CRYPTO_128_wrap            000000000006c3cc f   OpensslLib:wrap128.obj
 0001:0006c38c       CRYPTO_128_wrap_pad        000000000006c64c f   OpensslLib:wrap128.obj
 0001:0006c4b8       CRYPTO_128_unwrap_pad      000000000006c778 f   OpensslLib:wrap128.obj
 0001:0006c65c       AES_cbc_encrypt            000000000006c91c f   OpensslLib:aes_cbc.obj
 0001:0006d66c       SHA3_absorb                000000000006d92c f   OpensslLib:keccak1600.obj
 0001:0006d734       SHA3_squeeze               000000000006d9f4 f   OpensslLib:keccak1600.obj
 0001:0006d810       sm3_final                  000000000006dad0 f   OpensslLib:sm3.obj
 0001:0006da40       sm3_block_data_order       000000000006dd00 f   OpensslLib:sm3.obj
 0001:00070118       ec_GFp_simple_group_init   00000000000703d8 f   OpensslLib:ecp_smpl.obj
 0001:0007017c       ec_GFp_simple_group_finish 000000000007043c f   OpensslLib:ecp_smpl.obj
 0001:000701a8       ec_GFp_simple_group_clear_finish 0000000000070468 f   OpensslLib:ecp_smpl.obj
 0001:000701d4       ec_GFp_simple_group_copy   0000000000070494 f   OpensslLib:ecp_smpl.obj
 0001:00070234       ec_GFp_simple_group_set_curve 00000000000704f4 f   OpensslLib:ecp_smpl.obj
 0001:000703d8       ec_GFp_simple_group_get_curve 0000000000070698 f   OpensslLib:ecp_smpl.obj
 0001:000704e4       ec_GFp_simple_group_get_degree 00000000000707a4 f   OpensslLib:ecp_smpl.obj
 0001:000704f0       ec_GFp_simple_group_check_discriminant 00000000000707b0 f   OpensslLib:ecp_smpl.obj
 0001:000706f8       ec_GFp_simple_point_init   00000000000709b8 f   OpensslLib:ecp_smpl.obj
 0001:0007075c       ec_GFp_simple_point_finish 0000000000070a1c f   OpensslLib:ecp_smpl.obj
 0001:00070788       ec_GFp_simple_point_clear_finish 0000000000070a48 f   OpensslLib:ecp_smpl.obj
 0001:000707b8       ec_GFp_simple_point_copy   0000000000070a78 f   OpensslLib:ecp_smpl.obj
 0001:00070820       ec_GFp_simple_point_set_to_infinity 0000000000070ae0 f   OpensslLib:ecp_smpl.obj
 0001:00070834       ec_GFp_simple_set_Jprojective_coordinates_GFp 0000000000070af4 f   OpensslLib:ecp_smpl.obj
 0001:000709b8       ec_GFp_simple_get_Jprojective_coordinates_GFp 0000000000070c78 f   OpensslLib:ecp_smpl.obj
 0001:00070aec       ec_GFp_simple_point_set_affine_coordinates 0000000000070dac f   OpensslLib:ecp_smpl.obj
 0001:00070b78       ec_GFp_simple_point_get_affine_coordinates 0000000000070e38 f   OpensslLib:ecp_smpl.obj
 0001:00070e30       ec_GFp_simple_add          00000000000710f0 f   OpensslLib:ecp_smpl.obj
 0001:000713a4       ec_GFp_simple_dbl          0000000000071664 f   OpensslLib:ecp_smpl.obj
 0001:000717d8       ec_GFp_simple_invert       0000000000071a98 f   OpensslLib:ecp_smpl.obj
 0001:00071818       ec_GFp_simple_is_at_infinity 0000000000071ad8 f   OpensslLib:ecp_smpl.obj
 0001:00071828       ec_GFp_simple_is_on_curve  0000000000071ae8 f   OpensslLib:ecp_smpl.obj
 0001:00071afc       ec_GFp_simple_cmp          0000000000071dbc f   OpensslLib:ecp_smpl.obj
 0001:00071d90       ec_GFp_simple_make_affine  0000000000072050 f   OpensslLib:ecp_smpl.obj
 0001:00071e98       ec_GFp_simple_points_make_affine 0000000000072158 f   OpensslLib:ecp_smpl.obj
 0001:000722e8       ec_GFp_simple_field_inv    00000000000725a8 f   OpensslLib:ecp_smpl.obj
 0001:0007240c       ec_GFp_simple_blind_coordinates 00000000000726cc f   OpensslLib:ecp_smpl.obj
 0001:00072574       ec_GFp_simple_ladder_pre   0000000000072834 f   OpensslLib:ecp_smpl.obj
 0001:00072818       ec_GFp_simple_ladder_step  0000000000072ad8 f   OpensslLib:ecp_smpl.obj
 0001:00072da4       ec_GFp_simple_ladder_post  0000000000073064 f   OpensslLib:ecp_smpl.obj
 0001:00073454       strncasecmp                0000000000073714 f   SmmCryptLib:CrtWrapper.obj
 0001:000734fc       BIO_printf                 00000000000737bc f   SmmCryptLib:CrtWrapper.obj
 0001:000734fc       sscanf                     00000000000737bc f   SmmCryptLib:CrtWrapper.obj
 0001:0007350c       strcpy                     00000000000737cc f   SmmCryptLib:CrtWrapper.obj
 0001:00073630       qsort                      00000000000738f0 f   SmmCryptLib:CrtWrapper.obj
 0001:000736f0       BIO_snprintf               00000000000739b0 f   SmmCryptLib:CrtWrapper.obj
 0001:000736f8       ScanMem8                   00000000000739b8 f   BaseMemoryLibRepStr:ScanMem8Wrapper.obj
 0001:0007377c       GetRandomNumber64          0000000000073a3c f   BaseRngLibTimerLib:RngLibTimer.obj
 0001:000737dc       memset                     0000000000073a9c f   BaseIntrinsicLib:MemoryIntrinsics.obj
 0001:000737f4       strcmp                     0000000000073ab4 f   BaseIntrinsicLib:MemoryIntrinsics.obj
 0002:00000000       ??_C@_0CB@DMEJJJHA@?6ASSERT_EFI_ERROR?5?$CIStatus?5?$DN?5?$CFr?$CJ@ 0000000000073ac0     UefiDriverEntryPoint:DriverEntryPoint.obj
 0002:00000028       ??_C@_0CH@BBNBJKHK@?$CB?$CI?$CI?$CIINTN?$CJ?$CIRETURN_STATUS?$CJ?$CIStatus@ 0000000000073ae8     UefiDriverEntryPoint:DriverEntryPoint.obj
 0002:00000050       ??_C@_0M@KDCCMKPO@VariableSmm@ 0000000000073b10     VariableSmm:AutoGen.obj
 0002:00000060       ??_C@_0CE@IBFOBMLB@?6ASSERT_RETURN_ERROR?5?$CIStatus?5?$DN?5@ 0000000000073b20     VariableSmm:AutoGen.obj
 0002:00000090       ??_C@_0HF@POEMFKBA@d?3?2myedk2?2edk2?2Build?2OvmfX64?2DE@ 0000000000073b50     VariableSmm:AutoGen.obj
 0002:00000108       ??_C@_0BC@FEDIJHFF@?$CI?$CIBOOLEAN?$CJ?$CI0?$DN?$DN1?$CJ?$CJ@ 0000000000073bc8     VariableSmm:AutoGen.obj
 0002:0000011c       _gPcd_FixedAtBuild_PcdControlFlowEnforcementPropertyMask 0000000000073bdc     VariableSmm:AutoGen.obj
 0002:00000120       ??_C@_0FC@MBDDAKCP@d?3?2myedk2?2edk2?2MdeModulePkg?2Uni@ 0000000000073be0     VariableSmm:VariableTraditionalMm.obj
 0002:00000178       ??_C@_0DM@PLGGAHBF@SmmVariableHandler?3?5SMM?5communi@ 0000000000073c38     VariableSmm:VariableSmm.obj
 0002:000001c0       ??_C@_0EE@KCINALMM@SmmVariableHandler?3?5SMM?5communi@ 0000000000073c80     VariableSmm:VariableSmm.obj
 0002:00000210       ??_C@_0EE@EONGHIIL@SmmVariableHandler?3?5SMM?5communi@ 0000000000073cd0     VariableSmm:VariableSmm.obj
 0002:00000258       ??_C@_0DF@PKJEOJKE@GetVariable?3?5SMM?5communication?5@ 0000000000073d18     VariableSmm:VariableSmm.obj
 0002:00000290       ??_C@_0EA@PIMKJENB@GetVariable?3?5Data?5size?5exceed?5c@ 0000000000073d50     VariableSmm:VariableSmm.obj
 0002:000002d0       ??_C@_0DN@JBHKAMFD@GetNextVariableName?3?5SMM?5commun@ 0000000000073d90     VariableSmm:VariableSmm.obj
 0002:00000310       ??_C@_0EI@PGIMMGJP@GetNextVariableName?3?5Data?5size?5@ 0000000000073dd0     VariableSmm:VariableSmm.obj
 0002:00000358       ??_C@_0DF@FKMIDDPF@SetVariable?3?5SMM?5communication?5@ 0000000000073e18     VariableSmm:VariableSmm.obj
 0002:00000390       ??_C@_0EA@DHOCNMFL@SetVariable?3?5Data?5size?5exceed?5c@ 0000000000073e50     VariableSmm:VariableSmm.obj
 0002:000003d0       ??_C@_0DL@FGIDIKIP@QueryVariableInfo?3?5SMM?5communic@ 0000000000073e90     VariableSmm:VariableSmm.obj
 0002:00000410       ??_C@_0DI@DACJLPCA@GetPayloadSize?3?5SMM?5communicati@ 0000000000073ed0     VariableSmm:VariableSmm.obj
 0002:00000450       ??_C@_0EI@JNKEJIGE@d?3?2myedk2?2edk2?2MdeModulePkg?2Uni@ 0000000000073f10     VariableSmm:VariableSmm.obj
 0002:000004a0       ??_C@_0EF@BKPHJKGF@VarCheckVariablePropertyGet?3?5SM@ 0000000000073f60     VariableSmm:VariableSmm.obj
 0002:000004f0       ??_C@_0FA@GDKNMBPK@VarCheckVariablePropertyGet?3?5Da@ 0000000000073fb0     VariableSmm:VariableSmm.obj
 0002:00000540       ??_C@_0EJ@KEEHKJKO@InitRuntimeVariableCacheContext@ 0000000000074000     VariableSmm:VariableSmm.obj
 0002:00000590       ??_C@_0EI@HALHNCIN@InitRuntimeVariableCacheContext@ 0000000000074050     VariableSmm:VariableSmm.obj
 0002:000005e0       ??_C@_0EJ@FFEODBEC@InitRuntimeVariableCacheContext@ 00000000000740a0     VariableSmm:VariableSmm.obj
 0002:00000630       ??_C@_0EK@EIIOKHPK@InitRuntimeVariableCacheContext@ 00000000000740f0     VariableSmm:VariableSmm.obj
 0002:00000680       ??_C@_0FB@DFCOGJDF@InitRuntimeVariableCacheContext@ 0000000000074140     VariableSmm:VariableSmm.obj
 0002:000006e0       ??_C@_0FG@EDPHKJCM@InitRuntimeVariableCacheContext@ 00000000000741a0     VariableSmm:VariableSmm.obj
 0002:00000740       ??_C@_0FK@IIDCPKHC@InitRuntimeVariableCacheContext@ 0000000000074200     VariableSmm:VariableSmm.obj
 0002:000007a0       ??_C@_0FM@ILEMKNJK@InitRuntimeVariableCacheContext@ 0000000000074260     VariableSmm:VariableSmm.obj
 0002:00000800       ??_C@_0FH@HCOKKPJJ@InitRuntimeVariableCacheContext@ 00000000000742c0     VariableSmm:VariableSmm.obj
 0002:00000860       ??_C@_0GA@HIMPPOIK@InitRuntimeVariableCacheContext@ 0000000000074320     VariableSmm:VariableSmm.obj
 0002:000008c0       ??_C@_0DN@CJDKGFBH@GetRuntimeCacheInfo?3?5SMM?5commun@ 0000000000074380     VariableSmm:VariableSmm.obj
 0002:00000900       ??_C@_0CG@PEOADJAH@?$FLVariable?$FNSMM_END_OF_DXE?5is?5sig@ 00000000000743c0     VariableSmm:VariableSmm.obj
 0002:00000928       ??_C@_0DL@MOMKHMLG@Variable?5write?5service?5initiali@ 00000000000743e8     VariableSmm:VariableSmm.obj
 0002:00000968       ??_C@_0BL@GJFOFDCF@NvStorageVariableBase?5?$CB?$DN?50@ 0000000000074428     VariableSmm:VariableSmm.obj
 0002:00000988       ??_C@_0CJ@HMKMADPC@NvStorageVariableSize?5?$DM?$DN?5FtwMax@ 0000000000074448     VariableSmm:VariableSmm.obj
 0002:000009b8       ??_C@_1BK@HEJFBPFA@?$AAV?$AAa?$AAr?$AAE?$AAr?$AAr?$AAo?$AAr?$AAF?$AAl?$AAa?$AAg@ 0000000000074478     VariableSmm:Variable.obj
 0002:000009e0       ??_C@_0EF@HIKBANCL@d?3?2myedk2?2edk2?2MdeModulePkg?2Uni@ 00000000000744a0     VariableSmm:Variable.obj
 0002:00000a28       ??_C@_0DD@HNKMGDLP@RecordVarErrorFlag?5?$CI0x?$CF02x?$CJ?5?$CFs?3@ 00000000000744e8     VariableSmm:Variable.obj
 0002:00000a60       ??_C@_0EE@MDIAOIDD@CommonRuntimeVariableSpace?5?$DN?50x@ 0000000000074520     VariableSmm:Variable.obj
 0002:00000aa8       ??_C@_0DN@PGDPNKGJ@CommonVariableSpace?5?$DN?50x?$CFx?5?9?5Co@ 0000000000074568     VariableSmm:Variable.obj
 0002:00000af0       ??_C@_0EI@OPJCBAKK@CommonMaxUserVariableSpace?5?$DN?50x@ 00000000000745b0     VariableSmm:Variable.obj
 0002:00000b38       ??_C@_0CH@LFODLFDP@Initialize?5variable?5error?5flag?5@ 00000000000745f8     VariableSmm:Variable.obj
 0002:00000b60       ??_C@_0CL@OFPOKHAJ@?$CB?$CI?$CI?$CIINTN?$CJ?$CIRETURN_STATUS?$CJ?$CIDoneSt@ 0000000000074620     VariableSmm:Variable.obj
 0002:00000b90       ??_C@_1CE@GLBFGNOF@?$AAP?$AAl?$AAa?$AAt?$AAf?$AAo?$AAr?$AAm?$AAL?$AAa?$AAn?$AAg?$AAC?$AAo?$AAd@ 0000000000074650     VariableSmm:Variable.obj
 0002:00000bb8       ??_C@_0DJ@JOLPIBDA@mVariableModuleGlobal?9?$DOPlatform@ 0000000000074678     VariableSmm:Variable.obj
 0002:00000bf8       ??_C@_0DE@IHKKGFED@mVariableModuleGlobal?9?$DOPlatform@ 00000000000746b8     VariableSmm:Variable.obj
 0002:00000c30       ??_C@_1BE@PMKNNMNM@?$AAL?$AAa?$AAn?$AAg?$AAC?$AAo?$AAd?$AAe?$AAs@ 00000000000746f0     VariableSmm:Variable.obj
 0002:00000c48       ??_C@_0DB@DANJMHI@mVariableModuleGlobal?9?$DOLangCode@ 0000000000074708     VariableSmm:Variable.obj
 0002:00000c80       ??_C@_1BK@GGGENMOA@?$AAP?$AAl?$AAa?$AAt?$AAf?$AAo?$AAr?$AAm?$AAL?$AAa?$AAn?$AAg@ 0000000000074740     VariableSmm:Variable.obj
 0002:00000ca0       ??_C@_19BALNHBBC@?$AAL?$AAa?$AAn?$AAg@ 0000000000074760     VariableSmm:Variable.obj
 0002:00000cb0       ??_C@_0EP@JAIEHPHA@Variable?5Driver?5Auto?5Update?5Pla@ 0000000000074770     VariableSmm:Variable.obj
 0002:00000d00       ??_C@_0EH@EPBEDH@Variable?5Driver?5Auto?5Update?5Lan@ 00000000000747c0     VariableSmm:Variable.obj
 0002:00000d50       ??_C@_0EH@KLDHFENI@Update?5NV?5variable?5before?5EFI_V@ 0000000000074810     VariableSmm:Variable.obj
 0002:00000da0       ??_C@_0EJ@PIJKKBKC@Update?5AUTH?5variable?5before?5EFI@ 0000000000074860     VariableSmm:Variable.obj
 0002:00000df0       ??_C@_0DG@HGNGOLDN@CacheVariable?9?$DOInDeletedTransit@ 00000000000748b0     VariableSmm:Variable.obj
 0002:00000e28       ??_C@_0BB@IHBMANOJ@VarDataSize?5?$CB?$DN?50@ 00000000000748e8     VariableSmm:Variable.obj
 0002:00000e40       ??_C@_0BB@HEEDHDJN@VarNameSize?5?$CB?$DN?50@ 0000000000074900     VariableSmm:Variable.obj
 0002:00000e58       ??_C@_0BL@EELNHLCI@VariableServiceSetVariable@ 0000000000074918     VariableSmm:Variable.obj
 0002:00000e78       ??_C@_0CO@BJEGLAME@?$CFa?3?5Failed?5to?5set?5variable?5?8?$CFs?8@ 0000000000074938     VariableSmm:Variable.obj
 0002:00000eb0       ??_C@_0FD@ODLBILOG@NameSize?$CI0x?$CFx?$CJ?5?$CL?5PayloadSize?$CI0x@ 0000000000074970     VariableSmm:Variable.obj
 0002:00000f10       ??_C@_0EP@PIAAPIMM@NameSize?$CI0x?$CFx?$CJ?5?$CL?5PayloadSize?$CI0x@ 00000000000749d0     VariableSmm:Variable.obj
 0002:00000f60       ??_C@_0FH@GOMLIAIB@NameSize?$CI0x?$CFx?$CJ?5?$CL?5PayloadSize?$CI0x@ 0000000000074a20     VariableSmm:Variable.obj
 0002:00000fc0       ??_C@_0GA@LEJLHOIJ@?$FLVariable?$FN?3?5Rewritten?5a?5preexis@ 0000000000074a80     VariableSmm:Variable.obj
 0002:00001020       ??_C@_0CJ@JLKAPOHL@?$CIVariable?9?$DOAttributes?5?$CG?50x00000@ 0000000000074ae0     VariableSmm:Variable.obj
 0002:00001050       ??_C@_0DL@LMHNPCMN@Variable?5driver?5flush?5the?5HOB?5v@ 0000000000074b10     VariableSmm:Variable.obj
 0002:00001090       ??_C@_0EH@GNLIFIG@Variable?5driver?5set?5the?5HOB?5var@ 0000000000074b50     VariableSmm:Variable.obj
 0002:000010e0       ??_C@_0EA@JNHAIEDK@Variable?5driver?3?5all?5HOB?5variab@ 0000000000074ba0     VariableSmm:Variable.obj
 0002:00001120       ??_C@_0DH@HFIICOHI@Variable?5driver?5will?5work?5with?5@ 0000000000074be0     VariableSmm:Variable.obj
 0002:00001158       ??_C@_0DC@OOENMNLB@NOTICE?5?9?5AuthVariableLibInitial@ 0000000000074c18     VariableSmm:Variable.obj
 0002:00001190       ??_C@_0EG@DKPIPHJP@Variable?5driver?5will?5continue?5t@ 0000000000074c50     VariableSmm:Variable.obj
 0002:000011d8       ??_C@_0BP@IMEEEHNN@AuthVarStorage?5?$CB?$DN?5?$CI?$CIvoid?5?$CK?$CJ?50?$CJ@ 0000000000074c98     VariableSmm:Variable.obj
 0002:000011f8       ??_C@_0CL@KLIAEIPG@AuthVarStorage?9?$DOSize?5?$DM?$DN?5AuthVar@ 0000000000074cb8     VariableSmm:Variable.obj
 0002:00001228       ??_C@_0CF@HLANNKA@ERROR?3?5Found?5two?5Auth?5Variable?5@ 0000000000074ce8     VariableSmm:Variable.obj
 0002:00001250       ??_C@_0DC@OLGEBAOD@ERROR?3?5Found?5one?5Auth?5?$CL?5one?5Nor@ 0000000000074d10     VariableSmm:Variable.obj
 0002:00001288       ??_C@_0CH@BEPNCMEL@ERROR?3?5Found?5two?5Normal?5Variabl@ 0000000000074d48     VariableSmm:Variable.obj
 0002:000012b0       ??_C@_0CJ@BMMLFEEO@HOB?5Variable?5Store?5header?5is?5co@ 0000000000074d70     VariableSmm:Variable.obj
 0002:000012e0       ??_C@_0DG@KHPPNHOC@Variable?5driver?5will?5work?5with?5@ 0000000000074da0     VariableSmm:Variable.obj
 0002:00001318       ??_C@_0DK@BOBGNLGH@Variable?5driver?5will?5work?5witho@ 0000000000074dd8     VariableSmm:Variable.obj
 0002:00001358       ??_C@_0DI@IAABAODH@NameSizeOfVariable?5?$CIPtrTrack?9?$DOC@ 0000000000074e18     VariableSmm:VariableParsing.obj
 0002:00001390       ??_C@_0EM@LEGAIKJB@d?3?2myedk2?2edk2?2MdeModulePkg?2Uni@ 0000000000074e50     VariableSmm:VariableParsing.obj
 0002:000013e0       ??_C@_0CB@EOGGIOIC@StoreType?5?$DM?5VariableStoreTypeMa@ 0000000000074ea0     VariableSmm:VariableParsing.obj
 0002:00001408       ??_C@_0BK@IGDNCAKI@VariableLockRequestToLock@ 0000000000074ec8     VariableSmm:VariableLockRequestToLock.obj
 0002:00001428       ??_C@_0DG@NDNNKNAG@?$CB?$CB?$CB?5DEPRECATED?5INTERFACE?5?$CB?$CB?$CB?5?$CFa@ 0000000000074ee8     VariableSmm:VariableLockRequestToLock.obj
 0002:00001460       ??_C@_0EC@EGNGNAAB@?$CB?$CB?$CB?5DEPRECATED?5INTERFACE?5?$CB?$CB?$CB?5Pl@ 0000000000074f20     VariableSmm:VariableLockRequestToLock.obj
 0002:000014a8       ??_C@_0CO@HIJFCGIJ@?$CB?$CB?$CB?5DEPRECATED?5INTERFACE?5?$CB?$CB?$CB?5Va@ 0000000000074f68     VariableSmm:VariableLockRequestToLock.obj
 0002:000014d8       ??_C@_0CG@DJOKNLBE@?5?5Variable?3?5?$CFg?5?$CFs?5is?5already?5lo@ 0000000000074f98     VariableSmm:VariableLockRequestToLock.obj
 0002:00001500       ??_C@_0CG@JPPCCEHH@?5?5Variable?3?5?$CFg?5?$CFs?5can?5not?5be?5lo@ 0000000000074fc0     VariableSmm:VariableLockRequestToLock.obj
 0002:00001528       ??_C@_0CF@PHFHFINJ@?$CFa?5?9?5Failed?5to?5lock?5variable?5?$CFs@ 0000000000074fe8     VariableSmm:VariableLockRequestToLock.obj
 0002:00001550       ??_C@_1DM@KHNCPJJB@?$AAM?$AAe?$AAm?$AAo?$AAr?$AAy?$AAO?$AAv?$AAe?$AAr?$AAw?$AAr?$AAi?$AAt?$AAe@ 0000000000075010     VariableSmm:TcgMorLockSmm.obj
 0002:00001590       ??_C@_1EE@GADHGNAI@?$AAM?$AAe?$AAm?$AAo?$AAr?$AAy?$AAO?$AAv?$AAe?$AAr?$AAw?$AAr?$AAi?$AAt?$AAe@ 0000000000075050     VariableSmm:TcgMorLockSmm.obj
 0002:000015e0       ??_C@_0EK@IHODFHME@d?3?2myedk2?2edk2?2MdeModulePkg?2Uni@ 00000000000750a0     VariableSmm:TcgMorLockSmm.obj
 0002:00001630       ??_C@_0CJ@JFPGFEMA@?$CI?$CI?$CIINTN?$CJ?$CIRETURN_STATUS?$CJ?$CIMorStat@ 00000000000750f0     VariableSmm:TcgMorLockSmm.obj
 0002:00001660       ??_C@_0BG@JHIMLMCE@MorLockInitAtEndOfDxe@ 0000000000075120     VariableSmm:TcgMorLockSmm.obj
 0002:00001678       ??_C@_0DG@NIDJOIAP@?$CFa?3?5deleting?5unexpected?5?1?5unsup@ 0000000000075138     VariableSmm:TcgMorLockSmm.obj
 0002:000016b0       ??_C@_0DG@KEDFAIFP@sizeof?5?$CIVARIABLE_STORE_HEADER?$CJ?5@ 0000000000075170     VariableSmm:VariableNonVolatile.obj
 0002:000016f0       ??_C@_0FA@GDJOIDL@d?3?2myedk2?2edk2?2MdeModulePkg?2Uni@ 00000000000751b0     VariableSmm:VariableNonVolatile.obj
 0002:00001740       ??_C@_0EK@HHLNPIC@HwErrStorageSize?5?$DM?5?$CIVariableSto@ 0000000000075200     VariableSmm:VariableNonVolatile.obj
 0002:00001790       ??_C@_0BD@KOJGBFGG@NvStorageBase?5?$CB?$DN?50@ 0000000000075250     VariableSmm:VariableNonVolatile.obj
 0002:000017a8       ??_C@_0DI@NDEFKFNA@Variable?3?5NV?5storage?5is?5backed?5@ 0000000000075268     VariableSmm:VariableNonVolatile.obj
 0002:000017e0       ??_C@_0FF@HIICAOID@Variable?3?5High?5partial?5NV?5stora@ 00000000000752a0     VariableSmm:VariableNonVolatile.obj
 0002:00001838       ??_C@_0DB@CGGLGCCM@Firmware?5Volume?5for?5Variable?5St@ 00000000000752f8     VariableSmm:VariableNonVolatile.obj
 0002:00001870       ??_C@_0CL@KMBJJFJE@VariableStore?9?$DOSize?5?$DN?$DN?5Variable@ 0000000000075330     VariableSmm:VariableNonVolatile.obj
 0002:000018a0       ??_C@_0CE@PHEIGJIC@Variable?5Store?5header?5is?5corrup@ 0000000000075360     VariableSmm:VariableNonVolatile.obj
 0002:000018d0       ??_C@_0GH@PGGCLDAP@MaxUserNvVariableSpaceSize?5?$DM?5?$CIV@ 0000000000075390     VariableSmm:VariableNonVolatile.obj
 0002:00001940       ??_C@_0HA@NDNGHFDK@BoottimeReservedNvVariableSpace@ 0000000000075400     VariableSmm:VariableNonVolatile.obj
 0002:000019b0       ??_C@_0CO@MDLKCL@Variable?5driver?5common?5space?3?50@ 0000000000075470     VariableSmm:VariableNonVolatile.obj
 0002:000019e0       ??_C@_0FK@OGCNODHE@GetNonVolatileMaxVariableSize?5?$CI@ 00000000000754a0     VariableSmm:VariableNonVolatile.obj
 0002:00001a40       ??_C@_0CG@OAPIFIMI@FtwBufferSize?5?$DN?$DN?5VariableBuffer@ 0000000000075500     VariableSmm:Reclaim.obj
 0002:00001a70       ??_C@_0EE@DCCFFDND@d?3?2myedk2?2edk2?2MdeModulePkg?2Uni@ 0000000000075530     VariableSmm:Reclaim.obj
 0002:00001ab8       ??_C@_0DE@IBFOALAL@d?3?2myedk2?2edk2?2MdePkg?2Library?2D@ 0000000000075578     DxePcdLib:DxePcdLib.obj
 0002:00001af0       ??_C@_0BF@OOKDELHM@mPcd?5?$CB?$DN?5?$CI?$CIvoid?5?$CK?$CJ?50?$CJ@ 00000000000755b0     DxePcdLib:DxePcdLib.obj
 0002:00001b08       ??_C@_0BH@IACGKAP@Buffer?5?$CB?$DN?5?$CI?$CIvoid?5?$CK?$CJ?50?$CJ@ 00000000000755c8     DxePcdLib:DxePcdLib.obj
 0002:00001b20       ??_C@_0DG@EEENIGGL@Length?5?$DM?$DN?5?$CI0xFFFFFFFFFFFFFFFFUL@ 00000000000755e0     BaseMemoryLibRepStr:MemLibGuid.obj
 0002:00001b60       ??_C@_0ED@MKGCMJG@?$CILength?5?9?51?$CJ?5?$DM?$DN?5?$CI0xFFFFFFFFFFFF@ 0000000000075620     BaseMemoryLibRepStr:CopyMemWrapper.obj
 0002:00001bb0       ??_C@_0ED@JAIIHABO@d?3?2myedk2?2edk2?2MdePkg?2Library?2B@ 0000000000075670     BaseMemoryLibRepStr:CopyMemWrapper.obj
 0002:00001bf8       ??_C@_0DO@MAOBOFEG@?$CILength?5?9?51?$CJ?5?$DM?$DN?5?$CI0xFFFFFFFFFFFF@ 00000000000756b8     BaseMemoryLibRepStr:CopyMemWrapper.obj
 0002:00001c38       ??_C@_0CC@JOEHDGKB@DestinationBuffer?5?$CB?$DN?5?$CI?$CIvoid?5?$CK?$CJ?5@ 00000000000756f8     BaseMemoryLibRepStr:CompareMemWrapper.obj
 0002:00001c60       ??_C@_0EG@FCOMBDPM@d?3?2myedk2?2edk2?2MdePkg?2Library?2B@ 0000000000075720     BaseMemoryLibRepStr:CompareMemWrapper.obj
 0002:00001ca8       ??_C@_0BN@MDMCNBCC@SourceBuffer?5?$CB?$DN?5?$CI?$CIvoid?5?$CK?$CJ?50?$CJ@ 0000000000075768     BaseMemoryLibRepStr:CompareMemWrapper.obj
 0002:00001cd0       ??_C@_0ED@CECKBBNJ@d?3?2myedk2?2edk2?2MdePkg?2Library?2B@ 0000000000075790     BaseMemoryLibRepStr:ZeroMemWrapper.obj
 0002:00001d18       ??_C@_0DI@DAGDPLPG@?$CILength?5?9?51?$CJ?5?$DM?$DN?5?$CI0xFFFFFFFFFFFF@ 00000000000757d8     BaseMemoryLibRepStr:SetMemWrapper.obj
 0002:00001d50       ??_C@_0EC@NJPJFNGD@d?3?2myedk2?2edk2?2MdePkg?2Library?2B@ 0000000000075810     BaseMemoryLibRepStr:SetMemWrapper.obj
 0002:00001d98       ??_C@_0BH@MAAHKCPC@String?5?$CB?$DN?5?$CI?$CIvoid?5?$CK?$CJ?50?$CJ@ 0000000000075858     BaseLib:String.obj
 0002:00001db0       ??_C@_0CP@DJBLNMJI@d?3?2myedk2?2edk2?2MdePkg?2Library?2B@ 0000000000075870     BaseLib:String.obj
 0002:00001de0       ??_C@_0CC@GFNLNIOC@?$CI?$CIUINTN?$CJString?5?$CG?50x00000001?$CJ?5?$DN?$DN@ 00000000000758a0     BaseLib:String.obj
 0002:00001e08       ??_C@_0DK@EOJCOAME@Length?5?$DM?5_gPcd_FixedAtBuild_Pcd@ 00000000000758c8     BaseLib:String.obj
 0002:00001e48       ??_C@_0BL@JAAMOCAJ@StrSize?5?$CIFirstString?$CJ?5?$CB?$DN?50@ 0000000000075908     BaseLib:String.obj
 0002:00001e68       ??_C@_0BM@DALBOILC@StrSize?5?$CISecondString?$CJ?5?$CB?$DN?50@ 0000000000075928     BaseLib:String.obj
 0002:00001e88       ??_C@_0DL@LFIMEMJP@Length?5?$DM?$DN?5_gPcd_FixedAtBuild_Pc@ 0000000000075948     BaseLib:String.obj
 0002:00001ec8       ??_C@_0DI@MDIKFADO@Length?5?$DM?5_gPcd_FixedAtBuild_Pcd@ 0000000000075988     BaseLib:String.obj
 0002:00001f00       ??_C@_0BL@IKFBNFIL@AsciiStrSize?5?$CIFirstString?$CJ@ 00000000000759c0     BaseLib:String.obj
 0002:00001f20       ??_C@_0BM@EDNOKLLE@AsciiStrSize?5?$CISecondString?$CJ@ 00000000000759e0     BaseLib:String.obj
 0002:00001f40       ??_C@_0DJ@JJHGIFMP@Length?5?$DM?$DN?5_gPcd_FixedAtBuild_Pc@ 0000000000075a00     BaseLib:String.obj
 0002:00001f80       ??_C@_0DD@OKIGPFG@d?3?2myedk2?2edk2?2MdePkg?2Library?2B@ 0000000000075a40     BaseLib:SafeString.obj
 0002:00001fb8       ??_C@_0CH@LALFPBMC@?$CI?$CIUINTN?$CJDestination?5?$CG?50x0000000@ 0000000000075a78     BaseLib:SafeString.obj
 0002:00001fe0       ??_C@_0CC@HEBCMBPF@?$CI?$CIUINTN?$CJSource?5?$CG?50x00000001?$CJ?5?$DN?$DN@ 0000000000075aa0     BaseLib:SafeString.obj
 0002:00002008       ??_C@_0BO@ECNIOIHG@?$CIDestination?5?$CB?$DN?5?$CI?$CIvoid?5?$CK?$CJ?50?$CJ?$CJ@ 0000000000075ac8     BaseLib:SafeString.obj
 0002:00002028       ??_C@_07KBGDFDAM@StrCpyS@  0000000000075ae8     BaseLib:SafeString.obj
 0002:00002030       ??_C@_0EA@PDPDJJNN@?$CFa?$CI?$CFd?$CJ?5?$CFa?3?5SAFE_STRING_CONSTRAI@ 0000000000075af0     BaseLib:SafeString.obj
 0002:00002070       ??_C@_0BJ@EAEEJIP@?$CISource?5?$CB?$DN?5?$CI?$CIvoid?5?$CK?$CJ?50?$CJ?$CJ@ 0000000000075b30     BaseLib:SafeString.obj
 0002:00002090       ??_C@_0EA@BBALOHPI@?$CIDestMax?5?$DM?$DN?5?$CI_gPcd_FixedAtBuild@ 0000000000075b50     BaseLib:SafeString.obj
 0002:000020d0       ??_C@_0P@PMIMLIHM@?$CIDestMax?5?$CB?$DN?50?$CJ@ 0000000000075b90     BaseLib:SafeString.obj
 0002:000020e0       ??_C@_0BG@EEGIIOKH@?$CIDestMax?5?$DO?5SourceLen?$CJ@ 0000000000075ba0     BaseLib:SafeString.obj
 0002:00002100       ??_C@_0FH@PPBLBDBJ@InternalSafeStringNoStrOverlap?5@ 0000000000075bc0     BaseLib:SafeString.obj
 0002:00002158       ??_C@_0P@BHOOOJPD@?$CICopyLen?5?$CB?$DN?50?$CJ@ 0000000000075c18     BaseLib:SafeString.obj
 0002:00002168       ??_C@_0BG@BPGICNPK@?$CICopyLen?5?$DO?5SourceLen?$CJ@ 0000000000075c28     BaseLib:SafeString.obj
 0002:00002180       ??_C@_0BJ@MBBOBCLN@?$CIString?5?$CB?$DN?5?$CI?$CIvoid?5?$CK?$CJ?50?$CJ?$CJ@ 0000000000075c40     BaseLib:SafeString.obj
 0002:000021a0       ??_C@_0BH@JPMEDPAI@?$CIData?5?$CB?$DN?5?$CI?$CIvoid?5?$CK?$CJ?50?$CJ?$CJ@ 0000000000075c60     BaseLib:SafeString.obj
 0002:000021b8       ??_C@_0BJ@CNKJJNE@?$CIBuffer?5?$CB?$DN?5?$CI?$CIvoid?5?$CK?$CJ?50?$CJ?$CJ@ 0000000000075c78     BaseLib:SafeString.obj
 0002:000021d8       ??_C@_0N@OMPODJLB@AsciiStrCpyS@ 0000000000075c98     BaseLib:SafeString.obj
 0002:000021f0       ??_C@_0FL@CDANCHFO@InternalSafeStringNoAsciiStrOve@ 0000000000075cb0     BaseLib:SafeString.obj
 0002:00002250       ??_C@_0O@DIHNCLLG@AsciiStrnCpyS@ 0000000000075d10     BaseLib:SafeString.obj
 0002:00002260       ??_C@_0DN@DLAADCJE@?$CILength?5?$DM?$DN?5?$CI_gPcd_FixedAtBuild_@ 0000000000075d20     BaseLib:SafeString.obj
 0002:000022a0       ??_C@_0N@MIDJKBI@AsciiStrCatS@ 0000000000075d60     BaseLib:SafeString.obj
 0002:000022b0       ??_C@_0BI@GIIHIIN@AsciiStrDecimalToUintnS@ 0000000000075d70     BaseLib:SafeString.obj
 0002:000022d0       ??_C@_0ID@JMCCGBLD@?$CIAsciiStrnLenS?5?$CIString?0?5?$CI_gPcd_@ 0000000000075d90     BaseLib:SafeString.obj
 0002:00002358       ??_C@_0DC@DDBICJIK@d?3?2myedk2?2edk2?2MdePkg?2Library?2B@ 0000000000075e18     BaseLib:Unaligned.obj
 0002:00002390       ??_C@_0BL@CPGKAMND@JumpBuffer?5?$CB?$DN?5?$CI?$CIvoid?5?$CK?$CJ?50?$CJ@ 0000000000075e50     BaseLib:SetJump.obj
 0002:000023b0       ??_C@_0DA@EDINMIIB@d?3?2myedk2?2edk2?2MdePkg?2Library?2B@ 0000000000075e70     BaseLib:SetJump.obj
 0002:000023e0       ??_C@_0CD@OEHNCIHG@?$CI?$CIUINTN?$CJJumpBuffer?5?$CG?5?$CI8?5?9?51?$CJ?$CJ?5?$DN@ 0000000000075ea0     BaseLib:SetJump.obj
 0002:00002408       ??_C@_0N@KGHEHMDL@Divisor?5?$CB?$DN?50@ 0000000000075ec8     BaseLib:DivU64x32.obj
 0002:00002418       ??_C@_0L@MEMPDLHB@Count?5?$DM?564@ 0000000000075ed8     BaseLib:LShiftU64.obj
 0002:00002428       ??_C@_0DC@KCMAEPFB@d?3?2myedk2?2edk2?2MdePkg?2Library?2B@ 0000000000075ee8     BaseLib:LShiftU64.obj
 0002:00002460       ??_C@_0BH@LKMBFCBF@Format?5?$CB?$DN?5?$CI?$CIvoid?5?$CK?$CJ?50?$CJ@ 0000000000075f20     BaseDebugLibSerialPort:DebugLib.obj
 0002:00002480       ??_C@_0EA@MCEJFCHO@d?3?2myedk2?2edk2?2MdePkg?2Library?2B@ 0000000000075f40     BaseDebugLibSerialPort:DebugLib.obj
 0002:000024c0       ??_C@_0BI@NOCKJDBJ@ASSERT?5?$FL?$CFa?$FN?5?$CFa?$CI?$CFd?$CJ?3?5?$CFa?6@ 0000000000075f80     BaseDebugLibSerialPort:DebugLib.obj
 0002:000024d8       ??_C@_0BN@COECPDCC@gImageHandle?5?$CB?$DN?5?$CI?$CIvoid?5?$CK?$CJ?50?$CJ@ 0000000000075f98     UefiBootServicesTableLib:UefiBootServicesTableLib.obj
 0002:00002500       ??_C@_0FC@HJEJKBBP@d?3?2myedk2?2edk2?2MdePkg?2Library?2U@ 0000000000075fc0     UefiBootServicesTableLib:UefiBootServicesTableLib.obj
 0002:00002558       ??_C@_0BE@DGNHAHIL@gST?5?$CB?$DN?5?$CI?$CIvoid?5?$CK?$CJ?50?$CJ@ 0000000000076018     UefiBootServicesTableLib:UefiBootServicesTableLib.obj
 0002:00002570       ??_C@_0BE@BDFJLGLN@gBS?5?$CB?$DN?5?$CI?$CIvoid?5?$CK?$CJ?50?$CJ@ 0000000000076030     UefiBootServicesTableLib:UefiBootServicesTableLib.obj
 0002:00002590       ??_C@_0EI@MNICKMIC@d?3?2myedk2?2edk2?2MdePkg?2Library?2S@ 0000000000076050     SmmServicesTableLib:SmmServicesTableLib.obj
 0002:000025d8       ??_C@_0CB@GMLECJKN@InternalSmmBase2?5?$CB?$DN?5?$CI?$CIvoid?5?$CK?$CJ?50@ 0000000000076098     SmmServicesTableLib:SmmServicesTableLib.obj
 0002:00002600       ??_C@_0BG@FOOPBBEG@gSmst?5?$CB?$DN?5?$CI?$CIvoid?5?$CK?$CJ?50?$CJ@ 00000000000760c0     SmmServicesTableLib:SmmServicesTableLib.obj
 0002:00002620       ??_C@_0EL@KHOJDGKN@d?3?2myedk2?2edk2?2MdePkg?2Library?2S@ 00000000000760e0     SmmMemoryAllocationLib:MemoryAllocationLib.obj
 0002:00002670       ??_C@_0DJ@CIDFFKAG@Status?5?$DN?$DN?5?$CI?$CIRETURN_STATUS?$CJ?$CI0x80@ 0000000000076130     SmmMemoryAllocationLib:MemoryAllocationLib.obj
 0002:000026b0       ??_C@_0BN@PLBIHFL@mSmramRanges?5?$CB?$DN?5?$CI?$CIvoid?5?$CK?$CJ?50?$CJ@ 0000000000076170     SmmMemoryAllocationLib:MemoryAllocationLib.obj
 0002:000026d0       ??_C@_0DO@GEEICOOO@AllocationSize?5?$DM?$DN?5?$CI0xFFFFFFFFFF@ 0000000000076190     SmmMemoryAllocationLib:MemoryAllocationLib.obj
 0002:00002710       ??_C@_0BE@OBDFIHND@gRT?5?$CB?$DN?5?$CI?$CIvoid?5?$CK?$CJ?50?$CJ@ 00000000000761d0     UefiRuntimeServicesTableLib:UefiRuntimeServicesTableLib.obj
 0002:00002730       ??_C@_0FI@ELFALICJ@d?3?2myedk2?2edk2?2MdePkg?2Library?2U@ 00000000000761f0     UefiRuntimeServicesTableLib:UefiRuntimeServicesTableLib.obj
 0002:00002790       ??_C@_0FG@PKIHNGDJ@d?3?2myedk2?2edk2?2MdePkg?2Library?2U@ 0000000000076250     UefiDevicePathLibDevicePathProtocol:UefiDevicePathLib.obj
 0002:000027e8       ??_C@_0DC@CNNBPJA@mDevicePathLibDevicePathUtiliti@ 00000000000762a8     UefiDevicePathLibDevicePathProtocol:UefiDevicePathLib.obj
 0002:00002820       ??_C@_0BL@JFODOCGB@DevicePath?5?$CB?$DN?5?$CI?$CIvoid?5?$CK?$CJ?50?$CJ@ 00000000000762e0     UefiDevicePathLibDevicePathProtocol:UefiDevicePathLib.obj
 0002:00002840       ??_C@_0BF@CBLMFKOC@Node?5?$CB?$DN?5?$CI?$CIvoid?5?$CK?$CJ?50?$CJ@ 0000000000076300     UefiDevicePathLibDevicePathProtocol:UefiDevicePathLib.obj
 0002:00002858       ??_C@_0BK@PPOBBAMB@TableGuid?5?$CB?$DN?5?$CI?$CIvoid?5?$CK?$CJ?50?$CJ@ 0000000000076318     UefiLib:UefiLib.obj
 0002:00002878       ??_C@_0DA@MHLDPJPP@d?3?2myedk2?2edk2?2MdePkg?2Library?2U@ 0000000000076338     UefiLib:UefiLib.obj
 0002:000028a8       ??_C@_0BG@JDKEGFNB@Table?5?$CB?$DN?5?$CI?$CIvoid?5?$CK?$CJ?50?$CJ@ 0000000000076368     UefiLib:UefiLib.obj
 0002:000028c0       ??_C@_0DB@IMLKCNBK@d?3?2myedk2?2edk2?2MdePkg?2Library?2D@ 0000000000076380     DxeHobLib:HobLib.obj
 0002:000028f8       ??_C@_0BJ@OBFMLLDO@mHobList?5?$CB?$DN?5?$CI?$CIvoid?5?$CK?$CJ?50?$CJ@ 00000000000763b8     DxeHobLib:HobLib.obj
 0002:00002918       ??_C@_0BJ@NOLLDKJB@HobStart?5?$CB?$DN?5?$CI?$CIvoid?5?$CK?$CJ?50?$CJ@ 00000000000763d8     DxeHobLib:HobLib.obj
 0002:00002938       ??_C@_0BP@LHBKJBMC@PlatformInfoHob?5is?5not?5found?4?6@ 00000000000763f8     DxeAcpiTimerLib:DxeAcpiTimerLib.obj
 0002:00002958       ??_C@_0DO@DECBCOF@d?3?2myedk2?2edk2?2OvmfPkg?2Library?2@ 0000000000076418     DxeAcpiTimerLib:DxeAcpiTimerLib.obj
 0002:00002998       ??_C@_0BI@HAGPDMHJ@AcpiTimerLibConstructor@ 0000000000076458     DxeAcpiTimerLib:DxeAcpiTimerLib.obj
 0002:000029b0       ??_C@_0CL@DGCOIACG@?$CFa?3?5Unknown?5Host?5Bridge?5Device?5@ 0000000000076470     DxeAcpiTimerLib:DxeAcpiTimerLib.obj
 0002:000029e0       ??_C@_0EG@GAAKACEH@d?3?2myedk2?2edk2?2MdePkg?2Library?2M@ 00000000000764a0     MmServicesTableLib:MmServicesTableLib.obj
 0002:00002a28       ??_C@_0BP@DCJGHMHD@InternalMmBase?5?$CB?$DN?5?$CI?$CIvoid?5?$CK?$CJ?50?$CJ@ 00000000000764e8     MmServicesTableLib:MmServicesTableLib.obj
 0002:00002a48       ??_C@_0BG@MGMEAPBK@gMmst?5?$CB?$DN?5?$CI?$CIvoid?5?$CK?$CJ?50?$CJ@ 0000000000076508     MmServicesTableLib:MmServicesTableLib.obj
 0002:00002a60       ??_C@_0EK@DDEAAHDL@d?3?2myedk2?2edk2?2MdePkg?2Library?2B@ 0000000000076520     BaseSynchronizationLib:SynchronizationMsc.obj
 0002:00002ab0       ??_C@_0BG@GJANEBOB@Value?5?$CB?$DN?5?$CI?$CIvoid?5?$CK?$CJ?50?$CJ@ 0000000000076570     BaseSynchronizationLib:SynchronizationMsc.obj
 0002:00002ad0       ??_C@_0EI@EGOBAHNO@d?3?2myedk2?2edk2?2MdePkg?2Library?2D@ 0000000000076590     DxeServicesTableLib:DxeServicesTableLib.obj
 0002:00002b18       ??_C@_0BE@IOIFLNKO@gDS?5?$CB?$DN?5?$CI?$CIvoid?5?$CK?$CJ?50?$CJ@ 00000000000765d8     DxeServicesTableLib:DxeServicesTableLib.obj
 0002:00002b30       ??_C@_0BE@LCGJNMJP@ValidateSetVariable@ 00000000000765f0     VariablePolicyLib:VariablePolicyLib.obj
 0002:00002b48       ??_C@_0CC@CAJNPIIF@?$CFa?5?9?5Bad?5Size?4?50x?$CFX?5?$DM?$DO?50x?$CFX?90x?$CF@ 0000000000076608     VariablePolicyLib:VariablePolicyLib.obj
 0002:00002b70       ??_C@_0CI@LNNCMHNF@?$CFa?5?9?5Bad?5Attributes?4?50x?$CFX?5?$DM?$DO?50x@ 0000000000076630     VariablePolicyLib:VariablePolicyLib.obj
 0002:00002b98       ??_C@_0CF@HGPICMLO@?$CFa?5?9?5Variable?5?$CI?$CFg?3?$CFs?$CJ?5returning@ 0000000000076658     VariablePolicyLib:VariablePolicyLib.obj
 0002:00002bc0       ??_C@_1BC@INDPOKJG@?$AAB?$AAo?$AAo?$AAt?$AA?$CD?$AA?$CD?$AA?$CD?$AA?$CD@ 0000000000076680     VarCheckLib:VarCheckLib.obj
 0002:00002bd8       ??_C@_1BG@HHCJINCN@?$AAD?$AAr?$AAi?$AAv?$AAe?$AAr?$AA?$CD?$AA?$CD?$AA?$CD?$AA?$CD@ 0000000000076698     VarCheckLib:VarCheckLib.obj
 0002:00002bf0       ??_C@_1BI@HIEBMGJE@?$AAS?$AAy?$AAs?$AAP?$AAr?$AAe?$AAp?$AA?$CD?$AA?$CD?$AA?$CD?$AA?$CD@ 00000000000766b0     VarCheckLib:VarCheckLib.obj
 0002:00002c08       ??_C@_1BA@DGFAJJOC@?$AAK?$AAe?$AAy?$AA?$CD?$AA?$CD?$AA?$CD?$AA?$CD@ 00000000000766c8     VarCheckLib:VarCheckLib.obj
 0002:00002c18       ??_C@_1CK@MLEAPEAI@?$AAP?$AAl?$AAa?$AAt?$AAf?$AAo?$AAr?$AAm?$AAR?$AAe?$AAc?$AAo?$AAv?$AAe?$AAr@ 00000000000766d8     VarCheckLib:VarCheckLib.obj
 0002:00002c48       ??_C@_1BK@OHIJFJDK@?$AAH?$AAw?$AAE?$AAr?$AAr?$AAR?$AAe?$AAc?$AA?$CD?$AA?$CD?$AA?$CD?$AA?$CD@ 0000000000076708     VarCheckLib:VarCheckLib.obj
 0002:00002c68       ??_C@_0DG@BGONGNBL@VarCheckLibRegisterSetVariableC@ 0000000000076728     VarCheckLib:VarCheckLib.obj
 0002:00002ca0       ??_C@_0DC@DJLHHOEM@Variable?5Check?5ReadOnly?5variabl@ 0000000000076760     VarCheckLib:VarCheckLib.obj
 0002:00002cd8       ??_C@_0DN@NFPHFBDA@Variable?5Check?5Attributes?$CI0x?$CF08@ 0000000000076798     VarCheckLib:VarCheckLib.obj
 0002:00002d20       ??_C@_0EC@OPGFOCPA@Variable?5Check?5DataSize?5fail?$CI0x@ 00000000000767e0     VarCheckLib:VarCheckLib.obj
 0002:00002d68       ??_C@_0CI@HMFENEED@Variable?5Check?5handler?5fail?5?$CFr?5@ 0000000000076828     VarCheckLib:VarCheckLib.obj
 0002:00002d90       ??_C@_0BO@DIMHDDCF@TotalSize?5?$DM?$DN?5?$CI?$CIUINT16?$CJ0xFFFF?$CJ@ 0000000000076850     VariablePolicyHelperLib:VariablePolicyHelperLib.obj
 0002:00002db0       ??_C@_0FG@JEBBHNCH@d?3?2myedk2?2edk2?2MdeModulePkg?2Lib@ 0000000000076870     VariablePolicyHelperLib:VariablePolicyHelperLib.obj
 0002:00002e08       ??_C@_0BK@EENFIALI@PhysicalAddressBits?5?$DM?$DN?552@ 00000000000768c8     SmmMemLib:SmmMemLib.obj
 0002:00002e28       ??_C@_0DE@OHEBGKGA@d?3?2myedk2?2edk2?2MdePkg?2Library?2S@ 00000000000768e8     SmmMemLib:SmmMemLib.obj
 0002:00002e60       ??_C@_0DB@PDNKLHK@mSmmMemLibInternalMaximumSuppor@ 0000000000076920     SmmMemLib:SmmMemLib.obj
 0002:00002ea0       ??_C@_0GG@DONGBGEE@SmmIsBufferOutsideSmmValid?3?5Ove@ 0000000000076960     SmmMemLib:SmmMemLib.obj
 0002:00002f10       ??_C@_0EH@FAFNFMDA@SmmIsBufferOutsideSmmValid?3?5Ove@ 00000000000769d0     SmmMemLib:SmmMemLib.obj
 0002:00002f58       ??_C@_0CJ@KEHNLENF@CpuStart?5?$CI0x?$CFlx?$CJ?5?9?5PhysicalSize@ 0000000000076a18     SmmMemLib:SmmMemLib.obj
 0002:00002f90       ??_C@_0FO@OIBGBKBH@SmmIsBufferOutsideSmmValid?3?5Not@ 0000000000076a50     SmmMemLib:SmmMemLib.obj
 0002:00002ff0       ??_C@_0FI@MGEJLPJA@SmmIsBufferOutsideSmmValid?3?5In?5@ 0000000000076ab0     SmmMemLib:SmmMemLib.obj
 0002:00003050       ??_C@_0FE@NELGICEF@SmmIsBufferOutsideSmmValid?3?5In?5@ 0000000000076b10     SmmMemLib:SmmMemLib.obj
 0002:000030a8       ??_C@_0CG@EBDMLLKF@mSmmMemLibGcdMemSpace?5?$CB?$DN?5?$CI?$CIvoid@ 0000000000076b68     SmmMemLib:SmmMemLib.obj
 0002:000030d0       ??_C@_0DA@DFBCLCMM@mSmmMemLibMemoryAttributesTable@ 0000000000076b90     SmmMemLib:SmmMemLib.obj
 0002:00003100       ??_C@_0BK@BEMEMBP@MemoryMap?5?$CB?$DN?5?$CI?$CIvoid?5?$CK?$CJ?50?$CJ@ 0000000000076bc0     SmmMemLib:SmmMemLib.obj
 0002:00003120       ??_C@_0BL@GHNPPLKP@mMemoryMap?5?$CB?$DN?5?$CI?$CIvoid?5?$CK?$CJ?50?$CJ@ 0000000000076be0     SmmMemLib:SmmMemLib.obj
 0002:00003140       ??_C@_0CO@JCGMICBD@mSmmMemLibInternalSmramRanges?5?$CB@ 0000000000076c00     SmmMemLib:SmmMemLib.obj
 0002:00003170       ??_C@_1CC@OHKABGKH@?$AAS?$AAe?$AAc?$AAu?$AAr?$AAe?$AAB?$AAo?$AAo?$AAt?$AAE?$AAn?$AAa?$AAb?$AAl@ 0000000000076c30     AuthVariableLib:AuthVariableLib.obj
 0002:00003198       ??_C@_1BG@PJLHNPEI@?$AAC?$AAu?$AAs?$AAt?$AAo?$AAm?$AAM?$AAo?$AAd?$AAe@ 0000000000076c58     AuthVariableLib:AuthVariableLib.obj
 0002:000031b0       ??_C@_1BK@HNGBAIGL@?$AAV?$AAe?$AAn?$AAd?$AAo?$AAr?$AAK?$AAe?$AAy?$AAs?$AAN?$AAv@ 0000000000076c70     AuthVariableLib:AuthVariableLib.obj
 0002:000031d0       ??_C@_1O@LGOFIPNJ@?$AAc?$AAe?$AAr?$AAt?$AAd?$AAb@ 0000000000076c90     AuthVariableLib:AuthVariableLib.obj
 0002:000031e0       ??_C@_1BA@GDKJKJEC@?$AAc?$AAe?$AAr?$AAt?$AAd?$AAb?$AAv@ 0000000000076ca0     AuthVariableLib:AuthVariableLib.obj
 0002:000031f0       ??_C@_15OKGIJJH@?$AAP?$AAK@ 0000000000076cb0     AuthVariableLib:AuthVariableLib.obj
 0002:000031f8       ??_C@_0BN@EMGHPMIM@Variable?5?$CFs?5does?5not?5exist?4?6@ 0000000000076cb8     AuthVariableLib:AuthVariableLib.obj
 0002:00003218       ??_C@_0BF@LHEJMHNB@Variable?5?$CFs?5exists?4?6@ 0000000000076cd8     AuthVariableLib:AuthVariableLib.obj
 0002:00003230       ??_C@_1BE@DFEPFMAE@?$AAS?$AAe?$AAt?$AAu?$AAp?$AAM?$AAo?$AAd?$AAe@ 0000000000076cf0     AuthVariableLib:AuthVariableLib.obj
 0002:00003248       ??_C@_1CC@BAFCPNPB@?$AAS?$AAi?$AAg?$AAn?$AAa?$AAt?$AAu?$AAr?$AAe?$AAS?$AAu?$AAp?$AAp?$AAo?$AAr@ 0000000000076d08     AuthVariableLib:AuthVariableLib.obj
 0002:00003270       ??_C@_1BG@JEGAFCNI@?$AAS?$AAe?$AAc?$AAu?$AAr?$AAe?$AAB?$AAo?$AAo?$AAt@ 0000000000076d30     AuthVariableLib:AuthVariableLib.obj
 0002:00003288       ??_C@_0BD@HCIMOJPJ@Variable?5?$CFs?5is?5?$CFx?6@ 0000000000076d48     AuthVariableLib:AuthVariableLib.obj
 0002:000032a0       ??_C@_0CB@IAEFFIDF@Clean?5up?5CertDB?5fail?$CB?5Status?5?$CFx@ 0000000000076d60     AuthVariableLib:AuthVariableLib.obj
 0002:000032c8       ??_C@_1BG@OIEIGDIF@?$AAV?$AAe?$AAn?$AAd?$AAo?$AAr?$AAK?$AAe?$AAy?$AAs@ 0000000000076d88     AuthVariableLib:AuthVariableLib.obj
 0002:000032e0       ??_C@_17PNKKLKMO@?$AAK?$AAE?$AAK@ 0000000000076da0     AuthVariableLib:AuthVariableLib.obj
 0002:000032e8       ??_C@_15EMHHCMJI@?$AAd?$AAb@ 0000000000076da8     AuthVariableLib:AuthVariableLib.obj
 0002:000032f0       ??_C@_17CFMLKIPF@?$AAd?$AAb?$AAx@ 0000000000076db0     AuthVariableLib:AuthVariableLib.obj
 0002:000032f8       ??_C@_17GPBNBHEN@?$AAd?$AAb?$AAt@ 0000000000076db8     AuthVariableLib:AuthVariableLib.obj
 0002:00003300       ??_C@_0FD@PIFJICMH@VariableName?5?$CB?$DN?5?$CI?$CIvoid?5?$CK?$CJ?50?$CJ?5?$CG?$CG@ 0000000000076dc0     AuthVariableLib:AuthService.obj
 0002:00003360       ??_C@_0EB@PAIPCPAK@d?3?2myedk2?2edk2?2SecurityPkg?2Libr@ 0000000000076e20     AuthVariableLib:AuthService.obj
 0002:000033a8       ??_C@_0CK@IMOFCGIA@CalculatePrivAuthVarSignChainSH@ 0000000000076e68     AuthVariableLib:AuthService.obj
 0002:000033d8       ??_C@_0DE@MCACLHNK@?$CFa?5Get?5SignerCert?5CommonName?5fa@ 0000000000076e98     AuthVariableLib:AuthService.obj
 0002:00003410       ??_C@_0CO@FPALBEKC@?$CFa?5Get?5Top?9level?5Cert?5tbsCertif@ 0000000000076ed0     AuthVariableLib:AuthService.obj
 0002:00003440       ??_C@_0EJ@MGCCJDGH@Recovery?$CB?$CB?5Cert?5for?5Auth?5Variab@ 0000000000076f00     AuthVariableLib:AuthService.obj
 0002:00003490       mSha256OidValue            0000000000076f50     AuthVariableLib:AuthService.obj
 0002:000034a0       ??_C@_0DC@HLELONJE@ERROR?3?5Found?5two?5variable?5flash@ 0000000000076f60     BaseVariableFlashInfoLib:BaseVariableFlashInfoLib.obj
 0002:000034e0       ??_C@_0FI@DFPMNHFN@d?3?2myedk2?2edk2?2MdeModulePkg?2Lib@ 0000000000076fa0     BaseVariableFlashInfoLib:BaseVariableFlashInfoLib.obj
 0002:00003538       ??_C@_1BA@BKONPLFM@?$AAT?$AAi?$AAm?$AAe?$AAo?$AAu?$AAt@ 0000000000076ff8     VarCheckUefiLib:VarCheckUefiLibNullClass.obj
 0002:00003548       ??_C@_1M@NFPEGKHA@?$AAC?$AAo?$AAn?$AAI?$AAn@ 0000000000077008     VarCheckUefiLib:VarCheckUefiLibNullClass.obj
 0002:00003558       ??_C@_1O@MJHLOIFA@?$AAC?$AAo?$AAn?$AAO?$AAu?$AAt@ 0000000000077018     VarCheckUefiLib:VarCheckUefiLibNullClass.obj
 0002:00003568       ??_C@_1O@JOJMCOJC@?$AAE?$AAr?$AAr?$AAO?$AAu?$AAt@ 0000000000077028     VarCheckUefiLib:VarCheckUefiLibNullClass.obj
 0002:00003578       ??_C@_1BC@OBFMLJLI@?$AAC?$AAo?$AAn?$AAI?$AAn?$AAD?$AAe?$AAv@ 0000000000077038     VarCheckUefiLib:VarCheckUefiLibNullClass.obj
 0002:00003590       ??_C@_1BE@INNAKDAF@?$AAC?$AAo?$AAn?$AAO?$AAu?$AAt?$AAD?$AAe?$AAv@ 0000000000077050     VarCheckUefiLib:VarCheckUefiLibNullClass.obj
 0002:000035a8       ??_C@_1BE@JFPOEAHF@?$AAE?$AAr?$AAr?$AAO?$AAu?$AAt?$AAD?$AAe?$AAv@ 0000000000077068     VarCheckUefiLib:VarCheckUefiLibNullClass.obj
 0002:000035c0       ??_C@_1BE@CHCFCNKI@?$AAB?$AAo?$AAo?$AAt?$AAO?$AAr?$AAd?$AAe?$AAr@ 0000000000077080     VarCheckUefiLib:VarCheckUefiLibNullClass.obj
 0002:000035d8       ??_C@_1BC@HGEHGBBD@?$AAB?$AAo?$AAo?$AAt?$AAN?$AAe?$AAx?$AAt@ 0000000000077098     VarCheckUefiLib:VarCheckUefiLibNullClass.obj
 0002:000035f0       ??_C@_1BI@LBNGELID@?$AAB?$AAo?$AAo?$AAt?$AAC?$AAu?$AAr?$AAr?$AAe?$AAn?$AAt@ 00000000000770b0     VarCheckUefiLib:VarCheckUefiLibNullClass.obj
 0002:00003608       ??_C@_1CE@BKEAGEIL@?$AAB?$AAo?$AAo?$AAt?$AAO?$AAp?$AAt?$AAi?$AAo?$AAn?$AAS?$AAu?$AAp?$AAp?$AAo@ 00000000000770c8     VarCheckUefiLib:VarCheckUefiLibNullClass.obj
 0002:00003630       ??_C@_1BI@PDMCFEDG@?$AAD?$AAr?$AAi?$AAv?$AAe?$AAr?$AAO?$AAr?$AAd?$AAe?$AAr@ 00000000000770f0     VarCheckUefiLib:VarCheckUefiLibNullClass.obj
 0002:00003648       ??_C@_1BK@CHMLNGLH@?$AAS?$AAy?$AAs?$AAP?$AAr?$AAe?$AAp?$AAO?$AAr?$AAd?$AAe?$AAr@ 0000000000077108     VarCheckUefiLib:VarCheckUefiLibNullClass.obj
 0002:00003668       ??_C@_1CA@BOALBJHG@?$AAH?$AAw?$AAE?$AAr?$AAr?$AAR?$AAe?$AAc?$AAS?$AAu?$AAp?$AAp?$AAo?$AAr?$AAt@ 0000000000077128     VarCheckUefiLib:VarCheckUefiLibNullClass.obj
 0002:00003688       ??_C@_1BG@DACLAPBO@?$AAK?$AAE?$AAK?$AAD?$AAe?$AAf?$AAa?$AAu?$AAl?$AAt@ 0000000000077148     VarCheckUefiLib:VarCheckUefiLibNullClass.obj
 0002:000036a0       ??_C@_1BE@BGOOPGMO@?$AAP?$AAK?$AAD?$AAe?$AAf?$AAa?$AAu?$AAl?$AAt@ 0000000000077160     VarCheckUefiLib:VarCheckUefiLibNullClass.obj
 0002:000036b8       ??_C@_1BE@HHMEGGE@?$AAd?$AAb?$AAD?$AAe?$AAf?$AAa?$AAu?$AAl?$AAt@ 0000000000077178     VarCheckUefiLib:VarCheckUefiLibNullClass.obj
 0002:000036d0       ??_C@_1BG@GPFEKEP@?$AAd?$AAb?$AAx?$AAD?$AAe?$AAf?$AAa?$AAu?$AAl?$AAt@ 0000000000077190     VarCheckUefiLib:VarCheckUefiLibNullClass.obj
 0002:000036e8       ??_C@_1BG@BKAMDDEF@?$AAd?$AAb?$AAt?$AAD?$AAe?$AAf?$AAa?$AAu?$AAl?$AAt@ 00000000000771a8     VarCheckUefiLib:VarCheckUefiLibNullClass.obj
 0002:00003700       ??_C@_1CO@MENFEBKM@?$AAO?$AAs?$AAI?$AAn?$AAd?$AAi?$AAc?$AAa?$AAt?$AAi?$AAo?$AAn?$AAs?$AAS?$AAu@ 00000000000771c0     VarCheckUefiLib:VarCheckUefiLibNullClass.obj
 0002:00003730       ??_C@_1BM@MDLAABPK@?$AAO?$AAs?$AAI?$AAn?$AAd?$AAi?$AAc?$AAa?$AAt?$AAi?$AAo?$AAn?$AAs@ 00000000000771f0     VarCheckUefiLib:VarCheckUefiLibNullClass.obj
 0002:00003750       ??_C@_1BC@IONJEEFP@?$AAH?$AAw?$AAE?$AAr?$AAr?$AAR?$AAe?$AAc@ 0000000000077210     VarCheckUefiLib:VarCheckUefiLibNullClass.obj
 0002:00003768       ??_C@_0DG@BHHBAHFJ@UEFI?5Variable?5Check?5fail?5?$CFr?5?9?5?$CF@ 0000000000077228     VarCheckUefiLib:VarCheckUefiLibNullClass.obj
 0002:000037a0       ??_C@_0CO@BPBHJICJ@UEFI?5Variable?5Check?5function?5fa@ 0000000000077260     VarCheckUefiLib:VarCheckUefiLibNullClass.obj
 0002:000037d0       mUefiDefinedGuid           0000000000077290     VarCheckUefiLib:VarCheckUefiLibNullClass.obj
 0002:000037e8       ??_C@_0BM@OGNEMHAB@VarCheckPolicyLibMmiHandler@ 00000000000772a8     VarCheckPolicyLib:VarCheckPolicyLib.obj
 0002:00003808       ??_C@_0CE@CPOBBPMJ@?$CFa?5?9?5Invalid?5comm?5buffer?5pointe@ 00000000000772c8     VarCheckPolicyLib:VarCheckPolicyLib.obj
 0002:00003830       ??_C@_0DG@JFPAKNGC@?$CFa?5?9?5Invalid?5CommBuffer?5supplie@ 00000000000772f0     VarCheckPolicyLib:VarCheckPolicyLib.obj
 0002:00003868       ??_C@_0CE@BHJJFIFK@?$CFa?5?9?5Bad?5comm?5buffer?5size?$CB?5?$CFd?5?$DM@ 0000000000077328     VarCheckPolicyLib:VarCheckPolicyLib.obj
 0002:00003890       ??_C@_0CL@FMHBFAFJ@?$CFa?5?9?5Signature?5or?5revision?5are?5@ 0000000000077350     VarCheckPolicyLib:VarCheckPolicyLib.obj
 0002:000038c0       ??_C@_0CB@FDFNAMHB@?$CFa?5?9?5Bad?5policy?5entry?5contents?$CB@ 0000000000077380     VarCheckPolicyLib:VarCheckPolicyLib.obj
 0002:000038e8       ??_C@_0CE@FIMDJLLI@?$CFa?5?9?5Invalid?5command?5requested?$CB@ 00000000000773a8     VarCheckPolicyLib:VarCheckPolicyLib.obj
 0002:00003910       ??_C@_0BP@OPADINCP@?$CFa?5?9?5Command?5?$CFd?5returning?5?$CFr?4?6@ 00000000000773d0     VarCheckPolicyLib:VarCheckPolicyLib.obj
 0002:00003930       ??_C@_0CD@DKJNCNHO@VarCheckPolicyLibCommonConstruc@ 00000000000773f0     VarCheckPolicyLib:VarCheckPolicyLib.obj
 0002:00003958       ??_C@_0CO@ENIBOEEI@?$CFa?5?9?5Cannot?5Initialize?5Variable@ 0000000000077418     VarCheckPolicyLib:VarCheckPolicyLib.obj
 0002:00003990       ??_C@_0EK@DABEOKLM@d?3?2myedk2?2edk2?2MdeModulePkg?2Lib@ 0000000000077450     VarCheckPolicyLib:VarCheckPolicyLib.obj
 0002:000039e0       ??_C@_0DM@HGIGHENF@d?3?2myedk2?2edk2?2MdePkg?2Library?2B@ 00000000000774a0     BaseIoLibIntrinsicSev:IoLibMsc.obj
 0002:00003a20       ??_C@_0BA@HCECIDGN@?$CIPort?5?$CG?53?$CJ?5?$DN?$DN?50@ 00000000000774e0     BaseIoLibIntrinsicSev:IoLibMsc.obj
 0002:00003a30       ??_C@_0BD@OMMAJMCK@?$CIAddress?5?$CG?53?$CJ?5?$DN?$DN?50@ 00000000000774f0     BaseIoLibIntrinsicSev:IoLibInternalTdx.obj
 0002:00003a48       ??_C@_0DO@DLJLNPNA@d?3?2myedk2?2edk2?2MdePkg?2Library?2B@ 0000000000077508     BasePrintLib:PrintLibInternal.obj
 0002:00003a90       ??_C@_0EB@HDGIDCIO@?$CIBufferSize?5?$DM?$DN?5?$CI_gPcd_FixedAtBu@ 0000000000077550     BasePrintLib:PrintLibInternal.obj
 0002:00003ad8       ??_C@_0BJ@PPAKKDJG@?$CIFormat?5?$CB?$DN?5?$CI?$CIvoid?5?$CK?$CJ?50?$CJ?$CJ@ 0000000000077598     BasePrintLib:PrintLibInternal.obj
 0002:00003b00       ??_C@_0ED@LPDDCECB@?$CIBufferSize?5?$DM?$DN?5?$CI_gPcd_FixedAtBu@ 00000000000775c0     BasePrintLib:PrintLibInternal.obj
 0002:00003b50       ??_C@_0IM@BFJJFLGB@?$CIStrnLenS?5?$CI?$CICHAR16?5?$CK?$CJFormat?0?5?$CI_@ 0000000000077610     BasePrintLib:PrintLibInternal.obj
 0002:00003be0       ??_C@_0ID@PLGJGION@?$CIAsciiStrnLenS?5?$CIFormat?0?5?$CI_gPcd_@ 00000000000776a0     BasePrintLib:PrintLibInternal.obj
 0002:00003c68       ??_C@_0O@MLOLIMFM@?$DMnull?5string?$DO@ 0000000000077728     BasePrintLib:PrintLibInternal.obj
 0002:00003c78       ??_C@_0M@BJJDNPHK@?$DMnull?5guid?$DO@ 0000000000077738     BasePrintLib:PrintLibInternal.obj
 0002:00003c88       ??_C@_0DB@PMLHLBMO@?$CF08x?9?$CF04x?9?$CF04x?9?$CF02x?$CF02x?9?$CF02x?$CF02@ 0000000000077748     BasePrintLib:PrintLibInternal.obj
 0002:00003cc0       ??_C@_0M@LHGBCIKM@?$DMnull?5time?$DO@ 0000000000077780     BasePrintLib:PrintLibInternal.obj
 0002:00003cd0       ??_C@_0BK@FCPKCIDD@?$CF02d?1?$CF02d?1?$CF04d?5?5?$CF02d?3?$CF02d@ 0000000000077790     BasePrintLib:PrintLibInternal.obj
 0002:00003cec       ??_C@_04JIMNDDED@?$CF08X@  00000000000777ac     BasePrintLib:PrintLibInternal.obj
 0002:00003cf4       ??_C@_02PCIJFNDE@?$AN?6@   00000000000777b4     BasePrintLib:PrintLibInternal.obj
 0002:00003cf8       ??_C@_01LIIJDEN@?$AN@      00000000000777b8     BasePrintLib:PrintLibInternal.obj
 0002:00003d00       mWarningString             00000000000777c0     BasePrintLib:PrintLibInternal.obj
 0002:00003da0       mErrorString               0000000000077860     BasePrintLib:PrintLibInternal.obj
 0002:00004060       mHexStr                    0000000000077b20     BasePrintLib:PrintLibInternal.obj
 0002:00004070       ??_C@_0BO@BAKALPJK@?$CI?$CIAddress?$CJ?5?$CG?5?$HO0xfffffff?$CJ?5?$DN?$DN?50@ 0000000000077b30     BasePciExpressLib:PciExpressLib.obj
 0002:00004090       ??_C@_0EA@GAFEKIHN@d?3?2myedk2?2edk2?2MdePkg?2Library?2B@ 0000000000077b50     BasePciExpressLib:PciExpressLib.obj
 0002:000040d0       ??_C@_0DI@EGELJHOH@d?3?2myedk2?2edk2?2MdePkg?2Library?2B@ 0000000000077b90     BasePciCf8Lib:PciCf8Lib.obj
 0002:00004108       ??_C@_0CG@EDKLCMBO@?$CI?$CIAddress?$CJ?5?$CG?5?$CI?$HO0xffff0ff?5?$HM?5?$CI3?$CJ?$CJ@ 0000000000077bc8     BasePciCf8Lib:PciCf8Lib.obj
 0002:0000412e       ??_C@_00CNPNBAHC@@         0000000000077bee     SmmCryptLib:CryptX509.obj
 0002:00004130       ??_C@_08FBKDDLCN@RSA?9SHA1@ 0000000000077bf0     SmmCryptLib:CryptPkcs7VerifyCommon.obj
 0002:00004140       ??_C@_0L@EMMEGDKK@RSA?9SHA1?92@ 0000000000077c00     SmmCryptLib:CryptPkcs7VerifyCommon.obj
 0002:00004150       ??_C@_0EP@JFHHNCHN@OldPoolHdr?9?$DOSignature?5?$DN?$DN?5?$CI?$CI?$CI?8c?8@ 0000000000077c10     SmmCryptLib:BaseMemAllocation.obj
 0002:000041a0       ??_C@_0EK@BIJBLFNJ@d?3?2myedk2?2edk2?2CryptoPkg?2Librar@ 0000000000077c60     SmmCryptLib:BaseMemAllocation.obj
 0002:000041f0       ??_C@_0EM@DCOKKDEG@PoolHdr?9?$DOSignature?5?$DN?$DN?5?$CI?$CI?$CI?8c?8?$CJ?5?$HM@ 0000000000077cb0     SmmCryptLib:BaseMemAllocation.obj
 0002:00004240       ??_C@_0DL@JEBMKBEC@d?3?2myedk2?2edk2?2MdePkg?2Library?2B@ 0000000000077d00     BaseLib:DivU64x32Remainder.obj
 0002:00004280       ??_C@_0DJ@PLEMCDAL@d?3?2myedk2?2edk2?2MdePkg?2Library?2B@ 0000000000077d40     BaseIoLibIntrinsicSev:IoLib.obj
 0002:000043c0       ??_C@_07DLHCIBDH@default@  0000000000077e80     OpensslLib:x509_vfy.obj
 0002:000043e0       ??_C@_07CPCPJPKL@version@  0000000000077ea0     OpensslLib:x_x509.obj
 0002:000043e8       ??_C@_0N@OMOHFKCJ@serialNumber@ 0000000000077ea8     OpensslLib:x_x509.obj
 0002:000043f8       ??_C@_09CMIIOJHF@signature@ 0000000000077eb8     OpensslLib:x_x509.obj
 0002:00004404       ??_C@_06EAINIONG@issuer@   0000000000077ec4     OpensslLib:x_x509.obj
 0002:00004410       ??_C@_08GCHKOCBP@validity@ 0000000000077ed0     OpensslLib:x_x509.obj
 0002:00004420       ??_C@_07JNNGEGGO@subject@  0000000000077ee0     OpensslLib:x_x509.obj
 0002:00004428       ??_C@_03ICHNJLJF@key@      0000000000077ee8     OpensslLib:x_x509.obj
 0002:00004430       ??_C@_09KIIAMAEE@issuerUID@ 0000000000077ef0     OpensslLib:x_x509.obj
 0002:00004440       ??_C@_0L@JMFHLKAL@subjectUID@ 0000000000077f00     OpensslLib:x_x509.obj
 0002:00004450       ??_C@_0L@ICCCPLKC@extensions@ 0000000000077f10     OpensslLib:x_x509.obj
 0002:00004460       ??_C@_09LCJGKABB@X509_CINF@ 0000000000077f20     OpensslLib:x_x509.obj
 0002:00004470       ??_C@_09NKDPGBBA@cert_info@ 0000000000077f30     OpensslLib:x_x509.obj
 0002:00004480       ??_C@_07OBHFIHGJ@sig_alg@  0000000000077f40     OpensslLib:x_x509.obj
 0002:00004488       ??_C@_04NMKEOMFB@X509@     0000000000077f48     OpensslLib:x_x509.obj
 0002:00004630       X509_it                    00000000000780f0     OpensslLib:x_x509.obj
 0002:000046b0       X509_CINF_it               0000000000078170     OpensslLib:x_x509.obj
 0002:00004908       X509_NAME_it               00000000000783c8     OpensslLib:x_name.obj
 0002:00004938       ??_C@_06IEOJBDIK@object@   00000000000783f8     OpensslLib:x_name.obj
 0002:00004940       ??_C@_05MFEJDJP@value@     0000000000078400     OpensslLib:x_name.obj
 0002:00004948       ??_C@_0BA@KEPIIMOE@X509_NAME_ENTRY@ 0000000000078408     OpensslLib:x_name.obj
 0002:00004958       ??_C@_04IEOKPFHO@RDNS@     0000000000078418     OpensslLib:x_name.obj
 0002:00004960       ??_C@_0BC@GJMCELDI@X509_NAME_ENTRIES@ 0000000000078420     OpensslLib:x_name.obj
 0002:00004974       ??_C@_04FABLJDN@Name@      0000000000078434     OpensslLib:x_name.obj
 0002:00004980       ??_C@_0BD@FDNDONGH@X509_NAME_INTERNAL@ 0000000000078440     OpensslLib:x_name.obj
 0002:00004998       ??_C@_09KGNJKBNF@X509_NAME@ 0000000000078458     OpensslLib:x_name.obj
 0002:000049a4       ??_C@_02KEGNLNML@?0?5@     0000000000078464     OpensslLib:x_name.obj
 0002:00004a10       X509_NAME_ENTRY_it         00000000000784d0     OpensslLib:x_name.obj
 0002:00004af8       ??_C@_05DFCJAACA@name?$DN@ 00000000000785b8     OpensslLib:x509name.obj
 0002:00004b48       ??_C@_01KICIPPFI@?2@       0000000000078608     OpensslLib:a_strex.obj
 0002:00004b4c       ??_C@_02HDBGODGB@?2?2@     000000000007860c     OpensslLib:a_strex.obj
 0002:00004b50       ??_C@_01IPJKGB@?$CD@       0000000000078610     OpensslLib:a_strex.obj
 0002:00004b54       ??_C@_01JLIPDDHJ@?3@       0000000000078614     OpensslLib:a_strex.obj
 0002:00004b58       ??_C@_01BJJEKLCA@?$CC@     0000000000078618     OpensslLib:a_strex.obj
 0002:00004b5c       ??_C@_01CLKCMJKC@?5@       000000000007861c     OpensslLib:a_strex.obj
 0002:00004b60       ??_C@_01EEMJAFIK@?6@       0000000000078620     OpensslLib:a_strex.obj
 0002:00004b64       ??_C@_03NPBFACHO@?5?$CL?5@ 0000000000078624     OpensslLib:a_strex.obj
 0002:00004b68       ??_C@_01IHBHIGKO@?0@       0000000000078628     OpensslLib:a_strex.obj
 0002:00004b6c       ??_C@_01MIFGBAGJ@?$CL@     000000000007862c     OpensslLib:a_strex.obj
 0002:00004b70       ??_C@_02LNAEAIDO@?$DL?5@   0000000000078630     OpensslLib:a_strex.obj
 0002:00004b74       ??_C@_03MHLONNLM@?5?$DN?5@ 0000000000078634     OpensslLib:a_strex.obj
 0002:00004b78       ??_C@_01NEMOKFLO@?$DN@     0000000000078638     OpensslLib:a_strex.obj
 0002:00004ca0       ??_C@_0BB@JGGOGLEG@0123456789ABCDEF@ 0000000000078760     OpensslLib:f_int.obj
 0002:00004cb4       ??_C@_01KDCPPGHE@r@        0000000000078774     OpensslLib:rsa_asn1.obj
 0002:00004cb8       ??_C@_01LPLHEDKD@d@        0000000000078778     OpensslLib:rsa_asn1.obj
 0002:00004cbc       ??_C@_01PFHFFBPC@t@        000000000007877c     OpensslLib:rsa_asn1.obj
 0002:00004cc0       ??_C@_0P@LIGOHEON@RSA_PRIME_INFO@ 0000000000078780     OpensslLib:rsa_asn1.obj
 0002:00004cd0       ??_C@_01EFFIKLCJ@n@        0000000000078790     OpensslLib:rsa_asn1.obj
 0002:00004cd4       ??_C@_01KGKMHCOC@e@        0000000000078794     OpensslLib:rsa_asn1.obj
 0002:00004cd8       ??_C@_01JBBJJEPG@p@        0000000000078798     OpensslLib:rsa_asn1.obj
 0002:00004cdc       ??_C@_01IIACKFLH@q@        000000000007879c     OpensslLib:rsa_asn1.obj
 0002:00004ce0       ??_C@_04OIPJJFD@dmp1@      00000000000787a0     OpensslLib:rsa_asn1.obj
 0002:00004ce8       ??_C@_04PENPDGE@dmq1@      00000000000787a8     OpensslLib:rsa_asn1.obj
 0002:00004cf0       ??_C@_04BBEMPLKC@iqmp@     00000000000787b0     OpensslLib:rsa_asn1.obj
 0002:00004cf8       ??_C@_0M@JLELLENH@prime_infos@ 00000000000787b8     OpensslLib:rsa_asn1.obj
 0002:00004d08       ??_C@_0O@PHAOOKLC@RSAPrivateKey@ 00000000000787c8     OpensslLib:rsa_asn1.obj
 0002:00004d18       ??_C@_0N@BFBLLDFG@RSAPublicKey@ 00000000000787d8     OpensslLib:rsa_asn1.obj
 0002:00004d28       ??_C@_0O@DHJLLKEK@hashAlgorithm@ 00000000000787e8     OpensslLib:rsa_asn1.obj
 0002:00004d38       ??_C@_0BB@KKPGFJED@maskGenAlgorithm@ 00000000000787f8     OpensslLib:rsa_asn1.obj
 0002:00004d50       ??_C@_0L@PKGNFOCE@saltLength@ 0000000000078810     OpensslLib:rsa_asn1.obj
 0002:00004d60       ??_C@_0N@KGDDKMLA@trailerField@ 0000000000078820     OpensslLib:rsa_asn1.obj
 0002:00004d70       ??_C@_0P@PJJHDFJB@RSA_PSS_PARAMS@ 0000000000078830     OpensslLib:rsa_asn1.obj
 0002:00004f58       RSA_PRIME_INFO_it          0000000000078a18     OpensslLib:rsa_asn1.obj
 0002:00005030       RSA_PSS_PARAMS_it          0000000000078af0     OpensslLib:rsa_asn1.obj
 0002:00005060       RSAPublicKey_it            0000000000078b20     OpensslLib:rsa_asn1.obj
 0002:000050f0       RSAPrivateKey_it           0000000000078bb0     OpensslLib:rsa_asn1.obj
 0002:00005120       ??_C@_0O@DIEIKEFB@memory?5buffer@ 0000000000078be0     OpensslLib:bss_mem.obj
 0002:00005190       ??_C@_0L@GGDBHMO@smime_sign@ 0000000000078c50     OpensslLib:pk7_smime.obj
 0002:000051a0       ??_C@_0O@HFNJECFC@Verify?5error?3@ 0000000000078c60     OpensslLib:pk7_smime.obj
 0002:000051b0       ??_C@_07JIJPKMF@d?4other@  0000000000078c70     OpensslLib:pk7_asn1.obj
 0002:000051b8       ??_C@_06OAPKPHLA@d?4data@  0000000000078c78     OpensslLib:pk7_asn1.obj
 0002:000051c0       ??_C@_06GOHGJFCL@d?4sign@  0000000000078c80     OpensslLib:pk7_asn1.obj
 0002:000051c8       ??_C@_0M@CLKMIMCI@d?4enveloped@ 0000000000078c88     OpensslLib:pk7_asn1.obj
 0002:000051d8       ??_C@_0BH@FHPJHCLF@d?4signed_and_enveloped@ 0000000000078c98     OpensslLib:pk7_asn1.obj
 0002:000051f0       ??_C@_08JOIJLLGO@d?4digest@ 0000000000078cb0     OpensslLib:pk7_asn1.obj
 0002:00005200       ??_C@_0M@IDEHBFAL@d?4encrypted@ 0000000000078cc0     OpensslLib:pk7_asn1.obj
 0002:0000520c       ??_C@_04GPMDFGEJ@type@     0000000000078ccc     OpensslLib:pk7_asn1.obj
 0002:00005214       ??_C@_05BKMMPIPN@PKCS7@    0000000000078cd4     OpensslLib:pk7_asn1.obj
 0002:00005220       ??_C@_07MPDKKGPO@md_algs@  0000000000078ce0     OpensslLib:pk7_asn1.obj
 0002:00005228       ??_C@_08ODCIAOPM@contents@ 0000000000078ce8     OpensslLib:pk7_asn1.obj
 0002:00005234       ??_C@_04PHJBACIC@cert@     0000000000078cf4     OpensslLib:pk7_asn1.obj
 0002:0000523c       ??_C@_03GJBFOAJL@crl@      0000000000078cfc     OpensslLib:pk7_asn1.obj
 0002:00005240       ??_C@_0M@KEDNAHBP@signer_info@ 0000000000078d00     OpensslLib:pk7_asn1.obj
 0002:00005250       ??_C@_0N@CKBJFFNF@PKCS7_SIGNED@ 0000000000078d10     OpensslLib:pk7_asn1.obj
 0002:00005260       ??_C@_0BC@PMGLGNPO@issuer_and_serial@ 0000000000078d20     OpensslLib:pk7_asn1.obj
 0002:00005278       ??_C@_0L@OGBFEEJI@digest_alg@ 0000000000078d38     OpensslLib:pk7_asn1.obj
 0002:00005288       ??_C@_09PLABOLFJ@auth_attr@ 0000000000078d48     OpensslLib:pk7_asn1.obj
 0002:00005298       ??_C@_0P@KLFHBHJD@digest_enc_alg@ 0000000000078d58     OpensslLib:pk7_asn1.obj
 0002:000052a8       ??_C@_0L@PJDBOMFC@enc_digest@ 0000000000078d68     OpensslLib:pk7_asn1.obj
 0002:000052b8       ??_C@_0M@NNBFAOJK@unauth_attr@ 0000000000078d78     OpensslLib:pk7_asn1.obj
 0002:000052c8       ??_C@_0BC@BFFCPPDG@PKCS7_SIGNER_INFO@ 0000000000078d88     OpensslLib:pk7_asn1.obj
 0002:000052dc       ??_C@_06KCELPKEE@serial@   0000000000078d9c     OpensslLib:pk7_asn1.obj
 0002:000052e8       ??_C@_0BI@POAIONGK@PKCS7_ISSUER_AND_SERIAL@ 0000000000078da8     OpensslLib:pk7_asn1.obj
 0002:00005300       ??_C@_0O@HGJALPPJ@recipientinfo@ 0000000000078dc0     OpensslLib:pk7_asn1.obj
 0002:00005310       ??_C@_08ENNDKKOI@enc_data@ 0000000000078dd0     OpensslLib:pk7_asn1.obj
 0002:00005320       ??_C@_0P@KCJMJLOD@PKCS7_ENVELOPE@ 0000000000078de0     OpensslLib:pk7_asn1.obj
 0002:00005330       ??_C@_0O@ODFHHMFC@key_enc_algor@ 0000000000078df0     OpensslLib:pk7_asn1.obj
 0002:00005340       ??_C@_07LBLKCHGJ@enc_key@  0000000000078e00     OpensslLib:pk7_asn1.obj
 0002:00005348       ??_C@_0BB@MGPEFENK@PKCS7_RECIP_INFO@ 0000000000078e08     OpensslLib:pk7_asn1.obj
 0002:00005360       ??_C@_0N@IEAAACJL@content_type@ 0000000000078e20     OpensslLib:pk7_asn1.obj
 0002:00005370       ??_C@_09JPNFBOJG@algorithm@ 0000000000078e30     OpensslLib:pk7_asn1.obj
 0002:00005380       ??_C@_0BC@INKEDPEG@PKCS7_ENC_CONTENT@ 0000000000078e40     OpensslLib:pk7_asn1.obj
 0002:00005398       ??_C@_0BE@LMHBPFDD@PKCS7_SIGN_ENVELOPE@ 0000000000078e58     OpensslLib:pk7_asn1.obj
 0002:000053b0       ??_C@_0O@GIFGHKGC@PKCS7_ENCRYPT@ 0000000000078e70     OpensslLib:pk7_asn1.obj
 0002:000053c0       ??_C@_02EBCANADN@md@       0000000000078e80     OpensslLib:pk7_asn1.obj
 0002:000053c4       ??_C@_06IJPNAHC@digest@    0000000000078e84     OpensslLib:pk7_asn1.obj
 0002:000053d0       ??_C@_0N@NAILNAH@PKCS7_DIGEST@ 0000000000078e90     OpensslLib:pk7_asn1.obj
 0002:000053e0       ??_C@_0BB@ODHHPICH@PKCS7_ATTRIBUTES@ 0000000000078ea0     OpensslLib:pk7_asn1.obj
 0002:000053f8       ??_C@_0BA@IJMFEGLH@PKCS7_ATTR_SIGN@ 0000000000078eb8     OpensslLib:pk7_asn1.obj
 0002:00005408       ??_C@_0BC@DLHIINOH@PKCS7_ATTR_VERIFY@ 0000000000078ec8     OpensslLib:pk7_asn1.obj
 0002:00005480       PKCS7_ENCRYPT_it           0000000000078f40     OpensslLib:pk7_asn1.obj
 0002:000054b0       PKCS7_RECIP_INFO_it        0000000000078f70     OpensslLib:pk7_asn1.obj
 0002:000054e0       PKCS7_SIGNED_it            0000000000078fa0     OpensslLib:pk7_asn1.obj
 0002:00005650       PKCS7_DIGEST_it            0000000000079110     OpensslLib:pk7_asn1.obj
 0002:00005680       PKCS7_ENC_CONTENT_it       0000000000079140     OpensslLib:pk7_asn1.obj
 0002:00005710       PKCS7_it                   00000000000791d0     OpensslLib:pk7_asn1.obj
 0002:00005740       PKCS7_SIGNER_INFO_it       0000000000079200     OpensslLib:pk7_asn1.obj
 0002:00005860       PKCS7_ATTR_VERIFY_it       0000000000079320     OpensslLib:pk7_asn1.obj
 0002:000058b8       PKCS7_ISSUER_AND_SERIAL_it 0000000000079378     OpensslLib:pk7_asn1.obj
 0002:00005ab0       PKCS7_SIGN_ENVELOPE_it     0000000000079570     OpensslLib:pk7_asn1.obj
 0002:00005b08       PKCS7_ATTR_SIGN_it         00000000000795c8     OpensslLib:pk7_asn1.obj
 0002:00005ca0       PKCS7_ENVELOPE_it          0000000000079760     OpensslLib:pk7_asn1.obj
 0002:00005d70       ??_C@_05DBLJEJPC@UNDEF@    0000000000079830     OpensslLib:obj_dat.obj
 0002:00005d78       ??_C@_09MLGAJAED@undefined@ 0000000000079838     OpensslLib:obj_dat.obj
 0002:00005d84       ??_C@_06GGEMKGKC@rsadsi@   0000000000079844     OpensslLib:obj_dat.obj
 0002:00005d90       ??_C@_0BI@MPBNCOIB@RSA?5Data?5Security?0?5Inc?4@ 0000000000079850     OpensslLib:obj_dat.obj
 0002:00005da8       ??_C@_04GCKLMHGD@pkcs@     0000000000079868     OpensslLib:obj_dat.obj
 0002:00005db0       ??_C@_0BN@EBHJCEC@RSA?5Data?5Security?0?5Inc?4?5PKCS@ 0000000000079870     OpensslLib:obj_dat.obj
 0002:00005dd0       ??_C@_03CNCGNBGO@MD2@      0000000000079890     OpensslLib:obj_dat.obj
 0002:00005dd4       ??_C@_03LFFJDILA@md2@      0000000000079894     OpensslLib:obj_dat.obj
 0002:00005dd8       ??_C@_03GCGHEHKJ@MD5@      0000000000079898     OpensslLib:obj_dat.obj
 0002:00005ddc       ??_C@_03PKBIKOHH@md5@      000000000007989c     OpensslLib:obj_dat.obj
 0002:00005de0       ??_C@_03HGEJCHKE@RC4@      00000000000798a0     OpensslLib:obj_dat.obj
 0002:00005de4       ??_C@_03OODGMOHK@rc4@      00000000000798a4     OpensslLib:obj_dat.obj
 0002:00005de8       ??_C@_0O@PCHNMHJE@rsaEncryption@ 00000000000798a8     OpensslLib:obj_dat.obj
 0002:00005df8       ??_C@_07JBCLOEPG@RSA?9MD2@ 00000000000798b8     OpensslLib:obj_dat.obj
 0002:00005e00       ??_C@_0BF@ODJKGOJ@md2WithRSAEncryption@ 00000000000798c0     OpensslLib:obj_dat.obj
 0002:00005e18       ??_C@_07NOGKHCDB@RSA?9MD5@ 00000000000798d8     OpensslLib:obj_dat.obj
 0002:00005e20       ??_C@_0BF@EEAHCNKC@md5WithRSAEncryption@ 00000000000798e0     OpensslLib:obj_dat.obj
 0002:00005e38       ??_C@_0M@LMNGCPDB@PBE?9MD2?9DES@ 00000000000798f8     OpensslLib:obj_dat.obj
 0002:00005e48       ??_C@_0BF@EEAPBBEF@pbeWithMD2AndDES?9CBC@ 0000000000079908     OpensslLib:obj_dat.obj
 0002:00005e60       ??_C@_0M@KBNDBPIJ@PBE?9MD5?9DES@ 0000000000079920     OpensslLib:obj_dat.obj
 0002:00005e70       ??_C@_0BF@DAJHPIMK@pbeWithMD5AndDES?9CBC@ 0000000000079930     OpensslLib:obj_dat.obj
 0002:00005e88       ??_C@_04NGGFHBI@X500@      0000000000079948     OpensslLib:obj_dat.obj
 0002:00005e90       ??_C@_0BL@NJHHPHOL@directory?5services?5?$CIX?4500?$CJ@ 0000000000079950     OpensslLib:obj_dat.obj
 0002:00005eac       ??_C@_02BMJIHHPP@CN@       000000000007996c     OpensslLib:obj_dat.obj
 0002:00005eb0       ??_C@_0L@OILMNBLH@commonName@ 0000000000079970     OpensslLib:obj_dat.obj
 0002:00005ebc       ??_C@_01GFHCPBMG@C@        000000000007997c     OpensslLib:obj_dat.obj
 0002:00005ec0       ??_C@_0M@NPBHECMC@countryName@ 0000000000079980     OpensslLib:obj_dat.obj
 0002:00005ecc       ??_C@_01OCOKONAJ@L@        000000000007998c     OpensslLib:obj_dat.obj
 0002:00005ed0       ??_C@_0N@LEDCGGBI@localityName@ 0000000000079990     OpensslLib:obj_dat.obj
 0002:00005ee0       ??_C@_02LAJDCOFE@ST@       00000000000799a0     OpensslLib:obj_dat.obj
 0002:00005ee8       ??_C@_0BE@NKDCJFMD@stateOrProvinceName@ 00000000000799a8     OpensslLib:obj_dat.obj
 0002:00005efc       ??_C@_01MJMHLOMK@O@        00000000000799bc     OpensslLib:obj_dat.obj
 0002:00005f00       ??_C@_0BB@GBCNPHLL@organizationName@ 00000000000799c0     OpensslLib:obj_dat.obj
 0002:00005f14       ??_C@_02LMLEEFAB@OU@       00000000000799d4     OpensslLib:obj_dat.obj
 0002:00005f18       ??_C@_0BH@LAMMAAM@organizationalUnitName@ 00000000000799d8     OpensslLib:obj_dat.obj
 0002:00005f30       ??_C@_03DICHAJGH@RSA@      00000000000799f0     OpensslLib:obj_dat.obj
 0002:00005f34       ??_C@_03DFNMMEBL@rsa@      00000000000799f4     OpensslLib:obj_dat.obj
 0002:00005f38       ??_C@_05EENODLBB@pkcs7@    00000000000799f8     OpensslLib:obj_dat.obj
 0002:00005f40       ??_C@_0L@BCKMJOMA@pkcs7?9data@ 0000000000079a00     OpensslLib:obj_dat.obj
 0002:00005f50       ??_C@_0BB@PEKKHBEJ@pkcs7?9signedData@ 0000000000079a10     OpensslLib:obj_dat.obj
 0002:00005f68       ??_C@_0BE@FAIIHMP@pkcs7?9envelopedData@ 0000000000079a28     OpensslLib:obj_dat.obj
 0002:00005f80       ??_C@_0BN@LMEEMCPG@pkcs7?9signedAndEnvelopedData@ 0000000000079a40     OpensslLib:obj_dat.obj
 0002:00005fa0       ??_C@_0BB@CJNFBHDI@pkcs7?9digestData@ 0000000000079a60     OpensslLib:obj_dat.obj
 0002:00005fb8       ??_C@_0BE@CAMKAFJN@pkcs7?9encryptedData@ 0000000000079a78     OpensslLib:obj_dat.obj
 0002:00005fcc       ??_C@_05CALCPOBF@pkcs3@    0000000000079a8c     OpensslLib:obj_dat.obj
 0002:00005fd8       ??_C@_0P@HCMIBBEB@dhKeyAgreement@ 0000000000079a98     OpensslLib:obj_dat.obj
 0002:00005fe8       ??_C@_07IOCLJBKC@DES?9ECB@ 0000000000079aa8     OpensslLib:obj_dat.obj
 0002:00005ff0       ??_C@_07LCLHACCC@des?9ecb@ 0000000000079ab0     OpensslLib:obj_dat.obj
 0002:00005ff8       ??_C@_07KNILAMJF@DES?9CFB@ 0000000000079ab8     OpensslLib:obj_dat.obj
 0002:00006000       ??_C@_07JBBHJPBF@des?9cfb@ 0000000000079ac0     OpensslLib:obj_dat.obj
 0002:00006008       ??_C@_07LDJJJFAI@DES?9CBC@ 0000000000079ac8     OpensslLib:obj_dat.obj
 0002:00006010       ??_C@_07IPAFAGII@des?9cbc@ 0000000000079ad0     OpensslLib:obj_dat.obj
 0002:00006018       ??_C@_07MECFBBOA@DES?9EDE@ 0000000000079ad8     OpensslLib:obj_dat.obj
 0002:00006020       ??_C@_07PILJICGA@des?9ede@ 0000000000079ae0     OpensslLib:obj_dat.obj
 0002:00006028       ??_C@_08FEKFKCFJ@DES?9EDE3@ 0000000000079ae8     OpensslLib:obj_dat.obj
 0002:00006038       ??_C@_08LJCBLNOK@des?9ede3@ 0000000000079af8     OpensslLib:obj_dat.obj
 0002:00006048       ??_C@_08MJNEIAD@IDEA?9CBC@ 0000000000079b08     OpensslLib:obj_dat.obj
 0002:00006058       ??_C@_08LCPAFJCA@idea?9cbc@ 0000000000079b18     OpensslLib:obj_dat.obj
 0002:00006068       ??_C@_08BCIPNBJO@IDEA?9CFB@ 0000000000079b28     OpensslLib:obj_dat.obj
 0002:00006078       ??_C@_08KMOCMALN@idea?9cfb@ 0000000000079b38     OpensslLib:obj_dat.obj
 0002:00006088       ??_C@_08DBCPEMKJ@IDEA?9ECB@ 0000000000079b48     OpensslLib:obj_dat.obj
 0002:00006098       ??_C@_08IPECFNIK@idea?9ecb@ 0000000000079b58     OpensslLib:obj_dat.obj
 0002:000060a8       ??_C@_07KJDFEEGB@RC2?9CBC@ 0000000000079b68     OpensslLib:obj_dat.obj
 0002:000060b0       ??_C@_07JCAFNCNH@rc2?9cbc@ 0000000000079b70     OpensslLib:obj_dat.obj
 0002:000060b8       ??_C@_07JEIHEAML@RC2?9ECB@ 0000000000079b78     OpensslLib:obj_dat.obj
 0002:000060c0       ??_C@_07KPLHNGHN@rc2?9ecb@ 0000000000079b80     OpensslLib:obj_dat.obj
 0002:000060c8       ??_C@_07LHCHNNPM@RC2?9CFB@ 0000000000079b88     OpensslLib:obj_dat.obj
 0002:000060d0       ??_C@_07IMBHELEK@rc2?9cfb@ 0000000000079b90     OpensslLib:obj_dat.obj
 0002:000060d8       ??_C@_07PNPBGCEE@RC2?9OFB@ 0000000000079b98     OpensslLib:obj_dat.obj
 0002:000060e0       ??_C@_07MGMBPEPC@rc2?9ofb@ 0000000000079ba0     OpensslLib:obj_dat.obj
 0002:000060e8       ??_C@_03JAOICCJD@SHA@      0000000000079ba8     OpensslLib:obj_dat.obj
 0002:000060ec       ??_C@_03JNBDOPOP@sha@      0000000000079bac     OpensslLib:obj_dat.obj
 0002:000060f0       ??_C@_07CMOFBHAL@RSA?9SHA@ 0000000000079bb0     OpensslLib:obj_dat.obj
 0002:000060f8       ??_C@_0BF@LIDINENF@shaWithRSAEncryption@ 0000000000079bb8     OpensslLib:obj_dat.obj
 0002:00006110       ??_C@_0M@KHNLAHDP@DES?9EDE?9CBC@ 0000000000079bd0     OpensslLib:obj_dat.obj
 0002:00006120       ??_C@_0M@EKLHMDEA@des?9ede?9cbc@ 0000000000079be0     OpensslLib:obj_dat.obj
 0002:00006130       ??_C@_0N@MLDFENGJ@DES?9EDE3?9CBC@ 0000000000079bf0     OpensslLib:obj_dat.obj
 0002:00006140       ??_C@_0N@FPCHEGKG@des?9ede3?9cbc@ 0000000000079c00     OpensslLib:obj_dat.obj
 0002:00006150       ??_C@_07OHFNLDCN@DES?9OFB@ 0000000000079c10     OpensslLib:obj_dat.obj
 0002:00006158       ??_C@_07NLMBCAKN@des?9ofb@ 0000000000079c18     OpensslLib:obj_dat.obj
 0002:00006160       ??_C@_08FIFJGOCG@IDEA?9OFB@ 0000000000079c20     OpensslLib:obj_dat.obj
 0002:00006170       ??_C@_08OGDEHPAF@idea?9ofb@ 0000000000079c30     OpensslLib:obj_dat.obj
 0002:0000617c       ??_C@_05NKFNBGJP@pkcs9@    0000000000079c3c     OpensslLib:obj_dat.obj
 0002:00006188       ??_C@_0N@IHLBAGEP@emailAddress@ 0000000000079c48     OpensslLib:obj_dat.obj
 0002:00006198       ??_C@_0BB@CJIILOEM@unstructuredName@ 0000000000079c58     OpensslLib:obj_dat.obj
 0002:000061b0       ??_C@_0M@DOEFOEJD@contentType@ 0000000000079c70     OpensslLib:obj_dat.obj
 0002:000061c0       ??_C@_0O@JDGJDGC@messageDigest@ 0000000000079c80     OpensslLib:obj_dat.obj
 0002:000061d0       ??_C@_0M@IJBJCCMP@signingTime@ 0000000000079c90     OpensslLib:obj_dat.obj
 0002:000061e0       ??_C@_0BB@IPFGMODP@countersignature@ 0000000000079ca0     OpensslLib:obj_dat.obj
 0002:000061f8       ??_C@_0BC@OKHONEEM@challengePassword@ 0000000000079cb8     OpensslLib:obj_dat.obj
 0002:00006210       ??_C@_0BE@MACPCAPF@unstructuredAddress@ 0000000000079cd0     OpensslLib:obj_dat.obj
 0002:00006228       ??_C@_0BO@LDCCNBPE@extendedCertificateAttributes@ 0000000000079ce8     OpensslLib:obj_dat.obj
 0002:00006248       ??_C@_08BDEPHMAF@Netscape@ 0000000000079d08     OpensslLib:obj_dat.obj
 0002:00006258       ??_C@_0BO@IAIBEBGO@Netscape?5Communications?5Corp?4@ 0000000000079d18     OpensslLib:obj_dat.obj
 0002:00006278       ??_C@_09JDCKDNMG@nsCertExt@ 0000000000079d38     OpensslLib:obj_dat.obj
 0002:00006288       ??_C@_0BP@LHPGKGFM@Netscape?5Certificate?5Extension@ 0000000000079d48     OpensslLib:obj_dat.obj
 0002:000062a8       ??_C@_0L@FIMLGGPA@nsDataType@ 0000000000079d68     OpensslLib:obj_dat.obj
 0002:000062b8       ??_C@_0BD@JJEILMNP@Netscape?5Data?5Type@ 0000000000079d78     OpensslLib:obj_dat.obj
 0002:000062d0       ??_C@_0M@LJMJJOKC@DES?9EDE?9CFB@ 0000000000079d90     OpensslLib:obj_dat.obj
 0002:000062e0       ??_C@_0M@FEKFFKNN@des?9ede?9cfb@ 0000000000079da0     OpensslLib:obj_dat.obj
 0002:000062f0       ??_C@_0N@NFCHNEPE@DES?9EDE3?9CFB@ 0000000000079db0     OpensslLib:obj_dat.obj
 0002:00006300       ??_C@_0N@EBDFNPDL@des?9ede3?9cfb@ 0000000000079dc0     OpensslLib:obj_dat.obj
 0002:00006310       ??_C@_0M@PDBPCBBK@DES?9EDE?9OFB@ 0000000000079dd0     OpensslLib:obj_dat.obj
 0002:00006320       ??_C@_0M@BOHDOFGF@des?9ede?9ofb@ 0000000000079de0     OpensslLib:obj_dat.obj
 0002:00006330       ??_C@_0N@JPPBGLEM@DES?9EDE3?9OFB@ 0000000000079df0     OpensslLib:obj_dat.obj
 0002:00006340       ??_C@_0N@LODGAID@des?9ede3?9ofb@ 0000000000079e00     OpensslLib:obj_dat.obj
 0002:00006350       ??_C@_04KPMLCNGO@SHA1@     0000000000079e10     OpensslLib:obj_dat.obj
 0002:00006358       ??_C@_04PGHFOLLE@sha1@     0000000000079e18     OpensslLib:obj_dat.obj
 0002:00006360       ??_C@_0BG@DALFFFBE@sha1WithRSAEncryption@ 0000000000079e20     OpensslLib:obj_dat.obj
 0002:00006378       ??_C@_07JGDBCPKH@DSA?9SHA@ 0000000000079e38     OpensslLib:obj_dat.obj
 0002:00006380       ??_C@_0L@BEHMICBH@dsaWithSHA@ 0000000000079e40     OpensslLib:obj_dat.obj
 0002:00006390       ??_C@_07PLHLFGGF@DSA?9old@ 0000000000079e50     OpensslLib:obj_dat.obj
 0002:00006398       ??_C@_0BC@FFHHBCCH@dsaEncryption?9old@ 0000000000079e58     OpensslLib:obj_dat.obj
 0002:000063b0       ??_C@_0BA@KKPEMNGH@PBE?9SHA1?9RC2?964@ 0000000000079e70     OpensslLib:obj_dat.obj
 0002:000063c0       ??_C@_0BG@IBNNJING@pbeWithSHA1AndRC2?9CBC@ 0000000000079e80     OpensslLib:obj_dat.obj
 0002:000063d8       ??_C@_06KBOEGBGA@PBKDF2@   0000000000079e98     OpensslLib:obj_dat.obj
 0002:000063e0       ??_C@_0N@ONIKBKNK@DSA?9SHA1?9old@ 0000000000079ea0     OpensslLib:obj_dat.obj
 0002:000063f0       ??_C@_0BA@DDLLDHEM@dsaWithSHA1?9old@ 0000000000079eb0     OpensslLib:obj_dat.obj
 0002:00006400       ??_C@_0L@IICLKDNB@nsCertType@ 0000000000079ec0     OpensslLib:obj_dat.obj
 0002:00006410       ??_C@_0BD@NFPBEMEE@Netscape?5Cert?5Type@ 0000000000079ed0     OpensslLib:obj_dat.obj
 0002:00006428       ??_C@_09OCIGDOMM@nsBaseUrl@ 0000000000079ee8     OpensslLib:obj_dat.obj
 0002:00006438       ??_C@_0BC@DIHCABP@Netscape?5Base?5Url@ 0000000000079ef8     OpensslLib:obj_dat.obj
 0002:00006450       ??_C@_0BA@DKPGPAKK@nsRevocationUrl@ 0000000000079f10     OpensslLib:obj_dat.obj
 0002:00006460       ??_C@_0BI@BCDINENC@Netscape?5Revocation?5Url@ 0000000000079f20     OpensslLib:obj_dat.obj
 0002:00006478       ??_C@_0BC@IKAPCMGG@nsCaRevocationUrl@ 0000000000079f38     OpensslLib:obj_dat.obj
 0002:00006490       ??_C@_0BL@EMOMOFDB@Netscape?5CA?5Revocation?5Url@ 0000000000079f50     OpensslLib:obj_dat.obj
 0002:000064b0       ??_C@_0N@JILHKMLM@nsRenewalUrl@ 0000000000079f70     OpensslLib:obj_dat.obj
 0002:000064c0       ??_C@_0BF@FKENIIHB@Netscape?5Renewal?5Url@ 0000000000079f80     OpensslLib:obj_dat.obj
 0002:000064d8       ??_C@_0O@DHDIMJD@nsCaPolicyUrl@ 0000000000079f98     OpensslLib:obj_dat.obj
 0002:000064e8       ??_C@_0BH@EMEFHLC@Netscape?5CA?5Policy?5Url@ 0000000000079fa8     OpensslLib:obj_dat.obj
 0002:00006500       ??_C@_0BA@KNOKNJNE@nsSslServerName@ 0000000000079fc0     OpensslLib:obj_dat.obj
 0002:00006510       ??_C@_0BJ@GMBLEMAL@Netscape?5SSL?5Server?5Name@ 0000000000079fd0     OpensslLib:obj_dat.obj
 0002:00006530       ??_C@_09BALDFHMJ@nsComment@ 0000000000079ff0     OpensslLib:obj_dat.obj
 0002:00006540       ??_C@_0BB@DCFBGIOA@Netscape?5Comment@ 000000000007a000     OpensslLib:obj_dat.obj
 0002:00006558       ??_C@_0P@OCCBBJKK@nsCertSequence@ 000000000007a018     OpensslLib:obj_dat.obj
 0002:00006568       ??_C@_0BO@KKKBMKBD@Netscape?5Certificate?5Sequence@ 000000000007a028     OpensslLib:obj_dat.obj
 0002:00006588       ??_C@_08BBKPFFGN@DESX?9CBC@ 000000000007a048     OpensslLib:obj_dat.obj
 0002:00006598       ??_C@_08KPMCEEEO@desx?9cbc@ 000000000007a058     OpensslLib:obj_dat.obj
 0002:000065a4       ??_C@_05NDHEMDL@id?9ce@    000000000007a064     OpensslLib:obj_dat.obj
 0002:000065b0       ??_C@_0BF@MOEDIMBI@subjectKeyIdentifier@ 000000000007a070     OpensslLib:obj_dat.obj
 0002:000065c8       ??_C@_0BO@ILPNOINJ@X509v3?5Subject?5Key?5Identifier@ 000000000007a088     OpensslLib:obj_dat.obj
 0002:000065e8       ??_C@_08BCICBOHF@keyUsage@ 000000000007a0a8     OpensslLib:obj_dat.obj
 0002:000065f8       ??_C@_0BB@BPPOKNBO@X509v3?5Key?5Usage@ 000000000007a0b8     OpensslLib:obj_dat.obj
 0002:00006610       ??_C@_0BG@JOIAJOMN@privateKeyUsagePeriod@ 000000000007a0d0     OpensslLib:obj_dat.obj
 0002:00006628       ??_C@_0CA@CLGHAMIP@X509v3?5Private?5Key?5Usage?5Period@ 000000000007a0e8     OpensslLib:obj_dat.obj
 0002:00006648       ??_C@_0P@EOFJHHKD@subjectAltName@ 000000000007a108     OpensslLib:obj_dat.obj
 0002:00006658       ??_C@_0CA@OPCJJLNF@X509v3?5Subject?5Alternative?5Name@ 000000000007a118     OpensslLib:obj_dat.obj
 0002:00006678       ??_C@_0O@DLIFHFCD@issuerAltName@ 000000000007a138     OpensslLib:obj_dat.obj
 0002:00006688       ??_C@_0BP@FMJCGPCG@X509v3?5Issuer?5Alternative?5Name@ 000000000007a148     OpensslLib:obj_dat.obj
 0002:000066a8       ??_C@_0BB@IKNGJCLO@basicConstraints@ 000000000007a168     OpensslLib:obj_dat.obj
 0002:000066c0       ??_C@_0BJ@FBHDAJML@X509v3?5Basic?5Constraints@ 000000000007a180     OpensslLib:obj_dat.obj
 0002:000066e0       ??_C@_09JDPHHKMA@crlNumber@ 000000000007a1a0     OpensslLib:obj_dat.obj
 0002:000066f0       ??_C@_0BC@PCPNBDDJ@X509v3?5CRL?5Number@ 000000000007a1b0     OpensslLib:obj_dat.obj
 0002:00006708       ??_C@_0BE@OLMJNPEP@certificatePolicies@ 000000000007a1c8     OpensslLib:obj_dat.obj
 0002:00006720       ??_C@_0BM@OOFGKLPK@X509v3?5Certificate?5Policies@ 000000000007a1e0     OpensslLib:obj_dat.obj
 0002:00006740       ??_C@_0BH@ICHFALGD@authorityKeyIdentifier@ 000000000007a200     OpensslLib:obj_dat.obj
 0002:00006758       ??_C@_0CA@GODCHEHD@X509v3?5Authority?5Key?5Identifier@ 000000000007a218     OpensslLib:obj_dat.obj
 0002:00006778       ??_C@_06HALMPEKO@BF?9CBC@  000000000007a238     OpensslLib:obj_dat.obj
 0002:00006780       ??_C@_06LFFGAFHI@bf?9cbc@  000000000007a240     OpensslLib:obj_dat.obj
 0002:00006788       ??_C@_06ENAOPAAE@BF?9ECB@  000000000007a248     OpensslLib:obj_dat.obj
 0002:00006790       ??_C@_06IIOEABNC@bf?9ecb@  000000000007a250     OpensslLib:obj_dat.obj
 0002:00006798       ??_C@_06GOKOGNDD@BF?9CFB@  000000000007a258     OpensslLib:obj_dat.obj
 0002:000067a0       ??_C@_06KLEEJMOF@bf?9cfb@  000000000007a260     OpensslLib:obj_dat.obj
 0002:000067a8       ??_C@_06CEHINCIL@BF?9OFB@  000000000007a268     OpensslLib:obj_dat.obj
 0002:000067b0       ??_C@_06OBJCCDFN@bf?9ofb@  000000000007a270     OpensslLib:obj_dat.obj
 0002:000067b8       ??_C@_04BCGEDMJI@MDC2@     000000000007a278     OpensslLib:obj_dat.obj
 0002:000067c0       ??_C@_04ELNKPKEC@mdc2@     000000000007a280     OpensslLib:obj_dat.obj
 0002:000067c8       ??_C@_08OMAMCKNL@RSA?9MDC2@ 000000000007a288     OpensslLib:obj_dat.obj
 0002:000067d8       ??_C@_0M@HGGNEPNN@mdc2WithRSA@ 000000000007a298     OpensslLib:obj_dat.obj
 0002:000067e4       ??_C@_06KFMILCMH@RC4?940@  000000000007a2a4     OpensslLib:obj_dat.obj
 0002:000067ec       ??_C@_06GNNJIOGN@rc4?940@  000000000007a2ac     OpensslLib:obj_dat.obj
 0002:000067f8       ??_C@_0L@ODHPNGGE@RC2?940?9CBC@ 000000000007a2b8     OpensslLib:obj_dat.obj
 0002:00006808       ??_C@_0L@CHEFJHBP@rc2?940?9cbc@ 000000000007a2c8     OpensslLib:obj_dat.obj
 0002:00006814       ??_C@_02BLJBNPCD@GN@       000000000007a2d4     OpensslLib:obj_dat.obj
 0002:00006818       ??_C@_09GCBNJLNP@givenName@ 000000000007a2d8     OpensslLib:obj_dat.obj
 0002:00006824       ??_C@_02LONEIP@SN@         000000000007a2e4     OpensslLib:obj_dat.obj
 0002:00006828       ??_C@_07LNKFHLHI@surname@  000000000007a2e8     OpensslLib:obj_dat.obj
 0002:00006830       ??_C@_08PAKNLFON@initials@ 000000000007a2f0     OpensslLib:obj_dat.obj
 0002:0000683c       ??_C@_03MEMNCOEB@uid@      000000000007a2fc     OpensslLib:obj_dat.obj
 0002:00006840       ??_C@_0BB@HJMGPENC@uniqueIdentifier@ 000000000007a300     OpensslLib:obj_dat.obj
 0002:00006858       ??_C@_0BG@CCHGOEBE@crlDistributionPoints@ 000000000007a318     OpensslLib:obj_dat.obj
 0002:00006870       ??_C@_0BP@EGHJGANM@X509v3?5CRL?5Distribution?5Points@ 000000000007a330     OpensslLib:obj_dat.obj
 0002:00006890       ??_C@_0L@NACEPNFC@RSA?9NP?9MD5@ 000000000007a350     OpensslLib:obj_dat.obj
 0002:000068a0       ??_C@_0L@CNDCBNIN@md5WithRSA@ 000000000007a360     OpensslLib:obj_dat.obj
 0002:000068ac       ??_C@_05PHLGJONK@title@    000000000007a36c     OpensslLib:obj_dat.obj
 0002:000068b8       ??_C@_0M@PPJNHBMP@description@ 000000000007a378     OpensslLib:obj_dat.obj
 0002:000068c8       ??_C@_09OACPMKPP@CAST5?9CBC@ 000000000007a388     OpensslLib:obj_dat.obj
 0002:000068d8       ??_C@_09BGLDNNDK@cast5?9cbc@ 000000000007a398     OpensslLib:obj_dat.obj
 0002:000068e8       ??_C@_09NNJNMOFF@CAST5?9ECB@ 000000000007a3a8     OpensslLib:obj_dat.obj
 0002:000068f8       ??_C@_09CLABNJJA@cast5?9ecb@ 000000000007a3b8     OpensslLib:obj_dat.obj
 0002:00006908       ??_C@_09PODNFDGC@CAST5?9CFB@ 000000000007a3c8     OpensslLib:obj_dat.obj
 0002:00006918       ??_C@_09IKBEEKH@cast5?9cfb@ 000000000007a3d8     OpensslLib:obj_dat.obj
 0002:00006928       ??_C@_09LEOLOMNK@CAST5?9OFB@ 000000000007a3e8     OpensslLib:obj_dat.obj
 0002:00006938       ??_C@_09ECHHPLBP@cast5?9ofb@ 000000000007a3f8     OpensslLib:obj_dat.obj
 0002:00006948       ??_C@_0BG@JCFINJGL@pbeWithMD5AndCast5CBC@ 000000000007a408     OpensslLib:obj_dat.obj
 0002:00006960       ??_C@_08IOHJAANG@DSA?9SHA1@ 000000000007a420     OpensslLib:obj_dat.obj
 0002:00006970       ??_C@_0M@EFJKPOPH@dsaWithSHA1@ 000000000007a430     OpensslLib:obj_dat.obj
 0002:00006980       ??_C@_08EMIDHKIH@MD5?9SHA1@ 000000000007a440     OpensslLib:obj_dat.obj
 0002:00006990       ??_C@_08GOLKFMKI@md5?9sha1@ 000000000007a450     OpensslLib:obj_dat.obj
 0002:000069a0       ??_C@_0M@KECGAPAA@sha1WithRSA@ 000000000007a460     OpensslLib:obj_dat.obj
 0002:000069ac       ??_C@_03ENFFABCE@DSA@      000000000007a46c     OpensslLib:obj_dat.obj
 0002:000069b0       ??_C@_0O@GMANLAEO@dsaEncryption@ 000000000007a470     OpensslLib:obj_dat.obj
 0002:000069c0       ??_C@_09DJDCAKJG@RIPEMD160@ 000000000007a480     OpensslLib:obj_dat.obj
 0002:000069d0       ??_C@_09EDIPKBN@ripemd160@ 000000000007a490     OpensslLib:obj_dat.obj
 0002:000069e0       ??_C@_0O@JPOIHGOH@RSA?9RIPEMD160@ 000000000007a4a0     OpensslLib:obj_dat.obj
 0002:000069f0       ??_C@_0BB@DCJDAKFH@ripemd160WithRSA@ 000000000007a4b0     OpensslLib:obj_dat.obj
 0002:00006a08       ??_C@_07LEDAHENJ@RC5?9CBC@ 000000000007a4c8     OpensslLib:obj_dat.obj
 0002:00006a10       ??_C@_07IPAAOCGP@rc5?9cbc@ 000000000007a4d0     OpensslLib:obj_dat.obj
 0002:00006a18       ??_C@_07IJICHAHD@RC5?9ECB@ 000000000007a4d8     OpensslLib:obj_dat.obj
 0002:00006a20       ??_C@_07LCLCOGMF@rc5?9ecb@ 000000000007a4e0     OpensslLib:obj_dat.obj
 0002:00006a28       ??_C@_07KKCCONEE@RC5?9CFB@ 000000000007a4e8     OpensslLib:obj_dat.obj
 0002:00006a30       ??_C@_07JBBCHLPC@rc5?9cfb@ 000000000007a4f0     OpensslLib:obj_dat.obj
 0002:00006a38       ??_C@_07OAPEFCPM@RC5?9OFB@ 000000000007a4f8     OpensslLib:obj_dat.obj
 0002:00006a40       ??_C@_07NLMEMEEK@rc5?9ofb@ 000000000007a500     OpensslLib:obj_dat.obj
 0002:00006a48       ??_C@_04CHLIKDMF@ZLIB@     000000000007a508     OpensslLib:obj_dat.obj
 0002:00006a50       ??_C@_0BB@KGNEOBKL@zlib?5compression@ 000000000007a510     OpensslLib:obj_dat.obj
 0002:00006a68       ??_C@_0BB@DGDLKPHD@extendedKeyUsage@ 000000000007a528     OpensslLib:obj_dat.obj
 0002:00006a80       ??_C@_0BK@KFMGFBEG@X509v3?5Extended?5Key?5Usage@ 000000000007a540     OpensslLib:obj_dat.obj
 0002:00006a9c       ??_C@_04EAPCHJAG@PKIX@     000000000007a55c     OpensslLib:obj_dat.obj
 0002:00006aa4       ??_C@_05DEJBPLJH@id?9kp@   000000000007a564     OpensslLib:obj_dat.obj
 0002:00006ab0       ??_C@_0L@CINGAJGN@serverAuth@ 000000000007a570     OpensslLib:obj_dat.obj
 0002:00006ac0       ??_C@_0BO@HPFOJNNE@TLS?5Web?5Server?5Authentication@ 000000000007a580     OpensslLib:obj_dat.obj
 0002:00006ae0       ??_C@_0L@HCMKLLOP@clientAuth@ 000000000007a5a0     OpensslLib:obj_dat.obj
 0002:00006af0       ??_C@_0BO@FEMCBEOF@TLS?5Web?5Client?5Authentication@ 000000000007a5b0     OpensslLib:obj_dat.obj
 0002:00006b10       ??_C@_0M@OJNCNGJ@codeSigning@ 000000000007a5d0     OpensslLib:obj_dat.obj
 0002:00006b20       ??_C@_0N@CHJHLHFC@Code?5Signing@ 000000000007a5e0     OpensslLib:obj_dat.obj
 0002:00006b30       ??_C@_0BA@NPCFDPCO@emailProtection@ 000000000007a5f0     OpensslLib:obj_dat.obj
 0002:00006b40       ??_C@_0BC@BLBGFKKG@E?9mail?5Protection@ 000000000007a600     OpensslLib:obj_dat.obj
 0002:00006b58       ??_C@_0N@LONEBHPN@timeStamping@ 000000000007a618     OpensslLib:obj_dat.obj
 0002:00006b68       ??_C@_0O@GMMBLMEE@Time?5Stamping@ 000000000007a628     OpensslLib:obj_dat.obj
 0002:00006b78       ??_C@_09EMNNPEBE@msCodeInd@ 000000000007a638     OpensslLib:obj_dat.obj
 0002:00006b88       ??_C@_0CC@NDDHKAMP@Microsoft?5Individual?5Code?5Signi@ 000000000007a648     OpensslLib:obj_dat.obj
 0002:00006bb0       ??_C@_09PDGAMFAO@msCodeCom@ 000000000007a670     OpensslLib:obj_dat.obj
 0002:00006bc0       ??_C@_0CC@GKFNEBFA@Microsoft?5Commercial?5Code?5Signi@ 000000000007a680     OpensslLib:obj_dat.obj
 0002:00006be8       ??_C@_09HGCLLDPK@msCTLSign@ 000000000007a6a8     OpensslLib:obj_dat.obj
 0002:00006bf8       ??_C@_0BN@GNMCHNOI@Microsoft?5Trust?5List?5Signing@ 000000000007a6b8     OpensslLib:obj_dat.obj
 0002:00006c18       ??_C@_05DDBMPPAI@msSGC@    000000000007a6d8     OpensslLib:obj_dat.obj
 0002:00006c20       ??_C@_0BO@FBDDCLK@Microsoft?5Server?5Gated?5Crypto@ 000000000007a6e0     OpensslLib:obj_dat.obj
 0002:00006c40       ??_C@_05NGOIPCN@msEFS@     000000000007a700     OpensslLib:obj_dat.obj
 0002:00006c48       ??_C@_0CA@IJODBCMB@Microsoft?5Encrypted?5File?5System@ 000000000007a708     OpensslLib:obj_dat.obj
 0002:00006c68       ??_C@_05LFIIINKG@nsSGC@    000000000007a728     OpensslLib:obj_dat.obj
 0002:00006c70       ??_C@_0BN@MDNLHLBL@Netscape?5Server?5Gated?5Crypto@ 000000000007a730     OpensslLib:obj_dat.obj
 0002:00006c90       ??_C@_08ECNAKPJJ@deltaCRL@ 000000000007a750     OpensslLib:obj_dat.obj
 0002:00006ca0       ??_C@_0BL@HLNLPBHP@X509v3?5Delta?5CRL?5Indicator@ 000000000007a760     OpensslLib:obj_dat.obj
 0002:00006cc0       ??_C@_09MCDAGILE@CRLReason@ 000000000007a780     OpensslLib:obj_dat.obj
 0002:00006cd0       ??_C@_0BH@GODIEFKG@X509v3?5CRL?5Reason?5Code@ 000000000007a790     OpensslLib:obj_dat.obj
 0002:00006ce8       ??_C@_0P@BKEGCOMO@invalidityDate@ 000000000007a7a8     OpensslLib:obj_dat.obj
 0002:00006cf8       ??_C@_0BA@JDBEMONE@Invalidity?5Date@ 000000000007a7b8     OpensslLib:obj_dat.obj
 0002:00006d08       ??_C@_07DKMNOLMH@SXNetID@  000000000007a7c8     OpensslLib:obj_dat.obj
 0002:00006d10       ??_C@_0BD@PNDCMCDK@Strong?5Extranet?5ID@ 000000000007a7d0     OpensslLib:obj_dat.obj
 0002:00006d28       ??_C@_0BB@ILOABLNL@PBE?9SHA1?9RC4?9128@ 000000000007a7e8     OpensslLib:obj_dat.obj
 0002:00006d40       ??_C@_0BI@LBIFCLPB@pbeWithSHA1And128BitRC4@ 000000000007a800     OpensslLib:obj_dat.obj
 0002:00006d58       ??_C@_0BA@ECFMCJKN@PBE?9SHA1?9RC4?940@ 000000000007a818     OpensslLib:obj_dat.obj
 0002:00006d68       ??_C@_0BH@OCAEJMIL@pbeWithSHA1And40BitRC4@ 000000000007a828     OpensslLib:obj_dat.obj
 0002:00006d80       ??_C@_0O@EDBOMBNM@PBE?9SHA1?93DES@ 000000000007a840     OpensslLib:obj_dat.obj
 0002:00006d90       ??_C@_0CB@FCNCEDP@pbeWithSHA1And3?9KeyTripleDES?9CB@ 000000000007a850     OpensslLib:obj_dat.obj
 0002:00006db8       ??_C@_0O@HOHOOIGM@PBE?9SHA1?92DES@ 000000000007a878     OpensslLib:obj_dat.obj
 0002:00006dc8       ??_C@_0CB@NCMPKEGH@pbeWithSHA1And2?9KeyTripleDES?9CB@ 000000000007a888     OpensslLib:obj_dat.obj
 0002:00006df0       ??_C@_0BB@FNLJPIMG@PBE?9SHA1?9RC2?9128@ 000000000007a8b0     OpensslLib:obj_dat.obj
 0002:00006e08       ??_C@_0BM@DOLDINME@pbeWithSHA1And128BitRC2?9CBC@ 000000000007a8c8     OpensslLib:obj_dat.obj
 0002:00006e28       ??_C@_0BA@MNBMNMAN@PBE?9SHA1?9RC2?940@ 000000000007a8e8     OpensslLib:obj_dat.obj
 0002:00006e38       ??_C@_0BL@CKNKIMON@pbeWithSHA1And40BitRC2?9CBC@ 000000000007a8f8     OpensslLib:obj_dat.obj
 0002:00006e54       ??_C@_06BFGNOIAI@keyBag@   000000000007a914     OpensslLib:obj_dat.obj
 0002:00006e60       ??_C@_0BE@ELJKIANF@pkcs8ShroudedKeyBag@ 000000000007a920     OpensslLib:obj_dat.obj
 0002:00006e78       ??_C@_07FDLMCII@certBag@   000000000007a938     OpensslLib:obj_dat.obj
 0002:00006e80       ??_C@_06JAFBIMLO@crlBag@   000000000007a940     OpensslLib:obj_dat.obj
 0002:00006e88       ??_C@_09DELDBPIE@secretBag@ 000000000007a948     OpensslLib:obj_dat.obj
 0002:00006e98       ??_C@_0BA@KAKLKBBC@safeContentsBag@ 000000000007a958     OpensslLib:obj_dat.obj
 0002:00006ea8       ??_C@_0N@BGFMPLCM@friendlyName@ 000000000007a968     OpensslLib:obj_dat.obj
 0002:00006eb8       ??_C@_0L@BCMHPPAO@localKeyID@ 000000000007a978     OpensslLib:obj_dat.obj
 0002:00006ec8       ??_C@_0BA@EMOFOCJL@x509Certificate@ 000000000007a988     OpensslLib:obj_dat.obj
 0002:00006ed8       ??_C@_0BA@BFAOBDKH@sdsiCertificate@ 000000000007a998     OpensslLib:obj_dat.obj
 0002:00006ee8       ??_C@_07KAOEJCFK@x509Crl@  000000000007a9a8     OpensslLib:obj_dat.obj
 0002:00006ef0       ??_C@_05EPMADBBF@PBES2@    000000000007a9b0     OpensslLib:obj_dat.obj
 0002:00006ef8       ??_C@_06DEJMPFNK@PBMAC1@   000000000007a9b8     OpensslLib:obj_dat.obj
 0002:00006f00       ??_C@_0N@KANOAIP@hmacWithSHA1@ 000000000007a9c0     OpensslLib:obj_dat.obj
 0002:00006f10       ??_C@_09MIPGHKGJ@id?9qt?9cps@ 000000000007a9d0     OpensslLib:obj_dat.obj
 0002:00006f20       ??_C@_0BF@HPKIKKPI@Policy?5Qualifier?5CPS@ 000000000007a9e0     OpensslLib:obj_dat.obj
 0002:00006f38       ??_C@_0O@CJFHFAHE@id?9qt?9unotice@ 000000000007a9f8     OpensslLib:obj_dat.obj
 0002:00006f48       ??_C@_0BN@KPMBKEE@Policy?5Qualifier?5User?5Notice@ 000000000007aa08     OpensslLib:obj_dat.obj
 0002:00006f68       ??_C@_0L@OPHBIFFL@RC2?964?9CBC@ 000000000007aa28     OpensslLib:obj_dat.obj
 0002:00006f78       ??_C@_0L@CLELMECA@rc2?964?9cbc@ 000000000007aa38     OpensslLib:obj_dat.obj
 0002:00006f88       ??_C@_0L@LCBJGKJG@SMIME?9CAPS@ 000000000007aa48     OpensslLib:obj_dat.obj
 0002:00006f98       ??_C@_0BE@CEEFMCAI@S?1MIME?5Capabilities@ 000000000007aa58     OpensslLib:obj_dat.obj
 0002:00006fb0       ??_C@_0P@OHJEMJLF@PBE?9MD2?9RC2?964@ 000000000007aa70     OpensslLib:obj_dat.obj
 0002:00006fc0       ??_C@_0BF@FOKDMACM@pbeWithMD2AndRC2?9CBC@ 000000000007aa80     OpensslLib:obj_dat.obj
 0002:00006fd8       ??_C@_0P@IDPFKEHM@PBE?9MD5?9RC2?964@ 000000000007aa98     OpensslLib:obj_dat.obj
 0002:00006fe8       ??_C@_0BF@CKDLCJKD@pbeWithMD5AndRC2?9CBC@ 000000000007aaa8     OpensslLib:obj_dat.obj
 0002:00007000       ??_C@_0N@GOPIPBOD@PBE?9SHA1?9DES@ 000000000007aac0     OpensslLib:obj_dat.obj
 0002:00007010       ??_C@_0BG@JLHBEJLP@pbeWithSHA1AndDES?9CBC@ 000000000007aad0     OpensslLib:obj_dat.obj
 0002:00007028       ??_C@_08HCCJAOPJ@msExtReq@ 000000000007aae8     OpensslLib:obj_dat.obj
 0002:00007038       ??_C@_0BM@MEJAMAEO@Microsoft?5Extension?5Request@ 000000000007aaf8     OpensslLib:obj_dat.obj
 0002:00007054       ??_C@_06EJACAMDF@extReq@   000000000007ab14     OpensslLib:obj_dat.obj
 0002:00007060       ??_C@_0BC@GLHEKHCC@Extension?5Request@ 000000000007ab20     OpensslLib:obj_dat.obj
 0002:00007074       ??_C@_04MEMAJGDJ@name@     000000000007ab34     OpensslLib:obj_dat.obj
 0002:00007080       ??_C@_0M@DNNLEIMI@dnQualifier@ 000000000007ab40     OpensslLib:obj_dat.obj
 0002:0000708c       ??_C@_05BDFHFBBC@id?9pe@   000000000007ab4c     OpensslLib:obj_dat.obj
 0002:00007094       ??_C@_05BHKIKJBE@id?9ad@   000000000007ab54     OpensslLib:obj_dat.obj
 0002:000070a0       ??_C@_0BE@PLCGCINM@authorityInfoAccess@ 000000000007ab60     OpensslLib:obj_dat.obj
 0002:000070b8       ??_C@_0BN@EILCOJAN@Authority?5Information?5Access@ 000000000007ab78     OpensslLib:obj_dat.obj
 0002:000070d8       ??_C@_04LOJOPNBE@OCSP@     000000000007ab98     OpensslLib:obj_dat.obj
 0002:000070e0       ??_C@_09GFPECPIH@caIssuers@ 000000000007aba0     OpensslLib:obj_dat.obj
 0002:000070f0       ??_C@_0L@CABCENFK@CA?5Issuers@ 000000000007abb0     OpensslLib:obj_dat.obj
 0002:00007100       ??_C@_0M@HBKJLKNM@OCSPSigning@ 000000000007abc0     OpensslLib:obj_dat.obj
 0002:00007110       ??_C@_0N@CPJNIPDD@OCSP?5Signing@ 000000000007abd0     OpensslLib:obj_dat.obj
 0002:00007120       ??_C@_03CBLMPEHH@ISO@      000000000007abe0     OpensslLib:obj_dat.obj
 0002:00007124       ??_C@_03CMEHDJAL@iso@      000000000007abe4     OpensslLib:obj_dat.obj
 0002:00007128       ??_C@_0M@CMICFDOA@member?9body@ 000000000007abe8     OpensslLib:obj_dat.obj
 0002:00007138       ??_C@_0BA@BGDAEHGF@ISO?5Member?5Body@ 000000000007abf8     OpensslLib:obj_dat.obj
 0002:00007148       ??_C@_06EKAADAMF@ISO?9US@  000000000007ac08     OpensslLib:obj_dat.obj
 0002:00007150       ??_C@_0BD@NMCDOJHL@ISO?5US?5Member?5Body@ 000000000007ac10     OpensslLib:obj_dat.obj
 0002:00007164       ??_C@_05OCCOPOJN@X9?957@   000000000007ac24     OpensslLib:obj_dat.obj
 0002:0000716c       ??_C@_05PAJLFBHD@X9?457@   000000000007ac2c     OpensslLib:obj_dat.obj
 0002:00007174       ??_C@_04CGFPFLFA@X9cm@     000000000007ac34     OpensslLib:obj_dat.obj
 0002:00007180       ??_C@_0L@DJCLIPOH@X9?457?5CM?5?$DP@ 000000000007ac40     OpensslLib:obj_dat.obj
 0002:0000718c       ??_C@_05BCIEJMJH@pkcs1@    000000000007ac4c     OpensslLib:obj_dat.obj
 0002:00007194       ??_C@_05HGOIFJJD@pkcs5@    000000000007ac54     OpensslLib:obj_dat.obj
 0002:0000719c       ??_C@_05HHBEAKJJ@SMIME@    000000000007ac5c     OpensslLib:obj_dat.obj
 0002:000071a4       ??_C@_06DFGHEKNE@S?1MIME@  000000000007ac64     OpensslLib:obj_dat.obj
 0002:000071b0       ??_C@_0N@GABIEKIN@id?9smime?9mod@ 000000000007ac70     OpensslLib:obj_dat.obj
 0002:000071c0       ??_C@_0M@EBLDBLEO@id?9smime?9ct@ 000000000007ac80     OpensslLib:obj_dat.obj
 0002:000071d0       ??_C@_0M@HFICCJDE@id?9smime?9aa@ 000000000007ac90     OpensslLib:obj_dat.obj
 0002:000071e0       ??_C@_0N@DKFBIKP@id?9smime?9alg@ 000000000007aca0     OpensslLib:obj_dat.obj
 0002:000071f0       ??_C@_0M@LHBAJBP@id?9smime?9cd@ 000000000007acb0     OpensslLib:obj_dat.obj
 0002:00007200       ??_C@_0N@PABBGIHI@id?9smime?9spq@ 000000000007acc0     OpensslLib:obj_dat.obj
 0002:00007210       ??_C@_0N@CFBKAPGC@id?9smime?9cti@ 000000000007acd0     OpensslLib:obj_dat.obj
 0002:00007220       ??_C@_0BB@PJEIFOOP@id?9smime?9mod?9cms@ 000000000007ace0     OpensslLib:obj_dat.obj
 0002:00007238       ??_C@_0BB@MKJLIPEJ@id?9smime?9mod?9ess@ 000000000007acf8     OpensslLib:obj_dat.obj
 0002:00007250       ??_C@_0BB@LBBEMNBN@id?9smime?9mod?9oid@ 000000000007ad10     OpensslLib:obj_dat.obj
 0002:00007268       ??_C@_0BE@PEENABNJ@id?9smime?9mod?9msg?9v3@ 000000000007ad28     OpensslLib:obj_dat.obj
 0002:00007280       ??_C@_0BP@HIDGBPHA@id?9smime?9mod?9ets?9eSignature?988@ 000000000007ad40     OpensslLib:obj_dat.obj
 0002:000072a0       ??_C@_0BP@POGMGJII@id?9smime?9mod?9ets?9eSignature?997@ 000000000007ad60     OpensslLib:obj_dat.obj
 0002:000072c0       ??_C@_0BP@KEHEABPA@id?9smime?9mod?9ets?9eSigPolicy?988@ 000000000007ad80     OpensslLib:obj_dat.obj
 0002:000072e0       ??_C@_0BP@CCCOHHAI@id?9smime?9mod?9ets?9eSigPolicy?997@ 000000000007ada0     OpensslLib:obj_dat.obj
 0002:00007300       ??_C@_0BE@GCHIHBHA@id?9smime?9ct?9receipt@ 000000000007adc0     OpensslLib:obj_dat.obj
 0002:00007318       ??_C@_0BF@KGEHGOF@id?9smime?9ct?9authData@ 000000000007add8     OpensslLib:obj_dat.obj
 0002:00007330       ??_C@_0BI@DBILCLFJ@id?9smime?9ct?9publishCert@ 000000000007adf0     OpensslLib:obj_dat.obj
 0002:00007348       ??_C@_0BE@KHNGFDDI@id?9smime?9ct?9TSTInfo@ 000000000007ae08     OpensslLib:obj_dat.obj
 0002:00007360       ??_C@_0BE@FKPPBHI@id?9smime?9ct?9TDTInfo@ 000000000007ae20     OpensslLib:obj_dat.obj
 0002:00007378       ??_C@_0BI@BGKPNMK@id?9smime?9ct?9contentInfo@ 000000000007ae38     OpensslLib:obj_dat.obj
 0002:00007390       ??_C@_0BM@MFKPCEGN@id?9smime?9ct?9DVCSRequestData@ 000000000007ae50     OpensslLib:obj_dat.obj
 0002:000073b0       ??_C@_0BN@POKJLKJJ@id?9smime?9ct?9DVCSResponseData@ 000000000007ae70     OpensslLib:obj_dat.obj
 0002:000073d0       ??_C@_0BL@LMGNMPFD@id?9smime?9aa?9receiptRequest@ 000000000007ae90     OpensslLib:obj_dat.obj
 0002:000073f0       ??_C@_0BK@DNJNJILO@id?9smime?9aa?9securityLabel@ 000000000007aeb0     OpensslLib:obj_dat.obj
 0002:00007410       ??_C@_0BM@OEKGBMLE@id?9smime?9aa?9mlExpandHistory@ 000000000007aed0     OpensslLib:obj_dat.obj
 0002:00007430       ??_C@_0BI@EMGPJFHB@id?9smime?9aa?9contentHint@ 000000000007aef0     OpensslLib:obj_dat.obj
 0002:00007448       ??_C@_0BJ@LJLDKMDH@id?9smime?9aa?9msgSigDigest@ 000000000007af08     OpensslLib:obj_dat.obj
 0002:00007468       ??_C@_0BN@GCCNOJCG@id?9smime?9aa?9encapContentType@ 000000000007af28     OpensslLib:obj_dat.obj
 0002:00007488       ??_C@_0BO@KMJGIAMK@id?9smime?9aa?9contentIdentifier@ 000000000007af48     OpensslLib:obj_dat.obj
 0002:000074a8       ??_C@_0BF@CFNHFPDB@id?9smime?9aa?9macValue@ 000000000007af68     OpensslLib:obj_dat.obj
 0002:000074c0       ??_C@_0BN@NFAAOKEA@id?9smime?9aa?9equivalentLabels@ 000000000007af80     OpensslLib:obj_dat.obj
 0002:000074e0       ??_C@_0BN@LEFAEFL@id?9smime?9aa?9contentReference@ 000000000007afa0     OpensslLib:obj_dat.obj
 0002:00007500       ??_C@_0BK@LAPEFMP@id?9smime?9aa?9encrypKeyPref@ 000000000007afc0     OpensslLib:obj_dat.obj
 0002:00007520       ??_C@_0BP@LHGJLGIB@id?9smime?9aa?9signingCertificate@ 000000000007afe0     OpensslLib:obj_dat.obj
 0002:00007540       ??_C@_0BO@CEEOANBD@id?9smime?9aa?9smimeEncryptCerts@ 000000000007b000     OpensslLib:obj_dat.obj
 0002:00007560       ??_C@_0BL@DHJOIJNE@id?9smime?9aa?9timeStampToken@ 000000000007b020     OpensslLib:obj_dat.obj
 0002:00007580       ??_C@_0BM@GKFMJCFL@id?9smime?9aa?9ets?9sigPolicyId@ 000000000007b040     OpensslLib:obj_dat.obj
 0002:000075a0       ??_C@_0BP@OLIFPEIM@id?9smime?9aa?9ets?9commitmentType@ 000000000007b060     OpensslLib:obj_dat.obj
 0002:000075c0       ??_C@_0BP@EODAELPO@id?9smime?9aa?9ets?9signerLocation@ 000000000007b080     OpensslLib:obj_dat.obj
 0002:000075e0       ??_C@_0BL@KDJDAGDC@id?9smime?9aa?9ets?9signerAttr@ 000000000007b0a0     OpensslLib:obj_dat.obj
 0002:00007600       ??_C@_0BN@JFIFOPBH@id?9smime?9aa?9ets?9otherSigCert@ 000000000007b0c0     OpensslLib:obj_dat.obj
 0002:00007620       ??_C@_0CB@GHKINGOH@id?9smime?9aa?9ets?9contentTimestam@ 000000000007b0e0     OpensslLib:obj_dat.obj
 0002:00007648       ??_C@_0CA@NKIOCHLG@id?9smime?9aa?9ets?9CertificateRefs@ 000000000007b108     OpensslLib:obj_dat.obj
 0002:00007668       ??_C@_0BP@BCHJHNFO@id?9smime?9aa?9ets?9RevocationRefs@ 000000000007b128     OpensslLib:obj_dat.obj
 0002:00007688       ??_C@_0BL@IFKOLDIG@id?9smime?9aa?9ets?9certValues@ 000000000007b148     OpensslLib:obj_dat.obj
 0002:000076a8       ??_C@_0CB@GOCEFPFO@id?9smime?9aa?9ets?9revocationValue@ 000000000007b168     OpensslLib:obj_dat.obj
 0002:000076d0       ??_C@_0BN@HGLOGOFI@id?9smime?9aa?9ets?9escTimeStamp@ 000000000007b190     OpensslLib:obj_dat.obj
 0002:000076f0       ??_C@_0CB@CJNBPJE@id?9smime?9aa?9ets?9certCRLTimestam@ 000000000007b1b0     OpensslLib:obj_dat.obj
 0002:00007718       ??_C@_0CB@BEMKNJGO@id?9smime?9aa?9ets?9archiveTimeStam@ 000000000007b1d8     OpensslLib:obj_dat.obj
 0002:00007740       ??_C@_0BK@HDBIPLFI@id?9smime?9aa?9signatureType@ 000000000007b200     OpensslLib:obj_dat.obj
 0002:00007760       ??_C@_0BF@KEMAMBKF@id?9smime?9aa?9dvcs?9dvc@ 000000000007b220     OpensslLib:obj_dat.obj
 0002:00007778       ??_C@_0BK@JNJOCCCB@id?9smime?9alg?9ESDHwith3DES@ 000000000007b238     OpensslLib:obj_dat.obj
 0002:00007798       ??_C@_0BJ@FIJMOHBJ@id?9smime?9alg?9ESDHwithRC2@ 000000000007b258     OpensslLib:obj_dat.obj
 0002:000077b8       ??_C@_0BG@HHELPNAK@id?9smime?9alg?93DESwrap@ 000000000007b278     OpensslLib:obj_dat.obj
 0002:000077d0       ??_C@_0BF@JNCPAJCA@id?9smime?9alg?9RC2wrap@ 000000000007b290     OpensslLib:obj_dat.obj
 0002:000077e8       ??_C@_0BC@COOODKPD@id?9smime?9alg?9ESDH@ 000000000007b2a8     OpensslLib:obj_dat.obj
 0002:00007800       ??_C@_0BJ@FOFHEIDB@id?9smime?9alg?9CMS3DESwrap@ 000000000007b2c0     OpensslLib:obj_dat.obj
 0002:00007820       ??_C@_0BI@FIFDKKFJ@id?9smime?9alg?9CMSRC2wrap@ 000000000007b2e0     OpensslLib:obj_dat.obj
 0002:00007838       ??_C@_0BB@BMOBKAGE@id?9smime?9cd?9ldap@ 000000000007b2f8     OpensslLib:obj_dat.obj
 0002:00007850       ??_C@_0BJ@IMNKDGEG@id?9smime?9spq?9ets?9sqt?9uri@ 000000000007b310     OpensslLib:obj_dat.obj
 0002:00007870       ??_C@_0BN@GPAAHNOH@id?9smime?9spq?9ets?9sqt?9unotice@ 000000000007b330     OpensslLib:obj_dat.obj
 0002:00007890       ??_C@_0BP@BCHFEGHC@id?9smime?9cti?9ets?9proofOfOrigin@ 000000000007b350     OpensslLib:obj_dat.obj
 0002:000078b0       ??_C@_0CA@HNGOKBGC@id?9smime?9cti?9ets?9proofOfReceipt@ 000000000007b370     OpensslLib:obj_dat.obj
 0002:000078d0       ??_C@_0CB@ICJGPMEP@id?9smime?9cti?9ets?9proofOfDeliver@ 000000000007b390     OpensslLib:obj_dat.obj
 0002:000078f8       ??_C@_0BP@ODCAFFCM@id?9smime?9cti?9ets?9proofOfSender@ 000000000007b3b8     OpensslLib:obj_dat.obj
 0002:00007918       ??_C@_0CB@DDLMHEBC@id?9smime?9cti?9ets?9proofOfApprova@ 000000000007b3d8     OpensslLib:obj_dat.obj
 0002:00007940       ??_C@_0CB@MICJDGGH@id?9smime?9cti?9ets?9proofOfCreatio@ 000000000007b400     OpensslLib:obj_dat.obj
 0002:00007964       ??_C@_03HLHMHGOI@MD4@      000000000007b424     OpensslLib:obj_dat.obj
 0002:00007968       ??_C@_03ODADJPDG@md4@      000000000007b428     OpensslLib:obj_dat.obj
 0002:00007970       ??_C@_0M@FNAFBNKE@id?9pkix?9mod@ 000000000007b430     OpensslLib:obj_dat.obj
 0002:0000797c       ??_C@_05EBEMBIDF@id?9qt@   000000000007b43c     OpensslLib:obj_dat.obj
 0002:00007984       ??_C@_05FDHJOKPN@id?9it@   000000000007b444     OpensslLib:obj_dat.obj
 0002:00007990       ??_C@_07OMHOPMIM@id?9pkip@ 000000000007b450     OpensslLib:obj_dat.obj
 0002:00007998       ??_C@_06DOGCNAAM@id?9alg@  000000000007b458     OpensslLib:obj_dat.obj
 0002:000079a0       ??_C@_06PBMFLHLE@id?9cmc@  000000000007b460     OpensslLib:obj_dat.obj
 0002:000079a8       ??_C@_05OHNJGMJE@id?9on@   000000000007b468     OpensslLib:obj_dat.obj
 0002:000079b0       ??_C@_06IOIOBGMI@id?9pda@  000000000007b470     OpensslLib:obj_dat.obj
 0002:000079b8       ??_C@_06GDGEDALH@id?9aca@  000000000007b478     OpensslLib:obj_dat.obj
 0002:000079c0       ??_C@_06ELIJBHPL@id?9qcs@  000000000007b480     OpensslLib:obj_dat.obj
 0002:000079c8       ??_C@_06PONIBOCI@id?9cct@  000000000007b488     OpensslLib:obj_dat.obj
 0002:000079d0       ??_C@_0BF@HGDNDMHO@id?9pkix1?9explicit?988@ 000000000007b490     OpensslLib:obj_dat.obj
 0002:000079e8       ??_C@_0BF@KMJGBJHG@id?9pkix1?9implicit?988@ 000000000007b4a8     OpensslLib:obj_dat.obj
 0002:00007a00       ??_C@_0BF@JEALIPIC@id?9pkix1?9explicit?993@ 000000000007b4c0     OpensslLib:obj_dat.obj
 0002:00007a18       ??_C@_0BF@EOKAKKIK@id?9pkix1?9implicit?993@ 000000000007b4d8     OpensslLib:obj_dat.obj
 0002:00007a30       ??_C@_0M@GHFPFJPB@id?9mod?9crmf@ 000000000007b4f0     OpensslLib:obj_dat.obj
 0002:00007a40       ??_C@_0L@KPDLDADF@id?9mod?9cmc@ 000000000007b500     OpensslLib:obj_dat.obj
 0002:00007a50       ??_C@_0BG@DCGANCKA@id?9mod?9kea?9profile?988@ 000000000007b510     OpensslLib:obj_dat.obj
 0002:00007a68       ??_C@_0BG@NAFGGBFM@id?9mod?9kea?9profile?993@ 000000000007b528     OpensslLib:obj_dat.obj
 0002:00007a80       ??_C@_0L@MONEHBKH@id?9mod?9cmp@ 000000000007b540     OpensslLib:obj_dat.obj
 0002:00007a90       ??_C@_0BJ@GENFLKHG@id?9mod?9qualified?9cert?988@ 000000000007b550     OpensslLib:obj_dat.obj
 0002:00007ab0       ??_C@_0BJ@IGODAJIK@id?9mod?9qualified?9cert?993@ 000000000007b570     OpensslLib:obj_dat.obj
 0002:00007ad0       ??_C@_0BG@EPPFBJNH@id?9mod?9attribute?9cert@ 000000000007b590     OpensslLib:obj_dat.obj
 0002:00007ae8       ??_C@_0BK@GAJOODEK@id?9mod?9timestamp?9protocol@ 000000000007b5a8     OpensslLib:obj_dat.obj
 0002:00007b08       ??_C@_0M@EACKLPKH@id?9mod?9ocsp@ 000000000007b5c8     OpensslLib:obj_dat.obj
 0002:00007b18       ??_C@_0M@GHDGNJKI@id?9mod?9dvcs@ 000000000007b5d8     OpensslLib:obj_dat.obj
 0002:00007b28       ??_C@_0P@MMOAAMFD@id?9mod?9cmp2000@ 000000000007b5e8     OpensslLib:obj_dat.obj
 0002:00007b38       ??_C@_0O@MPIIPAHM@biometricInfo@ 000000000007b5f8     OpensslLib:obj_dat.obj
 0002:00007b48       ??_C@_0P@KFKDECPH@Biometric?5Info@ 000000000007b608     OpensslLib:obj_dat.obj
 0002:00007b58       ??_C@_0N@FPMNLLM@qcStatements@ 000000000007b618     OpensslLib:obj_dat.obj
 0002:00007b68       ??_C@_0P@CIOHPJGC@ac?9auditEntity@ 000000000007b628     OpensslLib:obj_dat.obj
 0002:00007b78       ??_C@_0N@FPEEOJCI@ac?9targeting@ 000000000007b638     OpensslLib:obj_dat.obj
 0002:00007b88       ??_C@_0L@DLGBNBJE@aaControls@ 000000000007b648     OpensslLib:obj_dat.obj
 0002:00007b98       ??_C@_0BB@NNCKCHBC@sbgp?9ipAddrBlock@ 000000000007b658     OpensslLib:obj_dat.obj
 0002:00007bb0       ??_C@_0BG@OJEHJDKA@sbgp?9autonomousSysNum@ 000000000007b670     OpensslLib:obj_dat.obj
 0002:00007bc8       ??_C@_0BG@JCJJBMAI@sbgp?9routerIdentifier@ 000000000007b688     OpensslLib:obj_dat.obj
 0002:00007be0       ??_C@_0L@HLNNPJEH@textNotice@ 000000000007b6a0     OpensslLib:obj_dat.obj
 0002:00007bf0       ??_C@_0P@MKBFMAPP@ipsecEndSystem@ 000000000007b6b0     OpensslLib:obj_dat.obj
 0002:00007c00       ??_C@_0BB@JEJDAICO@IPSec?5End?5System@ 000000000007b6c0     OpensslLib:obj_dat.obj
 0002:00007c18       ??_C@_0M@GMMHFFHI@ipsecTunnel@ 000000000007b6d8     OpensslLib:obj_dat.obj
 0002:00007c28       ??_C@_0N@EKDIOGLO@IPSec?5Tunnel@ 000000000007b6e8     OpensslLib:obj_dat.obj
 0002:00007c38       ??_C@_09GOHJKOFF@ipsecUser@ 000000000007b6f8     OpensslLib:obj_dat.obj
 0002:00007c48       ??_C@_0L@DECDDCGF@IPSec?5User@ 000000000007b708     OpensslLib:obj_dat.obj
 0002:00007c54       ??_C@_04JJICJLBL@DVCS@     000000000007b714     OpensslLib:obj_dat.obj
 0002:00007c5c       ??_C@_04FFLIHJGD@dvcs@     000000000007b71c     OpensslLib:obj_dat.obj
 0002:00007c68       ??_C@_0BE@GJACIPND@id?9it?9caProtEncCert@ 000000000007b728     OpensslLib:obj_dat.obj
 0002:00007c80       ??_C@_0BH@POCENFBA@id?9it?9signKeyPairTypes@ 000000000007b740     OpensslLib:obj_dat.obj
 0002:00007c98       ??_C@_0BG@FKIDIODL@id?9it?9encKeyPairTypes@ 000000000007b758     OpensslLib:obj_dat.obj
 0002:00007cb0       ??_C@_0BH@JFBOPDCH@id?9it?9preferredSymmAlg@ 000000000007b770     OpensslLib:obj_dat.obj
 0002:00007cc8       ??_C@_0BG@OAKEHPLC@id?9it?9caKeyUpdateInfo@ 000000000007b788     OpensslLib:obj_dat.obj
 0002:00007ce0       ??_C@_0BB@NHKBGJFG@id?9it?9currentCRL@ 000000000007b7a0     OpensslLib:obj_dat.obj
 0002:00007cf8       ??_C@_0BG@BPLKDJPD@id?9it?9unsupportedOIDs@ 000000000007b7b8     OpensslLib:obj_dat.obj
 0002:00007d10       ??_C@_0BK@MKGCMKGI@id?9it?9subscriptionRequest@ 000000000007b7d0     OpensslLib:obj_dat.obj
 0002:00007d30       ??_C@_0BL@HBPHBFLO@id?9it?9subscriptionResponse@ 000000000007b7f0     OpensslLib:obj_dat.obj
 0002:00007d50       ??_C@_0BG@LGJDGAPG@id?9it?9keyPairParamReq@ 000000000007b810     OpensslLib:obj_dat.obj
 0002:00007d68       ??_C@_0BG@KPIIFBLH@id?9it?9keyPairParamRep@ 000000000007b828     OpensslLib:obj_dat.obj
 0002:00007d80       ??_C@_0BE@FOOOCPMH@id?9it?9revPassphrase@ 000000000007b840     OpensslLib:obj_dat.obj
 0002:00007d98       ??_C@_0BG@MKDHCJKF@id?9it?9implicitConfirm@ 000000000007b858     OpensslLib:obj_dat.obj
 0002:00007db0       ??_C@_0BG@KCBHNMIK@id?9it?9confirmWaitTime@ 000000000007b870     OpensslLib:obj_dat.obj
 0002:00007dc8       ??_C@_0BF@CLCJJGFI@id?9it?9origPKIMessage@ 000000000007b888     OpensslLib:obj_dat.obj
 0002:00007de0       ??_C@_0L@FDGKGANK@id?9regCtrl@ 000000000007b8a0     OpensslLib:obj_dat.obj
 0002:00007df0       ??_C@_0L@BGHMJHOP@id?9regInfo@ 000000000007b8b0     OpensslLib:obj_dat.obj
 0002:00007e00       ??_C@_0BE@JDMKCIPE@id?9regCtrl?9regToken@ 000000000007b8c0     OpensslLib:obj_dat.obj
 0002:00007e18       ??_C@_0BJ@FBKKLLKP@id?9regCtrl?9authenticator@ 000000000007b8d8     OpensslLib:obj_dat.obj
 0002:00007e38       ??_C@_0BO@GJKPPLPL@id?9regCtrl?9pkiPublicationInfo@ 000000000007b8f8     OpensslLib:obj_dat.obj
 0002:00007e58       ??_C@_0BN@ONKHMAOP@id?9regCtrl?9pkiArchiveOptions@ 000000000007b918     OpensslLib:obj_dat.obj
 0002:00007e78       ??_C@_0BF@GFJPNJIG@id?9regCtrl?9oldCertID@ 000000000007b938     OpensslLib:obj_dat.obj
 0002:00007e90       ??_C@_0BL@GHBPLPHM@id?9regCtrl?9protocolEncrKey@ 000000000007b950     OpensslLib:obj_dat.obj
 0002:00007eb0       ??_C@_0BF@FHFGHAHE@id?9regInfo?9utf8Pairs@ 000000000007b970     OpensslLib:obj_dat.obj
 0002:00007ec8       ??_C@_0BD@EEAPBNJJ@id?9regInfo?9certReq@ 000000000007b988     OpensslLib:obj_dat.obj
 0002:00007ee0       ??_C@_0N@KIJONBNA@id?9alg?9des40@ 000000000007b9a0     OpensslLib:obj_dat.obj
 0002:00007ef0       ??_C@_0BD@LAAJOBHI@id?9alg?9noSignature@ 000000000007b9b0     OpensslLib:obj_dat.obj
 0002:00007f08       ??_C@_0BI@KIODNBCM@id?9alg?9dh?9sig?9hmac?9sha1@ 000000000007b9c8     OpensslLib:obj_dat.obj
 0002:00007f20       ??_C@_0O@OBGPPBGA@id?9alg?9dh?9pop@ 000000000007b9e0     OpensslLib:obj_dat.obj
 0002:00007f30       ??_C@_0BC@CMNEPEAI@id?9cmc?9statusInfo@ 000000000007b9f0     OpensslLib:obj_dat.obj
 0002:00007f48       ??_C@_0BG@PPIINOMK@id?9cmc?9identification@ 000000000007ba08     OpensslLib:obj_dat.obj
 0002:00007f60       ??_C@_0BF@IDAHNDCK@id?9cmc?9identityProof@ 000000000007ba20     OpensslLib:obj_dat.obj
 0002:00007f78       ??_C@_0BC@LLJKCHEN@id?9cmc?9dataReturn@ 000000000007ba38     OpensslLib:obj_dat.obj
 0002:00007f90       ??_C@_0BF@GEJAHBF@id?9cmc?9transactionId@ 000000000007ba50     OpensslLib:obj_dat.obj
 0002:00007fa8       ??_C@_0BD@BCMJDDMP@id?9cmc?9senderNonce@ 000000000007ba68     OpensslLib:obj_dat.obj
 0002:00007fc0       ??_C@_0BG@JLHHNNCH@id?9cmc?9recipientNonce@ 000000000007ba80     OpensslLib:obj_dat.obj
 0002:00007fd8       ??_C@_0BF@HLOCACJF@id?9cmc?9addExtensions@ 000000000007ba98     OpensslLib:obj_dat.obj
 0002:00007ff0       ??_C@_0BE@NILMJFN@id?9cmc?9encryptedPOP@ 000000000007bab0     OpensslLib:obj_dat.obj
 0002:00008008       ??_C@_0BE@KBIPLENG@id?9cmc?9decryptedPOP@ 000000000007bac8     OpensslLib:obj_dat.obj
 0002:00008020       ??_C@_0BF@BMODAINP@id?9cmc?9lraPOPWitness@ 000000000007bae0     OpensslLib:obj_dat.obj
 0002:00008038       ??_C@_0P@GMDPJKDO@id?9cmc?9getCert@ 000000000007baf8     OpensslLib:obj_dat.obj
 0002:00008048       ??_C@_0O@OIGIOBJ@id?9cmc?9getCRL@ 000000000007bb08     OpensslLib:obj_dat.obj
 0002:00008058       ??_C@_0BF@BOEAJJNI@id?9cmc?9revokeRequest@ 000000000007bb18     OpensslLib:obj_dat.obj
 0002:00008070       ??_C@_0P@PCIOIKNC@id?9cmc?9regInfo@ 000000000007bb30     OpensslLib:obj_dat.obj
 0002:00008080       ??_C@_0BE@CKMFMMDP@id?9cmc?9responseInfo@ 000000000007bb40     OpensslLib:obj_dat.obj
 0002:00008098       ??_C@_0BE@JKLJLIIH@id?9cmc?9queryPending@ 000000000007bb58     OpensslLib:obj_dat.obj
 0002:000080b0       ??_C@_0BF@GGLCNKGO@id?9cmc?9popLinkRandom@ 000000000007bb70     OpensslLib:obj_dat.obj
 0002:000080c8       ??_C@_0BG@EEIJMDPB@id?9cmc?9popLinkWitness@ 000000000007bb88     OpensslLib:obj_dat.obj
 0002:000080e0       ??_C@_0BN@MIGHDJON@id?9cmc?9confirmCertAcceptance@ 000000000007bba0     OpensslLib:obj_dat.obj
 0002:00008100       ??_C@_0BD@IGLADCFL@id?9on?9personalData@ 000000000007bbc0     OpensslLib:obj_dat.obj
 0002:00008118       ??_C@_0BD@BADJMIPF@id?9pda?9dateOfBirth@ 000000000007bbd8     OpensslLib:obj_dat.obj
 0002:00008130       ??_C@_0BE@NIFFDBPJ@id?9pda?9placeOfBirth@ 000000000007bbf0     OpensslLib:obj_dat.obj
 0002:00008148       ??_C@_0O@JMCFNPFD@id?9pda?9gender@ 000000000007bc08     OpensslLib:obj_dat.obj
 0002:00008158       ??_C@_0BM@KMGEGNAB@id?9pda?9countryOfCitizenship@ 000000000007bc18     OpensslLib:obj_dat.obj
 0002:00008178       ??_C@_0BK@BJMNIGCJ@id?9pda?9countryOfResidence@ 000000000007bc38     OpensslLib:obj_dat.obj
 0002:00008198       ??_C@_0BK@OFEDAOCA@id?9aca?9authenticationInfo@ 000000000007bc58     OpensslLib:obj_dat.obj
 0002:000081b8       ??_C@_0BG@GFJCFEAI@id?9aca?9accessIdentity@ 000000000007bc78     OpensslLib:obj_dat.obj
 0002:000081d0       ??_C@_0BI@IDHFJBKH@id?9aca?9chargingIdentity@ 000000000007bc90     OpensslLib:obj_dat.obj
 0002:000081e8       ??_C@_0N@HOPCGOGP@id?9aca?9group@ 000000000007bca8     OpensslLib:obj_dat.obj
 0002:000081f8       ??_C@_0M@FBOAJIIJ@id?9aca?9role@ 000000000007bcb8     OpensslLib:obj_dat.obj
 0002:00008208       ??_C@_0BH@DJONLBHI@id?9qcs?9pkixQCSyntax?9v1@ 000000000007bcc8     OpensslLib:obj_dat.obj
 0002:00008220       ??_C@_0L@CDHPLMPE@id?9cct?9crs@ 000000000007bce0     OpensslLib:obj_dat.obj
 0002:00008230       ??_C@_0P@FNCPPGJO@id?9cct?9PKIData@ 000000000007bcf0     OpensslLib:obj_dat.obj
 0002:00008240       ??_C@_0BD@DDALHPCH@id?9cct?9PKIResponse@ 000000000007bd00     OpensslLib:obj_dat.obj
 0002:00008258       ??_C@_0BA@PBBONLHE@ad_timestamping@ 000000000007bd18     OpensslLib:obj_dat.obj
 0002:00008268       ??_C@_0BB@NMPPBOGK@AD?5Time?5Stamping@ 000000000007bd28     OpensslLib:obj_dat.obj
 0002:00008280       ??_C@_07JCCJJKFE@AD_DVCS@  000000000007bd40     OpensslLib:obj_dat.obj
 0002:00008288       ??_C@_07JCKMJMPC@ad?5dvcs@ 000000000007bd48     OpensslLib:obj_dat.obj
 0002:00008290       ??_C@_0BC@KFAFMFFF@basicOCSPResponse@ 000000000007bd50     OpensslLib:obj_dat.obj
 0002:000082a8       ??_C@_0BE@ONEEPEOL@Basic?5OCSP?5Response@ 000000000007bd68     OpensslLib:obj_dat.obj
 0002:000082bc       ??_C@_05OJOPLPHH@Nonce@    000000000007bd7c     OpensslLib:obj_dat.obj
 0002:000082c8       ??_C@_0L@NCNDEJFL@OCSP?5Nonce@ 000000000007bd88     OpensslLib:obj_dat.obj
 0002:000082d4       ??_C@_05NOENOBME@CrlID@    000000000007bd94     OpensslLib:obj_dat.obj
 0002:000082e0       ??_C@_0M@LCLKJALE@OCSP?5CRL?5ID@ 000000000007bda0     OpensslLib:obj_dat.obj
 0002:000082f0       ??_C@_0BE@FBPDIHIK@acceptableResponses@ 000000000007bdb0     OpensslLib:obj_dat.obj
 0002:00008308       ??_C@_0BK@JKKLNLEI@Acceptable?5OCSP?5Responses@ 000000000007bdc8     OpensslLib:obj_dat.obj
 0002:00008328       ??_C@_07MCKMCKHJ@noCheck@  000000000007bde8     OpensslLib:obj_dat.obj
 0002:00008330       ??_C@_0O@HFOALJCG@OCSP?5No?5Check@ 000000000007bdf0     OpensslLib:obj_dat.obj
 0002:00008340       ??_C@_0O@FIEDPKGI@archiveCutoff@ 000000000007be00     OpensslLib:obj_dat.obj
 0002:00008350       ??_C@_0BE@JAFPABJB@OCSP?5Archive?5Cutoff@ 000000000007be10     OpensslLib:obj_dat.obj
 0002:00008368       ??_C@_0P@LCDAPLHC@serviceLocator@ 000000000007be28     OpensslLib:obj_dat.obj
 0002:00008378       ??_C@_0BF@CEIKAD@OCSP?5Service?5Locator@ 000000000007be38     OpensslLib:obj_dat.obj
 0002:00008390       ??_C@_0P@EGENIBNC@extendedStatus@ 000000000007be50     OpensslLib:obj_dat.obj
 0002:000083a0       ??_C@_0BF@MPEDLKDP@Extended?5OCSP?5Status@ 000000000007be60     OpensslLib:obj_dat.obj
 0002:000083b8       ??_C@_05HDPIMK@valid@      000000000007be78     OpensslLib:obj_dat.obj
 0002:000083c0       ??_C@_04LNEJFJGI@path@     000000000007be80     OpensslLib:obj_dat.obj
 0002:000083c8       ??_C@_09LNEPAILM@trustRoot@ 000000000007be88     OpensslLib:obj_dat.obj
 0002:000083d8       ??_C@_0L@INBPOG@Trust?5Root@ 000000000007be98     OpensslLib:obj_dat.obj
 0002:000083e8       ??_C@_0N@JHANBHGC@rsaSignature@ 000000000007bea8     OpensslLib:obj_dat.obj
 0002:000083f8       ??_C@_0P@NMIAKCBG@X500algorithms@ 000000000007beb8     OpensslLib:obj_dat.obj
 0002:00008408       ??_C@_0CA@FIOIBJEO@directory?5services?5?9?5algorithms@ 000000000007bec8     OpensslLib:obj_dat.obj
 0002:00008428       ??_C@_03MNMMELJE@ORG@      000000000007bee8     OpensslLib:obj_dat.obj
 0002:0000842c       ??_C@_03MADHIGOI@org@      000000000007beec     OpensslLib:obj_dat.obj
 0002:00008430       ??_C@_03CFBOKPHF@DOD@      000000000007bef0     OpensslLib:obj_dat.obj
 0002:00008434       ??_C@_03CIOFGCAJ@dod@      000000000007bef4     OpensslLib:obj_dat.obj
 0002:00008438       ??_C@_04NMPANDAM@IANA@     000000000007bef8     OpensslLib:obj_dat.obj
 0002:00008440       ??_C@_04BAMKDBHE@iana@     000000000007bf00     OpensslLib:obj_dat.obj
 0002:00008448       ??_C@_09ELLNFDPM@directory@ 000000000007bf08     OpensslLib:obj_dat.obj
 0002:00008458       ??_C@_09EOAFACM@Directory@ 000000000007bf18     OpensslLib:obj_dat.obj
 0002:00008464       ??_C@_04PFNCJACF@mgmt@     000000000007bf24     OpensslLib:obj_dat.obj
 0002:00008470       ??_C@_0L@ENAJINDB@Management@ 000000000007bf30     OpensslLib:obj_dat.obj
 0002:00008480       ??_C@_0N@OJFGCCKJ@experimental@ 000000000007bf40     OpensslLib:obj_dat.obj
 0002:00008490       ??_C@_0N@FKCIGJFM@Experimental@ 000000000007bf50     OpensslLib:obj_dat.obj
 0002:000084a0       ??_C@_07NMPLPEPB@private@  000000000007bf60     OpensslLib:obj_dat.obj
 0002:000084a8       ??_C@_07CFINJGKH@Private@  000000000007bf68     OpensslLib:obj_dat.obj
 0002:000084b0       ??_C@_08MBFLHJIB@security@ 000000000007bf70     OpensslLib:obj_dat.obj
 0002:000084c0       ??_C@_08EDKKPLCC@Security@ 000000000007bf80     OpensslLib:obj_dat.obj
 0002:000084cc       ??_C@_06DKHMNHOO@snmpv2@   000000000007bf8c     OpensslLib:obj_dat.obj
 0002:000084d4       ??_C@_06JDJOGLHO@SNMPv2@   000000000007bf94     OpensslLib:obj_dat.obj
 0002:000084dc       ??_C@_04JEGKNAHI@Mail@     000000000007bf9c     OpensslLib:obj_dat.obj
 0002:000084e8       ??_C@_0M@DMHOKNAD@enterprises@ 000000000007bfa8     OpensslLib:obj_dat.obj
 0002:000084f8       ??_C@_0M@CEEPHGPL@Enterprises@ 000000000007bfb8     OpensslLib:obj_dat.obj
 0002:00008508       ??_C@_08KAGHKPKK@dcobject@ 000000000007bfc8     OpensslLib:obj_dat.obj
 0002:00008518       ??_C@_08GPNKJGDG@dcObject@ 000000000007bfd8     OpensslLib:obj_dat.obj
 0002:00008524       ??_C@_02KMHJBPDH@DC@       000000000007bfe4     OpensslLib:obj_dat.obj
 0002:00008528       ??_C@_0BA@DMAKFKAH@domainComponent@ 000000000007bfe8     OpensslLib:obj_dat.obj
 0002:00008538       ??_C@_06LKIIGAOE@domain@   000000000007bff8     OpensslLib:obj_dat.obj
 0002:00008540       ??_C@_06HFDFFJHI@Domain@   000000000007c000     OpensslLib:obj_dat.obj
 0002:00008548       ??_C@_04HIBGFPH@NULL@      000000000007c008     OpensslLib:obj_dat.obj
 0002:00008550       ??_C@_0BJ@BDDNHDDA@selected?9attribute?9types@ 000000000007c010     OpensslLib:obj_dat.obj
 0002:00008570       ??_C@_0BJ@MAOJIBHF@Selected?5Attribute?5Types@ 000000000007c030     OpensslLib:obj_dat.obj
 0002:00008590       ??_C@_09ECGCCLFI@clearance@ 000000000007c050     OpensslLib:obj_dat.obj
 0002:000085a0       ??_C@_07MHHBEDHA@RSA?9MD4@ 000000000007c060     OpensslLib:obj_dat.obj
 0002:000085a8       ??_C@_0BF@JDOFKNPK@md4WithRSAEncryption@ 000000000007c068     OpensslLib:obj_dat.obj
 0002:000085c0       ??_C@_0M@BKAIKGEL@ac?9proxying@ 000000000007c080     OpensslLib:obj_dat.obj
 0002:000085d0       ??_C@_0BC@IEIBIKBA@subjectInfoAccess@ 000000000007c090     OpensslLib:obj_dat.obj
 0002:000085e8       ??_C@_0BL@OMFIOBLF@Subject?5Information?5Access@ 000000000007c0a8     OpensslLib:obj_dat.obj
 0002:00008608       ??_C@_0BA@PEFFHNFH@id?9aca?9encAttrs@ 000000000007c0c8     OpensslLib:obj_dat.obj
 0002:00008618       ??_C@_04IAMNPBLO@role@     000000000007c0d8     OpensslLib:obj_dat.obj
 0002:00008620       ??_C@_0BC@IJLMCBHD@policyConstraints@ 000000000007c0e0     OpensslLib:obj_dat.obj
 0002:00008638       ??_C@_0BK@DNMBLGM@X509v3?5Policy?5Constraints@ 000000000007c0f8     OpensslLib:obj_dat.obj
 0002:00008658       ??_C@_0BC@JINDJNPM@targetInformation@ 000000000007c118     OpensslLib:obj_dat.obj
 0002:00008670       ??_C@_0BE@IECCFFCH@X509v3?5AC?5Targeting@ 000000000007c130     OpensslLib:obj_dat.obj
 0002:00008688       ??_C@_0L@ECGDAGCK@noRevAvail@ 000000000007c148     OpensslLib:obj_dat.obj
 0002:00008698       ??_C@_0BP@DEKFNCEH@X509v3?5No?5Revocation?5Available@ 000000000007c158     OpensslLib:obj_dat.obj
 0002:000086b8       ??_C@_0L@LBMOMFCJ@ansi?9X9?962@ 000000000007c178     OpensslLib:obj_dat.obj
 0002:000086c8       ??_C@_0L@HAOKGHPF@ANSI?5X9?462@ 000000000007c188     OpensslLib:obj_dat.obj
 0002:000086d8       ??_C@_0M@LGLKIODB@prime?9field@ 000000000007c198     OpensslLib:obj_dat.obj
 0002:000086e8       ??_C@_0BJ@HECCMKCN@characteristic?9two?9field@ 000000000007c1a8     OpensslLib:obj_dat.obj
 0002:00008708       ??_C@_0P@NEOBKIMO@id?9ecPublicKey@ 000000000007c1c8     OpensslLib:obj_dat.obj
 0002:00008718       ??_C@_0L@FFFCIFBH@prime192v1@ 000000000007c1d8     OpensslLib:obj_dat.obj
 0002:00008728       ??_C@_0L@HOHPNGNE@prime192v2@ 000000000007c1e8     OpensslLib:obj_dat.obj
 0002:00008738       ??_C@_0L@GHGEOHJF@prime192v3@ 000000000007c1f8     OpensslLib:obj_dat.obj
 0002:00008748       ??_C@_0L@EOHHGIBJ@prime239v1@ 000000000007c208     OpensslLib:obj_dat.obj
 0002:00008758       ??_C@_0L@GFFKDLNK@prime239v2@ 000000000007c218     OpensslLib:obj_dat.obj
 0002:00008768       ??_C@_0L@HMEBAKJL@prime239v3@ 000000000007c228     OpensslLib:obj_dat.obj
 0002:00008778       ??_C@_0L@JJFEINOP@prime256v1@ 000000000007c238     OpensslLib:obj_dat.obj
 0002:00008788       ??_C@_0BA@DGJNDOPM@ecdsa?9with?9SHA1@ 000000000007c248     OpensslLib:obj_dat.obj
 0002:00008798       ??_C@_07BPKAKPJK@CSPName@  000000000007c258     OpensslLib:obj_dat.obj
 0002:000087a0       ??_C@_0BD@HDEEGCLB@Microsoft?5CSP?5Name@ 000000000007c260     OpensslLib:obj_dat.obj
 0002:000087b8       ??_C@_0M@BCNEBAOB@AES?9128?9ECB@ 000000000007c278     OpensslLib:obj_dat.obj
 0002:000087c8       ??_C@_0M@MONPIKGC@aes?9128?9ecb@ 000000000007c288     OpensslLib:obj_dat.obj
 0002:000087d8       ??_C@_0M@CPGGBEEL@AES?9128?9CBC@ 000000000007c298     OpensslLib:obj_dat.obj
 0002:000087e8       ??_C@_0M@PDGNIOMI@aes?9128?9cbc@ 000000000007c2a8     OpensslLib:obj_dat.obj
 0002:000087f8       ??_C@_0M@HLKCDCGO@AES?9128?9OFB@ 000000000007c2b8     OpensslLib:obj_dat.obj
 0002:00008808       ??_C@_0M@KHKJKION@aes?9128?9ofb@ 000000000007c2c8     OpensslLib:obj_dat.obj
 0002:00008818       ??_C@_0M@DBHEINNG@AES?9128?9CFB@ 000000000007c2d8     OpensslLib:obj_dat.obj
 0002:00008828       ??_C@_0M@ONHPBHFF@aes?9128?9cfb@ 000000000007c2e8     OpensslLib:obj_dat.obj
 0002:00008838       ??_C@_0M@LBEIGHHN@AES?9192?9ECB@ 000000000007c2f8     OpensslLib:obj_dat.obj
 0002:00008848       ??_C@_0M@GNEDPNPO@aes?9192?9ecb@ 000000000007c308     OpensslLib:obj_dat.obj
 0002:00008858       ??_C@_0M@IMPKGDNH@AES?9192?9CBC@ 000000000007c318     OpensslLib:obj_dat.obj
 0002:00008868       ??_C@_0M@FAPBPJFE@aes?9192?9cbc@ 000000000007c328     OpensslLib:obj_dat.obj
 0002:00008878       ??_C@_0M@NIDOEFPC@AES?9192?9OFB@ 000000000007c338     OpensslLib:obj_dat.obj
 0002:00008888       ??_C@_0M@EDFNPHB@aes?9192?9ofb@ 000000000007c348     OpensslLib:obj_dat.obj
 0002:00008898       ??_C@_0M@JCOIPKEK@AES?9192?9CFB@ 000000000007c358     OpensslLib:obj_dat.obj
 0002:000088a8       ??_C@_0M@EOODGAMJ@aes?9192?9cfb@ 000000000007c368     OpensslLib:obj_dat.obj
 0002:000088b8       ??_C@_0M@GDPGEIPM@AES?9256?9ECB@ 000000000007c378     OpensslLib:obj_dat.obj
 0002:000088c8       ??_C@_0M@LPPNNCHP@aes?9256?9ecb@ 000000000007c388     OpensslLib:obj_dat.obj
 0002:000088d8       ??_C@_0M@FOEEEMFG@AES?9256?9CBC@ 000000000007c398     OpensslLib:obj_dat.obj
 0002:000088e8       ??_C@_0M@ICEPNGNF@aes?9256?9cbc@ 000000000007c3a8     OpensslLib:obj_dat.obj
 0002:000088f8       ??_C@_0M@KIAGKHD@AES?9256?9OFB@ 000000000007c3b8     OpensslLib:obj_dat.obj
 0002:00008908       ??_C@_0M@NGILPAPA@aes?9256?9ofb@ 000000000007c3c8     OpensslLib:obj_dat.obj
 0002:00008918       ??_C@_0M@EAFGNFML@AES?9256?9CFB@ 000000000007c3d8     OpensslLib:obj_dat.obj
 0002:00008928       ??_C@_0M@JMFNEPEI@aes?9256?9cfb@ 000000000007c3e8     OpensslLib:obj_dat.obj
 0002:00008938       ??_C@_0BE@FKEPLGJO@holdInstructionCode@ 000000000007c3f8     OpensslLib:obj_dat.obj
 0002:00008950       ??_C@_0BG@LHBPDMAN@Hold?5Instruction?5Code@ 000000000007c410     OpensslLib:obj_dat.obj
 0002:00008968       ??_C@_0BE@KPEIPHPJ@holdInstructionNone@ 000000000007c428     OpensslLib:obj_dat.obj
 0002:00008980       ??_C@_0BG@ECBIHNGK@Hold?5Instruction?5None@ 000000000007c440     OpensslLib:obj_dat.obj
 0002:00008998       ??_C@_0BK@ENEKHHMB@holdInstructionCallIssuer@ 000000000007c458     OpensslLib:obj_dat.obj
 0002:000089b8       ??_C@_0BN@IJKNPIFC@Hold?5Instruction?5Call?5Issuer@ 000000000007c478     OpensslLib:obj_dat.obj
 0002:000089d8       ??_C@_0BG@BDAACIJE@holdInstructionReject@ 000000000007c498     OpensslLib:obj_dat.obj
 0002:000089f0       ??_C@_0BI@EEABHGCD@Hold?5Instruction?5Reject@ 000000000007c4b0     OpensslLib:obj_dat.obj
 0002:00008a08       ??_C@_04PJOLNDGD@data@     000000000007c4c8     OpensslLib:obj_dat.obj
 0002:00008a10       ??_C@_03OHCBHMED@pss@      000000000007c4d0     OpensslLib:obj_dat.obj
 0002:00008a14       ??_C@_03BIDCBJP@ucl@       000000000007c4d4     OpensslLib:obj_dat.obj
 0002:00008a18       ??_C@_05KIBFDOPF@pilot@    000000000007c4d8     OpensslLib:obj_dat.obj
 0002:00008a20       ??_C@_0BD@NEGIHOAI@pilotAttributeType@ 000000000007c4e0     OpensslLib:obj_dat.obj
 0002:00008a38       ??_C@_0BF@CDEFHHCF@pilotAttributeSyntax@ 000000000007c4f8     OpensslLib:obj_dat.obj
 0002:00008a50       ??_C@_0BB@MJFNAIDM@pilotObjectClass@ 000000000007c510     OpensslLib:obj_dat.obj
 0002:00008a68       ??_C@_0M@DLMEDAFC@pilotGroups@ 000000000007c528     OpensslLib:obj_dat.obj
 0002:00008a78       ??_C@_0BA@KPIIGILK@iA5StringSyntax@ 000000000007c538     OpensslLib:obj_dat.obj
 0002:00008a88       ??_C@_0BK@LELMGJGD@caseIgnoreIA5StringSyntax@ 000000000007c548     OpensslLib:obj_dat.obj
 0002:00008aa8       ??_C@_0M@MCCFCPKP@pilotObject@ 000000000007c568     OpensslLib:obj_dat.obj
 0002:00008ab8       ??_C@_0M@NCGDCEIP@pilotPerson@ 000000000007c578     OpensslLib:obj_dat.obj
 0002:00008ac8       ??_C@_07PMDLEBNF@account@  000000000007c588     OpensslLib:obj_dat.obj
 0002:00008ad0       ??_C@_08JEEDKNPB@document@ 000000000007c590     OpensslLib:obj_dat.obj
 0002:00008adc       ??_C@_04EKFCMFOP@room@     000000000007c59c     OpensslLib:obj_dat.obj
 0002:00008ae8       ??_C@_0P@OAPEDDHP@documentSeries@ 000000000007c5a8     OpensslLib:obj_dat.obj
 0002:00008af8       ??_C@_0BA@KIAIOBLD@rFC822localPart@ 000000000007c5b8     OpensslLib:obj_dat.obj
 0002:00008b08       ??_C@_09BOCGGGMK@dNSDomain@ 000000000007c5c8     OpensslLib:obj_dat.obj
 0002:00008b18       ??_C@_0BE@OPAPHNCO@domainRelatedObject@ 000000000007c5d8     OpensslLib:obj_dat.obj
 0002:00008b30       ??_C@_0BA@LKHIAMBK@friendlyCountry@ 000000000007c5f0     OpensslLib:obj_dat.obj
 0002:00008b40       ??_C@_0BF@CONLNHDI@simpleSecurityObject@ 000000000007c600     OpensslLib:obj_dat.obj
 0002:00008b58       ??_C@_0BC@PLDKCMI@pilotOrganization@ 000000000007c618     OpensslLib:obj_dat.obj
 0002:00008b70       ??_C@_08MPJGPMC@pilotDSA@  000000000007c630     OpensslLib:obj_dat.obj
 0002:00008b80       ??_C@_0BE@DDFOMMI@qualityLabelledData@ 000000000007c640     OpensslLib:obj_dat.obj
 0002:00008b94       ??_C@_03MJDGODDN@UID@      000000000007c654     OpensslLib:obj_dat.obj
 0002:00008b98       ??_C@_06LPELCIKE@userId@   000000000007c658     OpensslLib:obj_dat.obj
 0002:00008ba0       ??_C@_0BF@HDIIKJDI@textEncodedORAddress@ 000000000007c660     OpensslLib:obj_dat.obj
 0002:00008bb8       ??_C@_04FFKLPPHM@mail@     000000000007c678     OpensslLib:obj_dat.obj
 0002:00008bc0       ??_C@_0O@PDNFEOHL@rfc822Mailbox@ 000000000007c680     OpensslLib:obj_dat.obj
 0002:00008bd0       ??_C@_04NIDJFNBE@info@     000000000007c690     OpensslLib:obj_dat.obj
 0002:00008bd8       ??_C@_0P@PAMFCEKP@favouriteDrink@ 000000000007c698     OpensslLib:obj_dat.obj
 0002:00008be8       ??_C@_0L@DGKNANFO@roomNumber@ 000000000007c6a8     OpensslLib:obj_dat.obj
 0002:00008bf4       ??_C@_05DOIFDPKA@photo@    000000000007c6b4     OpensslLib:obj_dat.obj
 0002:00008c00       ??_C@_09CCPGMHEM@userClass@ 000000000007c6c0     OpensslLib:obj_dat.obj
 0002:00008c0c       ??_C@_04OODOLJMA@host@     000000000007c6cc     OpensslLib:obj_dat.obj
 0002:00008c18       ??_C@_07JPLKDPHP@manager@  000000000007c6d8     OpensslLib:obj_dat.obj
 0002:00008c20       ??_C@_0BD@MEPJGCEO@documentIdentifier@ 000000000007c6e0     OpensslLib:obj_dat.obj
 0002:00008c38       ??_C@_0O@BDIDABAC@documentTitle@ 000000000007c6f8     OpensslLib:obj_dat.obj
 0002:00008c48       ??_C@_0BA@GHOLKFM@documentVersion@ 000000000007c708     OpensslLib:obj_dat.obj
 0002:00008c58       ??_C@_0P@DABDJKFB@documentAuthor@ 000000000007c718     OpensslLib:obj_dat.obj
 0002:00008c68       ??_C@_0BB@COFKDFJ@documentLocation@ 000000000007c728     OpensslLib:obj_dat.obj
 0002:00008c80       ??_C@_0BE@CPLAKLNE@homeTelephoneNumber@ 000000000007c740     OpensslLib:obj_dat.obj
 0002:00008c98       ??_C@_09EMBFDNKC@secretary@ 000000000007c758     OpensslLib:obj_dat.obj
 0002:00008ca8       ??_C@_0N@CEOKELFP@otherMailbox@ 000000000007c768     OpensslLib:obj_dat.obj
 0002:00008cb8       ??_C@_0BB@LHLABCIP@lastModifiedTime@ 000000000007c778     OpensslLib:obj_dat.obj
 0002:00008cd0       ??_C@_0P@ECLEJAJJ@lastModifiedBy@ 000000000007c790     OpensslLib:obj_dat.obj
 0002:00008ce0       ??_C@_07IBNMBOJB@aRecord@  000000000007c7a0     OpensslLib:obj_dat.obj
 0002:00008ce8       ??_C@_0BF@MIIMJDJB@pilotAttributeType27@ 000000000007c7a8     OpensslLib:obj_dat.obj
 0002:00008d00       ??_C@_08DFFJPLPD@mXRecord@ 000000000007c7c0     OpensslLib:obj_dat.obj
 0002:00008d10       ??_C@_08FBLONLGA@nSRecord@ 000000000007c7d0     OpensslLib:obj_dat.obj
 0002:00008d20       ??_C@_09OCFHDJJF@sOARecord@ 000000000007c7e0     OpensslLib:obj_dat.obj
 0002:00008d30       ??_C@_0M@GHEAGPOE@cNAMERecord@ 000000000007c7f0     OpensslLib:obj_dat.obj
 0002:00008d40       ??_C@_0BB@MEFMIBKO@associatedDomain@ 000000000007c800     OpensslLib:obj_dat.obj
 0002:00008d58       ??_C@_0P@OJOOFNGB@associatedName@ 000000000007c818     OpensslLib:obj_dat.obj
 0002:00008d68       ??_C@_0BC@NPJKACJF@homePostalAddress@ 000000000007c828     OpensslLib:obj_dat.obj
 0002:00008d80       ??_C@_0O@CCHLDBGG@personalTitle@ 000000000007c840     OpensslLib:obj_dat.obj
 0002:00008d90       ??_C@_0BG@DCPABLLG@mobileTelephoneNumber@ 000000000007c850     OpensslLib:obj_dat.obj
 0002:00008da8       ??_C@_0BF@JICDDEFM@pagerTelephoneNumber@ 000000000007c868     OpensslLib:obj_dat.obj
 0002:00008dc0       ??_C@_0BE@MGDAFGCM@friendlyCountryName@ 000000000007c880     OpensslLib:obj_dat.obj
 0002:00008dd8       ??_C@_0BF@IANLBJMF@organizationalStatus@ 000000000007c898     OpensslLib:obj_dat.obj
 0002:00008df0       ??_C@_0N@DGNBNBGJ@janetMailbox@ 000000000007c8b0     OpensslLib:obj_dat.obj
 0002:00008e00       ??_C@_0BF@OFOHKDCI@mailPreferenceOption@ 000000000007c8c0     OpensslLib:obj_dat.obj
 0002:00008e18       ??_C@_0N@POAALOHC@buildingName@ 000000000007c8d8     OpensslLib:obj_dat.obj
 0002:00008e28       ??_C@_0L@LMCCHBHL@dSAQuality@ 000000000007c8e8     OpensslLib:obj_dat.obj
 0002:00008e38       ??_C@_0BD@EHDOPADK@singleLevelQuality@ 000000000007c8f8     OpensslLib:obj_dat.obj
 0002:00008e50       ??_C@_0BG@HMOECBMF@subtreeMinimumQuality@ 000000000007c910     OpensslLib:obj_dat.obj
 0002:00008e68       ??_C@_0BG@FLFPEGPE@subtreeMaximumQuality@ 000000000007c928     OpensslLib:obj_dat.obj
 0002:00008e80       ??_C@_0BC@CBOFINFC@personalSignature@ 000000000007c940     OpensslLib:obj_dat.obj
 0002:00008e98       ??_C@_0M@KIABODOB@dITRedirect@ 000000000007c958     OpensslLib:obj_dat.obj
 0002:00008ea4       ??_C@_05KNIAAKIP@audio@    000000000007c964     OpensslLib:obj_dat.obj
 0002:00008eb0       ??_C@_0BC@KCCHJGGO@documentPublisher@ 000000000007c970     OpensslLib:obj_dat.obj
 0002:00008ec8       ??_C@_0BF@EFCCADKK@x500UniqueIdentifier@ 000000000007c988     OpensslLib:obj_dat.obj
 0002:00008ee0       ??_C@_08HLONPBDI@mime?9mhs@ 000000000007c9a0     OpensslLib:obj_dat.obj
 0002:00008ef0       ??_C@_08DNBACEKK@MIME?5MHS@ 000000000007c9b0     OpensslLib:obj_dat.obj
 0002:00008f00       ??_C@_0BC@NIFMCBEJ@mime?9mhs?9headings@ 000000000007c9c0     OpensslLib:obj_dat.obj
 0002:00008f18       ??_C@_0BA@MOFCNIEE@mime?9mhs?9bodies@ 000000000007c9d8     OpensslLib:obj_dat.obj
 0002:00008f28       ??_C@_0BH@ILCJEHBB@id?9hex?9partial?9message@ 000000000007c9e8     OpensslLib:obj_dat.obj
 0002:00008f40       ??_C@_0BJ@KCNAIDP@id?9hex?9multipart?9message@ 000000000007ca00     OpensslLib:obj_dat.obj
 0002:00008f60       ??_C@_0BE@DAEHFOO@generationQualifier@ 000000000007ca20     OpensslLib:obj_dat.obj
 0002:00008f78       ??_C@_09NNMENHIH@pseudonym@ 000000000007ca38     OpensslLib:obj_dat.obj
 0002:00008f84       ??_C@_06KKEMDFAF@id?9set@  000000000007ca44     OpensslLib:obj_dat.obj
 0002:00008f90       ??_C@_0BP@KEIHJPNF@Secure?5Electronic?5Transactions@ 000000000007ca50     OpensslLib:obj_dat.obj
 0002:00008fb0       ??_C@_09EJPBIJJA@set?9ctype@ 000000000007ca70     OpensslLib:obj_dat.obj
 0002:00008fc0       ??_C@_0O@HJGLMADJ@content?5types@ 000000000007ca80     OpensslLib:obj_dat.obj
 0002:00008fd0       ??_C@_0L@PKPEIEIJ@set?9msgExt@ 000000000007ca90     OpensslLib:obj_dat.obj
 0002:00008fe0       ??_C@_0BD@LEIDLLNO@message?5extensions@ 000000000007caa0     OpensslLib:obj_dat.obj
 0002:00008ff8       ??_C@_08OFDIOKIA@set?9attr@ 000000000007cab8     OpensslLib:obj_dat.obj
 0002:00009008       ??_C@_0L@LAAAKICM@set?9policy@ 000000000007cac8     OpensslLib:obj_dat.obj
 0002:00009018       ??_C@_0M@KEIBDDC@set?9certExt@ 000000000007cad8     OpensslLib:obj_dat.obj
 0002:00009028       ??_C@_0BH@PDPIEGPA@certificate?5extensions@ 000000000007cae8     OpensslLib:obj_dat.obj
 0002:00009040       ??_C@_09JHODGPNO@set?9brand@ 000000000007cb00     OpensslLib:obj_dat.obj
 0002:00009050       ??_C@_0O@EKAPGBNN@setct?9PANData@ 000000000007cb10     OpensslLib:obj_dat.obj
 0002:00009060       ??_C@_0P@LAMDLEMO@setct?9PANToken@ 000000000007cb20     OpensslLib:obj_dat.obj
 0002:00009070       ??_C@_0O@PFJCCKAL@setct?9PANOnly@ 000000000007cb30     OpensslLib:obj_dat.obj
 0002:00009080       ??_C@_0N@GHLAGDMC@setct?9OIData@ 000000000007cb40     OpensslLib:obj_dat.obj
 0002:00009090       ??_C@_08MNJJNIEC@setct?9PI@ 000000000007cb50     OpensslLib:obj_dat.obj
 0002:000090a0       ??_C@_0N@PGCGIPOF@setct?9PIData@ 000000000007cb60     OpensslLib:obj_dat.obj
 0002:000090b0       ??_C@_0BF@BDFGFMFJ@setct?9PIDataUnsigned@ 000000000007cb70     OpensslLib:obj_dat.obj
 0002:000090c8       ??_C@_0P@LPBKKIBL@setct?9HODInput@ 000000000007cb88     OpensslLib:obj_dat.obj
 0002:000090d8       ??_C@_0BF@EFHLGKOJ@setct?9AuthResBaggage@ 000000000007cb98     OpensslLib:obj_dat.obj
 0002:000090f0       ??_C@_0BI@DEMAFNK@setct?9AuthRevReqBaggage@ 000000000007cbb0     OpensslLib:obj_dat.obj
 0002:00009108       ??_C@_0BI@CNLKCNFM@setct?9AuthRevResBaggage@ 000000000007cbc8     OpensslLib:obj_dat.obj
 0002:00009120       ??_C@_0BC@DDFFKACM@setct?9CapTokenSeq@ 000000000007cbe0     OpensslLib:obj_dat.obj
 0002:00009138       ??_C@_0BD@GIEGHJGD@setct?9PInitResData@ 000000000007cbf8     OpensslLib:obj_dat.obj
 0002:00009150       ??_C@_0N@GIGHFPBJ@setct?9PI?9TBS@ 000000000007cc10     OpensslLib:obj_dat.obj
 0002:00009160       ??_C@_0P@NGDEPBBH@setct?9PResData@ 000000000007cc20     OpensslLib:obj_dat.obj
 0002:00009170       ??_C@_0BB@OFKINDPN@setct?9AuthReqTBS@ 000000000007cc30     OpensslLib:obj_dat.obj
 0002:00009188       ??_C@_0BB@JPGIIAJN@setct?9AuthResTBS@ 000000000007cc48     OpensslLib:obj_dat.obj
 0002:000091a0       ??_C@_0BC@PMEDFACF@setct?9AuthResTBSX@ 000000000007cc60     OpensslLib:obj_dat.obj
 0002:000091b8       ??_C@_0BD@CLPECGHJ@setct?9AuthTokenTBS@ 000000000007cc78     OpensslLib:obj_dat.obj
 0002:000091d0       ??_C@_0BD@BFGEHNIL@setct?9CapTokenData@ 000000000007cc90     OpensslLib:obj_dat.obj
 0002:000091e8       ??_C@_0BC@DEDCIONA@setct?9CapTokenTBS@ 000000000007cca8     OpensslLib:obj_dat.obj
 0002:00009200       ??_C@_0BF@LAOAGKEH@setct?9AcqCardCodeMsg@ 000000000007ccc0     OpensslLib:obj_dat.obj
 0002:00009218       ??_C@_0BE@KBFOOHGF@setct?9AuthRevReqTBS@ 000000000007ccd8     OpensslLib:obj_dat.obj
 0002:00009230       ??_C@_0BF@ODDCPHOK@setct?9AuthRevResData@ 000000000007ccf0     OpensslLib:obj_dat.obj
 0002:00009248       ??_C@_0BE@NLJOLEAF@setct?9AuthRevResTBS@ 000000000007cd08     OpensslLib:obj_dat.obj
 0002:00009260       ??_C@_0BA@KCAOGCKM@setct?9CapReqTBS@ 000000000007cd20     OpensslLib:obj_dat.obj
 0002:00009270       ??_C@_0BB@KNKADGPN@setct?9CapReqTBSX@ 000000000007cd30     OpensslLib:obj_dat.obj
 0002:00009288       ??_C@_0BB@BIJNNHL@setct?9CapResData@ 000000000007cd48     OpensslLib:obj_dat.obj
 0002:000092a0       ??_C@_0BD@OELDKIB@setct?9CapRevReqTBS@ 000000000007cd60     OpensslLib:obj_dat.obj
 0002:000092b8       ??_C@_0BE@OINDCPNA@setct?9CapRevReqTBSX@ 000000000007cd78     OpensslLib:obj_dat.obj
 0002:000092d0       ??_C@_0BE@EEPKMEFG@setct?9CapRevResData@ 000000000007cd90     OpensslLib:obj_dat.obj
 0002:000092e8       ??_C@_0BB@LDAMDCDI@setct?9CredReqTBS@ 000000000007cda8     OpensslLib:obj_dat.obj
 0002:00009300       ??_C@_0BC@FKNDGDPA@setct?9CredReqTBSX@ 000000000007cdc0     OpensslLib:obj_dat.obj
 0002:00009318       ??_C@_0BC@PGPKIIHG@setct?9CredResData@ 000000000007cdd8     OpensslLib:obj_dat.obj
 0002:00009330       ??_C@_0BE@KAOEBGME@setct?9CredRevReqTBS@ 000000000007cdf0     OpensslLib:obj_dat.obj
 0002:00009348       ??_C@_0BF@OOMLDFOD@setct?9CredRevReqTBSX@ 000000000007ce08     OpensslLib:obj_dat.obj
 0002:00009360       ??_C@_0BF@ECOCNOGF@setct?9CredRevResData@ 000000000007ce20     OpensslLib:obj_dat.obj
 0002:00009378       ??_C@_0BD@DDNGMNFC@setct?9PCertReqData@ 000000000007ce38     OpensslLib:obj_dat.obj
 0002:00009390       ??_C@_0BC@CFHCKIIA@setct?9PCertResTBS@ 000000000007ce50     OpensslLib:obj_dat.obj
 0002:000093a8       ??_C@_0BI@MKKDKHGI@setct?9BatchAdminReqData@ 000000000007ce68     OpensslLib:obj_dat.obj
 0002:000093c0       ??_C@_0BI@IHGLAGGD@setct?9BatchAdminResData@ 000000000007ce80     OpensslLib:obj_dat.obj
 0002:000093d8       ??_C@_0BG@OMHIHPPP@setct?9CardCInitResTBS@ 000000000007ce98     OpensslLib:obj_dat.obj
 0002:000093f0       ??_C@_0BG@DIBJJIJB@setct?9MeAqCInitResTBS@ 000000000007ceb0     OpensslLib:obj_dat.obj
 0002:00009408       ??_C@_0BE@KOFLJLPI@setct?9RegFormResTBS@ 000000000007cec8     OpensslLib:obj_dat.obj
 0002:00009420       ??_C@_0BC@FFENCANF@setct?9CertReqData@ 000000000007cee0     OpensslLib:obj_dat.obj
 0002:00009438       ??_C@_0BB@MCGELGDK@setct?9CertReqTBS@ 000000000007cef8     OpensslLib:obj_dat.obj
 0002:00009450       ??_C@_0BC@BIIFIBNO@setct?9CertResData@ 000000000007cf10     OpensslLib:obj_dat.obj
 0002:00009468       ??_C@_0BE@OIDIJLCF@setct?9CertInqReqTBS@ 000000000007cf28     OpensslLib:obj_dat.obj
 0002:00009480       ??_C@_0P@DLHKHMDJ@setct?9ErrorTBS@ 000000000007cf40     OpensslLib:obj_dat.obj
 0002:00009490       ??_C@_0BG@JDDNBPAG@setct?9PIDualSignedTBE@ 000000000007cf50     OpensslLib:obj_dat.obj
 0002:000094a8       ??_C@_0BE@IBOAPLDD@setct?9PIUnsignedTBE@ 000000000007cf68     OpensslLib:obj_dat.obj
 0002:000094c0       ??_C@_0BB@PJDAGGCK@setct?9AuthReqTBE@ 000000000007cf80     OpensslLib:obj_dat.obj
 0002:000094d8       ??_C@_0BB@IDPADFEK@setct?9AuthResTBE@ 000000000007cf98     OpensslLib:obj_dat.obj
 0002:000094f0       ??_C@_0BC@OEOIIPOH@setct?9AuthResTBEX@ 000000000007cfb0     OpensslLib:obj_dat.obj
 0002:00009508       ??_C@_0BD@DHGMJDKO@setct?9AuthTokenTBE@ 000000000007cfc8     OpensslLib:obj_dat.obj
 0002:00009520       ??_C@_0BC@CIKKDLAH@setct?9CapTokenTBE@ 000000000007cfe0     OpensslLib:obj_dat.obj
 0002:00009538       ??_C@_0BD@OMCOOIME@setct?9CapTokenTBEX@ 000000000007cff8     OpensslLib:obj_dat.obj
 0002:00009550       ??_C@_0BI@PALCIALL@setct?9AcqCardCodeMsgTBE@ 000000000007d010     OpensslLib:obj_dat.obj
 0002:00009568       ??_C@_0BE@LNMGFCLC@setct?9AuthRevReqTBE@ 000000000007d028     OpensslLib:obj_dat.obj
 0002:00009580       ??_C@_0BE@MHAGABNC@setct?9AuthRevResTBE@ 000000000007d040     OpensslLib:obj_dat.obj
 0002:00009598       ??_C@_0BF@KKFFJIHO@setct?9AuthRevResTBEB@ 000000000007d058     OpensslLib:obj_dat.obj
 0002:000095b0       ??_C@_0BA@LOJGNHHL@setct?9CapReqTBE@ 000000000007d070     OpensslLib:obj_dat.obj
 0002:000095c0       ??_C@_0BB@LFALOJDP@setct?9CapReqTBEX@ 000000000007d080     OpensslLib:obj_dat.obj
 0002:000095d8       ??_C@_0BA@MEFGIEBL@setct?9CapResTBE@ 000000000007d098     OpensslLib:obj_dat.obj
 0002:000095e8       ??_C@_0BD@BCNDIPFG@setct?9CapRevReqTBE@ 000000000007d0a8     OpensslLib:obj_dat.obj
 0002:00009600       ??_C@_0BE@PAHIPABC@setct?9CapRevReqTBEX@ 000000000007d0c0     OpensslLib:obj_dat.obj
 0002:00009618       ??_C@_0BD@GIBDNMDG@setct?9CapRevResTBE@ 000000000007d0d8     OpensslLib:obj_dat.obj
 0002:00009630       ??_C@_0BB@KPJEIHOP@setct?9CredReqTBE@ 000000000007d0f0     OpensslLib:obj_dat.obj
 0002:00009648       ??_C@_0BC@ECHILMDC@setct?9CredReqTBEX@ 000000000007d108     OpensslLib:obj_dat.obj
 0002:00009660       ??_C@_0BB@NFFENEIP@setct?9CredResTBE@ 000000000007d120     OpensslLib:obj_dat.obj
 0002:00009678       ??_C@_0BE@LMHMKDBD@setct?9CredRevReqTBE@ 000000000007d138     OpensslLib:obj_dat.obj
 0002:00009690       ??_C@_0BF@PGGAOKCB@setct?9CredRevReqTBEX@ 000000000007d150     OpensslLib:obj_dat.obj
 0002:000096a8       ??_C@_0BE@MGLMPAHD@setct?9CredRevResTBE@ 000000000007d168     OpensslLib:obj_dat.obj
 0002:000096c0       ??_C@_0BH@IPJPBLKL@setct?9BatchAdminReqTBE@ 000000000007d180     OpensslLib:obj_dat.obj
 0002:000096d8       ??_C@_0BH@PFFPEIML@setct?9BatchAdminResTBE@ 000000000007d198     OpensslLib:obj_dat.obj
 0002:000096f0       ??_C@_0BE@MIADHNEP@setct?9RegFormReqTBE@ 000000000007d1b0     OpensslLib:obj_dat.obj
 0002:00009708       ??_C@_0BB@NOPMADON@setct?9CertReqTBE@ 000000000007d1c8     OpensslLib:obj_dat.obj
 0002:00009720       ??_C@_0BC@KMAHLFJK@setct?9CertReqTBEX@ 000000000007d1e0     OpensslLib:obj_dat.obj
 0002:00009738       ??_C@_0BB@KEDMFAIN@setct?9CertResTBE@ 000000000007d1f8     OpensslLib:obj_dat.obj
 0002:00009750       ??_C@_0BJ@KMIJGANO@setct?9CRLNotificationTBS@ 000000000007d210     OpensslLib:obj_dat.obj
 0002:00009770       ??_C@_0BM@GINBKIMJ@setct?9CRLNotificationResTBS@ 000000000007d230     OpensslLib:obj_dat.obj
 0002:00009790       ??_C@_0BJ@BPGLEKIJ@setct?9BCIDistributionTBS@ 000000000007d250     OpensslLib:obj_dat.obj
 0002:000097b0       ??_C@_0BA@NKJJMGPC@setext?9genCrypt@ 000000000007d270     OpensslLib:obj_dat.obj
 0002:000097c0       ??_C@_0BD@IMJHIOH@generic?5cryptogram@ 000000000007d280     OpensslLib:obj_dat.obj
 0002:000097d8       ??_C@_0O@IFMPKKOL@setext?9miAuth@ 000000000007d298     OpensslLib:obj_dat.obj
 0002:000097e8       ??_C@_0BI@IMGNFPLI@merchant?5initiated?5auth@ 000000000007d2a8     OpensslLib:obj_dat.obj
 0002:00009800       ??_C@_0BB@IKLFBNP@setext?9pinSecure@ 000000000007d2c0     OpensslLib:obj_dat.obj
 0002:00009818       ??_C@_0O@PNHGIFHA@setext?9pinAny@ 000000000007d2d8     OpensslLib:obj_dat.obj
 0002:00009828       ??_C@_0O@PNAFPHHK@setext?9track2@ 000000000007d2e8     OpensslLib:obj_dat.obj
 0002:00009838       ??_C@_09GMOEIEJI@setext?9cv@ 000000000007d2f8     OpensslLib:obj_dat.obj
 0002:00009848       ??_C@_0BI@MFPOFNGC@additional?5verification@ 000000000007d308     OpensslLib:obj_dat.obj
 0002:00009860       ??_C@_0BA@DLJGCPKK@set?9policy?9root@ 000000000007d320     OpensslLib:obj_dat.obj
 0002:00009870       ??_C@_0BD@MELPLACB@setCext?9hashedRoot@ 000000000007d330     OpensslLib:obj_dat.obj
 0002:00009888       ??_C@_0BB@LHGCHNFD@setCext?9certType@ 000000000007d348     OpensslLib:obj_dat.obj
 0002:000098a0       ??_C@_0BC@ONMLOIHK@setCext?9merchData@ 000000000007d360     OpensslLib:obj_dat.obj
 0002:000098b8       ??_C@_0BG@CMNKGOHO@setCext?9cCertRequired@ 000000000007d378     OpensslLib:obj_dat.obj
 0002:000098d0       ??_C@_0BC@BPADJLFJ@setCext?9tunneling@ 000000000007d390     OpensslLib:obj_dat.obj
 0002:000098e8       ??_C@_0P@DFHCPLJG@setCext?9setExt@ 000000000007d3a8     OpensslLib:obj_dat.obj
 0002:000098f8       ??_C@_0BB@HIAOOOIO@setCext?9setQualf@ 000000000007d3b8     OpensslLib:obj_dat.obj
 0002:00009910       ??_C@_0BJ@CNLNHONG@setCext?9PGWYcapabilities@ 000000000007d3d0     OpensslLib:obj_dat.obj
 0002:00009930       ??_C@_0BI@FIIEHNL@setCext?9TokenIdentifier@ 000000000007d3f0     OpensslLib:obj_dat.obj
 0002:00009948       ??_C@_0BD@FHFLAKJD@setCext?9Track2Data@ 000000000007d408     OpensslLib:obj_dat.obj
 0002:00009960       ??_C@_0BC@KMFGLCBL@setCext?9TokenType@ 000000000007d420     OpensslLib:obj_dat.obj
 0002:00009978       ??_C@_0BL@OLCLGJDA@setCext?9IssuerCapabilities@ 000000000007d438     OpensslLib:obj_dat.obj
 0002:00009998       ??_C@_0N@DCNKAAPN@setAttr?9Cert@ 000000000007d458     OpensslLib:obj_dat.obj
 0002:000099a8       ??_C@_0BA@FAIFDKDK@setAttr?9PGWYcap@ 000000000007d468     OpensslLib:obj_dat.obj
 0002:000099b8       ??_C@_0BN@HEFBDPEB@payment?5gateway?5capabilities@ 000000000007d478     OpensslLib:obj_dat.obj
 0002:000099d8       ??_C@_0BC@IKOKMCIL@setAttr?9TokenType@ 000000000007d498     OpensslLib:obj_dat.obj
 0002:000099f0       ??_C@_0P@OGFLCCKL@setAttr?9IssCap@ 000000000007d4b0     OpensslLib:obj_dat.obj
 0002:00009a00       ??_C@_0BE@HBDPGKCG@issuer?5capabilities@ 000000000007d4c0     OpensslLib:obj_dat.obj
 0002:00009a18       ??_C@_0BB@MADMNAKK@set?9rootKeyThumb@ 000000000007d4d8     OpensslLib:obj_dat.obj
 0002:00009a30       ??_C@_0O@NOCONBCM@set?9addPolicy@ 000000000007d4f0     OpensslLib:obj_dat.obj
 0002:00009a40       ??_C@_0BC@BMANBENP@setAttr?9Token?9EMV@ 000000000007d500     OpensslLib:obj_dat.obj
 0002:00009a58       ??_C@_0BG@ICNBHDJ@setAttr?9Token?9B0Prime@ 000000000007d518     OpensslLib:obj_dat.obj
 0002:00009a70       ??_C@_0BD@CMJDLAHE@setAttr?9IssCap?9CVM@ 000000000007d530     OpensslLib:obj_dat.obj
 0002:00009a88       ??_C@_0BC@FKLLNJMF@setAttr?9IssCap?9T2@ 000000000007d548     OpensslLib:obj_dat.obj
 0002:00009aa0       ??_C@_0BD@DMNGIJGO@setAttr?9IssCap?9Sig@ 000000000007d560     OpensslLib:obj_dat.obj
 0002:00009ab8       ??_C@_0BE@FJCINFHM@setAttr?9GenCryptgrm@ 000000000007d578     OpensslLib:obj_dat.obj
 0002:00009ad0       ??_C@_0BE@BANBLNDJ@generate?5cryptogram@ 000000000007d590     OpensslLib:obj_dat.obj
 0002:00009ae8       ??_C@_0O@GFEDKLID@setAttr?9T2Enc@ 000000000007d5a8     OpensslLib:obj_dat.obj
 0002:00009af8       ??_C@_0BC@MCHFBPJF@encrypted?5track?52@ 000000000007d5b8     OpensslLib:obj_dat.obj
 0002:00009b10       ??_C@_0BD@GDDCOMNC@setAttr?9T2cleartxt@ 000000000007d5d0     OpensslLib:obj_dat.obj
 0002:00009b28       ??_C@_0BC@EEELFHMJ@cleartext?5track?52@ 000000000007d5e8     OpensslLib:obj_dat.obj
 0002:00009b40       ??_C@_0BC@KFHJNGAA@setAttr?9TokICCsig@ 000000000007d600     OpensslLib:obj_dat.obj
 0002:00009b58       ??_C@_0BH@FLMFBHA@ICC?5or?5token?5signature@ 000000000007d618     OpensslLib:obj_dat.obj
 0002:00009b70       ??_C@_0BC@HILPEDHB@setAttr?9SecDevSig@ 000000000007d630     OpensslLib:obj_dat.obj
 0002:00009b88       ??_C@_0BI@BMDLNIII@secure?5device?5signature@ 000000000007d648     OpensslLib:obj_dat.obj
 0002:00009ba0       ??_C@_0BD@EBDAHFCK@set?9brand?9IATA?9ATA@ 000000000007d660     OpensslLib:obj_dat.obj
 0002:00009bb8       ??_C@_0BB@MJOMIBOM@set?9brand?9Diners@ 000000000007d678     OpensslLib:obj_dat.obj
 0002:00009bd0       ??_C@_0BK@NGHCPIFJ@set?9brand?9AmericanExpress@ 000000000007d690     OpensslLib:obj_dat.obj
 0002:00009bf0       ??_C@_0O@ODFDKJIN@set?9brand?9JCB@ 000000000007d6b0     OpensslLib:obj_dat.obj
 0002:00009c00       ??_C@_0P@KADKEMKM@set?9brand?9Visa@ 000000000007d6c0     OpensslLib:obj_dat.obj
 0002:00009c10       ??_C@_0BF@EKCBHCKG@set?9brand?9MasterCard@ 000000000007d6d0     OpensslLib:obj_dat.obj
 0002:00009c28       ??_C@_0BA@JHOGHBHC@set?9brand?9Novus@ 000000000007d6e8     OpensslLib:obj_dat.obj
 0002:00009c38       ??_C@_08IHLOILPC@DES?9CDMF@ 000000000007d6f8     OpensslLib:obj_dat.obj
 0002:00009c48       ??_C@_08PPLOLAOD@des?9cdmf@ 000000000007d708     OpensslLib:obj_dat.obj
 0002:00009c58       ??_C@_0BF@EIIDBKMM@rsaOAEPEncryptionSET@ 000000000007d718     OpensslLib:obj_dat.obj
 0002:00009c70       ??_C@_05LJGINOIA@ITU?9T@   000000000007d730     OpensslLib:obj_dat.obj
 0002:00009c78       ??_C@_05EKLDHPCO@itu?9t@   000000000007d738     OpensslLib:obj_dat.obj
 0002:00009c80       ??_C@_0BA@NPJCPIN@JOINT?9ISO?9ITU?9T@ 000000000007d740     OpensslLib:obj_dat.obj
 0002:00009c90       ??_C@_0BA@DDCJMADA@joint?9iso?9itu?9t@ 000000000007d750     OpensslLib:obj_dat.obj
 0002:00009ca0       ??_C@_0BM@PBBEOBAP@international?9organizations@ 000000000007d760     OpensslLib:obj_dat.obj
 0002:00009cc0       ??_C@_0BM@PGMBEIHL@International?5Organizations@ 000000000007d780     OpensslLib:obj_dat.obj
 0002:00009ce0       ??_C@_0BB@MJPMDGHF@msSmartcardLogin@ 000000000007d7a0     OpensslLib:obj_dat.obj
 0002:00009cf8       ??_C@_0BK@BJLJNHIE@Microsoft?5Smartcard?5Login@ 000000000007d7b8     OpensslLib:obj_dat.obj
 0002:00009d14       ??_C@_05LKLAGLGM@msUPN@    000000000007d7d4     OpensslLib:obj_dat.obj
 0002:00009d20       ??_C@_0BO@NJMDLJHK@Microsoft?5User?5Principal?5Name@ 000000000007d7e0     OpensslLib:obj_dat.obj
 0002:00009d40       ??_C@_0N@KJNMAENO@AES?9128?9CFB1@ 000000000007d800     OpensslLib:obj_dat.obj
 0002:00009d50       ??_C@_0N@NNLBNNNO@aes?9128?9cfb1@ 000000000007d810     OpensslLib:obj_dat.obj
 0002:00009d60       ??_C@_0N@FAMGEHMG@AES?9192?9CFB1@ 000000000007d820     OpensslLib:obj_dat.obj
 0002:00009d70       ??_C@_0N@CEKLJOMG@aes?9192?9cfb1@ 000000000007d830     OpensslLib:obj_dat.obj
 0002:00009d80       ??_C@_0N@MKKLEKFP@AES?9256?9CFB1@ 000000000007d840     OpensslLib:obj_dat.obj
 0002:00009d90       ??_C@_0N@LOMGJDFP@aes?9256?9cfb1@ 000000000007d850     OpensslLib:obj_dat.obj
 0002:00009da0       ??_C@_0N@HIBOLPJH@AES?9128?9CFB8@ 000000000007d860     OpensslLib:obj_dat.obj
 0002:00009db0       ??_C@_0N@MHDGGJH@aes?9128?9cfb8@ 000000000007d870     OpensslLib:obj_dat.obj
 0002:00009dc0       ??_C@_0N@IBAEPMIP@AES?9192?9CFB8@ 000000000007d880     OpensslLib:obj_dat.obj
 0002:00009dd0       ??_C@_0N@PFGJCFIP@aes?9192?9cfb8@ 000000000007d890     OpensslLib:obj_dat.obj
 0002:00009de0       ??_C@_0N@BLGJPBBG@AES?9256?9CFB8@ 000000000007d8a0     OpensslLib:obj_dat.obj
 0002:00009df0       ??_C@_0N@GPAECIBG@aes?9256?9cfb8@ 000000000007d8b0     OpensslLib:obj_dat.obj
 0002:00009e00       ??_C@_08EGJFOLHF@DES?9CFB1@ 000000000007d8c0     OpensslLib:obj_dat.obj
 0002:00009e10       ??_C@_08KLBBPEMG@des?9cfb1@ 000000000007d8d0     OpensslLib:obj_dat.obj
 0002:00009e20       ??_C@_08JHFHFADM@DES?9CFB8@ 000000000007d8e0     OpensslLib:obj_dat.obj
 0002:00009e30       ??_C@_08HKNDEPIP@des?9cfb8@ 000000000007d8f0     OpensslLib:obj_dat.obj
 0002:00009e40       ??_C@_0O@HMFIBGGD@DES?9EDE3?9CFB1@ 000000000007d900     OpensslLib:obj_dat.obj
 0002:00009e50       ??_C@_0O@HHBHNLEJ@des?9ede3?9cfb1@ 000000000007d910     OpensslLib:obj_dat.obj
 0002:00009e60       ??_C@_0O@KNJKKNCK@DES?9EDE3?9CFB8@ 000000000007d920     OpensslLib:obj_dat.obj
 0002:00009e70       ??_C@_0O@KGNFGAAA@des?9ede3?9cfb8@ 000000000007d930     OpensslLib:obj_dat.obj
 0002:00009e80       ??_C@_06KFAFKEEH@street@   000000000007d940     OpensslLib:obj_dat.obj
 0002:00009e88       ??_C@_0O@GFJANBCD@streetAddress@ 000000000007d948     OpensslLib:obj_dat.obj
 0002:00009e98       ??_C@_0L@NCDHJCMF@postalCode@ 000000000007d958     OpensslLib:obj_dat.obj
 0002:00009ea4       ??_C@_06CAAPGDCJ@id?9ppl@  000000000007d964     OpensslLib:obj_dat.obj
 0002:00009eb0       ??_C@_0O@LOINHHBF@proxyCertInfo@ 000000000007d970     OpensslLib:obj_dat.obj
 0002:00009ec0       ??_C@_0BO@CCHFGBDO@Proxy?5Certificate?5Information@ 000000000007d980     OpensslLib:obj_dat.obj
 0002:00009ee0       ??_C@_0BD@HNCKDFAM@id?9ppl?9anyLanguage@ 000000000007d9a0     OpensslLib:obj_dat.obj
 0002:00009ef8       ??_C@_0N@BEBFEGLC@Any?5language@ 000000000007d9b8     OpensslLib:obj_dat.obj
 0002:00009f08       ??_C@_0BC@PCEJIIF@id?9ppl?9inheritAll@ 000000000007d9c8     OpensslLib:obj_dat.obj
 0002:00009f20       ??_C@_0M@FFLAPACB@Inherit?5all@ 000000000007d9e0     OpensslLib:obj_dat.obj
 0002:00009f30       ??_C@_0BA@NDBMPGLN@nameConstraints@ 000000000007d9f0     OpensslLib:obj_dat.obj
 0002:00009f40       ??_C@_0BI@MLJLAGL@X509v3?5Name?5Constraints@ 000000000007da00     OpensslLib:obj_dat.obj
 0002:00009f58       ??_C@_0BD@JMNHHICP@id?9ppl?9independent@ 000000000007da18     OpensslLib:obj_dat.obj
 0002:00009f70       ??_C@_0M@MLMKHJLC@Independent@ 000000000007da30     OpensslLib:obj_dat.obj
 0002:00009f80       ??_C@_0L@CICIPLII@RSA?9SHA256@ 000000000007da40     OpensslLib:obj_dat.obj
 0002:00009f90       ??_C@_0BI@OLMNBFHG@sha256WithRSAEncryption@ 000000000007da50     OpensslLib:obj_dat.obj
 0002:00009fa8       ??_C@_0L@KKHKGNDM@RSA?9SHA384@ 000000000007da68     OpensslLib:obj_dat.obj
 0002:00009fb8       ??_C@_0BI@LGPCJGLE@sha384WithRSAEncryption@ 000000000007da78     OpensslLib:obj_dat.obj
 0002:00009fd0       ??_C@_0L@NGJKKOOJ@RSA?9SHA512@ 000000000007da90     OpensslLib:obj_dat.obj
 0002:00009fe0       ??_C@_0BI@CFKPHFJF@sha512WithRSAEncryption@ 000000000007daa0     OpensslLib:obj_dat.obj
 0002:00009ff8       ??_C@_0L@BPFBIPIP@RSA?9SHA224@ 000000000007dab8     OpensslLib:obj_dat.obj
 0002:0000a008       ??_C@_0BI@HODNLFBE@sha224WithRSAEncryption@ 000000000007dac8     OpensslLib:obj_dat.obj
 0002:0000a020       ??_C@_06HKIKMHH@SHA256@    000000000007dae0     OpensslLib:obj_dat.obj
 0002:0000a028       ??_C@_06OHILPNJ@sha256@    000000000007dae8     OpensslLib:obj_dat.obj
 0002:0000a030       ??_C@_06IFPKDKMD@SHA384@   000000000007daf0     OpensslLib:obj_dat.obj
 0002:0000a038       ??_C@_06IMCKCJGN@sha384@   000000000007daf8     OpensslLib:obj_dat.obj
 0002:0000a040       ??_C@_06PJBKPJBG@SHA512@   000000000007db00     OpensslLib:obj_dat.obj
 0002:0000a048       ??_C@_06PAMKOKLI@sha512@   000000000007db08     OpensslLib:obj_dat.obj
 0002:0000a050       ??_C@_06DANBNIHA@SHA224@   000000000007db10     OpensslLib:obj_dat.obj
 0002:0000a058       ??_C@_06DJABMLNO@sha224@   000000000007db18     OpensslLib:obj_dat.obj
 0002:0000a060       ??_C@_0BI@NDBFOMIA@identified?9organization@ 000000000007db20     OpensslLib:obj_dat.obj
 0002:0000a078       ??_C@_0N@GOPBJFID@certicom?9arc@ 000000000007db38     OpensslLib:obj_dat.obj
 0002:0000a088       ??_C@_03EOHJGACH@wap@      000000000007db48     OpensslLib:obj_dat.obj
 0002:0000a090       ??_C@_07KJBJKKHG@wap?9wsg@ 000000000007db50     OpensslLib:obj_dat.obj
 0002:0000a098       ??_C@_0BM@PPOCDOAJ@id?9characteristic?9two?9basis@ 000000000007db58     OpensslLib:obj_dat.obj
 0002:0000a0b8       ??_C@_07JEMDIFEL@onBasis@  000000000007db78     OpensslLib:obj_dat.obj
 0002:0000a0c0       ??_C@_07ICPDEPKF@tpBasis@  000000000007db80     OpensslLib:obj_dat.obj
 0002:0000a0c8       ??_C@_07GLJEBFP@ppBasis@   000000000007db88     OpensslLib:obj_dat.obj
 0002:0000a0d0       ??_C@_0L@INFLBNIO@c2pnb163v1@ 000000000007db90     OpensslLib:obj_dat.obj
 0002:0000a0e0       ??_C@_0L@KGHGEOEN@c2pnb163v2@ 000000000007dba0     OpensslLib:obj_dat.obj
 0002:0000a0f0       ??_C@_0L@LPGNHPAM@c2pnb163v3@ 000000000007dbb0     OpensslLib:obj_dat.obj
 0002:0000a100       ??_C@_0L@IHOFMEAM@c2pnb176v1@ 000000000007dbc0     OpensslLib:obj_dat.obj
 0002:0000a110       ??_C@_0L@PIOOBDNI@c2tnb191v1@ 000000000007dbd0     OpensslLib:obj_dat.obj
 0002:0000a120       ??_C@_0L@NDMDEABL@c2tnb191v2@ 000000000007dbe0     OpensslLib:obj_dat.obj
 0002:0000a130       ??_C@_0L@MKNIHBFK@c2tnb191v3@ 000000000007dbf0     OpensslLib:obj_dat.obj
 0002:0000a140       ??_C@_0L@KLAMDLDB@c2onb191v4@ 000000000007dc00     OpensslLib:obj_dat.obj
 0002:0000a150       ??_C@_0L@LCBHAKHA@c2onb191v5@ 000000000007dc10     OpensslLib:obj_dat.obj
 0002:0000a160       ??_C@_0L@FCEMHHLG@c2pnb208w1@ 000000000007dc20     OpensslLib:obj_dat.obj
 0002:0000a170       ??_C@_0L@PBHOFBDI@c2tnb239v1@ 000000000007dc30     OpensslLib:obj_dat.obj
 0002:0000a180       ??_C@_0L@NKFDACPL@c2tnb239v2@ 000000000007dc40     OpensslLib:obj_dat.obj
 0002:0000a190       ??_C@_0L@MDEIDDLK@c2tnb239v3@ 000000000007dc50     OpensslLib:obj_dat.obj
 0002:0000a1a0       ??_C@_0L@KCJMHJNB@c2onb239v4@ 000000000007dc60     OpensslLib:obj_dat.obj
 0002:0000a1b0       ??_C@_0L@LLIHEIJA@c2onb239v5@ 000000000007dc70     OpensslLib:obj_dat.obj
 0002:0000a1c0       ??_C@_0L@IPNBELMC@c2pnb272w1@ 000000000007dc80     OpensslLib:obj_dat.obj
 0002:0000a1d0       ??_C@_0L@NDMGBLKL@c2pnb304w1@ 000000000007dc90     OpensslLib:obj_dat.obj
 0002:0000a1e0       ??_C@_0L@LFGCHHDN@c2tnb359v1@ 000000000007dca0     OpensslLib:obj_dat.obj
 0002:0000a1f0       ??_C@_0L@BGFAFBLD@c2pnb368w1@ 000000000007dcb0     OpensslLib:obj_dat.obj
 0002:0000a200       ??_C@_0L@OFJKDCBG@c2tnb431r1@ 000000000007dcc0     OpensslLib:obj_dat.obj
 0002:0000a210       ??_C@_09DNJONEBC@secp112r1@ 000000000007dcd0     OpensslLib:obj_dat.obj
 0002:0000a220       ??_C@_09BGLDIHNB@secp112r2@ 000000000007dce0     OpensslLib:obj_dat.obj
 0002:0000a230       ??_C@_09BFIDEOKG@secp128r1@ 000000000007dcf0     OpensslLib:obj_dat.obj
 0002:0000a240       ??_C@_09DOKOBNGF@secp128r2@ 000000000007dd00     OpensslLib:obj_dat.obj
 0002:0000a250       ??_C@_09DGEAFIHG@secp160k1@ 000000000007dd10     OpensslLib:obj_dat.obj
 0002:0000a260       ??_C@_09CFLHMAIJ@secp160r1@ 000000000007dd20     OpensslLib:obj_dat.obj
 0002:0000a270       ??_C@_09OJKJDEK@secp160r2@ 000000000007dd30     OpensslLib:obj_dat.obj
 0002:0000a280       ??_C@_09BOBJAHCM@secp192k1@ 000000000007dd40     OpensslLib:obj_dat.obj
 0002:0000a290       ??_C@_09MKDGBLEP@secp224k1@ 000000000007dd50     OpensslLib:obj_dat.obj
 0002:0000a2a0       ??_C@_09NJMBIDLA@secp224r1@ 000000000007dd60     OpensslLib:obj_dat.obj
 0002:0000a2b0       ??_C@_09NCBPAPNE@secp256k1@ 000000000007dd70     OpensslLib:obj_dat.obj
 0002:0000a2c0       ??_C@_09FICNEILE@secp384r1@ 000000000007dd80     OpensslLib:obj_dat.obj
 0002:0000a2d0       ??_C@_09PDBKEDDK@secp521r1@ 000000000007dd90     OpensslLib:obj_dat.obj
 0002:0000a2e0       ??_C@_09HBGNJHGE@sect113r1@ 000000000007dda0     OpensslLib:obj_dat.obj
 0002:0000a2f0       ??_C@_09FKEAMEKH@sect113r2@ 000000000007ddb0     OpensslLib:obj_dat.obj
 0002:0000a300       ??_C@_09KBKEAMIP@sect131r1@ 000000000007ddc0     OpensslLib:obj_dat.obj
 0002:0000a310       ??_C@_09IKIJFPEM@sect131r2@ 000000000007ddd0     OpensslLib:obj_dat.obj
 0002:0000a320       ??_C@_09NALKNDIL@sect163k1@ 000000000007dde0     OpensslLib:obj_dat.obj
 0002:0000a330       ??_C@_09MDENELHE@sect163r1@ 000000000007ddf0     OpensslLib:obj_dat.obj
 0002:0000a340       ??_C@_09OIGABILH@sect163r2@ 000000000007de00     OpensslLib:obj_dat.obj
 0002:0000a350       ??_C@_09EBBNNMKF@sect193r1@ 000000000007de10     OpensslLib:obj_dat.obj
 0002:0000a360       ??_C@_09GKDAIPGG@sect193r2@ 000000000007de20     OpensslLib:obj_dat.obj
 0002:0000a370       ??_C@_09JOMOCOFF@sect233k1@ 000000000007de30     OpensslLib:obj_dat.obj
 0002:0000a380       ??_C@_09INDJLGKK@sect233r1@ 000000000007de40     OpensslLib:obj_dat.obj
 0002:0000a390       ??_C@_09PBHDMODB@sect239k1@ 000000000007de50     OpensslLib:obj_dat.obj
 0002:0000a3a0       ??_C@_09OJBOBPEE@sect283k1@ 000000000007de60     OpensslLib:obj_dat.obj
 0002:0000a3b0       ??_C@_09PKOJIHLL@sect283r1@ 000000000007de70     OpensslLib:obj_dat.obj
 0002:0000a3c0       ??_C@_09GAIKFHPM@sect409k1@ 000000000007de80     OpensslLib:obj_dat.obj
 0002:0000a3d0       ??_C@_09HDHNMPAD@sect409r1@ 000000000007de90     OpensslLib:obj_dat.obj
 0002:0000a3e0       ??_C@_09NMECHAKG@sect571k1@ 000000000007dea0     OpensslLib:obj_dat.obj
 0002:0000a3f0       ??_C@_09MPLFOIFJ@sect571r1@ 000000000007deb0     OpensslLib:obj_dat.obj
 0002:0000a400       ??_C@_0BH@PEHFMMHF@wap?9wsg?9idm?9ecid?9wtls1@ 000000000007dec0     OpensslLib:obj_dat.obj
 0002:0000a418       ??_C@_0BH@MGEDKOPH@wap?9wsg?9idm?9ecid?9wtls3@ 000000000007ded8     OpensslLib:obj_dat.obj
 0002:0000a430       ??_C@_0BH@IJACDIDA@wap?9wsg?9idm?9ecid?9wtls4@ 000000000007def0     OpensslLib:obj_dat.obj
 0002:0000a448       ??_C@_0BH@JABJAJHB@wap?9wsg?9idm?9ecid?9wtls5@ 000000000007df08     OpensslLib:obj_dat.obj
 0002:0000a460       ??_C@_0BH@LLDEFKLC@wap?9wsg?9idm?9ecid?9wtls6@ 000000000007df20     OpensslLib:obj_dat.obj
 0002:0000a478       ??_C@_0BH@KCCPGLPD@wap?9wsg?9idm?9ecid?9wtls7@ 000000000007df38     OpensslLib:obj_dat.obj
 0002:0000a490       ??_C@_0BH@CFLHHHDM@wap?9wsg?9idm?9ecid?9wtls8@ 000000000007df50     OpensslLib:obj_dat.obj
 0002:0000a4a8       ??_C@_0BH@DMKMEGHN@wap?9wsg?9idm?9ecid?9wtls9@ 000000000007df68     OpensslLib:obj_dat.obj
 0002:0000a4c0       ??_C@_0BI@PPNNMGIM@wap?9wsg?9idm?9ecid?9wtls10@ 000000000007df80     OpensslLib:obj_dat.obj
 0002:0000a4d8       ??_C@_0BI@OGMGPHMN@wap?9wsg?9idm?9ecid?9wtls11@ 000000000007df98     OpensslLib:obj_dat.obj
 0002:0000a4f0       ??_C@_0BI@MNOLKEAO@wap?9wsg?9idm?9ecid?9wtls12@ 000000000007dfb0     OpensslLib:obj_dat.obj
 0002:0000a508       ??_C@_09HBBJOJHB@anyPolicy@ 000000000007dfc8     OpensslLib:obj_dat.obj
 0002:0000a518       ??_C@_0BC@CEEMIAHF@X509v3?5Any?5Policy@ 000000000007dfd8     OpensslLib:obj_dat.obj
 0002:0000a530       ??_C@_0P@MEGGINDP@policyMappings@ 000000000007dff0     OpensslLib:obj_dat.obj
 0002:0000a540       ??_C@_0BH@NJBPACCN@X509v3?5Policy?5Mappings@ 000000000007e000     OpensslLib:obj_dat.obj
 0002:0000a558       ??_C@_0BB@CFCCDKGF@inhibitAnyPolicy@ 000000000007e018     OpensslLib:obj_dat.obj
 0002:0000a570       ??_C@_0BK@FPAAFIAO@X509v3?5Inhibit?5Any?5Policy@ 000000000007e030     OpensslLib:obj_dat.obj
 0002:0000a590       ??_C@_0O@BLJEJBFH@Oakley?9EC2N?93@ 000000000007e050     OpensslLib:obj_dat.obj
 0002:0000a5a0       ??_C@_06HLOPKJBB@ipsec3@   000000000007e060     OpensslLib:obj_dat.obj
 0002:0000a5a8       ??_C@_0O@FENFAHJA@Oakley?9EC2N?94@ 000000000007e068     OpensslLib:obj_dat.obj
 0002:0000a5b8       ??_C@_06DEKODPNG@ipsec4@   000000000007e078     OpensslLib:obj_dat.obj
 0002:0000a5c0       ??_C@_0BB@HAKAAAMD@CAMELLIA?9128?9CBC@ 000000000007e080     OpensslLib:obj_dat.obj
 0002:0000a5d8       ??_C@_0BB@GDOINOHE@camellia?9128?9cbc@ 000000000007e098     OpensslLib:obj_dat.obj
 0002:0000a5f0       ??_C@_0BB@NDDMHHFP@CAMELLIA?9192?9CBC@ 000000000007e0b0     OpensslLib:obj_dat.obj
 0002:0000a608       ??_C@_0BB@MAHEKJOI@camellia?9192?9cbc@ 000000000007e0c8     OpensslLib:obj_dat.obj
 0002:0000a620       ??_C@_0BB@BICFINO@CAMELLIA?9256?9CBC@ 000000000007e0e0     OpensslLib:obj_dat.obj
 0002:0000a638       ??_C@_0BB@BCMKIGGJ@camellia?9256?9cbc@ 000000000007e0f8     OpensslLib:obj_dat.obj
 0002:0000a650       ??_C@_0BB@ENBCAEGJ@CAMELLIA?9128?9ECB@ 000000000007e110     OpensslLib:obj_dat.obj
 0002:0000a668       ??_C@_0BB@FOFKNKNO@camellia?9128?9ecb@ 000000000007e128     OpensslLib:obj_dat.obj
 0002:0000a680       ??_C@_0BB@OOIOHDPF@CAMELLIA?9192?9ECB@ 000000000007e140     OpensslLib:obj_dat.obj
 0002:0000a698       ??_C@_0BB@PNMGKNEC@camellia?9192?9ecb@ 000000000007e158     OpensslLib:obj_dat.obj
 0002:0000a6b0       ??_C@_0BB@DMDAFMHE@CAMELLIA?9256?9ECB@ 000000000007e170     OpensslLib:obj_dat.obj
 0002:0000a6c8       ??_C@_0BB@CPHIICMD@camellia?9256?9ecb@ 000000000007e188     OpensslLib:obj_dat.obj
 0002:0000a6e0       ??_C@_0BB@GOLCJJFO@CAMELLIA?9128?9CFB@ 000000000007e1a0     OpensslLib:obj_dat.obj
 0002:0000a6f8       ??_C@_0BB@HNPKEHOJ@camellia?9128?9cfb@ 000000000007e1b8     OpensslLib:obj_dat.obj
 0002:0000a710       ??_C@_0BB@MNCOOOMC@CAMELLIA?9192?9CFB@ 000000000007e1d0     OpensslLib:obj_dat.obj
 0002:0000a728       ??_C@_0BB@NOGGDAHF@camellia?9192?9cfb@ 000000000007e1e8     OpensslLib:obj_dat.obj
 0002:0000a740       ??_C@_0BB@BPJAMBED@CAMELLIA?9256?9CFB@ 000000000007e200     OpensslLib:obj_dat.obj
 0002:0000a758       ??_C@_0BB@MNIBPPE@camellia?9256?9cfb@ 000000000007e218     OpensslLib:obj_dat.obj
 0002:0000a770       ??_C@_0BC@EKOAMJNI@CAMELLIA?9128?9CFB1@ 000000000007e230     OpensslLib:obj_dat.obj
 0002:0000a788       ??_C@_0BC@BPPGKHCJ@camellia?9128?9cfb1@ 000000000007e248     OpensslLib:obj_dat.obj
 0002:0000a7a0       ??_C@_0BC@LDPKIKMA@CAMELLIA?9192?9CFB1@ 000000000007e260     OpensslLib:obj_dat.obj
 0002:0000a7b8       ??_C@_0BC@OGOMOEDB@camellia?9192?9cfb1@ 000000000007e278     OpensslLib:obj_dat.obj
 0002:0000a7d0       ??_C@_0BC@CJJHIHFJ@CAMELLIA?9256?9CFB1@ 000000000007e290     OpensslLib:obj_dat.obj
 0002:0000a7e8       ??_C@_0BC@HMIBOJKI@camellia?9256?9cfb1@ 000000000007e2a8     OpensslLib:obj_dat.obj
 0002:0000a800       ??_C@_0BC@JLCCHCJB@CAMELLIA?9128?9CFB8@ 000000000007e2c0     OpensslLib:obj_dat.obj
 0002:0000a818       ??_C@_0BC@MODEBMGA@camellia?9128?9cfb8@ 000000000007e2d8     OpensslLib:obj_dat.obj
 0002:0000a830       ??_C@_0BC@GCDIDBIJ@CAMELLIA?9192?9CFB8@ 000000000007e2f0     OpensslLib:obj_dat.obj
 0002:0000a848       ??_C@_0BC@DHCOFPHI@camellia?9192?9cfb8@ 000000000007e308     OpensslLib:obj_dat.obj
 0002:0000a860       ??_C@_0BC@PIFFDMBA@CAMELLIA?9256?9CFB8@ 000000000007e320     OpensslLib:obj_dat.obj
 0002:0000a878       ??_C@_0BC@KNEDFCOB@camellia?9256?9cfb8@ 000000000007e338     OpensslLib:obj_dat.obj
 0002:0000a890       ??_C@_0BB@CEGECGOG@CAMELLIA?9128?9OFB@ 000000000007e350     OpensslLib:obj_dat.obj
 0002:0000a8a8       ??_C@_0BB@DHCMPIFB@camellia?9128?9ofb@ 000000000007e368     OpensslLib:obj_dat.obj
 0002:0000a8c0       ??_C@_0BB@IHPIFBHK@CAMELLIA?9192?9OFB@ 000000000007e380     OpensslLib:obj_dat.obj
 0002:0000a8d8       ??_C@_0BB@JELAIPMN@camellia?9192?9ofb@ 000000000007e398     OpensslLib:obj_dat.obj
 0002:0000a8f0       ??_C@_0BB@FFEGHOPL@CAMELLIA?9256?9OFB@ 000000000007e3b0     OpensslLib:obj_dat.obj
 0002:0000a908       ??_C@_0BB@EGAOKAEM@camellia?9256?9ofb@ 000000000007e3c8     OpensslLib:obj_dat.obj
 0002:0000a920       ??_C@_0BL@GAJEKNCJ@subjectDirectoryAttributes@ 000000000007e3e0     OpensslLib:obj_dat.obj
 0002:0000a940       ??_C@_0CE@OGGDDHCK@X509v3?5Subject?5Directory?5Attrib@ 000000000007e400     OpensslLib:obj_dat.obj
 0002:0000a968       ??_C@_0BJ@OAOPOBMH@issuingDistributionPoint@ 000000000007e428     OpensslLib:obj_dat.obj
 0002:0000a988       ??_C@_0CC@IAMHILJN@X509v3?5Issuing?5Distribution?5Poi@ 000000000007e448     OpensslLib:obj_dat.obj
 0002:0000a9b0       ??_C@_0BC@NAJGKAHO@certificateIssuer@ 000000000007e470     OpensslLib:obj_dat.obj
 0002:0000a9c8       ??_C@_0BK@EMNEMCDI@X509v3?5Certificate?5Issuer@ 000000000007e488     OpensslLib:obj_dat.obj
 0002:0000a9e4       ??_C@_04HHHKJIKA@KISA@     000000000007e4a4     OpensslLib:obj_dat.obj
 0002:0000a9ec       ??_C@_04LLEAHKNI@kisa@     000000000007e4ac     OpensslLib:obj_dat.obj
 0002:0000a9f8       ??_C@_08JEKGBFGL@SEED?9ECB@ 000000000007e4b8     OpensslLib:obj_dat.obj
 0002:0000aa08       ??_C@_08CKMLAEEI@seed?9ecb@ 000000000007e4c8     OpensslLib:obj_dat.obj
 0002:0000aa18       ??_C@_08KJBEBBMB@SEED?9CBC@ 000000000007e4d8     OpensslLib:obj_dat.obj
 0002:0000aa28       ??_C@_08BHHJAAOC@seed?9cbc@ 000000000007e4e8     OpensslLib:obj_dat.obj
 0002:0000aa38       ??_C@_08PNNADHOE@SEED?9OFB@ 000000000007e4f8     OpensslLib:obj_dat.obj
 0002:0000aa48       ??_C@_08EDLNCGMH@seed?9ofb@ 000000000007e508     OpensslLib:obj_dat.obj
 0002:0000aa58       ??_C@_08LHAGIIFM@SEED?9CFB@ 000000000007e518     OpensslLib:obj_dat.obj
 0002:0000aa68       ??_C@_08JGLJJHP@seed?9cfb@ 000000000007e528     OpensslLib:obj_dat.obj
 0002:0000aa78       ??_C@_08CABJBHIC@HMAC?9MD5@ 000000000007e538     OpensslLib:obj_dat.obj
 0002:0000aa88       ??_C@_08LPACCAD@hmac?9md5@ 000000000007e548     OpensslLib:obj_dat.obj
 0002:0000aa98       ??_C@_09DDFKKHO@HMAC?9SHA1@ 000000000007e558     OpensslLib:obj_dat.obj
 0002:0000aaa8       ??_C@_09KBOMLGBN@hmac?9sha1@ 000000000007e568     OpensslLib:obj_dat.obj
 0002:0000aab8       ??_C@_0BE@HCNFOMHA@id?9PasswordBasedMAC@ 000000000007e578     OpensslLib:obj_dat.obj
 0002:0000aad0       ??_C@_0BD@FANJCJAP@password?5based?5MAC@ 000000000007e590     OpensslLib:obj_dat.obj
 0002:0000aae8       ??_C@_0O@MEHCKGFD@id?9DHBasedMac@ 000000000007e5a8     OpensslLib:obj_dat.obj
 0002:0000aaf8       ??_C@_0BJ@CDGIGDFG@Diffie?9Hellman?5based?5MAC@ 000000000007e5b8     OpensslLib:obj_dat.obj
 0002:0000ab18       ??_C@_0BD@MGCOMIO@id?9it?9suppLangTags@ 000000000007e5d8     OpensslLib:obj_dat.obj
 0002:0000ab30       ??_C@_0N@CKNFLOGG@caRepository@ 000000000007e5f0     OpensslLib:obj_dat.obj
 0002:0000ab40       ??_C@_0O@LBCGFGCI@CA?5Repository@ 000000000007e600     OpensslLib:obj_dat.obj
 0002:0000ab50       ??_C@_0BL@HEJKLKLL@id?9smime?9ct?9compressedData@ 000000000007e610     OpensslLib:obj_dat.obj
 0002:0000ab70       ??_C@_0BI@FNBGJEPL@id?9ct?9asciiTextWithCRLF@ 000000000007e630     OpensslLib:obj_dat.obj
 0002:0000ab88       ??_C@_0P@MALLFAMO@id?9aes128?9wrap@ 000000000007e648     OpensslLib:obj_dat.obj
 0002:0000ab98       ??_C@_0P@DJKBBDNG@id?9aes192?9wrap@ 000000000007e658     OpensslLib:obj_dat.obj
 0002:0000aba8       ??_C@_0P@KDMMBOEP@id?9aes256?9wrap@ 000000000007e668     OpensslLib:obj_dat.obj
 0002:0000abb8       ??_C@_0BH@GCJALNKM@ecdsa?9with?9Recommended@ 000000000007e678     OpensslLib:obj_dat.obj
 0002:0000abd0       ??_C@_0BF@INFCLNHO@ecdsa?9with?9Specified@ 000000000007e690     OpensslLib:obj_dat.obj
 0002:0000abe8       ??_C@_0BC@PHBIOIGA@ecdsa?9with?9SHA224@ 000000000007e6a8     OpensslLib:obj_dat.obj
 0002:0000ac00       ??_C@_0BC@MAGBJMGH@ecdsa?9with?9SHA256@ 000000000007e6c0     OpensslLib:obj_dat.obj
 0002:0000ac18       ??_C@_0BC@ECDDAKND@ecdsa?9with?9SHA384@ 000000000007e6d8     OpensslLib:obj_dat.obj
 0002:0000ac30       ??_C@_0BC@DONDMJAG@ecdsa?9with?9SHA512@ 000000000007e6f0     OpensslLib:obj_dat.obj
 0002:0000ac48       ??_C@_0M@KOBPMNIO@hmacWithMD5@ 000000000007e708     OpensslLib:obj_dat.obj
 0002:0000ac58       ??_C@_0P@JCGBABBG@hmacWithSHA224@ 000000000007e718     OpensslLib:obj_dat.obj
 0002:0000ac68       ??_C@_0P@KFBIHFBB@hmacWithSHA256@ 000000000007e728     OpensslLib:obj_dat.obj
 0002:0000ac78       ??_C@_0P@CHEKODKF@hmacWithSHA384@ 000000000007e738     OpensslLib:obj_dat.obj
 0002:0000ac88       ??_C@_0P@FLKKCAHA@hmacWithSHA512@ 000000000007e748     OpensslLib:obj_dat.obj
 0002:0000ac98       ??_C@_0BA@GLCLJGGH@dsa_with_SHA224@ 000000000007e758     OpensslLib:obj_dat.obj
 0002:0000aca8       ??_C@_0BA@FMFCOCGA@dsa_with_SHA256@ 000000000007e768     OpensslLib:obj_dat.obj
 0002:0000acb8       ??_C@_09DEGKDAEL@whirlpool@ 000000000007e778     OpensslLib:obj_dat.obj
 0002:0000acc8       ??_C@_09PCHJFNLI@cryptopro@ 000000000007e788     OpensslLib:obj_dat.obj
 0002:0000acd8       ??_C@_09JGBNPHGI@cryptocom@ 000000000007e798     OpensslLib:obj_dat.obj
 0002:0000ace8       ??_C@_0CE@FCAOBIOC@id?9GostR3411?994?9with?9GostR3410?9@ 000000000007e7a8     OpensslLib:obj_dat.obj
 0002:0000ad10       ??_C@_0CH@MPKKPBGC@GOST?5R?534?411?994?5with?5GOST?5R?534?4@ 000000000007e7d0     OpensslLib:obj_dat.obj
 0002:0000ad38       ??_C@_0CC@LCAPGDKC@id?9GostR3411?994?9with?9GostR3410?9@ 000000000007e7f8     OpensslLib:obj_dat.obj
 0002:0000ad60       ??_C@_0CF@PAGBHGOC@GOST?5R?534?411?994?5with?5GOST?5R?534?4@ 000000000007e820     OpensslLib:obj_dat.obj
 0002:0000ad88       ??_C@_09MIOJGGFD@md_gost94@ 000000000007e848     OpensslLib:obj_dat.obj
 0002:0000ad98       ??_C@_0BA@KDEBPBMN@GOST?5R?534?411?994@ 000000000007e858     OpensslLib:obj_dat.obj
 0002:0000ada8       ??_C@_0BE@EBBOKDGI@id?9HMACGostR3411?994@ 000000000007e868     OpensslLib:obj_dat.obj
 0002:0000adc0       ??_C@_0BD@BHKLGKNG@HMAC?5GOST?534?411?994@ 000000000007e880     OpensslLib:obj_dat.obj
 0002:0000add8       ??_C@_08KMPAMBCP@gost2001@ 000000000007e898     OpensslLib:obj_dat.obj
 0002:0000ade8       ??_C@_0BC@IBNIHBI@GOST?5R?534?410?92001@ 000000000007e8a8     OpensslLib:obj_dat.obj
 0002:0000adfc       ??_C@_06BPJPGPFJ@gost94@   000000000007e8bc     OpensslLib:obj_dat.obj
 0002:0000ae08       ??_C@_0BA@JOCBNIHN@GOST?5R?534?410?994@ 000000000007e8c8     OpensslLib:obj_dat.obj
 0002:0000ae18       ??_C@_06KLPDHLCD@gost89@   000000000007e8d8     OpensslLib:obj_dat.obj
 0002:0000ae20       ??_C@_0O@POKHNLDL@GOST?528147?989@ 000000000007e8e0     OpensslLib:obj_dat.obj
 0002:0000ae30       ??_C@_0L@INGOKGPP@gost89?9cnt@ 000000000007e8f0     OpensslLib:obj_dat.obj
 0002:0000ae40       ??_C@_08JCNEGNFC@gost?9mac@ 000000000007e900     OpensslLib:obj_dat.obj
 0002:0000ae50       ??_C@_0BC@BPAGAEJB@GOST?528147?989?5MAC@ 000000000007e910     OpensslLib:obj_dat.obj
 0002:0000ae68       ??_C@_0BB@LJIINAAP@prf?9gostr3411?994@ 000000000007e928     OpensslLib:obj_dat.obj
 0002:0000ae80       ??_C@_0BE@FFELJBNB@GOST?5R?534?411?994?5PRF@ 000000000007e940     OpensslLib:obj_dat.obj
 0002:0000ae98       ??_C@_0BE@OBKEJCJB@id?9GostR3410?92001DH@ 000000000007e958     OpensslLib:obj_dat.obj
 0002:0000aeb0       ??_C@_0BF@OKPANPLK@GOST?5R?534?410?92001?5DH@ 000000000007e970     OpensslLib:obj_dat.obj
 0002:0000aec8       ??_C@_0BC@CEMDDFNK@id?9GostR3410?994DH@ 000000000007e988     OpensslLib:obj_dat.obj
 0002:0000aee0       ??_C@_0BD@LGKAOLPL@GOST?5R?534?410?994?5DH@ 000000000007e9a0     OpensslLib:obj_dat.obj
 0002:0000aef8       ??_C@_0CF@MMKONEIK@id?9Gost28147?989?9CryptoPro?9KeyMe@ 000000000007e9b8     OpensslLib:obj_dat.obj
 0002:0000af20       ??_C@_0CA@BLJAEGEG@id?9Gost28147?989?9None?9KeyMeshing@ 000000000007e9e0     OpensslLib:obj_dat.obj
 0002:0000af40       ??_C@_0BN@DPLCCDOE@id?9GostR3411?994?9TestParamSet@ 000000000007ea00     OpensslLib:obj_dat.obj
 0002:0000af60       ??_C@_0CC@DOHJLMBI@id?9GostR3411?994?9CryptoProParamS@ 000000000007ea20     OpensslLib:obj_dat.obj
 0002:0000af88       ??_C@_0BN@GKJFBLMI@id?9Gost28147?989?9TestParamSet@ 000000000007ea48     OpensslLib:obj_dat.obj
 0002:0000afa8       ??_C@_0CF@PFEMLAKN@id?9Gost28147?989?9CryptoPro?9A?9Par@ 000000000007ea68     OpensslLib:obj_dat.obj
 0002:0000afd0       ??_C@_0CF@GMKONGKM@id?9Gost28147?989?9CryptoPro?9B?9Par@ 000000000007ea90     OpensslLib:obj_dat.obj
 0002:0000aff8       ??_C@_0CF@KNCAAJGM@id?9Gost28147?989?9CryptoPro?9C?9Par@ 000000000007eab8     OpensslLib:obj_dat.obj
 0002:0000b020       ??_C@_0CF@IEBLBMOP@id?9Gost28147?989?9CryptoPro?9D?9Par@ 000000000007eae0     OpensslLib:obj_dat.obj
 0002:0000b048       ??_C@_0CN@EJBNJDBM@id?9Gost28147?989?9CryptoPro?9Oscar@ 000000000007eb08     OpensslLib:obj_dat.obj
 0002:0000b078       ??_C@_0CN@IIJDEMNM@id?9Gost28147?989?9CryptoPro?9Oscar@ 000000000007eb38     OpensslLib:obj_dat.obj
 0002:0000b0a8       ??_C@_0CJ@IIADIAJH@id?9Gost28147?989?9CryptoPro?9RIC?91@ 000000000007eb68     OpensslLib:obj_dat.obj
 0002:0000b0d8       ??_C@_0BN@NAOAJFAF@id?9GostR3410?994?9TestParamSet@ 000000000007eb98     OpensslLib:obj_dat.obj
 0002:0000b0f8       ??_C@_0CF@MNFOPPCD@id?9GostR3410?994?9CryptoPro?9A?9Par@ 000000000007ebb8     OpensslLib:obj_dat.obj
 0002:0000b120       ??_C@_0CF@FELMJJCC@id?9GostR3410?994?9CryptoPro?9B?9Par@ 000000000007ebe0     OpensslLib:obj_dat.obj
 0002:0000b148       ??_C@_0CF@JFDCEGOC@id?9GostR3410?994?9CryptoPro?9C?9Par@ 000000000007ec08     OpensslLib:obj_dat.obj
 0002:0000b170       ??_C@_0CF@LMAJFDGB@id?9GostR3410?994?9CryptoPro?9D?9Par@ 000000000007ec30     OpensslLib:obj_dat.obj
 0002:0000b198       ??_C@_0CI@FLGMGEEM@id?9GostR3410?994?9CryptoPro?9XchA?9@ 000000000007ec58     OpensslLib:obj_dat.obj
 0002:0000b1c0       ??_C@_0CI@MCIOACEN@id?9GostR3410?994?9CryptoPro?9XchB?9@ 000000000007ec80     OpensslLib:obj_dat.obj
 0002:0000b1e8       ??_C@_0CI@DAANNIN@id?9GostR3410?994?9CryptoPro?9XchC?9@ 000000000007eca8     OpensslLib:obj_dat.obj
 0002:0000b210       ??_C@_0BP@GEEJLPDI@id?9GostR3410?92001?9TestParamSet@ 000000000007ecd0     OpensslLib:obj_dat.obj
 0002:0000b230       ??_C@_0CH@GDAPDBKP@id?9GostR3410?92001?9CryptoPro?9A?9P@ 000000000007ecf0     OpensslLib:obj_dat.obj
 0002:0000b258       ??_C@_0CH@PKONFHKO@id?9GostR3410?92001?9CryptoPro?9B?9P@ 000000000007ed18     OpensslLib:obj_dat.obj
 0002:0000b280       ??_C@_0CH@DLGDIIGO@id?9GostR3410?92001?9CryptoPro?9C?9P@ 000000000007ed40     OpensslLib:obj_dat.obj
 0002:0000b2a8       ??_C@_0CK@PKFGBNKE@id?9GostR3410?92001?9CryptoPro?9Xch@ 000000000007ed68     OpensslLib:obj_dat.obj
 0002:0000b2d8       ??_C@_0CK@GDLEHLKF@id?9GostR3410?92001?9CryptoPro?9Xch@ 000000000007ed98     OpensslLib:obj_dat.obj
 0002:0000b308       ??_C@_0BC@CHIDFKJO@id?9GostR3410?994?9a@ 000000000007edc8     OpensslLib:obj_dat.obj
 0002:0000b320       ??_C@_0BF@LBGBLILF@id?9GostR3410?994?9aBis@ 000000000007ede0     OpensslLib:obj_dat.obj
 0002:0000b338       ??_C@_0BC@MKOAJFN@id?9GostR3410?994?9b@ 000000000007edf8     OpensslLib:obj_dat.obj
 0002:0000b350       ??_C@_0BF@PGMBMCGF@id?9GostR3410?994?9bBis@ 000000000007ee10     OpensslLib:obj_dat.obj
 0002:0000b368       ??_C@_0BD@MEAAKKFJ@id?9Gost28147?989?9cc@ 000000000007ee28     OpensslLib:obj_dat.obj
 0002:0000b380       ??_C@_0CB@KNOPDNHN@GOST?528147?989?5Cryptocom?5ParamSe@ 000000000007ee40     OpensslLib:obj_dat.obj
 0002:0000b3a8       ??_C@_08LCDFMIFG@gost94cc@ 000000000007ee68     OpensslLib:obj_dat.obj
 0002:0000b3b8       ??_C@_0BI@GJIILMEB@GOST?534?410?994?5Cryptocom@ 000000000007ee78     OpensslLib:obj_dat.obj
 0002:0000b3d0       ??_C@_0L@PKDOCLKG@gost2001cc@ 000000000007ee90     OpensslLib:obj_dat.obj
 0002:0000b3e0       ??_C@_0BK@IGCJADLM@GOST?534?410?92001?5Cryptocom@ 000000000007eea0     OpensslLib:obj_dat.obj
 0002:0000b400       ??_C@_0CF@FCIKJGLH@id?9GostR3411?994?9with?9GostR3410?9@ 000000000007eec0     OpensslLib:obj_dat.obj
 0002:0000b428       ??_C@_0CP@ILDIBBAJ@GOST?5R?534?411?994?5with?5GOST?5R?534?4@ 000000000007eee8     OpensslLib:obj_dat.obj
 0002:0000b458       ??_C@_0CH@JJNMILDM@id?9GostR3411?994?9with?9GostR3410?9@ 000000000007ef18     OpensslLib:obj_dat.obj
 0002:0000b480       ??_C@_0DB@BGOOPLFE@GOST?5R?534?411?994?5with?5GOST?5R?534?4@ 000000000007ef40     OpensslLib:obj_dat.obj
 0002:0000b4b8       ??_C@_0BO@LBPHKLOM@id?9GostR3410?92001?9ParamSet?9cc@ 000000000007ef78     OpensslLib:obj_dat.obj
 0002:0000b4d8       ??_C@_0CJ@NCCJHEBD@GOST?5R?53410?92001?5Parameter?5Set?5@ 000000000007ef98     OpensslLib:obj_dat.obj
 0002:0000b504       ??_C@_04JCCMGALL@HMAC@     000000000007efc4     OpensslLib:obj_dat.obj
 0002:0000b50c       ??_C@_04FOBGICMD@hmac@     000000000007efcc     OpensslLib:obj_dat.obj
 0002:0000b518       ??_C@_0M@LCODBGNO@LocalKeySet@ 000000000007efd8     OpensslLib:obj_dat.obj
 0002:0000b528       ??_C@_0BI@FMFOLFMC@Microsoft?5Local?5Key?5set@ 000000000007efe8     OpensslLib:obj_dat.obj
 0002:0000b540       ??_C@_0M@PKNKMHEG@freshestCRL@ 000000000007f000     OpensslLib:obj_dat.obj
 0002:0000b550       ??_C@_0BE@KEJIKEFG@X509v3?5Freshest?5CRL@ 000000000007f010     OpensslLib:obj_dat.obj
 0002:0000b568       ??_C@_0BK@BMFCOPIC@id?9on?9permanentIdentifier@ 000000000007f028     OpensslLib:obj_dat.obj
 0002:0000b588       ??_C@_0BF@DGGAJJCO@Permanent?5Identifier@ 000000000007f048     OpensslLib:obj_dat.obj
 0002:0000b5a0       ??_C@_0M@MCCFGANF@searchGuide@ 000000000007f060     OpensslLib:obj_dat.obj
 0002:0000b5b0       ??_C@_0BB@GFJJGHBI@businessCategory@ 000000000007f070     OpensslLib:obj_dat.obj
 0002:0000b5c8       ??_C@_0O@KABBPKPG@postalAddress@ 000000000007f088     OpensslLib:obj_dat.obj
 0002:0000b5d8       ??_C@_0O@PCCHCGPG@postOfficeBox@ 000000000007f098     OpensslLib:obj_dat.obj
 0002:0000b5e8       ??_C@_0BL@DENBGONK@physicalDeliveryOfficeName@ 000000000007f0a8     OpensslLib:obj_dat.obj
 0002:0000b608       ??_C@_0BA@NCAGJGBF@telephoneNumber@ 000000000007f0c8     OpensslLib:obj_dat.obj
 0002:0000b618       ??_C@_0M@MMDMBPMM@telexNumber@ 000000000007f0d8     OpensslLib:obj_dat.obj
 0002:0000b628       ??_C@_0BK@BBNEJJDC@teletexTerminalIdentifier@ 000000000007f0e8     OpensslLib:obj_dat.obj
 0002:0000b648       ??_C@_0BJ@NDMMBDAB@facsimileTelephoneNumber@ 000000000007f108     OpensslLib:obj_dat.obj
 0002:0000b668       ??_C@_0M@MOCAHDLJ@x121Address@ 000000000007f128     OpensslLib:obj_dat.obj
 0002:0000b678       ??_C@_0BI@OAHCBLEE@internationaliSDNNumber@ 000000000007f138     OpensslLib:obj_dat.obj
 0002:0000b690       ??_C@_0BC@DLLOJDNE@registeredAddress@ 000000000007f150     OpensslLib:obj_dat.obj
 0002:0000b6a8       ??_C@_0BF@CMAFNEOO@destinationIndicator@ 000000000007f168     OpensslLib:obj_dat.obj
 0002:0000b6c0       ??_C@_0BI@MKMMOKIA@preferredDeliveryMethod@ 000000000007f180     OpensslLib:obj_dat.obj
 0002:0000b6d8       ??_C@_0BE@KHACCONJ@presentationAddress@ 000000000007f198     OpensslLib:obj_dat.obj
 0002:0000b6f0       ??_C@_0BM@NHJFOGBI@supportedApplicationContext@ 000000000007f1b0     OpensslLib:obj_dat.obj
 0002:0000b70c       ??_C@_06HDFDANIG@member@   000000000007f1cc     OpensslLib:obj_dat.obj
 0002:0000b714       ??_C@_05HEIBENID@owner@    000000000007f1d4     OpensslLib:obj_dat.obj
 0002:0000b720       ??_C@_0N@NAEJMDPF@roleOccupant@ 000000000007f1e0     OpensslLib:obj_dat.obj
 0002:0000b730       ??_C@_07JJAENDGN@seeAlso@  000000000007f1f0     OpensslLib:obj_dat.obj
 0002:0000b738       ??_C@_0N@JHMNNHKM@userPassword@ 000000000007f1f8     OpensslLib:obj_dat.obj
 0002:0000b748       ??_C@_0BA@FEECIELF@userCertificate@ 000000000007f208     OpensslLib:obj_dat.obj
 0002:0000b758       ??_C@_0O@JJCNKCKK@cACertificate@ 000000000007f218     OpensslLib:obj_dat.obj
 0002:0000b768       ??_C@_0BI@EODAEBFG@authorityRevocationList@ 000000000007f228     OpensslLib:obj_dat.obj
 0002:0000b780       ??_C@_0BK@IMFDMOND@certificateRevocationList@ 000000000007f240     OpensslLib:obj_dat.obj
 0002:0000b7a0       ??_C@_0BF@GAAPBDAE@crossCertificatePair@ 000000000007f260     OpensslLib:obj_dat.obj
 0002:0000b7b8       ??_C@_0BE@NNAGLFEM@enhancedSearchGuide@ 000000000007f278     OpensslLib:obj_dat.obj
 0002:0000b7d0       ??_C@_0BE@FKAMNJMM@protocolInformation@ 000000000007f290     OpensslLib:obj_dat.obj
 0002:0000b7e8       ??_C@_0BC@IIJOGNNH@distinguishedName@ 000000000007f2a8     OpensslLib:obj_dat.obj
 0002:0000b800       ??_C@_0N@FIGDLDDJ@uniqueMember@ 000000000007f2c0     OpensslLib:obj_dat.obj
 0002:0000b810       ??_C@_0BA@EKKIBBF@houseIdentifier@ 000000000007f2d0     OpensslLib:obj_dat.obj
 0002:0000b820       ??_C@_0BE@KGOGIPEN@supportedAlgorithms@ 000000000007f2e0     OpensslLib:obj_dat.obj
 0002:0000b838       ??_C@_0BE@MNOFELKF@deltaRevocationList@ 000000000007f2f8     OpensslLib:obj_dat.obj
 0002:0000b850       ??_C@_07ILKEFPGB@dmdName@  000000000007f310     OpensslLib:obj_dat.obj
 0002:0000b858       ??_C@_0BA@NJOHMDIG@id?9alg?9PWRI?9KEK@ 000000000007f318     OpensslLib:obj_dat.obj
 0002:0000b868       ??_C@_04OFPMFBKK@CMAC@     000000000007f328     OpensslLib:obj_dat.obj
 0002:0000b870       ??_C@_04CJMGLDNC@cmac@     000000000007f330     OpensslLib:obj_dat.obj
 0002:0000b878       ??_C@_0O@LNIKAOOL@id?9aes128?9GCM@ 000000000007f338     OpensslLib:obj_dat.obj
 0002:0000b888       ??_C@_0M@ODEOFOCG@aes?9128?9gcm@ 000000000007f348     OpensslLib:obj_dat.obj
 0002:0000b898       ??_C@_0O@DCOIJJLM@id?9aes128?9CCM@ 000000000007f358     OpensslLib:obj_dat.obj
 0002:0000b8a8       ??_C@_0M@GMCMMJHB@aes?9128?9ccm@ 000000000007f368     OpensslLib:obj_dat.obj
 0002:0000b8b8       ??_C@_0BD@HMJBEGNL@id?9aes128?9wrap?9pad@ 000000000007f378     OpensslLib:obj_dat.obj
 0002:0000b8d0       ??_C@_0O@BOBGHJHH@id?9aes192?9GCM@ 000000000007f390     OpensslLib:obj_dat.obj
 0002:0000b8e0       ??_C@_0M@EANCCJLK@aes?9192?9gcm@ 000000000007f3a0     OpensslLib:obj_dat.obj
 0002:0000b8f0       ??_C@_0O@JBHEOOCA@id?9aes192?9CCM@ 000000000007f3b0     OpensslLib:obj_dat.obj
 0002:0000b900       ??_C@_0M@MPLALOON@aes?9192?9ccm@ 000000000007f3c0     OpensslLib:obj_dat.obj
 0002:0000b910       ??_C@_0BD@OPKMLKFB@id?9aes192?9wrap?9pad@ 000000000007f3d0     OpensslLib:obj_dat.obj
 0002:0000b928       ??_C@_0O@MMKIFGPG@id?9aes256?9GCM@ 000000000007f3e8     OpensslLib:obj_dat.obj
 0002:0000b938       ??_C@_0M@JCGMAGDL@aes?9256?9gcm@ 000000000007f3f8     OpensslLib:obj_dat.obj
 0002:0000b948       ??_C@_0O@EDMKMBKB@id?9aes256?9CCM@ 000000000007f408     OpensslLib:obj_dat.obj
 0002:0000b958       ??_C@_0M@BNAOJBGM@aes?9256?9ccm@ 000000000007f418     OpensslLib:obj_dat.obj
 0002:0000b968       ??_C@_0BD@OHLFOIJM@id?9aes256?9wrap?9pad@ 000000000007f428     OpensslLib:obj_dat.obj
 0002:0000b980       ??_C@_0M@GEBEOIJJ@AES?9128?9CTR@ 000000000007f440     OpensslLib:obj_dat.obj
 0002:0000b990       ??_C@_0M@LIBPHCBK@aes?9128?9ctr@ 000000000007f450     OpensslLib:obj_dat.obj
 0002:0000b9a0       ??_C@_0M@MHIIJPAF@AES?9192?9CTR@ 000000000007f460     OpensslLib:obj_dat.obj
 0002:0000b9b0       ??_C@_0M@BLIDAFIG@aes?9192?9ctr@ 000000000007f470     OpensslLib:obj_dat.obj
 0002:0000b9c0       ??_C@_0M@BFDGLAIE@AES?9256?9CTR@ 000000000007f480     OpensslLib:obj_dat.obj
 0002:0000b9d0       ??_C@_0M@MJDNCKAH@aes?9256?9ctr@ 000000000007f490     OpensslLib:obj_dat.obj
 0002:0000b9e0       ??_C@_0BE@JENMCLBD@id?9camellia128?9wrap@ 000000000007f4a0     OpensslLib:obj_dat.obj
 0002:0000b9f8       ??_C@_0BE@GNMGGIAL@id?9camellia192?9wrap@ 000000000007f4b8     OpensslLib:obj_dat.obj
 0002:0000ba10       ??_C@_0BE@PHKLGFJC@id?9camellia256?9wrap@ 000000000007f4d0     OpensslLib:obj_dat.obj
 0002:0000ba28       ??_C@_0BE@FKFLDMON@anyExtendedKeyUsage@ 000000000007f4e8     OpensslLib:obj_dat.obj
 0002:0000ba40       ??_C@_0BH@FHBOBBKO@Any?5Extended?5Key?5Usage@ 000000000007f500     OpensslLib:obj_dat.obj
 0002:0000ba58       ??_C@_04CNDHACFO@MGF1@     000000000007f518     OpensslLib:obj_dat.obj
 0002:0000ba60       ??_C@_04HEIJMEIE@mgf1@     000000000007f520     OpensslLib:obj_dat.obj
 0002:0000ba68       ??_C@_0L@CPMAKEFG@RSASSA?9PSS@ 000000000007f528     OpensslLib:obj_dat.obj
 0002:0000ba78       ??_C@_09FGGKIFKD@rsassaPss@ 000000000007f538     OpensslLib:obj_dat.obj
 0002:0000ba88       ??_C@_0M@PKBHAJEG@AES?9128?9XTS@ 000000000007f548     OpensslLib:obj_dat.obj
 0002:0000ba98       ??_C@_0M@CGBMJDMF@aes?9128?9xts@ 000000000007f558     OpensslLib:obj_dat.obj
 0002:0000baa8       ??_C@_0M@ILDFFBFL@AES?9256?9XTS@ 000000000007f568     OpensslLib:obj_dat.obj
 0002:0000bab8       ??_C@_0M@FHDOMLNI@aes?9256?9xts@ 000000000007f578     OpensslLib:obj_dat.obj
 0002:0000bac8       ??_C@_0N@MFFPBCGK@RC4?9HMAC?9MD5@ 000000000007f588     OpensslLib:obj_dat.obj
 0002:0000bad8       ??_C@_0N@EFPJLHOG@rc4?9hmac?9md5@ 000000000007f598     OpensslLib:obj_dat.obj
 0002:0000bae8       ??_C@_0BG@OKEPPAEE@AES?9128?9CBC?9HMAC?9SHA1@ 000000000007f5a8     OpensslLib:obj_dat.obj
 0002:0000bb00       ??_C@_0BG@CLBGODOC@aes?9128?9cbc?9hmac?9sha1@ 000000000007f5c0     OpensslLib:obj_dat.obj
 0002:0000bb18       ??_C@_0BG@KLHGFOHC@AES?9192?9CBC?9HMAC?9SHA1@ 000000000007f5d8     OpensslLib:obj_dat.obj
 0002:0000bb30       ??_C@_0BG@GKCPENNE@aes?9192?9cbc?9hmac?9sha1@ 000000000007f5f0     OpensslLib:obj_dat.obj
 0002:0000bb48       ??_C@_0BG@NJKHMG@AES?9256?9CBC?9HMAC?9SHA1@ 000000000007f608     OpensslLib:obj_dat.obj
 0002:0000bb60       ??_C@_0BG@MBIALEGA@aes?9256?9cbc?9hmac?9sha1@ 000000000007f620     OpensslLib:obj_dat.obj
 0002:0000bb78       ??_C@_0L@NCPDMLAN@RSAES?9OAEP@ 000000000007f638     OpensslLib:obj_dat.obj
 0002:0000bb88       ??_C@_09FHIEKOPH@rsaesOaep@ 000000000007f648     OpensslLib:obj_dat.obj
 0002:0000bb98       ??_C@_0P@BHMOKJEG@dhpublicnumber@ 000000000007f658     OpensslLib:obj_dat.obj
 0002:0000bba8       ??_C@_08HOHHODNK@X9?442?5DH@ 000000000007f668     OpensslLib:obj_dat.obj
 0002:0000bbb8       ??_C@_0BA@CDGJLDLH@brainpoolP160r1@ 000000000007f678     OpensslLib:obj_dat.obj
 0002:0000bbc8       ??_C@_0BA@CHOEMPAF@brainpoolP160t1@ 000000000007f688     OpensslLib:obj_dat.obj
 0002:0000bbd8       ??_C@_0BA@LDAOMON@brainpoolP192r1@ 000000000007f698     OpensslLib:obj_dat.obj
 0002:0000bbe8       ??_C@_0BA@PLNJAFP@brainpoolP192t1@ 000000000007f6a8     OpensslLib:obj_dat.obj
 0002:0000bbf8       ??_C@_0BA@NPBPPAIO@brainpoolP224r1@ 000000000007f6b8     OpensslLib:obj_dat.obj
 0002:0000bc08       ??_C@_0BA@NLJCIMDM@brainpoolP224t1@ 000000000007f6c8     OpensslLib:obj_dat.obj
 0002:0000bc18       ??_C@_0BA@MHDGOEBF@brainpoolP256r1@ 000000000007f6d8     OpensslLib:obj_dat.obj
 0002:0000bc28       ??_C@_0BA@MDLLJIKH@brainpoolP256t1@ 000000000007f6e8     OpensslLib:obj_dat.obj
 0002:0000bc38       ??_C@_0BA@JLCBLEHM@brainpoolP320r1@ 000000000007f6f8     OpensslLib:obj_dat.obj
 0002:0000bc48       ??_C@_0BA@JPKMMIMO@brainpoolP320t1@ 000000000007f708     OpensslLib:obj_dat.obj
 0002:0000bc58       ??_C@_0BA@FOPDDLIK@brainpoolP384r1@ 000000000007f718     OpensslLib:obj_dat.obj
 0002:0000bc68       ??_C@_0BA@FKHOEHDI@brainpoolP384t1@ 000000000007f728     OpensslLib:obj_dat.obj
 0002:0000bc78       ??_C@_0BA@KANBOFDK@brainpoolP512r1@ 000000000007f738     OpensslLib:obj_dat.obj
 0002:0000bc88       ??_C@_0BA@KEFMJJII@brainpoolP512t1@ 000000000007f748     OpensslLib:obj_dat.obj
 0002:0000bc98       ??_C@_0L@CDJFGILH@PSPECIFIED@ 000000000007f758     OpensslLib:obj_dat.obj
 0002:0000bca8       ??_C@_0L@NKKFNJEH@pSpecified@ 000000000007f768     OpensslLib:obj_dat.obj
 0002:0000bcb8       ??_C@_0CC@GCFJNDOJ@dhSinglePass?9stdDH?9sha1kdf?9sche@ 000000000007f778     OpensslLib:obj_dat.obj
 0002:0000bce0       ??_C@_0CE@OPNDOJI@dhSinglePass?9stdDH?9sha224kdf?9sc@ 000000000007f7a0     OpensslLib:obj_dat.obj
 0002:0000bd08       ??_C@_0CE@JPLFKGFP@dhSinglePass?9stdDH?9sha256kdf?9sc@ 000000000007f7c8     OpensslLib:obj_dat.obj
 0002:0000bd30       ??_C@_0CE@KJKNLJMI@dhSinglePass?9stdDH?9sha384kdf?9sc@ 000000000007f7f0     OpensslLib:obj_dat.obj
 0002:0000bd58       ??_C@_0CE@DJMHFNHG@dhSinglePass?9stdDH?9sha512kdf?9sc@ 000000000007f818     OpensslLib:obj_dat.obj
 0002:0000bd80       ??_C@_0CH@DHIHBIGF@dhSinglePass?9cofactorDH?9sha1kdf@ 000000000007f840     OpensslLib:obj_dat.obj
 0002:0000bda8       ??_C@_0CJ@JFHNKHDJ@dhSinglePass?9cofactorDH?9sha224k@ 000000000007f868     OpensslLib:obj_dat.obj
 0002:0000bdd8       ??_C@_0CJ@EDFDPPO@dhSinglePass?9cofactorDH?9sha256k@ 000000000007f898     OpensslLib:obj_dat.obj
 0002:0000be08       ??_C@_0CJ@DCCNCAGJ@dhSinglePass?9cofactorDH?9sha384k@ 000000000007f8c8     OpensslLib:obj_dat.obj
 0002:0000be38       ??_C@_0CJ@KCEHMENH@dhSinglePass?9cofactorDH?9sha512k@ 000000000007f8f8     OpensslLib:obj_dat.obj
 0002:0000be68       ??_C@_0L@MFGJJBLE@dh?9std?9kdf@ 000000000007f928     OpensslLib:obj_dat.obj
 0002:0000be78       ??_C@_0BA@LJEJAEDG@dh?9cofactor?9kdf@ 000000000007f938     OpensslLib:obj_dat.obj
 0002:0000be88       ??_C@_0BI@JAKBILLC@AES?9128?9CBC?9HMAC?9SHA256@ 000000000007f948     OpensslLib:obj_dat.obj
 0002:0000bea0       ??_C@_0BI@OMECBAFK@aes?9128?9cbc?9hmac?9sha256@ 000000000007f960     OpensslLib:obj_dat.obj
 0002:0000beb8       ??_C@_0BI@CINDNFBB@AES?9192?9CBC?9HMAC?9SHA256@ 000000000007f978     OpensslLib:obj_dat.obj
 0002:0000bed0       ??_C@_0BI@FEDAEOPJ@aes?9192?9cbc?9hmac?9sha256@ 000000000007f990     OpensslLib:obj_dat.obj
 0002:0000bee8       ??_C@_0BI@GMBLFPLK@AES?9256?9CBC?9HMAC?9SHA256@ 000000000007f9a8     OpensslLib:obj_dat.obj
 0002:0000bf00       ??_C@_0BI@BAPIMEFC@aes?9256?9cbc?9hmac?9sha256@ 000000000007f9c0     OpensslLib:obj_dat.obj
 0002:0000bf18       ??_C@_0BA@EKNBJPMK@ct_precert_scts@ 000000000007f9d8     OpensslLib:obj_dat.obj
 0002:0000bf28       ??_C@_0BH@MJHOKGCL@CT?5Precertificate?5SCTs@ 000000000007f9e8     OpensslLib:obj_dat.obj
 0002:0000bf40       ??_C@_0BC@DHAKLICB@ct_precert_poison@ 000000000007fa00     OpensslLib:obj_dat.obj
 0002:0000bf58       ??_C@_0BJ@OJAHFLBJ@CT?5Precertificate?5Poison@ 000000000007fa18     OpensslLib:obj_dat.obj
 0002:0000bf78       ??_C@_0BC@CGBIKIAJ@ct_precert_signer@ 000000000007fa38     OpensslLib:obj_dat.obj
 0002:0000bf90       ??_C@_0BJ@PIBFELDB@CT?5Precertificate?5Signer@ 000000000007fa50     OpensslLib:obj_dat.obj
 0002:0000bfb0       ??_C@_0N@GIBNBHKA@ct_cert_scts@ 000000000007fa70     OpensslLib:obj_dat.obj
 0002:0000bfc0       ??_C@_0BE@OLBHFOCE@CT?5Certificate?5SCTs@ 000000000007fa80     OpensslLib:obj_dat.obj
 0002:0000bfd8       ??_C@_0O@CEMHPDIN@jurisdictionL@ 000000000007fa98     OpensslLib:obj_dat.obj
 0002:0000bfe8       ??_C@_0BJ@DGGEPBOP@jurisdictionLocalityName@ 000000000007faa8     OpensslLib:obj_dat.obj
 0002:0000c008       ??_C@_0P@FKIAEEHD@jurisdictionST@ 000000000007fac8     OpensslLib:obj_dat.obj
 0002:0000c018       ??_C@_0CA@ILILPDLE@jurisdictionStateOrProvinceName@ 000000000007fad8     OpensslLib:obj_dat.obj
 0002:0000c038       ??_C@_0O@KDFPOPEC@jurisdictionC@ 000000000007faf8     OpensslLib:obj_dat.obj
 0002:0000c048       ??_C@_0BI@IBHEHEJE@jurisdictionCountryName@ 000000000007fb08     OpensslLib:obj_dat.obj
 0002:0000c060       ??_C@_0M@HNGJPAIF@AES?9128?9OCB@ 000000000007fb20     OpensslLib:obj_dat.obj
 0002:0000c070       ??_C@_0M@KBGCGKAG@aes?9128?9ocb@ 000000000007fb30     OpensslLib:obj_dat.obj
 0002:0000c080       ??_C@_0M@NOPFIHBJ@AES?9192?9OCB@ 000000000007fb40     OpensslLib:obj_dat.obj
 0002:0000c090       ??_C@_0M@CPOBNJK@aes?9192?9ocb@ 000000000007fb50     OpensslLib:obj_dat.obj
 0002:0000c0a0       ??_C@_0M@MELKIJI@AES?9256?9OCB@ 000000000007fb60     OpensslLib:obj_dat.obj
 0002:0000c0b0       ??_C@_0M@NAEADCBL@aes?9256?9ocb@ 000000000007fb70     OpensslLib:obj_dat.obj
 0002:0000c0c0       ??_C@_0BB@GAIDNACN@CAMELLIA?9128?9GCM@ 000000000007fb80     OpensslLib:obj_dat.obj
 0002:0000c0d8       ??_C@_0BB@HDMLAOJK@camellia?9128?9gcm@ 000000000007fb98     OpensslLib:obj_dat.obj
 0002:0000c0f0       ??_C@_0BB@OPOBEHHK@CAMELLIA?9128?9CCM@ 000000000007fbb0     OpensslLib:obj_dat.obj
 0002:0000c108       ??_C@_0BB@PMKJJJMN@camellia?9128?9ccm@ 000000000007fbc8     OpensslLib:obj_dat.obj
 0002:0000c120       ??_C@_0BB@DLNCPMBB@CAMELLIA?9128?9CTR@ 000000000007fbe0     OpensslLib:obj_dat.obj
 0002:0000c138       ??_C@_0BB@CIJKCCKG@camellia?9128?9ctr@ 000000000007fbf8     OpensslLib:obj_dat.obj
 0002:0000c150       ??_C@_0BC@ICKOOLPE@CAMELLIA?9128?9CMAC@ 000000000007fc10     OpensslLib:obj_dat.obj
 0002:0000c168       ??_C@_0BC@ECDMKBKH@camellia?9128?9cmac@ 000000000007fc28     OpensslLib:obj_dat.obj
 0002:0000c180       ??_C@_0BB@MDBPKHLB@CAMELLIA?9192?9GCM@ 000000000007fc40     OpensslLib:obj_dat.obj
 0002:0000c198       ??_C@_0BB@NAFHHJAG@camellia?9192?9gcm@ 000000000007fc58     OpensslLib:obj_dat.obj
 0002:0000c1b0       ??_C@_0BB@EMHNDAOG@CAMELLIA?9192?9CCM@ 000000000007fc70     OpensslLib:obj_dat.obj
 0002:0000c1c8       ??_C@_0BB@FPDFOOFB@camellia?9192?9ccm@ 000000000007fc88     OpensslLib:obj_dat.obj
 0002:0000c1e0       ??_C@_0BB@JIEOILIN@CAMELLIA?9192?9CTR@ 000000000007fca0     OpensslLib:obj_dat.obj
 0002:0000c1f8       ??_C@_0BB@ILAGFFDK@camellia?9192?9ctr@ 000000000007fcb8     OpensslLib:obj_dat.obj
 0002:0000c210       ??_C@_0BC@HLLEKIOM@CAMELLIA?9192?9CMAC@ 000000000007fcd0     OpensslLib:obj_dat.obj
 0002:0000c228       ??_C@_0BC@LLCGOCLP@camellia?9192?9cmac@ 000000000007fce8     OpensslLib:obj_dat.obj
 0002:0000c240       ??_C@_0BB@BBKBIIDA@CAMELLIA?9256?9GCM@ 000000000007fd00     OpensslLib:obj_dat.obj
 0002:0000c258       ??_C@_0BB@COJFGIH@camellia?9256?9gcm@ 000000000007fd18     OpensslLib:obj_dat.obj
 0002:0000c270       ??_C@_0BB@JOMDBPGH@CAMELLIA?9256?9CCM@ 000000000007fd30     OpensslLib:obj_dat.obj
 0002:0000c288       ??_C@_0BB@INILMBNA@camellia?9256?9ccm@ 000000000007fd48     OpensslLib:obj_dat.obj
 0002:0000c2a0       ??_C@_0BB@EKPAKEAM@CAMELLIA?9256?9CTR@ 000000000007fd60     OpensslLib:obj_dat.obj
 0002:0000c2b8       ??_C@_0BB@FJLIHKLL@camellia?9256?9ctr@ 000000000007fd78     OpensslLib:obj_dat.obj
 0002:0000c2d0       ??_C@_0BC@OBNJKFHF@CAMELLIA?9256?9CMAC@ 000000000007fd90     OpensslLib:obj_dat.obj
 0002:0000c2e8       ??_C@_0BC@CBELOPCG@camellia?9256?9cmac@ 000000000007fda8     OpensslLib:obj_dat.obj
 0002:0000c300       ??_C@_09ILBMCAEF@id?9scrypt@ 000000000007fdc0     OpensslLib:obj_dat.obj
 0002:0000c30c       ??_C@_06LLPEBPNI@scrypt@   000000000007fdcc     OpensslLib:obj_dat.obj
 0002:0000c318       ??_C@_07BKIAFLHB@id?9tc26@ 000000000007fdd8     OpensslLib:obj_dat.obj
 0002:0000c320       ??_C@_0O@HGEOMPGF@gost89?9cnt?912@ 000000000007fde0     OpensslLib:obj_dat.obj
 0002:0000c330       ??_C@_0M@KEFEFFFO@gost?9mac?912@ 000000000007fdf0     OpensslLib:obj_dat.obj
 0002:0000c340       ??_C@_0BD@PKHBIAHP@id?9tc26?9algorithms@ 000000000007fe00     OpensslLib:obj_dat.obj
 0002:0000c358       ??_C@_0N@HMCOAPHF@id?9tc26?9sign@ 000000000007fe18     OpensslLib:obj_dat.obj
 0002:0000c368       ??_C@_0N@MINOOKEF@gost2012_256@ 000000000007fe28     OpensslLib:obj_dat.obj
 0002:0000c378       ??_C@_0CH@DJAHIKCF@GOST?5R?534?410?92012?5with?5256?5bit?5@ 000000000007fe38     OpensslLib:obj_dat.obj
 0002:0000c3a0       ??_C@_0N@DGGMLPCE@gost2012_512@ 000000000007fe60     OpensslLib:obj_dat.obj
 0002:0000c3b0       ??_C@_0CH@FHCOJICI@GOST?5R?534?410?92012?5with?5512?5bit?5@ 000000000007fe70     OpensslLib:obj_dat.obj
 0002:0000c3d8       ??_C@_0P@KKGLKDLG@id?9tc26?9digest@ 000000000007fe98     OpensslLib:obj_dat.obj
 0002:0000c3e8       ??_C@_0O@CBIKGGLN@md_gost12_256@ 000000000007fea8     OpensslLib:obj_dat.obj
 0002:0000c3f8       ??_C@_0CE@FGDJHNGL@GOST?5R?534?411?92012?5with?5256?5bit?5@ 000000000007feb8     OpensslLib:obj_dat.obj
 0002:0000c420       ??_C@_0O@NPDIDDNM@md_gost12_512@ 000000000007fee0     OpensslLib:obj_dat.obj
 0002:0000c430       ??_C@_0CE@JIJFDDMO@GOST?5R?534?411?92012?5with?5512?5bit?5@ 000000000007fef0     OpensslLib:obj_dat.obj
 0002:0000c458       ??_C@_0BH@DGELPKNI@id?9tc26?9signwithdigest@ 000000000007ff18     OpensslLib:obj_dat.obj
 0002:0000c470       ??_C@_0CJ@IEAKGPIK@id?9tc26?9signwithdigest?9gost3410@ 000000000007ff30     OpensslLib:obj_dat.obj
 0002:0000c4a0       ??_C@_0DD@IIJACCAI@GOST?5R?534?410?92012?5with?5GOST?5R?53@ 000000000007ff60     OpensslLib:obj_dat.obj
 0002:0000c4d8       ??_C@_0CJ@HKLIDKOL@id?9tc26?9signwithdigest?9gost3410@ 000000000007ff98     OpensslLib:obj_dat.obj
 0002:0000c508       ??_C@_0DD@JMPEGFCI@GOST?5R?534?410?92012?5with?5GOST?5R?53@ 000000000007ffc8     OpensslLib:obj_dat.obj
 0002:0000c540       ??_C@_0M@ICFDDKIB@id?9tc26?9mac@ 0000000000080000     OpensslLib:obj_dat.obj
 0002:0000c550       ??_C@_0CA@JKDKOOFJ@id?9tc26?9hmac?9gost?93411?92012?9256@ 0000000000080010     OpensslLib:obj_dat.obj
 0002:0000c570       ??_C@_0BN@JOOLALJM@HMAC?5GOST?534?411?92012?5256?5bit@ 0000000000080030     OpensslLib:obj_dat.obj
 0002:0000c590       ??_C@_0CA@GEIILLDI@id?9tc26?9hmac?9gost?93411?92012?9512@ 0000000000080050     OpensslLib:obj_dat.obj
 0002:0000c5b0       ??_C@_0BN@PLPAGEIA@HMAC?5GOST?534?411?92012?5512?5bit@ 0000000000080070     OpensslLib:obj_dat.obj
 0002:0000c5d0       ??_C@_0P@BJHHGDD@id?9tc26?9cipher@ 0000000000080090     OpensslLib:obj_dat.obj
 0002:0000c5e0       ??_C@_0BC@DJLELDPH@id?9tc26?9agreement@ 00000000000800a0     OpensslLib:obj_dat.obj
 0002:0000c5f8       ??_C@_0CF@JALEKNFA@id?9tc26?9agreement?9gost?93410?9201@ 00000000000800b8     OpensslLib:obj_dat.obj
 0002:0000c620       ??_C@_0CF@GOAGPIDB@id?9tc26?9agreement?9gost?93410?9201@ 00000000000800e0     OpensslLib:obj_dat.obj
 0002:0000c648       ??_C@_0BC@CNAIEHBN@id?9tc26?9constants@ 0000000000080108     OpensslLib:obj_dat.obj
 0002:0000c660       ??_C@_0BH@FMPMHLHM@id?9tc26?9sign?9constants@ 0000000000080120     OpensslLib:obj_dat.obj
 0002:0000c678       ??_C@_0CF@ONCEGCLN@id?9tc26?9gost?93410?92012?9512?9cons@ 0000000000080138     OpensslLib:obj_dat.obj
 0002:0000c6a0       ??_C@_0CI@GGHEPEIH@id?9tc26?9gost?93410?92012?9512?9para@ 0000000000080160     OpensslLib:obj_dat.obj
 0002:0000c6c8       ??_C@_0DC@INCJCNBI@GOST?5R?534?410?92012?5?$CI512?5bit?$CJ?5tes@ 0000000000080188     OpensslLib:obj_dat.obj
 0002:0000c700       ??_C@_0CF@PHGDEBIC@id?9tc26?9gost?93410?92012?9512?9para@ 00000000000801c0     OpensslLib:obj_dat.obj
 0002:0000c728       ??_C@_0CH@KEBIEEKM@GOST?5R?534?410?92012?5?$CI512?5bit?$CJ?5Par@ 00000000000801e8     OpensslLib:obj_dat.obj
 0002:0000c750       ??_C@_0CF@NMEOBCEB@id?9tc26?9gost?93410?92012?9512?9para@ 0000000000080210     OpensslLib:obj_dat.obj
 0002:0000c778       ??_C@_0CH@IPDFBHGP@GOST?5R?534?410?92012?5?$CI512?5bit?$CJ?5Par@ 0000000000080238     OpensslLib:obj_dat.obj
 0002:0000c7a0       ??_C@_0BJ@GEIKEFNA@id?9tc26?9digest?9constants@ 0000000000080260     OpensslLib:obj_dat.obj
 0002:0000c7c0       ??_C@_0BJ@NHFOAFHC@id?9tc26?9cipher?9constants@ 0000000000080280     OpensslLib:obj_dat.obj
 0002:0000c7e0       ??_C@_0BN@EAAGDAMM@id?9tc26?9gost?928147?9constants@ 00000000000802a0     OpensslLib:obj_dat.obj
 0002:0000c800       ??_C@_0BL@JJBMFHGO@id?9tc26?9gost?928147?9param?9Z@ 00000000000802c0     OpensslLib:obj_dat.obj
 0002:0000c820       ??_C@_0CB@CNOGCECB@GOST?528147?989?5TC26?5parameter?5se@ 00000000000802e0     OpensslLib:obj_dat.obj
 0002:0000c844       ??_C@_03CMFJPFBF@INN@      0000000000080304     OpensslLib:obj_dat.obj
 0002:0000c848       ??_C@_04OEHPDPKL@OGRN@     0000000000080308     OpensslLib:obj_dat.obj
 0002:0000c850       ??_C@_05CNOOKPKJ@SNILS@    0000000000080310     OpensslLib:obj_dat.obj
 0002:0000c858       ??_C@_0BA@NDMKBCND@subjectSignTool@ 0000000000080318     OpensslLib:obj_dat.obj
 0002:0000c868       ??_C@_0BI@GJCFDOKO@Signing?5Tool?5of?5Subject@ 0000000000080328     OpensslLib:obj_dat.obj
 0002:0000c880       ??_C@_0P@DOAHENPB@issuerSignTool@ 0000000000080340     OpensslLib:obj_dat.obj
 0002:0000c890       ??_C@_0BH@GHEABPMA@Signing?5Tool?5of?5Issuer@ 0000000000080350     OpensslLib:obj_dat.obj
 0002:0000c8a8       ??_C@_0L@IBPHNLAN@gost89?9cbc@ 0000000000080368     OpensslLib:obj_dat.obj
 0002:0000c8b8       ??_C@_0L@LMEFNPKH@gost89?9ecb@ 0000000000080378     OpensslLib:obj_dat.obj
 0002:0000c8c8       ??_C@_0L@MKIFCHNP@gost89?9ctr@ 0000000000080388     OpensslLib:obj_dat.obj
 0002:0000c8d8       ??_C@_0BA@BNIBKCOB@grasshopper?9ecb@ 0000000000080398     OpensslLib:obj_dat.obj
 0002:0000c8e8       ??_C@_0BA@GLEBFKJJ@grasshopper?9ctr@ 00000000000803a8     OpensslLib:obj_dat.obj
 0002:0000c8f8       ??_C@_0BA@HEPHIAGO@grasshopper?9ofb@ 00000000000803b8     OpensslLib:obj_dat.obj
 0002:0000c908       ??_C@_0BA@CADDKGEL@grasshopper?9cbc@ 00000000000803c8     OpensslLib:obj_dat.obj
 0002:0000c918       ??_C@_0BA@DOCBDPNG@grasshopper?9cfb@ 00000000000803d8     OpensslLib:obj_dat.obj
 0002:0000c928       ??_C@_0BA@MCKKGPCB@grasshopper?9mac@ 00000000000803e8     OpensslLib:obj_dat.obj
 0002:0000c938       ??_C@_0BC@PEKIBJLH@ChaCha20?9Poly1305@ 00000000000803f8     OpensslLib:obj_dat.obj
 0002:0000c950       ??_C@_0BC@KDNKBNLK@chacha20?9poly1305@ 0000000000080410     OpensslLib:obj_dat.obj
 0002:0000c968       ??_C@_08ILJLPLOJ@ChaCha20@ 0000000000080428     OpensslLib:obj_dat.obj
 0002:0000c978       ??_C@_08OMGHMHM@chacha20@  0000000000080438     OpensslLib:obj_dat.obj
 0002:0000c988       ??_C@_0L@MLJIFHHA@tlsfeature@ 0000000000080448     OpensslLib:obj_dat.obj
 0002:0000c998       ??_C@_0M@FNEPCNIJ@TLS?5Feature@ 0000000000080458     OpensslLib:obj_dat.obj
 0002:0000c9a8       ??_C@_08KOCGPNOB@TLS1?9PRF@ 0000000000080468     OpensslLib:obj_dat.obj
 0002:0000c9b8       ??_C@_08BHOHOJPE@tls1?9prf@ 0000000000080478     OpensslLib:obj_dat.obj
 0002:0000c9c8       ??_C@_08JJANKCK@ipsecIKE@  0000000000080488     OpensslLib:obj_dat.obj
 0002:0000c9d8       ??_C@_0BM@OPBJFEOG@ipsec?5Internet?5Key?5Exchange@ 0000000000080498     OpensslLib:obj_dat.obj
 0002:0000c9f8       ??_C@_08PPHHBOBH@capwapAC@ 00000000000804b8     OpensslLib:obj_dat.obj
 0002:0000ca08       ??_C@_0BK@IALCAIEG@Ctrl?1provision?5WAP?5Access@ 00000000000804c8     OpensslLib:obj_dat.obj
 0002:0000ca28       ??_C@_09FFIMBCDL@capwapWTP@ 00000000000804e8     OpensslLib:obj_dat.obj
 0002:0000ca38       ??_C@_0BP@LFGCKHED@Ctrl?1Provision?5WAP?5Termination@ 00000000000804f8     OpensslLib:obj_dat.obj
 0002:0000ca58       ??_C@_0BC@DBPEJOAM@secureShellClient@ 0000000000080518     OpensslLib:obj_dat.obj
 0002:0000ca70       ??_C@_0L@CACOODCE@SSH?5Client@ 0000000000080530     OpensslLib:obj_dat.obj
 0002:0000ca80       ??_C@_0BC@HOLGEFIP@secureShellServer@ 0000000000080540     OpensslLib:obj_dat.obj
 0002:0000ca98       ??_C@_0L@GPGMDIKH@SSH?5Server@ 0000000000080558     OpensslLib:obj_dat.obj
 0002:0000caa8       ??_C@_0L@MPOEEOHI@sendRouter@ 0000000000080568     OpensslLib:obj_dat.obj
 0002:0000cab8       ??_C@_0M@BCAJACPB@Send?5Router@ 0000000000080578     OpensslLib:obj_dat.obj
 0002:0000cac8       ??_C@_0BC@KKHBJBOB@sendProxiedRouter@ 0000000000080588     OpensslLib:obj_dat.obj
 0002:0000cae0       ??_C@_0BE@JHOOFFHO@Send?5Proxied?5Router@ 00000000000805a0     OpensslLib:obj_dat.obj
 0002:0000caf8       ??_C@_09JAHHKBGP@sendOwner@ 00000000000805b8     OpensslLib:obj_dat.obj
 0002:0000cb08       ??_C@_0L@HAEHOBAA@Send?5Owner@ 00000000000805c8     OpensslLib:obj_dat.obj
 0002:0000cb18       ??_C@_0BB@LFHBPODH@sendProxiedOwner@ 00000000000805d8     OpensslLib:obj_dat.obj
 0002:0000cb30       ??_C@_0BD@PCCALGFC@Send?5Proxied?5Owner@ 00000000000805f0     OpensslLib:obj_dat.obj
 0002:0000cb48       ??_C@_09JPKOOJPP@id?9pkinit@ 0000000000080608     OpensslLib:obj_dat.obj
 0002:0000cb58       ??_C@_0BB@EPFMAKG@pkInitClientAuth@ 0000000000080618     OpensslLib:obj_dat.obj
 0002:0000cb70       ??_C@_0BD@EMKKJPI@PKINIT?5Client?5Auth@ 0000000000080630     OpensslLib:obj_dat.obj
 0002:0000cb88       ??_C@_09BKCKBNGN@pkInitKDC@ 0000000000080648     OpensslLib:obj_dat.obj
 0002:0000cb98       ??_C@_0BF@JILKFMLF@Signing?5KDC?5Response@ 0000000000080658     OpensslLib:obj_dat.obj
 0002:0000cbb0       ??_C@_06LOACBMIP@X25519@   0000000000080670     OpensslLib:obj_dat.obj
 0002:0000cbb8       ??_C@_04HKAKBCKJ@X448@     0000000000080678     OpensslLib:obj_dat.obj
 0002:0000cbc0       ??_C@_04MMPLAJMJ@HKDF@     0000000000080680     OpensslLib:obj_dat.obj
 0002:0000cbc8       ??_C@_04MBOLLB@hkdf@       0000000000080688     OpensslLib:obj_dat.obj
 0002:0000cbd0       ??_C@_05EJMCGHJ@KxRSA@     0000000000080690     OpensslLib:obj_dat.obj
 0002:0000cbd8       ??_C@_06NOGFLIHP@kx?9rsa@  0000000000080698     OpensslLib:obj_dat.obj
 0002:0000cbe0       ??_C@_07JGJKHBHF@KxECDHE@  00000000000806a0     OpensslLib:obj_dat.obj
 0002:0000cbe8       ??_C@_08HKLONAAL@kx?9ecdhe@ 00000000000806a8     OpensslLib:obj_dat.obj
 0002:0000cbf4       ??_C@_05FPBKHKP@KxDHE@     00000000000806b4     OpensslLib:obj_dat.obj
 0002:0000cbfc       ??_C@_06NPAIDJKJ@kx?9dhe@  00000000000806bc     OpensslLib:obj_dat.obj
 0002:0000cc08       ??_C@_0M@BEDLOEBI@KxECDHE?9PSK@ 00000000000806c8     OpensslLib:obj_dat.obj
 0002:0000cc18       ??_C@_0N@BCMOIGGJ@kx?9ecdhe?9psk@ 00000000000806d8     OpensslLib:obj_dat.obj
 0002:0000cc28       ??_C@_09DLNJIEPF@KxDHE?9PSK@ 00000000000806e8     OpensslLib:obj_dat.obj
 0002:0000cc38       ??_C@_0L@EHLMOCJB@kx?9dhe?9psk@ 00000000000806f8     OpensslLib:obj_dat.obj
 0002:0000cc48       ??_C@_09PMFHIFNE@KxRSA_PSK@ 0000000000080708     OpensslLib:obj_dat.obj
 0002:0000cc58       ??_C@_0L@DCAFABP@kx?9rsa?9psk@ 0000000000080718     OpensslLib:obj_dat.obj
 0002:0000cc64       ??_C@_05FEHKAGHI@KxPSK@    0000000000080724     OpensslLib:obj_dat.obj
 0002:0000cc6c       ??_C@_06IOIDJIHO@kx?9psk@  000000000008072c     OpensslLib:obj_dat.obj
 0002:0000cc74       ??_C@_05OODLAIDL@KxSRP@    0000000000080734     OpensslLib:obj_dat.obj
 0002:0000cc7c       ??_C@_06DEMCJGDN@kx?9srp@  000000000008073c     OpensslLib:obj_dat.obj
 0002:0000cc84       ??_C@_06FKGHEKCF@KxGOST@   0000000000080744     OpensslLib:obj_dat.obj
 0002:0000cc90       ??_C@_07CGFKDCCM@kx?9gost@ 0000000000080750     OpensslLib:obj_dat.obj
 0002:0000cc98       ??_C@_07BONHEHLG@AuthRSA@  0000000000080758     OpensslLib:obj_dat.obj
 0002:0000cca0       ??_C@_08JIOIJHAA@auth?9rsa@ 0000000000080760     OpensslLib:obj_dat.obj
 0002:0000ccb0       ??_C@_09JEFCHIOE@AuthECDSA@ 0000000000080770     OpensslLib:obj_dat.obj
 0002:0000ccc0       ??_C@_0L@NNHEHHD@auth?9ecdsa@ 0000000000080780     OpensslLib:obj_dat.obj
 0002:0000ccd0       ??_C@_07EODBGHLH@AuthPSK@  0000000000080790     OpensslLib:obj_dat.obj
 0002:0000ccd8       ??_C@_08MIAOLHAB@auth?9psk@ 0000000000080798     OpensslLib:obj_dat.obj
 0002:0000cce8       ??_C@_07BDFBDPCG@AuthDSS@  00000000000807a8     OpensslLib:obj_dat.obj
 0002:0000ccf0       ??_C@_08JFGOOPJA@auth?9dss@ 00000000000807b0     OpensslLib:obj_dat.obj
 0002:0000cd00       ??_C@_0L@JLNHNDLF@AuthGOST01@ 00000000000807c0     OpensslLib:obj_dat.obj
 0002:0000cd10       ??_C@_0M@MNGIBGIN@auth?9gost01@ 00000000000807d0     OpensslLib:obj_dat.obj
 0002:0000cd20       ??_C@_0L@LBDIOKEB@AuthGOST12@ 00000000000807e0     OpensslLib:obj_dat.obj
 0002:0000cd30       ??_C@_0M@OHIHCPHJ@auth?9gost12@ 00000000000807f0     OpensslLib:obj_dat.obj
 0002:0000cd40       ??_C@_07PEHAGJPE@AuthSRP@  0000000000080800     OpensslLib:obj_dat.obj
 0002:0000cd48       ??_C@_08HCEPLJEC@auth?9srp@ 0000000000080808     OpensslLib:obj_dat.obj
 0002:0000cd58       ??_C@_08PGHDHHPL@AuthNULL@ 0000000000080818     OpensslLib:obj_dat.obj
 0002:0000cd68       ??_C@_09EBHDHKDA@auth?9null@ 0000000000080828     OpensslLib:obj_dat.obj
 0002:0000cd78       ??_C@_0L@JAJLMLPM@BLAKE2b512@ 0000000000080838     OpensslLib:obj_dat.obj
 0002:0000cd88       ??_C@_0L@ONGAJOJC@blake2b512@ 0000000000080848     OpensslLib:obj_dat.obj
 0002:0000cd98       ??_C@_0L@DDKJCAKP@BLAKE2s256@ 0000000000080858     OpensslLib:obj_dat.obj
 0002:0000cda8       ??_C@_0L@EOFCHFMB@blake2s256@ 0000000000080868     OpensslLib:obj_dat.obj
 0002:0000cdb8       ??_C@_0BO@OGCFEAKN@id?9smime?9ct?9contentCollection@ 0000000000080878     OpensslLib:obj_dat.obj
 0002:0000cdd8       ??_C@_0BO@INCMCPON@id?9smime?9ct?9authEnvelopedData@ 0000000000080898     OpensslLib:obj_dat.obj
 0002:0000cdf8       ??_C@_09GGALBJKN@id?9ct?9xml@ 00000000000808b8     OpensslLib:obj_dat.obj
 0002:0000ce08       ??_C@_08PKNBIDPH@Poly1305@ 00000000000808c8     OpensslLib:obj_dat.obj
 0002:0000ce18       ??_C@_08HICAABFE@poly1305@ 00000000000808d8     OpensslLib:obj_dat.obj
 0002:0000ce28       ??_C@_07EEPCGEAM@SipHash@  00000000000808e8     OpensslLib:obj_dat.obj
 0002:0000ce30       ??_C@_07HMEFCJFO@siphash@  00000000000808f0     OpensslLib:obj_dat.obj
 0002:0000ce38       ??_C@_05NANFHGHC@KxANY@    00000000000808f8     OpensslLib:obj_dat.obj
 0002:0000ce40       ??_C@_06KCMOIHE@kx?9any@   0000000000080900     OpensslLib:obj_dat.obj
 0002:0000ce48       ??_C@_07MKJOBHLN@AuthANY@  0000000000080908     OpensslLib:obj_dat.obj
 0002:0000ce50       ??_C@_08EMKBMHAL@auth?9any@ 0000000000080910     OpensslLib:obj_dat.obj
 0002:0000ce60       ??_C@_0N@FEKJCEDM@ARIA?9128?9ECB@ 0000000000080920     OpensslLib:obj_dat.obj
 0002:0000ce70       ??_C@_0N@DLNMPFEK@aria?9128?9ecb@ 0000000000080930     OpensslLib:obj_dat.obj
 0002:0000ce80       ??_C@_0N@GJBLCAJG@ARIA?9128?9CBC@ 0000000000080940     OpensslLib:obj_dat.obj
 0002:0000ce90       ??_C@_0N@GGOPBOA@aria?9128?9cbc@ 0000000000080950     OpensslLib:obj_dat.obj
 0002:0000cea0       ??_C@_0N@HHAJLJAL@ARIA?9128?9CFB@ 0000000000080960     OpensslLib:obj_dat.obj
 0002:0000ceb0       ??_C@_0N@BIHMGIHN@aria?9128?9cfb@ 0000000000080970     OpensslLib:obj_dat.obj
 0002:0000cec0       ??_C@_0N@DNNPAGLD@ARIA?9128?9OFB@ 0000000000080980     OpensslLib:obj_dat.obj
 0002:0000ced0       ??_C@_0N@FCKKNHMF@aria?9128?9ofb@ 0000000000080990     OpensslLib:obj_dat.obj
 0002:0000cee0       ??_C@_0N@CCGJNMEE@ARIA?9128?9CTR@ 00000000000809a0     OpensslLib:obj_dat.obj
 0002:0000cef0       ??_C@_0N@ENBMANDC@aria?9128?9ctr@ 00000000000809b0     OpensslLib:obj_dat.obj
 0002:0000cf00       ??_C@_0N@PHDFFDKA@ARIA?9192?9ECB@ 00000000000809c0     OpensslLib:obj_dat.obj
 0002:0000cf10       ??_C@_0N@JIEAICNG@aria?9192?9ecb@ 00000000000809d0     OpensslLib:obj_dat.obj
 0002:0000cf20       ??_C@_0N@MKIHFHAK@ARIA?9192?9CBC@ 00000000000809e0     OpensslLib:obj_dat.obj
 0002:0000cf30       ??_C@_0N@KFPCIGHM@aria?9192?9cbc@ 00000000000809f0     OpensslLib:obj_dat.obj
 0002:0000cf40       ??_C@_0N@NEJFMOJH@ARIA?9192?9CFB@ 0000000000080a00     OpensslLib:obj_dat.obj
 0002:0000cf50       ??_C@_0N@LLOABPOB@aria?9192?9cfb@ 0000000000080a10     OpensslLib:obj_dat.obj
 0002:0000cf60       ??_C@_0N@JOEDHBCP@ARIA?9192?9OFB@ 0000000000080a20     OpensslLib:obj_dat.obj
 0002:0000cf70       ??_C@_0N@PBDGKAFJ@aria?9192?9ofb@ 0000000000080a30     OpensslLib:obj_dat.obj
 0002:0000cf80       ??_C@_0N@IBPFKLNI@ARIA?9192?9CTR@ 0000000000080a40     OpensslLib:obj_dat.obj
 0002:0000cf90       ??_C@_0N@OOIAHKKO@aria?9192?9ctr@ 0000000000080a50     OpensslLib:obj_dat.obj
 0002:0000cfa0       ??_C@_0N@CFILHMCB@ARIA?9256?9ECB@ 0000000000080a60     OpensslLib:obj_dat.obj
 0002:0000cfb0       ??_C@_0N@EKPOKNFH@aria?9256?9ecb@ 0000000000080a70     OpensslLib:obj_dat.obj
 0002:0000cfc0       ??_C@_0N@BIDJHIIL@ARIA?9256?9CBC@ 0000000000080a80     OpensslLib:obj_dat.obj
 0002:0000cfd0       ??_C@_0N@HHEMKJPN@aria?9256?9cbc@ 0000000000080a90     OpensslLib:obj_dat.obj
 0002:0000cfe0       ??_C@_0N@GCLOBBG@ARIA?9256?9CFB@ 0000000000080aa0     OpensslLib:obj_dat.obj
 0002:0000cff0       ??_C@_0N@GJFODAGA@aria?9256?9cfb@ 0000000000080ab0     OpensslLib:obj_dat.obj
 0002:0000d000       ??_C@_0N@EMPNFOKO@ARIA?9256?9OFB@ 0000000000080ac0     OpensslLib:obj_dat.obj
 0002:0000d010       ??_C@_0N@CDIIIPNI@aria?9256?9ofb@ 0000000000080ad0     OpensslLib:obj_dat.obj
 0002:0000d020       ??_C@_0N@FDELIEFJ@ARIA?9256?9CTR@ 0000000000080ae0     OpensslLib:obj_dat.obj
 0002:0000d030       ??_C@_0N@DMDOFFCP@aria?9256?9ctr@ 0000000000080af0     OpensslLib:obj_dat.obj
 0002:0000d040       ??_C@_0O@FBPINHID@ARIA?9128?9CFB1@ 0000000000080b00     OpensslLib:obj_dat.obj
 0002:0000d050       ??_C@_0O@OIPBHGFL@aria?9128?9cfb1@ 0000000000080b10     OpensslLib:obj_dat.obj
 0002:0000d060       ??_C@_0O@KIOCJEJL@ARIA?9192?9CFB1@ 0000000000080b20     OpensslLib:obj_dat.obj
 0002:0000d070       ??_C@_0O@BBOLDFED@aria?9192?9cfb1@ 0000000000080b30     OpensslLib:obj_dat.obj
 0002:0000d080       ??_C@_0O@DCIPJJAC@ARIA?9256?9CFB1@ 0000000000080b40     OpensslLib:obj_dat.obj
 0002:0000d090       ??_C@_0O@ILIGDINK@aria?9256?9cfb1@ 0000000000080b50     OpensslLib:obj_dat.obj
 0002:0000d0a0       ??_C@_0O@IADKGMMK@ARIA?9128?9CFB8@ 0000000000080b60     OpensslLib:obj_dat.obj
 0002:0000d0b0       ??_C@_0O@DJDDMNBC@aria?9128?9cfb8@ 0000000000080b70     OpensslLib:obj_dat.obj
 0002:0000d0c0       ??_C@_0O@HJCACPNC@ARIA?9192?9CFB8@ 0000000000080b80     OpensslLib:obj_dat.obj
 0002:0000d0d0       ??_C@_0O@MACJIOAK@aria?9192?9cfb8@ 0000000000080b90     OpensslLib:obj_dat.obj
 0002:0000d0e0       ??_C@_0O@ODENCCEL@ARIA?9256?9CFB8@ 0000000000080ba0     OpensslLib:obj_dat.obj
 0002:0000d0f0       ??_C@_0O@FKEEIDJD@aria?9256?9cfb8@ 0000000000080bb0     OpensslLib:obj_dat.obj
 0002:0000d100       ??_C@_0CB@IFNLAOKJ@id?9smime?9aa?9signingCertificateV@ 0000000000080bc0     OpensslLib:obj_dat.obj
 0002:0000d128       ??_C@_07IHEPCGKL@ED25519@  0000000000080be8     OpensslLib:obj_dat.obj
 0002:0000d130       ??_C@_05PHGPKFEL@ED448@    0000000000080bf0     OpensslLib:obj_dat.obj
 0002:0000d138       ??_C@_0BH@IMGBFLPH@organizationIdentifier@ 0000000000080bf8     OpensslLib:obj_dat.obj
 0002:0000d150       ??_C@_02LOEEDGKE@c3@       0000000000080c10     OpensslLib:obj_dat.obj
 0002:0000d158       ??_C@_0O@FPCOELAL@countryCode3c@ 0000000000080c18     OpensslLib:obj_dat.obj
 0002:0000d168       ??_C@_02LGJMKFPH@n3@       0000000000080c28     OpensslLib:obj_dat.obj
 0002:0000d170       ??_C@_0O@OKIADFEG@countryCode3n@ 0000000000080c30     OpensslLib:obj_dat.obj
 0002:0000d180       ??_C@_07KEJPHHNP@dnsName@  0000000000080c40     OpensslLib:obj_dat.obj
 0002:0000d188       ??_C@_0BB@NCOFGOBL@x509ExtAdmission@ 0000000000080c48     OpensslLib:obj_dat.obj
 0002:0000d1a0       ??_C@_0DA@NCCMDEGO@Professional?5Information?5or?5bas@ 0000000000080c60     OpensslLib:obj_dat.obj
 0002:0000d1d0       ??_C@_0L@EEJNOJOJ@SHA512?9224@ 0000000000080c90     OpensslLib:obj_dat.obj
 0002:0000d1e0       ??_C@_0L@PKNOHEN@sha512?9224@ 0000000000080ca0     OpensslLib:obj_dat.obj
 0002:0000d1f0       ??_C@_0L@HDOEJNOO@SHA512?9256@ 0000000000080cb0     OpensslLib:obj_dat.obj
 0002:0000d200       ??_C@_0L@DINEJDEK@sha512?9256@ 0000000000080cc0     OpensslLib:obj_dat.obj
 0002:0000d210       ??_C@_08DHHFFNOC@SHA3?9224@ 0000000000080cd0     OpensslLib:obj_dat.obj
 0002:0000d220       ??_C@_08IDEPIEIL@sha3?9224@ 0000000000080ce0     OpensslLib:obj_dat.obj
 0002:0000d230       ??_C@_08MCJOF@SHA3?9256@   0000000000080cf0     OpensslLib:obj_dat.obj
 0002:0000d240       ??_C@_08LEDGPAIM@sha3?9256@ 0000000000080d00     OpensslLib:obj_dat.obj
 0002:0000d250       ??_C@_08ICFOLPFB@SHA3?9384@ 0000000000080d10     OpensslLib:obj_dat.obj
 0002:0000d260       ??_C@_08DGGEGGDI@sha3?9384@ 0000000000080d20     OpensslLib:obj_dat.obj
 0002:0000d270       ??_C@_08POLOHMIE@SHA3?9512@ 0000000000080d30     OpensslLib:obj_dat.obj
 0002:0000d280       ??_C@_08EKIEKFON@sha3?9512@ 0000000000080d40     OpensslLib:obj_dat.obj
 0002:0000d290       ??_C@_08MHEGAOCA@SHAKE128@ 0000000000080d50     OpensslLib:obj_dat.obj
 0002:0000d2a0       ??_C@_08LFBBPNHL@shake128@ 0000000000080d60     OpensslLib:obj_dat.obj
 0002:0000d2b0       ??_C@_08EODPJKMF@SHAKE256@ 0000000000080d70     OpensslLib:obj_dat.obj
 0002:0000d2c0       ??_C@_08DMGIGJJO@shake256@ 0000000000080d80     OpensslLib:obj_dat.obj
 0002:0000d2d0       ??_C@_0BE@MGFGMONP@id?9hmacWithSHA3?9224@ 0000000000080d90     OpensslLib:obj_dat.obj
 0002:0000d2e8       ??_C@_0O@ICMEJKOD@hmac?9sha3?9224@ 0000000000080da8     OpensslLib:obj_dat.obj
 0002:0000d2f8       ??_C@_0BE@PBCPLKNI@id?9hmacWithSHA3?9256@ 0000000000080db8     OpensslLib:obj_dat.obj
 0002:0000d310       ??_C@_0O@LFLNOOOE@hmac?9sha3?9256@ 0000000000080dd0     OpensslLib:obj_dat.obj
 0002:0000d320       ??_C@_0BE@HDHNCMGM@id?9hmacWithSHA3?9384@ 0000000000080de0     OpensslLib:obj_dat.obj
 0002:0000d338       ??_C@_0O@DHOPHIFA@hmac?9sha3?9384@ 0000000000080df8     OpensslLib:obj_dat.obj
 0002:0000d348       ??_C@_0BE@PJNOPLJ@id?9hmacWithSHA3?9512@ 0000000000080e08     OpensslLib:obj_dat.obj
 0002:0000d360       ??_C@_0O@ELAPLLIF@hmac?9sha3?9512@ 0000000000080e20     OpensslLib:obj_dat.obj
 0002:0000d370       ??_C@_0BD@LAAPDDDN@id?9dsa?9with?9sha384@ 0000000000080e30     OpensslLib:obj_dat.obj
 0002:0000d388       ??_C@_0BA@NOAAHENE@dsa_with_SHA384@ 0000000000080e48     OpensslLib:obj_dat.obj
 0002:0000d398       ??_C@_0BD@MMOPPAOI@id?9dsa?9with?9sha512@ 0000000000080e58     OpensslLib:obj_dat.obj
 0002:0000d3b0       ??_C@_0BA@KCOALHAB@dsa_with_SHA512@ 0000000000080e70     OpensslLib:obj_dat.obj
 0002:0000d3c0       ??_C@_0BF@MEJGBMIA@id?9dsa?9with?9sha3?9224@ 0000000000080e80     OpensslLib:obj_dat.obj
 0002:0000d3d8       ??_C@_0BC@KDJCOOBJ@dsa_with_SHA3?9224@ 0000000000080e98     OpensslLib:obj_dat.obj
 0002:0000d3f0       ??_C@_0BF@PDOPGIIH@id?9dsa?9with?9sha3?9256@ 0000000000080eb0     OpensslLib:obj_dat.obj
 0002:0000d408       ??_C@_0BC@JEOLJKBO@dsa_with_SHA3?9256@ 0000000000080ec8     OpensslLib:obj_dat.obj
 0002:0000d420       ??_C@_0BF@HBLNPODD@id?9dsa?9with?9sha3?9384@ 0000000000080ee0     OpensslLib:obj_dat.obj
 0002:0000d438       ??_C@_0BC@BGLJAMKK@dsa_with_SHA3?9384@ 0000000000080ef8     OpensslLib:obj_dat.obj
 0002:0000d450       ??_C@_0BF@NFNDNOG@id?9dsa?9with?9sha3?9512@ 0000000000080f10     OpensslLib:obj_dat.obj
 0002:0000d468       ??_C@_0BC@GKFJMPHP@dsa_with_SHA3?9512@ 0000000000080f28     OpensslLib:obj_dat.obj
 0002:0000d480       ??_C@_0BH@CPKNOLKD@id?9ecdsa?9with?9sha3?9224@ 0000000000080f40     OpensslLib:obj_dat.obj
 0002:0000d498       ??_C@_0BE@HAIIGEO@ecdsa_with_SHA3?9224@ 0000000000080f58     OpensslLib:obj_dat.obj
 0002:0000d4b0       ??_C@_0BH@BINEJPKE@id?9ecdsa?9with?9sha3?9256@ 0000000000080f70     OpensslLib:obj_dat.obj
 0002:0000d4c8       ??_C@_0BE@DAHBPCEJ@ecdsa_with_SHA3?9256@ 0000000000080f88     OpensslLib:obj_dat.obj
 0002:0000d4e0       ??_C@_0BH@JKIGAJBA@id?9ecdsa?9with?9sha3?9384@ 0000000000080fa0     OpensslLib:obj_dat.obj
 0002:0000d4f8       ??_C@_0BE@LCCDGEPN@ecdsa_with_SHA3?9384@ 0000000000080fb8     OpensslLib:obj_dat.obj
 0002:0000d510       ??_C@_0BH@OGGGMKMF@id?9ecdsa?9with?9sha3?9512@ 0000000000080fd0     OpensslLib:obj_dat.obj
 0002:0000d528       ??_C@_0BE@MOMDKHCI@ecdsa_with_SHA3?9512@ 0000000000080fe8     OpensslLib:obj_dat.obj
 0002:0000d540       ??_C@_0CD@HOFJHNFO@id?9rsassa?9pkcs1?9v1_5?9with?9sha3?9@ 0000000000081000     OpensslLib:obj_dat.obj
 0002:0000d568       ??_C@_0N@FBFOELEH@RSA?9SHA3?9224@ 0000000000081028     OpensslLib:obj_dat.obj
 0002:0000d578       ??_C@_0CD@EJCAAJFJ@id?9rsassa?9pkcs1?9v1_5?9with?9sha3?9@ 0000000000081038     OpensslLib:obj_dat.obj
 0002:0000d5a0       ??_C@_0N@GGCHDPEA@RSA?9SHA3?9256@ 0000000000081060     OpensslLib:obj_dat.obj
 0002:0000d5b0       ??_C@_0CD@MLHCJPON@id?9rsassa?9pkcs1?9v1_5?9with?9sha3?9@ 0000000000081070     OpensslLib:obj_dat.obj
 0002:0000d5d8       ??_C@_0N@OEHFKJPE@RSA?9SHA3?9384@ 0000000000081098     OpensslLib:obj_dat.obj
 0002:0000d5e8       ??_C@_0CD@LHJCFMDI@id?9rsassa?9pkcs1?9v1_5?9with?9sha3?9@ 00000000000810a8     OpensslLib:obj_dat.obj
 0002:0000d610       ??_C@_0N@JIJFGKCB@RSA?9SHA3?9512@ 00000000000810d0     OpensslLib:obj_dat.obj
 0002:0000d620       ??_C@_0N@PGFKGHCP@ARIA?9128?9CCM@ 00000000000810e0     OpensslLib:obj_dat.obj
 0002:0000d630       ??_C@_0N@JJCPLGFJ@aria?9128?9ccm@ 00000000000810f0     OpensslLib:obj_dat.obj
 0002:0000d640       ??_C@_0N@FFMGBALD@ARIA?9192?9CCM@ 0000000000081100     OpensslLib:obj_dat.obj
 0002:0000d650       ??_C@_0N@DKLDMBMF@aria?9192?9ccm@ 0000000000081110     OpensslLib:obj_dat.obj
 0002:0000d660       ??_C@_0N@IHHIDPDC@ARIA?9256?9CCM@ 0000000000081120     OpensslLib:obj_dat.obj
 0002:0000d670       ??_C@_0N@OIANOOEE@aria?9256?9ccm@ 0000000000081130     OpensslLib:obj_dat.obj
 0002:0000d680       ??_C@_0N@HJDIPAHI@ARIA?9128?9GCM@ 0000000000081140     OpensslLib:obj_dat.obj
 0002:0000d690       ??_C@_0N@BGENCBAO@aria?9128?9gcm@ 0000000000081150     OpensslLib:obj_dat.obj
 0002:0000d6a0       ??_C@_0N@NKKEIHOE@ARIA?9192?9GCM@ 0000000000081160     OpensslLib:obj_dat.obj
 0002:0000d6b0       ??_C@_0N@LFNBFGJC@aria?9192?9gcm@ 0000000000081170     OpensslLib:obj_dat.obj
 0002:0000d6c0       ??_C@_0N@IBKKIGF@ARIA?9256?9GCM@ 0000000000081180     OpensslLib:obj_dat.obj
 0002:0000d6d0       ??_C@_0N@GHGPHJBD@aria?9256?9gcm@ 0000000000081190     OpensslLib:obj_dat.obj
 0002:0000d6e0       ??_C@_09EEADMLEK@ffdhe2048@ 00000000000811a0     OpensslLib:obj_dat.obj
 0002:0000d6f0       ??_C@_09IBMKLECJ@ffdhe3072@ 00000000000811b0     OpensslLib:obj_dat.obj
 0002:0000d700       ??_C@_09FNBIIADH@ffdhe4096@ 00000000000811c0     OpensslLib:obj_dat.obj
 0002:0000d710       ??_C@_09KFIKEFOD@ffdhe6144@ 00000000000811d0     OpensslLib:obj_dat.obj
 0002:0000d720       ??_C@_09EEDIMPFH@ffdhe8192@ 00000000000811e0     OpensslLib:obj_dat.obj
 0002:0000d72c       ??_C@_05BDNCIFGE@cmcCA@    00000000000811ec     OpensslLib:obj_dat.obj
 0002:0000d738       ??_C@_0BK@LBDJBFMP@CMC?5Certificate?5Authority@ 00000000000811f8     OpensslLib:obj_dat.obj
 0002:0000d754       ??_C@_05ODGEMCD@cmcRA@     0000000000081214     OpensslLib:obj_dat.obj
 0002:0000d760       ??_C@_0BL@NBGEGOFM@CMC?5Registration?5Authority@ 0000000000081220     OpensslLib:obj_dat.obj
 0002:0000d780       ??_C@_07NOELNIBF@SM4?9ECB@ 0000000000081240     OpensslLib:obj_dat.obj
 0002:0000d788       ??_C@_07OFHLEOKD@sm4?9ecb@ 0000000000081248     OpensslLib:obj_dat.obj
 0002:0000d790       ??_C@_07ODPJNMLP@SM4?9CBC@ 0000000000081250     OpensslLib:obj_dat.obj
 0002:0000d798       ??_C@_07NIMJEKAJ@sm4?9cbc@ 0000000000081258     OpensslLib:obj_dat.obj
 0002:0000d7a0       ??_C@_07LHDNPKJK@SM4?9OFB@ 0000000000081260     OpensslLib:obj_dat.obj
 0002:0000d7a8       ??_C@_07IMANGMCM@sm4?9ofb@ 0000000000081268     OpensslLib:obj_dat.obj
 0002:0000d7b0       ??_C@_08BDMAKNBD@SM4?9CFB1@ 0000000000081270     OpensslLib:obj_dat.obj
 0002:0000d7c0       ??_C@_08DBPJILDM@sm4?9cfb1@ 0000000000081280     OpensslLib:obj_dat.obj
 0002:0000d7d0       ??_C@_07PNOLEFCC@SM4?9CFB@ 0000000000081290     OpensslLib:obj_dat.obj
 0002:0000d7d8       ??_C@_07MGNLNDJE@sm4?9cfb@ 0000000000081298     OpensslLib:obj_dat.obj
 0002:0000d7e0       ??_C@_08MCACBGFK@SM4?9CFB8@ 00000000000812a0     OpensslLib:obj_dat.obj
 0002:0000d7f0       ??_C@_08OADLDAHF@sm4?9cfb8@ 00000000000812b0     OpensslLib:obj_dat.obj
 0002:0000d800       ??_C@_07KIILCAGN@SM4?9CTR@ 00000000000812c0     OpensslLib:obj_dat.obj
 0002:0000d808       ??_C@_07JDLLLGNL@sm4?9ctr@ 00000000000812c8     OpensslLib:obj_dat.obj
 0002:0000d810       ??_C@_06KNMHIDBL@ISO?9CN@  00000000000812d0     OpensslLib:obj_dat.obj
 0002:0000d818       ??_C@_0BD@GLPDOOPB@ISO?5CN?5Member?5Body@ 00000000000812d8     OpensslLib:obj_dat.obj
 0002:0000d82c       ??_C@_05BGAJAOLO@oscca@    00000000000812ec     OpensslLib:obj_dat.obj
 0002:0000d838       ??_C@_09GAILPDAI@sm?9scheme@ 00000000000812f8     OpensslLib:obj_dat.obj
 0002:0000d844       ??_C@_03ILCKPLAM@SM3@      0000000000081304     OpensslLib:obj_dat.obj
 0002:0000d848       ??_C@_03BDFFBCNC@sm3@      0000000000081308     OpensslLib:obj_dat.obj
 0002:0000d850       ??_C@_07DHCHMOJE@RSA?9SM3@ 0000000000081310     OpensslLib:obj_dat.obj
 0002:0000d858       ??_C@_0BF@LJEMNFBJ@sm3WithRSAEncryption@ 0000000000081318     OpensslLib:obj_dat.obj
 0002:0000d870       ??_C@_0P@BJPJCBFP@RSA?9SHA512?1224@ 0000000000081330     OpensslLib:obj_dat.obj
 0002:0000d880       ??_C@_0BM@OAMEHMHD@sha512?9224WithRSAEncryption@ 0000000000081340     OpensslLib:obj_dat.obj
 0002:0000d8a0       ??_C@_0P@COIAFFFI@RSA?9SHA512?1256@ 0000000000081360     OpensslLib:obj_dat.obj
 0002:0000d8b0       ??_C@_0BM@HFDENMBB@sha512?9256WithRSAEncryption@ 0000000000081370     OpensslLib:obj_dat.obj
 0002:0000d8d0       ??_C@_0CF@ELFGJJJE@id?9tc26?9gost?93410?92012?9256?9cons@ 0000000000081390     OpensslLib:obj_dat.obj
 0002:0000d8f8       ??_C@_0CF@FBBBLKKL@id?9tc26?9gost?93410?92012?9256?9para@ 00000000000813b8     OpensslLib:obj_dat.obj
 0002:0000d920       ??_C@_0CH@KHJMDINL@GOST?5R?534?410?92012?5?$CI256?5bit?$CJ?5Par@ 00000000000813e0     OpensslLib:obj_dat.obj
 0002:0000d948       ??_C@_0CF@MFFFCDAA@id?9tc26?9gost?93410?92012?9512?9para@ 0000000000081408     OpensslLib:obj_dat.obj
 0002:0000d970       ??_C@_0CH@JGCOCGCO@GOST?5R?534?410?92012?5?$CI512?5bit?$CJ?5Par@ 0000000000081430     OpensslLib:obj_dat.obj
 0002:0000d998       ??_C@_06DCPEEABG@ISO?9UA@  0000000000081458     OpensslLib:obj_dat.obj
 0002:0000d9a0       ??_C@_06LNLILMPE@ua?9pki@  0000000000081460     OpensslLib:obj_dat.obj
 0002:0000d9a8       ??_C@_09LIAMILCI@dstu28147@ 0000000000081468     OpensslLib:obj_dat.obj
 0002:0000d9b8       ??_C@_0BF@BOFOAMLJ@DSTU?5Gost?528147?92009@ 0000000000081478     OpensslLib:obj_dat.obj
 0002:0000d9d0       ??_C@_0O@KAGMLFFF@dstu28147?9ofb@ 0000000000081490     OpensslLib:obj_dat.obj
 0002:0000d9e0       ??_C@_0BO@NJFBFPDF@DSTU?5Gost?528147?92009?5OFB?5mode@ 00000000000814a0     OpensslLib:obj_dat.obj
 0002:0000da00       ??_C@_0O@OKLKAKON@dstu28147?9cfb@ 00000000000814c0     OpensslLib:obj_dat.obj
 0002:0000da10       ??_C@_0BO@DPGFKMCB@DSTU?5Gost?528147?92009?5CFB?5mode@ 00000000000814d0     OpensslLib:obj_dat.obj
 0002:0000da30       ??_C@_0P@LJDDBCOK@dstu28147?9wrap@ 00000000000814f0     OpensslLib:obj_dat.obj
 0002:0000da40       ??_C@_0BO@GCIMDMBJ@DSTU?5Gost?528147?92009?5key?5wrap@ 0000000000081500     OpensslLib:obj_dat.obj
 0002:0000da60       ??_C@_0BC@NEKEGBFA@hmacWithDstu34311@ 0000000000081520     OpensslLib:obj_dat.obj
 0002:0000da78       ??_C@_0BI@PPEFMJDF@HMAC?5DSTU?5Gost?534311?995@ 0000000000081538     OpensslLib:obj_dat.obj
 0002:0000da90       ??_C@_09EMDIBIGK@dstu34311@ 0000000000081550     OpensslLib:obj_dat.obj
 0002:0000daa0       ??_C@_0BD@KEGEMFDO@DSTU?5Gost?534311?995@ 0000000000081560     OpensslLib:obj_dat.obj
 0002:0000dab8       ??_C@_0L@HJONHGCF@dstu4145le@ 0000000000081578     OpensslLib:obj_dat.obj
 0002:0000dac8       ??_C@_0BN@DLDIMCIJ@DSTU?54145?92002?5little?5endian@ 0000000000081588     OpensslLib:obj_dat.obj
 0002:0000dae8       ??_C@_0L@HDHDFLCP@dstu4145be@ 00000000000815a8     OpensslLib:obj_dat.obj
 0002:0000daf8       ??_C@_0BK@JAHDELLE@DSTU?54145?92002?5big?5endian@ 00000000000815b8     OpensslLib:obj_dat.obj
 0002:0000db18       ??_C@_08CCOHEDD@uacurve0@  00000000000815d8     OpensslLib:obj_dat.obj
 0002:0000db28       ??_C@_0N@OIEODNOG@DSTU?5curve?50@ 00000000000815e8     OpensslLib:obj_dat.obj
 0002:0000db38       ??_C@_08BLDFEFHC@uacurve1@ 00000000000815f8     OpensslLib:obj_dat.obj
 0002:0000db48       ??_C@_0N@PBFFAMKH@DSTU?5curve?51@ 0000000000081608     OpensslLib:obj_dat.obj
 0002:0000db58       ??_C@_08DABIBGLB@uacurve2@ 0000000000081618     OpensslLib:obj_dat.obj
 0002:0000db68       ??_C@_0N@NKHIFPGE@DSTU?5curve?52@ 0000000000081628     OpensslLib:obj_dat.obj
 0002:0000db78       ??_C@_08CJADCHPA@uacurve3@ 0000000000081638     OpensslLib:obj_dat.obj
 0002:0000db88       ??_C@_0N@MDGDGOCF@DSTU?5curve?53@ 0000000000081648     OpensslLib:obj_dat.obj
 0002:0000db98       ??_C@_08GGECLBDH@uacurve4@ 0000000000081658     OpensslLib:obj_dat.obj
 0002:0000dba8       ??_C@_0N@IMCCPIOC@DSTU?5curve?54@ 0000000000081668     OpensslLib:obj_dat.obj
 0002:0000dbb8       ??_C@_08HPFJIAHG@uacurve5@ 0000000000081678     OpensslLib:obj_dat.obj
 0002:0000dbc8       ??_C@_0N@JFDJMJKD@DSTU?5curve?55@ 0000000000081688     OpensslLib:obj_dat.obj
 0002:0000dbd8       ??_C@_08FEHENDLF@uacurve6@ 0000000000081698     OpensslLib:obj_dat.obj
 0002:0000dbe8       ??_C@_0N@LOBEJKGA@DSTU?5curve?56@ 00000000000816a8     OpensslLib:obj_dat.obj
 0002:0000dbf8       ??_C@_08ENGPOCPE@uacurve7@ 00000000000816b8     OpensslLib:obj_dat.obj
 0002:0000dc08       ??_C@_0N@KHAPKLCB@DSTU?5curve?57@ 00000000000816c8     OpensslLib:obj_dat.obj
 0002:0000dc18       ??_C@_08MKPHPODL@uacurve8@ 00000000000816d8     OpensslLib:obj_dat.obj
 0002:0000dc28       ??_C@_0N@CAJHLHOO@DSTU?5curve?58@ 00000000000816e8     OpensslLib:obj_dat.obj
 0002:0000dc38       ??_C@_08NDOMMPHK@uacurve9@ 00000000000816f8     OpensslLib:obj_dat.obj
 0002:0000dc48       ??_C@_0N@DJIMIGKP@DSTU?5curve?59@ 0000000000081708     OpensslLib:obj_dat.obj
 0002:0000dc58       ??_C@_04PHJBIMMG@ieee@     0000000000081718     OpensslLib:obj_dat.obj
 0002:0000dc60       ??_C@_0L@LDKGPNGG@ieee?9siswg@ 0000000000081720     OpensslLib:obj_dat.obj
 0002:0000dc70       ??_C@_0CH@DHDAMGDO@IEEE?5Security?5in?5Storage?5Workin@ 0000000000081730     OpensslLib:obj_dat.obj
 0002:0000dc98       ??_C@_03JCDBMKEN@SM2@      0000000000081758     OpensslLib:obj_dat.obj
 0002:0000dc9c       ??_C@_03KEOCDJD@sm2@       000000000008175c     OpensslLib:obj_dat.obj
 0002:0000dca0       ??_C@_0CE@MLINIGJF@id?9tc26?9cipher?9gostr3412?92015?9m@ 0000000000081760     OpensslLib:obj_dat.obj
 0002:0000dcc8       ??_C@_0CN@OJMMMFNF@id?9tc26?9cipher?9gostr3412?92015?9m@ 0000000000081788     OpensslLib:obj_dat.obj
 0002:0000dcf8       ??_C@_0DC@HJFGIJEF@id?9tc26?9cipher?9gostr3412?92015?9m@ 00000000000817b8     OpensslLib:obj_dat.obj
 0002:0000dd30       ??_C@_0CJ@OIMAFCDH@id?9tc26?9cipher?9gostr3412?92015?9k@ 00000000000817f0     OpensslLib:obj_dat.obj
 0002:0000dd60       ??_C@_0DC@FCNHEHI@id?9tc26?9cipher?9gostr3412?92015?9k@ 0000000000081820     OpensslLib:obj_dat.obj
 0002:0000dd98       ??_C@_0DH@OMEPNOK@id?9tc26?9cipher?9gostr3412?92015?9k@ 0000000000081858     OpensslLib:obj_dat.obj
 0002:0000ddd0       ??_C@_0N@NOHKDKEG@id?9tc26?9wrap@ 0000000000081890     OpensslLib:obj_dat.obj
 0002:0000dde0       ??_C@_0CC@ICCBFKEK@id?9tc26?9wrap?9gostr3412?92015?9mag@ 00000000000818a0     OpensslLib:obj_dat.obj
 0002:0000de08       ??_C@_0CJ@GAGBMOFA@id?9tc26?9wrap?9gostr3412?92015?9mag@ 00000000000818c8     OpensslLib:obj_dat.obj
 0002:0000de38       ??_C@_0CH@HODOOMNG@id?9tc26?9wrap?9gostr3412?92015?9kuz@ 00000000000818f8     OpensslLib:obj_dat.obj
 0002:0000de60       ??_C@_0CO@KKJKILDM@id?9tc26?9wrap?9gostr3412?92015?9kuz@ 0000000000081920     OpensslLib:obj_dat.obj
 0002:0000de90       ??_C@_0CF@HKDMOJGI@id?9tc26?9gost?93410?92012?9256?9para@ 0000000000081950     OpensslLib:obj_dat.obj
 0002:0000deb8       ??_C@_0CH@IMLBGLBI@GOST?5R?534?410?92012?5?$CI256?5bit?$CJ?5Par@ 0000000000081978     OpensslLib:obj_dat.obj
 0002:0000dee0       ??_C@_0CF@GDCHNICJ@id?9tc26?9gost?93410?92012?9256?9para@ 00000000000819a0     OpensslLib:obj_dat.obj
 0002:0000df08       ??_C@_0CH@JFKKFKFJ@GOST?5R?534?410?92012?5?$CI256?5bit?$CJ?5Par@ 00000000000819c8     OpensslLib:obj_dat.obj
 0002:0000df30       ??_C@_0CF@CMGGEOOO@id?9tc26?9gost?93410?92012?9256?9para@ 00000000000819f0     OpensslLib:obj_dat.obj
 0002:0000df58       ??_C@_0CH@NKOLMMJO@GOST?5R?534?410?92012?5?$CI256?5bit?$CJ?5Par@ 0000000000081a18     OpensslLib:obj_dat.obj
 0002:0000df80       ??_C@_09KIGAEFAO@magma?9ecb@ 0000000000081a40     OpensslLib:obj_dat.obj
 0002:0000df90       ??_C@_09NOKALNHG@magma?9ctr@ 0000000000081a50     OpensslLib:obj_dat.obj
 0002:0000dfa0       ??_C@_09MBBGGHIB@magma?9ofb@ 0000000000081a60     OpensslLib:obj_dat.obj
 0002:0000dfb0       ??_C@_09JFNCEBKE@magma?9cbc@ 0000000000081a70     OpensslLib:obj_dat.obj
 0002:0000dfc0       ??_C@_09ILMANIDJ@magma?9cfb@ 0000000000081a80     OpensslLib:obj_dat.obj
 0002:0000dfd0       ??_C@_09HHELIIMO@magma?9mac@ 0000000000081a90     OpensslLib:obj_dat.obj
 0002:0000dfe0       ??_C@_0BD@EJFCDPF@hmacWithSHA512?9224@ 0000000000081aa0     OpensslLib:obj_dat.obj
 0002:0000dff8       ??_C@_0BD@DDOMFHPC@hmacWithSHA512?9256@ 0000000000081ab8     OpensslLib:obj_dat.obj
 0002:0001ef28       ??_C@_09DHMKJJNA@ASN1_TIME@ 00000000000929e8     OpensslLib:a_time.obj
 0002:0001ef34       ??_C@_04FIEKMBKB@?5GMT@    00000000000929f4     OpensslLib:a_time.obj
 0002:0001ef40       ??_C@_0BP@OGIOIJMK@?$CFs?5?$CF2d?5?$CF02d?3?$CF02d?3?$CF02d?$CF?4?$CKs?5?$CFd?$CFs@ 0000000000092a00     OpensslLib:a_time.obj
 0002:0001ef60       ??_C@_0BL@NKCHLFNC@?$CFs?5?$CF2d?5?$CF02d?3?$CF02d?3?$CF02d?5?$CFd?$CFs@ 0000000000092a20     OpensslLib:a_time.obj
 0002:0001ef80       ??_C@_0P@FGACABCD@Bad?5time?5value@ 0000000000092a40     OpensslLib:a_time.obj
 0002:0001f018       ASN1_TIME_it               0000000000092ad8     OpensslLib:a_time.obj
 0002:0001f0b0       ??_C@_04HCDDPBNL@TRUE@     0000000000092b70     OpensslLib:v3_utl.obj
 0002:0001f0b8       ??_C@_05MAJJAKPI@FALSE@    0000000000092b78     OpensslLib:v3_utl.obj
 0002:0001f0c0       ??_C@_03EPGOEBGO@?90x@     0000000000092b80     OpensslLib:v3_utl.obj
 0002:0001f0c4       ??_C@_02MDDDDAID@0x@       0000000000092b84     OpensslLib:v3_utl.obj
 0002:0001f0c8       ??_C@_04LOAJBDKD@true@     0000000000092b88     OpensslLib:v3_utl.obj
 0002:0001f0d0       ??_C@_01NFFPALBN@Y@        0000000000092b90     OpensslLib:v3_utl.obj
 0002:0001f0d4       ??_C@_01EANLCPLP@y@        0000000000092b94     OpensslLib:v3_utl.obj
 0002:0001f0d8       ??_C@_03IPHJCBHH@YES@      0000000000092b98     OpensslLib:v3_utl.obj
 0002:0001f0dc       ??_C@_03ICICOMAL@yes@      0000000000092b9c     OpensslLib:v3_utl.obj
 0002:0001f0e0       ??_C@_05LAPONLG@false@     0000000000092ba0     OpensslLib:v3_utl.obj
 0002:0001f0e8       ??_C@_01NANMIPIL@N@        0000000000092ba8     OpensslLib:v3_utl.obj
 0002:0001f0ec       ??_C@_02NFLNFON@NO@        0000000000092bac     OpensslLib:v3_utl.obj
 0002:0001f0f0       ??_C@_02KAJCLHKP@no@       0000000000092bb0     OpensslLib:v3_utl.obj
 0002:0001f0f8       ??_C@_07BDICHDDB@?0value?3@ 0000000000092bb8     OpensslLib:v3_utl.obj
 0002:0001f100       ??_C@_06FONLLLNC@?0name?3@ 0000000000092bc0     OpensslLib:v3_utl.obj
 0002:0001f108       ??_C@_08PCLJGJAL@section?3@ 0000000000092bc8     OpensslLib:v3_utl.obj
 0002:0001f114       ??_C@_04DLDJKMIA@xn?9?9@   0000000000092bd4     OpensslLib:v3_utl.obj
 0002:0001f120       ??_C@_0M@PCENNPGA@?$CFd?4?$CFd?4?$CFd?4?$CFd@ 0000000000092be0     OpensslLib:v3_utl.obj
 0002:0001f12c       ??_C@_06CBHGEMFM@?$DMNULL?$DO@ 0000000000092bec     OpensslLib:err.obj
 0002:0001f138       ??_C@_0L@LCHPILLE@SSL?5client@ 0000000000092bf8     OpensslLib:v3_purp.obj
 0002:0001f148       ??_C@_09BLMJDCHK@sslclient@ 0000000000092c08     OpensslLib:v3_purp.obj
 0002:0001f158       ??_C@_0L@PNDNFADH@SSL?5server@ 0000000000092c18     OpensslLib:v3_purp.obj
 0002:0001f168       ??_C@_09FEILOJPJ@sslserver@ 0000000000092c28     OpensslLib:v3_purp.obj
 0002:0001f178       ??_C@_0BE@BPEJPGJG@Netscape?5SSL?5server@ 0000000000092c38     OpensslLib:v3_purp.obj
 0002:0001f190       ??_C@_0M@GKHHMMAE@nssslserver@ 0000000000092c50     OpensslLib:v3_purp.obj
 0002:0001f1a0       ??_C@_0P@LNDEBCCO@S?1MIME?5signing@ 0000000000092c60     OpensslLib:v3_purp.obj
 0002:0001f1b0       ??_C@_09JPGBHOKH@smimesign@ 0000000000092c70     OpensslLib:v3_purp.obj
 0002:0001f1c0       ??_C@_0BC@DOGNOPGC@S?1MIME?5encryption@ 0000000000092c80     OpensslLib:v3_purp.obj
 0002:0001f1d8       ??_C@_0N@BPFJELMP@smimeencrypt@ 0000000000092c98     OpensslLib:v3_purp.obj
 0002:0001f1e8       ??_C@_0M@MEKLJHLA@CRL?5signing@ 0000000000092ca8     OpensslLib:v3_purp.obj
 0002:0001f1f8       ??_C@_07IOMCDAPH@crlsign@  0000000000092cb8     OpensslLib:v3_purp.obj
 0002:0001f200       ??_C@_0M@NMNFLNDB@Any?5Purpose@ 0000000000092cc0     OpensslLib:v3_purp.obj
 0002:0001f20c       ??_C@_03OBJFJEBA@any@      0000000000092ccc     OpensslLib:v3_purp.obj
 0002:0001f210       ??_C@_0M@NEPIMEJA@OCSP?5helper@ 0000000000092cd0     OpensslLib:v3_purp.obj
 0002:0001f220       ??_C@_0L@IMHCEJBK@ocsphelper@ 0000000000092ce0     OpensslLib:v3_purp.obj
 0002:0001f230       ??_C@_0BD@HLGKGIIB@Time?5Stamp?5signing@ 0000000000092cf0     OpensslLib:v3_purp.obj
 0002:0001f248       ??_C@_0O@MABGKINF@timestampsign@ 0000000000092d08     OpensslLib:v3_purp.obj
 0002:0001f288       X509_CRL_it                0000000000092d48     OpensslLib:x_crl.obj
 0002:0001f2b8       X509_CRL_INFO_it           0000000000092d78     OpensslLib:x_crl.obj
 0002:0001f2e8       ??_C@_0P@HBDMPDNI@revocationDate@ 0000000000092da8     OpensslLib:x_crl.obj
 0002:0001f2f8       ??_C@_0N@JBPKOADN@X509_REVOKED@ 0000000000092db8     OpensslLib:x_crl.obj
 0002:0001f308       ??_C@_0L@MPDCJAIM@lastUpdate@ 0000000000092dc8     OpensslLib:x_crl.obj
 0002:0001f318       ??_C@_0L@BMOABHOK@nextUpdate@ 0000000000092dd8     OpensslLib:x_crl.obj
 0002:0001f328       ??_C@_07MIJFAMBD@revoked@  0000000000092de8     OpensslLib:x_crl.obj
 0002:0001f330       ??_C@_0O@IMOAEKCP@X509_CRL_INFO@ 0000000000092df0     OpensslLib:x_crl.obj
 0002:0001f340       ??_C@_08JGFBPDAP@X509_CRL@ 0000000000092e00     OpensslLib:x_crl.obj
 0002:0001f350       X509_REVOKED_it            0000000000092e10     OpensslLib:x_crl.obj
 0002:0001f570       ??_C@_07EEDOJOAA@type_id@  0000000000093030     OpensslLib:v3_genn.obj
 0002:0001f578       ??_C@_09MAFAINAH@OTHERNAME@ 0000000000093038     OpensslLib:v3_genn.obj
 0002:0001f588       ??_C@_0N@KBFEHHDO@nameAssigner@ 0000000000093048     OpensslLib:v3_genn.obj
 0002:0001f598       ??_C@_09EHIHAIPF@partyName@ 0000000000093058     OpensslLib:v3_genn.obj
 0002:0001f5a8       ??_C@_0N@GEILLNKP@EDIPARTYNAME@ 0000000000093068     OpensslLib:v3_genn.obj
 0002:0001f5b8       ??_C@_0M@FGIBMCEL@d?4otherName@ 0000000000093078     OpensslLib:v3_genn.obj
 0002:0001f5c8       ??_C@_0N@MMCCMIPN@d?4rfc822Name@ 0000000000093088     OpensslLib:v3_genn.obj
 0002:0001f5d8       ??_C@_09HIBJABFB@d?4dNSName@ 0000000000093098     OpensslLib:v3_genn.obj
 0002:0001f5e8       ??_C@_0O@NKHOODFK@d?4x400Address@ 00000000000930a8     OpensslLib:v3_genn.obj
 0002:0001f5f8       ??_C@_0BA@JLDFBFLN@d?4directoryName@ 00000000000930b8     OpensslLib:v3_genn.obj
 0002:0001f608       ??_C@_0P@OBCPPLOL@d?4ediPartyName@ 00000000000930c8     OpensslLib:v3_genn.obj
 0002:0001f618       ??_C@_0BM@CMCMADCA@d?4uniformResourceIdentifier@ 00000000000930d8     OpensslLib:v3_genn.obj
 0002:0001f638       ??_C@_0M@PANAALJB@d?4iPAddress@ 00000000000930f8     OpensslLib:v3_genn.obj
 0002:0001f648       ??_C@_0P@KIENIEMD@d?4registeredID@ 0000000000093108     OpensslLib:v3_genn.obj
 0002:0001f658       ??_C@_0N@JCNPGCGM@GENERAL_NAME@ 0000000000093118     OpensslLib:v3_genn.obj
 0002:0001f668       ??_C@_0N@CJKIBDLK@GeneralNames@ 0000000000093128     OpensslLib:v3_genn.obj
 0002:0001f678       ??_C@_0O@NFAAPMIG@GENERAL_NAMES@ 0000000000093138     OpensslLib:v3_genn.obj
 0002:0001f688       GENERAL_NAME_it            0000000000093148     OpensslLib:v3_genn.obj
 0002:0001f6b8       OTHERNAME_it               0000000000093178     OpensslLib:v3_genn.obj
 0002:0001f790       GENERAL_NAMES_it           0000000000093250     OpensslLib:v3_genn.obj
 0002:0001f7c0       EDIPARTYNAME_it            0000000000093280     OpensslLib:v3_genn.obj
 0002:0001f910       ??_C@_0L@IMDPAGCM@ssl_client@ 00000000000933d0     OpensslLib:x509_vpm.obj
 0002:0001f920       ??_C@_0L@MDHNNNKP@ssl_server@ 00000000000933e0     OpensslLib:x509_vpm.obj
 0002:0001fb38       X509_PUBKEY_it             00000000000935f8     OpensslLib:x_pubkey.obj
 0002:0001fb68       ??_C@_05CJCEEADM@algor@    0000000000093628     OpensslLib:x_pubkey.obj
 0002:0001fb70       ??_C@_0L@PJCANJEE@public_key@ 0000000000093630     OpensslLib:x_pubkey.obj
 0002:0001fb80       ??_C@_0M@INJPOKDH@X509_PUBKEY@ 0000000000093640     OpensslLib:x_pubkey.obj
 0002:0001fc00       ??_C@_0L@JNOGJJCA@compatible@ 00000000000936c0     OpensslLib:x509_trs.obj
 0002:0001fc10       ??_C@_0L@HNMCLCCI@SSL?5Client@ 00000000000936d0     OpensslLib:x509_trs.obj
 0002:0001fc20       ??_C@_0L@DCIAGJKL@SSL?5Server@ 00000000000936e0     OpensslLib:x509_trs.obj
 0002:0001fc30       ??_C@_0N@OEEPKGPL@S?1MIME?5email@ 00000000000936f0     OpensslLib:x509_trs.obj
 0002:0001fc40       ??_C@_0O@EEPBMPKP@Object?5Signer@ 0000000000093700     OpensslLib:x509_trs.obj
 0002:0001fc50       ??_C@_0P@JHCOMJOI@OCSP?5responder@ 0000000000093710     OpensslLib:x509_trs.obj
 0002:0001fc60       ??_C@_0N@CAJJAOJD@OCSP?5request@ 0000000000093720     OpensslLib:x509_trs.obj
 0002:0001fc70       ??_C@_0L@CFEJKCOD@TSA?5server@ 0000000000093730     OpensslLib:x509_trs.obj
 0002:0001fc7c       ??_C@_04BHIIPFEC@base@     000000000009373c     OpensslLib:v3_ncons.obj
 0002:0001fc88       ??_C@_07CCOEHHFD@minimum@  0000000000093748     OpensslLib:v3_ncons.obj
 0002:0001fc90       ??_C@_07MEIENILC@maximum@  0000000000093750     OpensslLib:v3_ncons.obj
 0002:0001fc98       ??_C@_0BA@ECMIFHDE@GENERAL_SUBTREE@ 0000000000093758     OpensslLib:v3_ncons.obj
 0002:0001fca8       ??_C@_0BC@FACFJLFB@permittedSubtrees@ 0000000000093768     OpensslLib:v3_ncons.obj
 0002:0001fcc0       ??_C@_0BB@HLFEMJKE@excludedSubtrees@ 0000000000093780     OpensslLib:v3_ncons.obj
 0002:0001fcd8       ??_C@_0BB@MLLJAFMN@NAME_CONSTRAINTS@ 0000000000093798     OpensslLib:v3_ncons.obj
 0002:0001fcf0       ??_C@_09HAKFOFAM@permitted@ 00000000000937b0     OpensslLib:v3_ncons.obj
 0002:0001fd00       ??_C@_08HPCEJEEF@excluded@ 00000000000937c0     OpensslLib:v3_ncons.obj
 0002:0001fd10       ??_C@_09DPPIOGNM@Permitted@ 00000000000937d0     OpensslLib:v3_ncons.obj
 0002:0001fd20       ??_C@_08PNNFBGOG@Excluded@ 00000000000937e0     OpensslLib:v3_ncons.obj
 0002:0001fd30       ??_C@_07GOIIHCND@?$CF?$CKs?$CFs?3?6@ 00000000000937f0     OpensslLib:v3_ncons.obj
 0002:0001fd38       ??_C@_03HIJPJGOM@?$CF?$CKs@ 00000000000937f8     OpensslLib:v3_ncons.obj
 0002:0001fd3c       ??_C@_03HBLCMHJN@IP?3@     00000000000937fc     OpensslLib:v3_ncons.obj
 0002:0001fd40       ??_C@_01KMDKNFGN@?1@       0000000000093800     OpensslLib:v3_ncons.obj
 0002:0001fd90       v3_name_constraints        0000000000093850     OpensslLib:v3_ncons.obj
 0002:0001fdf8       NAME_CONSTRAINTS_it        00000000000938b8     OpensslLib:v3_ncons.obj
 0002:0001fe90       GENERAL_SUBTREE_it         0000000000093950     OpensslLib:v3_ncons.obj
 0002:0001ffc0       ??_C@_0BC@PEBEKNCO@ASN1_OCTET_STRING@ 0000000000093a80     OpensslLib:tasn_typ.obj
 0002:0001ffd8       ??_C@_0N@KIGEHGKE@ASN1_INTEGER@ 0000000000093a98     OpensslLib:tasn_typ.obj
 0002:0001ffe8       ??_C@_0BA@CLGIIAJD@ASN1_ENUMERATED@ 0000000000093aa8     OpensslLib:tasn_typ.obj
 0002:0001fff8       ??_C@_0BA@LJHGDIKH@ASN1_BIT_STRING@ 0000000000093ab8     OpensslLib:tasn_typ.obj
 0002:00020008       ??_C@_0BA@LEPDCAOC@ASN1_UTF8STRING@ 0000000000093ac8     OpensslLib:tasn_typ.obj
 0002:00020018       ??_C@_0BF@CPDMNKCA@ASN1_PRINTABLESTRING@ 0000000000093ad8     OpensslLib:tasn_typ.obj
 0002:00020030       ??_C@_0P@KBFNFBLB@ASN1_IA5STRING@ 0000000000093af0     OpensslLib:tasn_typ.obj
 0002:00020040       ??_C@_0BF@MPJFOIHC@ASN1_GENERALIZEDTIME@ 0000000000093b00     OpensslLib:tasn_typ.obj
 0002:00020058       ??_C@_09NHFFCPKK@ASN1_NULL@ 0000000000093b18     OpensslLib:tasn_typ.obj
 0002:00020068       ??_C@_0M@BJNOJGBL@ASN1_OBJECT@ 0000000000093b28     OpensslLib:tasn_typ.obj
 0002:00020078       ??_C@_08FIDCPDIJ@ASN1_ANY@ 0000000000093b38     OpensslLib:tasn_typ.obj
 0002:00020088       ??_C@_0O@NJFCFMGE@ASN1_SEQUENCE@ 0000000000093b48     OpensslLib:tasn_typ.obj
 0002:00020098       ??_C@_0P@NDKOCAEJ@ASN1_PRINTABLE@ 0000000000093b58     OpensslLib:tasn_typ.obj
 0002:000200a8       ??_C@_0M@FANFDIEE@DISPLAYTEXT@ 0000000000093b68     OpensslLib:tasn_typ.obj
 0002:000200b8       ??_C@_0BA@CBHCBCAE@DIRECTORYSTRING@ 0000000000093b78     OpensslLib:tasn_typ.obj
 0002:000200c8       ??_C@_0N@HMAPMMGF@ASN1_BOOLEAN@ 0000000000093b88     OpensslLib:tasn_typ.obj
 0002:000200d8       ??_C@_0O@JKANHMPI@ASN1_FBOOLEAN@ 0000000000093b98     OpensslLib:tasn_typ.obj
 0002:000200e8       ??_C@_0BH@HEBAELGA@ASN1_OCTET_STRING_NDEF@ 0000000000093ba8     OpensslLib:tasn_typ.obj
 0002:00020100       ??_C@_0BC@COPGMDLD@ASN1_SEQUENCE_ANY@ 0000000000093bc0     OpensslLib:tasn_typ.obj
 0002:00020118       ??_C@_0N@KHICOJGI@ASN1_SET_ANY@ 0000000000093bd8     OpensslLib:tasn_typ.obj
 0002:00020128       ASN1_NULL_it               0000000000093be8     OpensslLib:tasn_typ.obj
 0002:00020158       ASN1_SEQUENCE_ANY_it       0000000000093c18     OpensslLib:tasn_typ.obj
 0002:00020188       ASN1_ENUMERATED_it         0000000000093c48     OpensslLib:tasn_typ.obj
 0002:000201d8       ASN1_BOOLEAN_it            0000000000093c98     OpensslLib:tasn_typ.obj
 0002:00020208       ASN1_UTF8STRING_it         0000000000093cc8     OpensslLib:tasn_typ.obj
 0002:00020238       ASN1_GENERALIZEDTIME_it    0000000000093cf8     OpensslLib:tasn_typ.obj
 0002:00020268       ASN1_FBOOLEAN_it           0000000000093d28     OpensslLib:tasn_typ.obj
 0002:00020298       ASN1_SET_ANY_it            0000000000093d58     OpensslLib:tasn_typ.obj
 0002:000202e8       ASN1_PRINTABLESTRING_it    0000000000093da8     OpensslLib:tasn_typ.obj
 0002:00020318       DISPLAYTEXT_it             0000000000093dd8     OpensslLib:tasn_typ.obj
 0002:00020348       ASN1_BIT_STRING_it         0000000000093e08     OpensslLib:tasn_typ.obj
 0002:00020378       ASN1_INTEGER_it            0000000000093e38     OpensslLib:tasn_typ.obj
 0002:000203a8       ASN1_OBJECT_it             0000000000093e68     OpensslLib:tasn_typ.obj
 0002:000203d8       ASN1_PRINTABLE_it          0000000000093e98     OpensslLib:tasn_typ.obj
 0002:00020408       ASN1_OCTET_STRING_NDEF_it  0000000000093ec8     OpensslLib:tasn_typ.obj
 0002:00020438       ASN1_OCTET_STRING_it       0000000000093ef8     OpensslLib:tasn_typ.obj
 0002:00020468       ASN1_ANY_it                0000000000093f28     OpensslLib:tasn_typ.obj
 0002:00020498       ASN1_IA5STRING_it          0000000000093f58     OpensslLib:tasn_typ.obj
 0002:000204c8       DIRECTORYSTRING_it         0000000000093f88     OpensslLib:tasn_typ.obj
 0002:000204f8       ASN1_SEQUENCE_it           0000000000093fb8     OpensslLib:tasn_typ.obj
 0002:00020528       ??_C@_07NHKPEHKF@?0?5Type?$DN@ 0000000000093fe8     OpensslLib:tasn_dec.obj
 0002:00020530       ??_C@_06GPKHKFJE@Field?$DN@ 0000000000093ff0     OpensslLib:tasn_dec.obj
 0002:00020538       ??_C@_05GCCLHHOK@Type?$DN@ 0000000000093ff8     OpensslLib:tasn_dec.obj
 0002:000205c0       ??_C@_09DAGAJHIH@parameter@ 0000000000094080     OpensslLib:x_algor.obj
 0002:000205d0       ??_C@_0L@BFHONDPK@X509_ALGOR@ 0000000000094090     OpensslLib:x_algor.obj
 0002:00020620       X509_ALGOR_it              00000000000940e0     OpensslLib:x_algor.obj
 0002:00020650       ??_C@_08BMACPLOA@fullname@ 0000000000094110     OpensslLib:v3_crld.obj
 0002:00020660       ??_C@_0N@LGEOMMHB@relativename@ 0000000000094120     OpensslLib:v3_crld.obj
 0002:00020670       ??_C@_06CGLFEPBO@Unused@   0000000000094130     OpensslLib:v3_crld.obj
 0002:00020678       ??_C@_06OJAIHGIC@unused@   0000000000094138     OpensslLib:v3_crld.obj
 0002:00020680       ??_C@_0P@JENDIECI@Key?5Compromise@ 0000000000094140     OpensslLib:v3_crld.obj
 0002:00020690       ??_C@_0O@MCEAAJLH@keyCompromise@ 0000000000094150     OpensslLib:v3_crld.obj
 0002:000206a0       ??_C@_0O@OOGICOKH@CA?5Compromise@ 0000000000094160     OpensslLib:v3_crld.obj
 0002:000206b0       ??_C@_0N@NONEFGOE@CACompromise@ 0000000000094170     OpensslLib:v3_crld.obj
 0002:000206c0       ??_C@_0BE@EECEIFAP@Affiliation?5Changed@ 0000000000094180     OpensslLib:v3_crld.obj
 0002:000206d8       ??_C@_0BD@BNOFAJLL@affiliationChanged@ 0000000000094198     OpensslLib:v3_crld.obj
 0002:000206f0       ??_C@_0L@FBLGFHIM@Superseded@ 00000000000941b0     OpensslLib:v3_crld.obj
 0002:00020700       ??_C@_0L@NHCKNIFL@superseded@ 00000000000941c0     OpensslLib:v3_crld.obj
 0002:00020710       ??_C@_0BH@OLCOAMGF@Cessation?5Of?5Operation@ 00000000000941d0     OpensslLib:v3_crld.obj
 0002:00020728       ??_C@_0BF@IGJCOPF@cessationOfOperation@ 00000000000941e8     OpensslLib:v3_crld.obj
 0002:00020740       ??_C@_0BB@IPDHDNJD@Certificate?5Hold@ 0000000000094200     OpensslLib:v3_crld.obj
 0002:00020758       ??_C@_0BA@FBHLCNLK@certificateHold@ 0000000000094218     OpensslLib:v3_crld.obj
 0002:00020768       ??_C@_0BE@FJCCMGMM@Privilege?5Withdrawn@ 0000000000094228     OpensslLib:v3_crld.obj
 0002:00020780       ??_C@_0BD@PBLGJKCE@privilegeWithdrawn@ 0000000000094240     OpensslLib:v3_crld.obj
 0002:00020798       ??_C@_0O@PAGOKAK@AA?5Compromise@ 0000000000094258     OpensslLib:v3_crld.obj
 0002:000207a8       ??_C@_0N@LOIIODKP@AACompromise@ 0000000000094268     OpensslLib:v3_crld.obj
 0002:000207b8       ??_C@_08DGFAABGD@?$DMEMPTY?$DO?6@ 0000000000094278     OpensslLib:v3_crld.obj
 0002:000207c8       ??_C@_07PFOCLIJD@reasons@  0000000000094288     OpensslLib:v3_crld.obj
 0002:000207d0       ??_C@_09GJHADLCP@CRLissuer@ 0000000000094290     OpensslLib:v3_crld.obj
 0002:000207e0       ??_C@_0O@HJHJCLAE@name?4fullname@ 00000000000942a0     OpensslLib:v3_crld.obj
 0002:000207f0       ??_C@_0BC@JDMJBKME@name?4relativename@ 00000000000942b0     OpensslLib:v3_crld.obj
 0002:00020808       ??_C@_0BA@MLHIPLLG@DIST_POINT_NAME@ 00000000000942c8     OpensslLib:v3_crld.obj
 0002:00020818       ??_C@_09FBDFGJDL@distpoint@ 00000000000942d8     OpensslLib:v3_crld.obj
 0002:00020828       ??_C@_0L@ELIKPJIH@DIST_POINT@ 00000000000942e8     OpensslLib:v3_crld.obj
 0002:00020838       ??_C@_0BG@CHNNADAE@CRLDistributionPoints@ 00000000000942f8     OpensslLib:v3_crld.obj
 0002:00020850       ??_C@_0BA@BBHAIMOE@CRL_DIST_POINTS@ 0000000000094310     OpensslLib:v3_crld.obj
 0002:00020860       ??_C@_08CENLBPEH@onlyuser@ 0000000000094320     OpensslLib:v3_crld.obj
 0002:0002086c       ??_C@_06PMNIEKCA@onlyCA@   000000000009432c     OpensslLib:v3_crld.obj
 0002:00020878       ??_C@_0BA@FNMBIJDN@onlysomereasons@ 0000000000094338     OpensslLib:v3_crld.obj
 0002:00020888       ??_C@_0M@BECDICJC@indirectCRL@ 0000000000094348     OpensslLib:v3_crld.obj
 0002:00020898       ??_C@_08DBIINPPL@onlyattr@ 0000000000094358     OpensslLib:v3_crld.obj
 0002:000208a8       ??_C@_0BD@ENBCPHJ@ISSUING_DIST_POINT@ 0000000000094368     OpensslLib:v3_crld.obj
 0002:000208bc       ??_C@_06PPFMJOEO@onlyAA@   000000000009437c     OpensslLib:v3_crld.obj
 0002:000209b0       DIST_POINT_it              0000000000094470     OpensslLib:v3_crld.obj
 0002:000209e0       v3_crld                    00000000000944a0     OpensslLib:v3_crld.obj
 0002:00020a48       DIST_POINT_NAME_it         0000000000094508     OpensslLib:v3_crld.obj
 0002:00020b70       ISSUING_DIST_POINT_it      0000000000094630     OpensslLib:v3_crld.obj
 0002:00020ba0       v3_freshest_crl            0000000000094660     OpensslLib:v3_crld.obj
 0002:00020c50       v3_idp                     0000000000094710     OpensslLib:v3_crld.obj
 0002:00020d20       CRL_DIST_POINTS_it         00000000000947e0     OpensslLib:v3_crld.obj
 0002:00020d78       ??_C@_08CBBMEOFB@critical@ 0000000000094838     OpensslLib:x_exten.obj
 0002:00020d88       ??_C@_0P@OMHBNPIC@X509_EXTENSION@ 0000000000094848     OpensslLib:x_exten.obj
 0002:00020e00       X509_EXTENSION_it          00000000000948c0     OpensslLib:x_exten.obj
 0002:00020e30       ??_C@_05BMJJJIHB@trust@    00000000000948f0     OpensslLib:x_x509a.obj
 0002:00020e38       ??_C@_06JPOFNODM@reject@   00000000000948f8     OpensslLib:x_x509a.obj
 0002:00020e40       ??_C@_05NKHOCLEE@alias@    0000000000094900     OpensslLib:x_x509a.obj
 0002:00020e48       ??_C@_05CNHMOIOC@keyid@    0000000000094908     OpensslLib:x_x509a.obj
 0002:00020e50       ??_C@_05BGEKGIIP@other@    0000000000094910     OpensslLib:x_x509a.obj
 0002:00020e58       ??_C@_0O@LJIIOIG@X509_CERT_AUX@ 0000000000094918     OpensslLib:x_x509a.obj
 0002:00020f10       X509_CERT_AUX_it           00000000000949d0     OpensslLib:x_x509a.obj
 0002:00020f40       ??_C@_0BA@OPHCNPAP@AUTHORITY_KEYID@ 0000000000094a00     OpensslLib:v3_akeya.obj
 0002:00020f50       AUTHORITY_KEYID_it         0000000000094a10     OpensslLib:v3_akeya.obj
 0002:00020fe0       ??_C@_09MJPOMOII@notBefore@ 0000000000094aa0     OpensslLib:x_val.obj
 0002:00020ff0       ??_C@_08PJIFIJBI@notAfter@ 0000000000094ab0     OpensslLib:x_val.obj
 0002:00021000       ??_C@_08OPPGEJIL@X509_VAL@ 0000000000094ac0     OpensslLib:x_val.obj
 0002:00021050       X509_VAL_it                0000000000094b10     OpensslLib:x_val.obj
 0002:00021300       ??_C@_03KCHOJKKI@set@      0000000000094dc0     OpensslLib:x_attrib.obj
 0002:00021308       ??_C@_0P@IBKNNFL@X509_ATTRIBUTE@ 0000000000094dc8     OpensslLib:x_attrib.obj
 0002:00021360       X509_ATTRIBUTE_it          0000000000094e20     OpensslLib:x_attrib.obj
 0002:00021750       ??_C@_0N@MJCHLFGM@NO?5X509_NAME@ 0000000000095210     OpensslLib:x509_obj.obj
 0002:00021760       ??_C@_09OJNEAJGG@?$DMINVALID?$DO@ 0000000000095220     OpensslLib:a_object.obj
 0002:0002198c       ??_C@_01JOAMLHOP@?9@       000000000009544c     OpensslLib:asn1_par.obj
 0002:00021990       ??_C@_02PLJDPFIO@00@       0000000000095450     OpensslLib:asn1_par.obj
 0002:00021994       ??_C@_03NCODFONH@EOC@      0000000000095454     OpensslLib:asn1_par.obj
 0002:00021998       ??_C@_07JDEDMABE@BOOLEAN@  0000000000095458     OpensslLib:asn1_par.obj
 0002:000219a0       ??_C@_07EHCIHKNF@INTEGER@  0000000000095460     OpensslLib:asn1_par.obj
 0002:000219a8       ??_C@_0L@EKOKPLKE@BIT?5STRING@ 0000000000095468     OpensslLib:asn1_par.obj
 0002:000219b8       ??_C@_0N@KPGGMDFC@OCTET?5STRING@ 0000000000095478     OpensslLib:asn1_par.obj
 0002:000219c8       ??_C@_06IAMCMNFI@OBJECT@   0000000000095488     OpensslLib:asn1_par.obj
 0002:000219d0       ??_C@_0BC@HDOCNDIH@OBJECT?5DESCRIPTOR@ 0000000000095490     OpensslLib:asn1_par.obj
 0002:000219e8       ??_C@_08JHLDEHEK@EXTERNAL@ 00000000000954a8     OpensslLib:asn1_par.obj
 0002:000219f4       ??_C@_04PKFANLLI@REAL@     00000000000954b4     OpensslLib:asn1_par.obj
 0002:00021a00       ??_C@_0L@KNIEMAKM@ENUMERATED@ 00000000000954c0     OpensslLib:asn1_par.obj
 0002:00021a10       ??_C@_09EKNCOIGI@?$DMASN1?511?$DO@ 00000000000954d0     OpensslLib:asn1_par.obj
 0002:00021a20       ??_C@_0L@DCBPGANN@UTF8STRING@ 00000000000954e0     OpensslLib:asn1_par.obj
 0002:00021a30       ??_C@_09EJFGDMAG@?$DMASN1?513?$DO@ 00000000000954f0     OpensslLib:asn1_par.obj
 0002:00021a40       ??_C@_09EMBJCKID@?$DMASN1?514?$DO@ 0000000000095500     OpensslLib:asn1_par.obj
 0002:00021a50       ??_C@_09ENNLEALE@?$DMASN1?515?$DO@ 0000000000095510     OpensslLib:asn1_par.obj
 0002:00021a60       ??_C@_08POLPFBMC@SEQUENCE@ 0000000000095520     OpensslLib:asn1_par.obj
 0002:00021a6c       ??_C@_03KPIFFHNE@SET@      000000000009552c     OpensslLib:asn1_par.obj
 0002:00021a70       ??_C@_0O@DFADMOGA@NUMERICSTRING@ 0000000000095530     OpensslLib:asn1_par.obj
 0002:00021a80       ??_C@_0BA@FKHILLED@PRINTABLESTRING@ 0000000000095540     OpensslLib:asn1_par.obj
 0002:00021a90       ??_C@_09FMBHBANP@T61STRING@ 0000000000095550     OpensslLib:asn1_par.obj
 0002:00021aa0       ??_C@_0P@LNAMNBEL@VIDEOTEXSTRING@ 0000000000095560     OpensslLib:asn1_par.obj
 0002:00021ab0       ??_C@_09JOMPLKGB@IA5STRING@ 0000000000095570     OpensslLib:asn1_par.obj
 0002:00021ac0       ??_C@_07HIOLDDN@UTCTIME@   0000000000095580     OpensslLib:asn1_par.obj
 0002:00021ac8       ??_C@_0BA@LKNBIJBB@GENERALIZEDTIME@ 0000000000095588     OpensslLib:asn1_par.obj
 0002:00021ad8       ??_C@_0O@MABADFB@GRAPHICSTRING@ 0000000000095598     OpensslLib:asn1_par.obj
 0002:00021ae8       ??_C@_0O@KDAJCBO@VISIBLESTRING@ 00000000000955a8     OpensslLib:asn1_par.obj
 0002:00021af8       ??_C@_0O@DKDEPFLO@GENERALSTRING@ 00000000000955b8     OpensslLib:asn1_par.obj
 0002:00021b08       ??_C@_0BA@EJHHDALK@UNIVERSALSTRING@ 00000000000955c8     OpensslLib:asn1_par.obj
 0002:00021b18       ??_C@_09FGHEBGDO@?$DMASN1?529?$DO@ 00000000000955d8     OpensslLib:asn1_par.obj
 0002:00021b28       ??_C@_09BIBABMFN@BMPSTRING@ 00000000000955e8     OpensslLib:asn1_par.obj
 0002:00021b38       ??_C@_09GPGAJHPD@?$CIunknown?$CJ@ 00000000000955f8     OpensslLib:asn1_par.obj
 0002:00021c48       ??_C@_08JJBFGKFE@minsize?$DN@ 0000000000095708     OpensslLib:a_mbstr.obj
 0002:00021c58       ??_C@_08EOPONIBF@maxsize?$DN@ 0000000000095718     OpensslLib:a_mbstr.obj
 0002:00021c64       ??_C@_06CHOIGJDB@BIGNUM@   0000000000095724     OpensslLib:x_bignum.obj
 0002:00021c70       ??_C@_07HILEKMCI@CBIGNUM@  0000000000095730     OpensslLib:x_bignum.obj
 0002:00021c78       BIGNUM_it                  0000000000095738     OpensslLib:x_bignum.obj
 0002:00021ca8       CBIGNUM_it                 0000000000095768     OpensslLib:x_bignum.obj
 0002:00021cd8       ??_C@_03PMGGPEJJ@?$CFd?6@  0000000000095798     OpensslLib:x_int64.obj
 0002:00021cdc       ??_C@_03OBICDNNO@?$CFu?6@  000000000009579c     OpensslLib:x_int64.obj
 0002:00021ce0       ??_C@_05OJLHEJN@INT32@     00000000000957a0     OpensslLib:x_int64.obj
 0002:00021ce8       ??_C@_06KFJALMLJ@ZINT32@   00000000000957a8     OpensslLib:x_int64.obj
 0002:00021cf0       ZINT32_it                  00000000000957b0     OpensslLib:x_int64.obj
 0002:00021d20       INT32_it                   00000000000957e0     OpensslLib:x_int64.obj
 0002:00021d50       ??_C@_02DKCKIIND@?$CFs@    0000000000095810     OpensslLib:asn_mime.obj
 0002:00021d54       ??_C@_02MFDMBIJM@ok@       0000000000095814     OpensslLib:x509_txt.obj
 0002:00021d58       ??_C@_0CL@ICDMHEOH@unspecified?5certificate?5verific@ 0000000000095818     OpensslLib:x509_txt.obj
 0002:00021d88       ??_C@_0CB@KFJODNFN@unable?5to?5get?5issuer?5certificat@ 0000000000095848     OpensslLib:x509_txt.obj
 0002:00021db0       ??_C@_0BO@CIOBDJGN@unable?5to?5get?5certificate?5CRL@ 0000000000095870     OpensslLib:x509_txt.obj
 0002:00021dd0       ??_C@_0CK@LBDBBNHI@unable?5to?5decrypt?5certificate?8s@ 0000000000095890     OpensslLib:x509_txt.obj
 0002:00021e00       ??_C@_0CC@KFEPDDPF@unable?5to?5decrypt?5CRL?8s?5signatu@ 00000000000958c0     OpensslLib:x509_txt.obj
 0002:00021e28       ??_C@_0CD@KOEKDJOF@unable?5to?5decode?5issuer?5public?5@ 00000000000958e8     OpensslLib:x509_txt.obj
 0002:00021e50       ??_C@_0BO@FPBBKLNG@certificate?5signature?5failure@ 0000000000095910     OpensslLib:x509_txt.obj
 0002:00021e70       ??_C@_0BG@PKEGLGEB@CRL?5signature?5failure@ 0000000000095930     OpensslLib:x509_txt.obj
 0002:00021e88       ??_C@_0BN@JFLHFAGA@certificate?5is?5not?5yet?5valid@ 0000000000095948     OpensslLib:x509_txt.obj
 0002:00021ea8       ??_C@_0BI@HHICNLNC@certificate?5has?5expired@ 0000000000095968     OpensslLib:x509_txt.obj
 0002:00021ec0       ??_C@_0BF@MIBPKMEH@CRL?5is?5not?5yet?5valid@ 0000000000095980     OpensslLib:x509_txt.obj
 0002:00021ed8       ??_C@_0BA@JMGDIGAP@CRL?5has?5expired@ 0000000000095998     OpensslLib:x509_txt.obj
 0002:00021ee8       ??_C@_0CO@BGGBNHHG@format?5error?5in?5certificate?8s?5n@ 00000000000959a8     OpensslLib:x509_txt.obj
 0002:00021f18       ??_C@_0CN@NPHCNDGF@format?5error?5in?5certificate?8s?5n@ 00000000000959d8     OpensslLib:x509_txt.obj
 0002:00021f48       ??_C@_0CH@OEGANADM@format?5error?5in?5CRL?8s?5lastUpdat@ 0000000000095a08     OpensslLib:x509_txt.obj
 0002:00021f70       ??_C@_0CH@DKJJKKIC@format?5error?5in?5CRL?8s?5nextUpdat@ 0000000000095a30     OpensslLib:x509_txt.obj
 0002:00021f98       ??_C@_0O@BNNCBLEN@out?5of?5memory@ 0000000000095a58     OpensslLib:x509_txt.obj
 0002:00021fa8       ??_C@_0BI@PBDHIKFI@self?5signed?5certificate@ 0000000000095a68     OpensslLib:x509_txt.obj
 0002:00021fc0       ??_C@_0CN@GCPAFAGL@self?5signed?5certificate?5in?5cert@ 0000000000095a80     OpensslLib:x509_txt.obj
 0002:00021ff0       ??_C@_0CH@NBHLNPJC@unable?5to?5get?5local?5issuer?5cert@ 0000000000095ab0     OpensslLib:x509_txt.obj
 0002:00022018       ??_C@_0CH@PCOLJJF@unable?5to?5verify?5the?5first?5cert@ 0000000000095ad8     OpensslLib:x509_txt.obj
 0002:00022040       ??_C@_0BL@JGHJBAMD@certificate?5chain?5too?5long@ 0000000000095b00     OpensslLib:x509_txt.obj
 0002:00022060       ??_C@_0BE@PBLGGMOB@certificate?5revoked@ 0000000000095b20     OpensslLib:x509_txt.obj
 0002:00022078       ??_C@_0BH@EKEBOKH@invalid?5CA?5certificate@ 0000000000095b38     OpensslLib:x509_txt.obj
 0002:00022090       ??_C@_0CA@LLGONKGK@path?5length?5constraint?5exceeded@ 0000000000095b50     OpensslLib:x509_txt.obj
 0002:000220b0       ??_C@_0CA@LPAJAMFA@unsupported?5certificate?5purpose@ 0000000000095b70     OpensslLib:x509_txt.obj
 0002:000220d0       ??_C@_0BI@GDICGBPK@certificate?5not?5trusted@ 0000000000095b90     OpensslLib:x509_txt.obj
 0002:000220e8       ??_C@_0BF@OJPAOPB@certificate?5rejected@ 0000000000095ba8     OpensslLib:x509_txt.obj
 0002:00022100       ??_C@_0BI@OHGOAFON@subject?5issuer?5mismatch@ 0000000000095bc0     OpensslLib:x509_txt.obj
 0002:00022118       ??_C@_0CO@HGJKNPBG@authority?5and?5subject?5key?5ident@ 0000000000095bd8     OpensslLib:x509_txt.obj
 0002:00022148       ??_C@_0CM@GGIKLLEP@authority?5and?5issuer?5serial?5num@ 0000000000095c08     OpensslLib:x509_txt.obj
 0002:00022178       ??_C@_0CP@EEPOGHPG@key?5usage?5does?5not?5include?5cert@ 0000000000095c38     OpensslLib:x509_txt.obj
 0002:000221a8       ??_C@_0CF@OOPBMEA@unable?5to?5get?5CRL?5issuer?5certif@ 0000000000095c68     OpensslLib:x509_txt.obj
 0002:000221d0       ??_C@_0BN@DHGAFJG@unhandled?5critical?5extension@ 0000000000095c90     OpensslLib:x509_txt.obj
 0002:000221f0       ??_C@_0CH@JKPBLJBP@key?5usage?5does?5not?5include?5CRL?5@ 0000000000095cb0     OpensslLib:x509_txt.obj
 0002:00022218       ??_C@_0CB@OODOOIP@unhandled?5critical?5CRL?5extensio@ 0000000000095cd8     OpensslLib:x509_txt.obj
 0002:00022240       ??_C@_0CN@GNFODAID@invalid?5non?9CA?5certificate?5?$CIhas@ 0000000000095d00     OpensslLib:x509_txt.obj
 0002:00022270       ??_C@_0CG@BIOFEFIK@proxy?5path?5length?5constraint?5ex@ 0000000000095d30     OpensslLib:x509_txt.obj
 0002:00022298       ??_C@_0CN@HJJGOKEM@key?5usage?5does?5not?5include?5digi@ 0000000000095d58     OpensslLib:x509_txt.obj
 0002:000222d0       ??_C@_0EA@EILBDOFP@proxy?5certificates?5not?5allowed?0@ 0000000000095d90     OpensslLib:x509_txt.obj
 0002:00022310       ??_C@_0CO@BIBMOLPK@invalid?5or?5inconsistent?5certifi@ 0000000000095dd0     OpensslLib:x509_txt.obj
 0002:00022340       ??_C@_0DF@JOCKIEDN@invalid?5or?5inconsistent?5certifi@ 0000000000095e00     OpensslLib:x509_txt.obj
 0002:00022378       ??_C@_0BD@KPLGPDJA@no?5explicit?5policy@ 0000000000095e38     OpensslLib:x509_txt.obj
 0002:00022390       ??_C@_0BE@FHFDNMCN@Different?5CRL?5scope@ 0000000000095e50     OpensslLib:x509_txt.obj
 0002:000223a8       ??_C@_0BO@CHPDNLHA@Unsupported?5extension?5feature@ 0000000000095e68     OpensslLib:x509_txt.obj
 0002:000223c8       ??_C@_0DD@IBFFGHC@RFC?53779?5resource?5not?5subset?5of@ 0000000000095e88     OpensslLib:x509_txt.obj
 0002:00022400       ??_C@_0BM@OAJDKGDI@permitted?5subtree?5violation@ 0000000000095ec0     OpensslLib:x509_txt.obj
 0002:00022420       ??_C@_0BL@OHBCHEHN@excluded?5subtree?5violation@ 0000000000095ee0     OpensslLib:x509_txt.obj
 0002:00022440       ??_C@_0DD@KOHKHENH@name?5constraints?5minimum?5and?5ma@ 0000000000095f00     OpensslLib:x509_txt.obj
 0002:00022478       ??_C@_0CB@HLIFGCCB@application?5verification?5failur@ 0000000000095f38     OpensslLib:x509_txt.obj
 0002:000224a0       ??_C@_0CB@NJIFBAAK@unsupported?5name?5constraint?5typ@ 0000000000095f60     OpensslLib:x509_txt.obj
 0002:000224c8       ??_C@_0CO@MKOFKAHI@unsupported?5or?5invalid?5name?5con@ 0000000000095f88     OpensslLib:x509_txt.obj
 0002:000224f8       ??_C@_0CD@FOPJHCDH@unsupported?5or?5invalid?5name?5syn@ 0000000000095fb8     OpensslLib:x509_txt.obj
 0002:00022520       ??_C@_0BK@IBKFOKDF@CRL?5path?5validation?5error@ 0000000000095fe0     OpensslLib:x509_txt.obj
 0002:00022540       ??_C@_09OLGELLAO@Path?5Loop@ 0000000000096000     OpensslLib:x509_txt.obj
 0002:00022550       ??_C@_0CF@FOANFLBA@Suite?5B?3?5certificate?5version?5in@ 0000000000096010     OpensslLib:x509_txt.obj
 0002:00022578       ??_C@_0CG@BICIPKHE@Suite?5B?3?5invalid?5public?5key?5alg@ 0000000000096038     OpensslLib:x509_txt.obj
 0002:000225a0       ??_C@_0BL@FMOLHBNA@Suite?5B?3?5invalid?5ECC?5curve@ 0000000000096060     OpensslLib:x509_txt.obj
 0002:000225c0       ??_C@_0CF@HDBBCDPB@Suite?5B?3?5invalid?5signature?5algo@ 0000000000096080     OpensslLib:x509_txt.obj
 0002:000225e8       ??_C@_0CI@KACFGKAG@Suite?5B?3?5curve?5not?5allowed?5for?5@ 00000000000960a8     OpensslLib:x509_txt.obj
 0002:00022610       ??_C@_0CG@KNKODCDA@Suite?5B?3?5cannot?5sign?5P?9384?5with@ 00000000000960d0     OpensslLib:x509_txt.obj
 0002:00022638       ??_C@_0BC@BKAJEJKO@Hostname?5mismatch@ 00000000000960f8     OpensslLib:x509_txt.obj
 0002:00022650       ??_C@_0BH@EANENMMC@Email?5address?5mismatch@ 0000000000096110     OpensslLib:x509_txt.obj
 0002:00022668       ??_C@_0BE@CAFPLHHN@IP?5address?5mismatch@ 0000000000096128     OpensslLib:x509_txt.obj
 0002:00022680       ??_C@_0BO@OPFDPPAC@No?5matching?5DANE?5TLSA?5records@ 0000000000096140     OpensslLib:x509_txt.obj
 0002:000226a0       ??_C@_0BM@CJPGEEIN@EE?5certificate?5key?5too?5weak@ 0000000000096160     OpensslLib:x509_txt.obj
 0002:000226c0       ??_C@_0BM@ENALCBIG@CA?5certificate?5key?5too?5weak@ 0000000000096180     OpensslLib:x509_txt.obj
 0002:000226e0       ??_C@_0CH@LKAOFJGJ@CA?5signature?5digest?5algorithm?5t@ 00000000000961a0     OpensslLib:x509_txt.obj
 0002:00022708       ??_C@_0CJ@LGEOKENH@Invalid?5certificate?5verificatio@ 00000000000961c8     OpensslLib:x509_txt.obj
 0002:00022738       ??_C@_0CA@IHGNDGJI@Issuer?5certificate?5lookup?5error@ 00000000000961f8     OpensslLib:x509_txt.obj
 0002:00022758       ??_C@_0DL@IEHGPPOE@Certificate?5Transparency?5requir@ 0000000000096218     OpensslLib:x509_txt.obj
 0002:00022798       ??_C@_0BN@MGIIDFLE@proxy?5subject?5name?5violation@ 0000000000096258     OpensslLib:x509_txt.obj
 0002:000227b8       ??_C@_0BJ@GCKALNFK@OCSP?5verification?5needed@ 0000000000096278     OpensslLib:x509_txt.obj
 0002:000227d8       ??_C@_0BJ@MKJKHEMF@OCSP?5verification?5failed@ 0000000000096298     OpensslLib:x509_txt.obj
 0002:000227f8       ??_C@_0BC@JFODIBJK@OCSP?5unknown?5cert@ 00000000000962b8     OpensslLib:x509_txt.obj
 0002:00022810       ??_C@_0DD@FBNJLBKB@Certificate?5public?5key?5has?5expl@ 00000000000962d0     OpensslLib:x509_txt.obj
 0002:00022848       ??_C@_0CH@MPONIKPM@unknown?5certificate?5verificatio@ 0000000000096308     OpensslLib:x509_txt.obj
 0002:00022870       ??_C@_08DFMPDBMK@X509_SIG@ 0000000000096330     OpensslLib:x_sig.obj
 0002:00022880       X509_SIG_it                0000000000096340     OpensslLib:x_sig.obj
 0002:000228f0       ??_C@_02ICGBAFJO@k1@       00000000000963b0     OpensslLib:ec_asn1.obj
 0002:000228f4       ??_C@_02KJEMFGFN@k2@       00000000000963b4     OpensslLib:ec_asn1.obj
 0002:000228f8       ??_C@_02LAFHGHBM@k3@       00000000000963b8     OpensslLib:ec_asn1.obj
 0002:00022900       ??_C@_0BC@NPDMPFCL@X9_62_PENTANOMIAL@ 00000000000963c0     OpensslLib:ec_asn1.obj
 0002:00022918       ??_C@_07PBHIMFBE@p?4other@ 00000000000963d8     OpensslLib:ec_asn1.obj
 0002:00022920       ??_C@_09KOBBOOPN@p?4onBasis@ 00000000000963e0     OpensslLib:ec_asn1.obj
 0002:00022930       ??_C@_09LICBCEBD@p?4tpBasis@ 00000000000963f0     OpensslLib:ec_asn1.obj
 0002:00022940       ??_C@_09DMGLCKOJ@p?4ppBasis@ 0000000000096400     OpensslLib:ec_asn1.obj
 0002:0002294c       ??_C@_01GOHFPIOK@m@        000000000009640c     OpensslLib:ec_asn1.obj
 0002:00022950       ??_C@_0BJ@CCODLOLO@X9_62_CHARACTERISTIC_TWO@ 0000000000096410     OpensslLib:ec_asn1.obj
 0002:00022970       ??_C@_07DPJEDCLB@p?4prime@ 0000000000096430     OpensslLib:ec_asn1.obj
 0002:00022978       ??_C@_0L@NLMAKEBL@p?4char_two@ 0000000000096438     OpensslLib:ec_asn1.obj
 0002:00022988       ??_C@_09OAOLGAOM@fieldType@ 0000000000096448     OpensslLib:ec_asn1.obj
 0002:00022998       ??_C@_0O@PGPIAKKH@X9_62_FIELDID@ 0000000000096458     OpensslLib:ec_asn1.obj
 0002:000229a8       ??_C@_01MCMALHOG@a@        0000000000096468     OpensslLib:ec_asn1.obj
 0002:000229ac       ??_C@_01OJONOECF@b@        000000000009646c     OpensslLib:ec_asn1.obj
 0002:000229b0       ??_C@_04MENKDCKE@seed@     0000000000096470     OpensslLib:ec_asn1.obj
 0002:000229b8       ??_C@_0M@BHDPNPCK@X9_62_CURVE@ 0000000000096478     OpensslLib:ec_asn1.obj
 0002:000229c8       ??_C@_07MJJGNICD@fieldID@  0000000000096488     OpensslLib:ec_asn1.obj
 0002:000229d0       ??_C@_05HIKPKPAA@curve@    0000000000096490     OpensslLib:ec_asn1.obj
 0002:000229d8       ??_C@_05NDNMCCJH@order@    0000000000096498     OpensslLib:ec_asn1.obj
 0002:000229e0       ??_C@_08DKFAOMDI@cofactor@ 00000000000964a0     OpensslLib:ec_asn1.obj
 0002:000229f0       ??_C@_0N@ECDPFONH@ECPARAMETERS@ 00000000000964b0     OpensslLib:ec_asn1.obj
 0002:00022a00       ??_C@_0BC@JEJHGDNN@value?4named_curve@ 00000000000964c0     OpensslLib:ec_asn1.obj
 0002:00022a18       ??_C@_0BB@KOECJJJ@value?4parameters@ 00000000000964d8     OpensslLib:ec_asn1.obj
 0002:00022a30       ??_C@_0BD@HOIIAPI@value?4implicitlyCA@ 00000000000964f0     OpensslLib:ec_asn1.obj
 0002:00022a48       ??_C@_0P@PBBIGPFJ@ECPKPARAMETERS@ 0000000000096508     OpensslLib:ec_asn1.obj
 0002:00022a58       ??_C@_0L@BCENACFO@privateKey@ 0000000000096518     OpensslLib:ec_asn1.obj
 0002:00022a68       ??_C@_0L@HHPOFMCB@parameters@ 0000000000096528     OpensslLib:ec_asn1.obj
 0002:00022a78       ??_C@_09IDENFCJL@publicKey@ 0000000000096538     OpensslLib:ec_asn1.obj
 0002:00022a88       ??_C@_0O@DFJMHGOP@EC_PRIVATEKEY@ 0000000000096548     OpensslLib:ec_asn1.obj
 0002:00022a98       ??_C@_01LKDEMHDF@s@        0000000000096558     OpensslLib:ec_asn1.obj
 0002:00022aa0       ??_C@_09FLJPBFIA@ECDSA_SIG@ 0000000000096560     OpensslLib:ec_asn1.obj
 0002:00022ab0       ECPARAMETERS_it            0000000000096570     OpensslLib:ec_asn1.obj
 0002:00022e50       ECPKPARAMETERS_it          0000000000096910     OpensslLib:ec_asn1.obj
 0002:000230e0       ??_C@_01GBGANLPD@0@        0000000000096ba0     OpensslLib:bn_print.obj
 0002:000230e4       ??_C@_04FCIJFPNK@?$CFllu@  0000000000096ba4     OpensslLib:bn_print.obj
 0002:000230f0       ??_C@_07ICEKBAEF@?$CF019llu@ 0000000000096bb0     OpensslLib:bn_print.obj
 0002:00023118       ??_C@_0BD@LDHEJACI@OpenSSL?5PKCS?$CD1?5RSA@ 0000000000096bd8     OpensslLib:rsa_ossl.obj
 0002:0002312c       ??_C@_06GABBCIBA@method@   0000000000096bec     OpensslLib:v3_info.obj
 0002:00023138       ??_C@_08CBBFJFMD@location@ 0000000000096bf8     OpensslLib:v3_info.obj
 0002:00023148       ??_C@_0BD@IKHCEBLA@ACCESS_DESCRIPTION@ 0000000000096c08     OpensslLib:v3_info.obj
 0002:00023160       ??_C@_0BG@PFEKCAHJ@AUTHORITY_INFO_ACCESS@ 0000000000096c20     OpensslLib:v3_info.obj
 0002:00023178       ??_C@_07FCJAGJJB@?$CFs?5?9?5?$CFs@ 0000000000096c38     OpensslLib:v3_info.obj
 0002:00023180       ??_C@_06KFEJCPI@value?$DN@ 0000000000096c40     OpensslLib:v3_info.obj
 0002:00023188       AUTHORITY_INFO_ACCESS_it   0000000000096c48     OpensslLib:v3_info.obj
 0002:000231b8       ACCESS_DESCRIPTION_it      0000000000096c78     OpensslLib:v3_info.obj
 0002:00023230       v3_sinfo                   0000000000096cf0     OpensslLib:v3_info.obj
 0002:000232a0       v3_info                    0000000000096d60     OpensslLib:v3_info.obj
 0002:00023328       ??_C@_08OMICEKMJ@?0?5value?$DN@ 0000000000096de8     OpensslLib:conf_mod.obj
 0002:00023338       ??_C@_0P@BLMEJDMO@policyLanguage@ 0000000000096df8     OpensslLib:v3_pcia.obj
 0002:00023348       ??_C@_06NJNJNICG@policy@   0000000000096e08     OpensslLib:v3_pcia.obj
 0002:00023350       ??_C@_0N@CLKEFBDI@PROXY_POLICY@ 0000000000096e10     OpensslLib:v3_pcia.obj
 0002:00023360       ??_C@_0BH@JBGKCLHC@pcPathLengthConstraint@ 0000000000096e20     OpensslLib:v3_pcia.obj
 0002:00023378       ??_C@_0M@KKFBCGOG@proxyPolicy@ 0000000000096e38     OpensslLib:v3_pcia.obj
 0002:00023388       ??_C@_0BK@PILNOGHK@PROXY_CERT_INFO_EXTENSION@ 0000000000096e48     OpensslLib:v3_pcia.obj
 0002:000233f0       PROXY_CERT_INFO_EXTENSION_it 0000000000096eb0     OpensslLib:v3_pcia.obj
 0002:00023460       PROXY_POLICY_it            0000000000096f20     OpensslLib:v3_pcia.obj
 0002:00023490       v3_bcons                   0000000000096f50     OpensslLib:v3_bcons.obj
 0002:000234f8       ??_C@_02DGMJAJHC@ca@       0000000000096fb8     OpensslLib:v3_bcons.obj
 0002:00023500       ??_C@_07OGCPICFF@pathlen@  0000000000096fc0     OpensslLib:v3_bcons.obj
 0002:00023508       ??_C@_0BC@PKPCGCD@BASIC_CONSTRAINTS@ 0000000000096fc8     OpensslLib:v3_bcons.obj
 0002:0002351c       ??_C@_02JLAAGLDA@CA@       0000000000096fdc     OpensslLib:v3_bcons.obj
 0002:00023560       BASIC_CONSTRAINTS_it       0000000000097020     OpensslLib:v3_bcons.obj
 0002:00023590       v3_alt                     0000000000097050     OpensslLib:v3_alt.obj
 0002:000236c8       ??_C@_0O@NHCJKCDC@?$DMunsupported?$DO@ 0000000000097188     OpensslLib:v3_alt.obj
 0002:000236d8       ??_C@_09PAKBLAPA@othername@ 0000000000097198     OpensslLib:v3_alt.obj
 0002:000236e8       ??_C@_08EBDOEGJI@X400Name@ 00000000000971a8     OpensslLib:v3_alt.obj
 0002:000236f8       ??_C@_0N@EEELPIKD@EdiPartyName@ 00000000000971b8     OpensslLib:v3_alt.obj
 0002:00023708       ??_C@_05HKHCDHCL@email@    00000000000971c8     OpensslLib:v3_alt.obj
 0002:00023710       ??_C@_03CBFPEBNE@DNS@      00000000000971d0     OpensslLib:v3_alt.obj
 0002:00023714       ??_C@_03GMOLNBOB@URI@      00000000000971d4     OpensslLib:v3_alt.obj
 0002:00023718       ??_C@_07FDBCPIKC@DirName@  00000000000971d8     OpensslLib:v3_alt.obj
 0002:00023720       ??_C@_09DPMBDOD@?$DMinvalid?$DO@ 00000000000971e0     OpensslLib:v3_alt.obj
 0002:00023730       ??_C@_0L@NGHMMCPJ@IP?5Address@ 00000000000971f0     OpensslLib:v3_alt.obj
 0002:00023740       ??_C@_0O@KAIENCPE@Registered?5ID@ 0000000000097200     OpensslLib:v3_alt.obj
 0002:00023750       ??_C@_04COAGEIMF@copy@     0000000000097210     OpensslLib:v3_alt.obj
 0002:00023758       ??_C@_04HDMMNHEL@move@     0000000000097218     OpensslLib:v3_alt.obj
 0002:00023760       ??_C@_03FEOBNLIE@RID@      0000000000097220     OpensslLib:v3_alt.obj
 0002:00023764       ??_C@_02MFEOMNPG@IP@       0000000000097224     OpensslLib:v3_alt.obj
 0002:00023768       ??_C@_07KKGEJKPE@dirName@  0000000000097228     OpensslLib:v3_alt.obj
 0002:00023770       ??_C@_09DBGAJPPE@otherName@ 0000000000097230     OpensslLib:v3_alt.obj
 0002:00023780       ??_C@_08LNPIPPMM@section?$DN@ 0000000000097240     OpensslLib:v3_alt.obj
 0002:00023790       ??_C@_0CL@JMAEHKDJ@SECG?1WTLS?5curve?5over?5a?5112?5bit?5@ 0000000000097250     OpensslLib:ec_curve.obj
 0002:000237c0       ??_C@_0CG@IMPBFOOG@SECG?5curve?5over?5a?5112?5bit?5prime@ 0000000000097280     OpensslLib:ec_curve.obj
 0002:000237e8       ??_C@_0CG@DNCCBNMA@SECG?5curve?5over?5a?5128?5bit?5prime@ 00000000000972a8     OpensslLib:ec_curve.obj
 0002:00023810       ??_C@_0CG@MDBLLOCO@SECG?5curve?5over?5a?5160?5bit?5prime@ 00000000000972d0     OpensslLib:ec_curve.obj
 0002:00023838       ??_C@_0CL@NDOOJKPB@SECG?1WTLS?5curve?5over?5a?5160?5bit?5@ 00000000000972f8     OpensslLib:ec_curve.obj
 0002:00023868       ??_C@_0CG@IFFAEDGD@SECG?5curve?5over?5a?5192?5bit?5prime@ 0000000000097328     OpensslLib:ec_curve.obj
 0002:00023890       ??_C@_0CG@IOHCCJAA@SECG?5curve?5over?5a?5224?5bit?5prime@ 0000000000097350     OpensslLib:ec_curve.obj
 0002:000238b8       ??_C@_0CL@NHPHHEEB@NIST?1SECG?5curve?5over?5a?5224?5bit?5@ 0000000000097378     OpensslLib:ec_curve.obj
 0002:000238e8       ??_C@_0CG@MBJIMJMI@SECG?5curve?5over?5a?5256?5bit?5prime@ 00000000000973a8     OpensslLib:ec_curve.obj
 0002:00023910       ??_C@_0CL@MPIFFEHD@NIST?1SECG?5curve?5over?5a?5384?5bit?5@ 00000000000973d0     OpensslLib:ec_curve.obj
 0002:00023940       ??_C@_0CL@NCEJLDDF@NIST?1SECG?5curve?5over?5a?5521?5bit?5@ 0000000000097400     OpensslLib:ec_curve.obj
 0002:00023970       ??_C@_0DB@HJIMEGJL@NIST?1X9?462?1SECG?5curve?5over?5a?519@ 0000000000097430     OpensslLib:ec_curve.obj
 0002:000239a8       ??_C@_0CH@BHJCBJE@X9?462?5curve?5over?5a?5192?5bit?5prim@ 0000000000097468     OpensslLib:ec_curve.obj
 0002:000239d0       ??_C@_0CH@COBCAEEE@X9?462?5curve?5over?5a?5239?5bit?5prim@ 0000000000097490     OpensslLib:ec_curve.obj
 0002:000239f8       ??_C@_0CM@IACJENLF@X9?462?1SECG?5curve?5over?5a?5256?5bit@ 00000000000974b8     OpensslLib:ec_curve.obj
 0002:00023a28       ??_C@_0CG@NOPNGNKB@WTLS?5curve?5over?5a?5112?5bit?5prime@ 00000000000974e8     OpensslLib:ec_curve.obj
 0002:00023a50       ??_C@_0CG@JBBHINGJ@WTLS?5curve?5over?5a?5160?5bit?5prime@ 0000000000097510     OpensslLib:ec_curve.obj
 0002:00023a78       ??_C@_0CG@NMHOBKEH@WTLS?5curve?5over?5a?5224?5bit?5prime@ 0000000000097538     OpensslLib:ec_curve.obj
 0002:00023aa0       ??_C@_0CK@DKPAAAHG@RFC?55639?5curve?5over?5a?5160?5bit?5p@ 0000000000097560     OpensslLib:ec_curve.obj
 0002:00023ad0       ??_C@_0CK@HMLLPNDL@RFC?55639?5curve?5over?5a?5192?5bit?5p@ 0000000000097590     OpensslLib:ec_curve.obj
 0002:00023b00       ??_C@_0CK@HHJJJHFI@RFC?55639?5curve?5over?5a?5224?5bit?5p@ 00000000000975c0     OpensslLib:ec_curve.obj
 0002:00023b30       ??_C@_0CK@DIHDHHJA@RFC?55639?5curve?5over?5a?5256?5bit?5p@ 00000000000975f0     OpensslLib:ec_curve.obj
 0002:00023b60       ??_C@_0CK@BJFGHLBI@RFC?55639?5curve?5over?5a?5320?5bit?5p@ 0000000000097620     OpensslLib:ec_curve.obj
 0002:00023b90       ??_C@_0CK@GPOLLHGK@RFC?55639?5curve?5over?5a?5384?5bit?5p@ 0000000000097650     OpensslLib:ec_curve.obj
 0002:00023bc0       ??_C@_0CK@DLPHALOH@RFC?55639?5curve?5over?5a?5512?5bit?5p@ 0000000000097680     OpensslLib:ec_curve.obj
 0002:00023bf0       ??_C@_0CF@CCLOOCBH@SM2?5curve?5over?5a?5256?5bit?5prime?5@ 00000000000976b0     OpensslLib:ec_curve.obj
 0002:00023c18       ??_C@_05KJOGHNFI@B?9163@   00000000000976d8     OpensslLib:ec_curve.obj
 0002:00023c20       ??_C@_05LNJIBAFN@B?9233@   00000000000976e0     OpensslLib:ec_curve.obj
 0002:00023c28       ??_C@_05LBMNPPLM@B?9283@   00000000000976e8     OpensslLib:ec_curve.obj
 0002:00023c30       ??_C@_05GAFKBJFC@B?9409@   00000000000976f0     OpensslLib:ec_curve.obj
 0002:00023c38       ??_C@_05BFHAOCLK@B?9571@   00000000000976f8     OpensslLib:ec_curve.obj
 0002:00023c40       ??_C@_05IOOJCMJA@K?9163@   0000000000097700     OpensslLib:ec_curve.obj
 0002:00023c48       ??_C@_05JKJHEBJF@K?9233@   0000000000097708     OpensslLib:ec_curve.obj
 0002:00023c50       ??_C@_05JGMCKOHE@K?9283@   0000000000097710     OpensslLib:ec_curve.obj
 0002:00023c58       ??_C@_05EHFFEIJK@K?9409@   0000000000097718     OpensslLib:ec_curve.obj
 0002:00023c60       ??_C@_05DCHPLDHC@K?9571@   0000000000097720     OpensslLib:ec_curve.obj
 0002:00023c68       ??_C@_05PFLPKILE@P?9192@   0000000000097728     OpensslLib:ec_curve.obj
 0002:00023c70       ??_C@_05LNAFEPDN@P?9224@   0000000000097730     OpensslLib:ec_curve.obj
 0002:00023c78       ??_C@_05IKHMDLDK@P?9256@   0000000000097738     OpensslLib:ec_curve.obj
 0002:00023c80       ??_C@_05ICOKNIO@P?9384@    0000000000097740     OpensslLib:ec_curve.obj
 0002:00023c88       ??_C@_05FNKFIDMB@P?9521@   0000000000097748     OpensslLib:ec_curve.obj
 0002:000260f8       ??_C@_0BG@NHEBIAGP@OpenSSL?5EC_KEY?5method@ 0000000000099bb8     OpensslLib:ec_kmeth.obj
 0002:00026190       v3_policy_constraints      0000000000099c50     OpensslLib:v3_pcons.obj
 0002:000261f8       ??_C@_0BG@HGJBEKFE@requireExplicitPolicy@ 0000000000099cb8     OpensslLib:v3_pcons.obj
 0002:00026210       ??_C@_0BF@MOMLJGAL@inhibitPolicyMapping@ 0000000000099cd0     OpensslLib:v3_pcons.obj
 0002:00026228       ??_C@_0BD@MMPNIEIJ@POLICY_CONSTRAINTS@ 0000000000099ce8     OpensslLib:v3_pcons.obj
 0002:00026240       ??_C@_0BI@HNCHDEDI@Require?5Explicit?5Policy@ 0000000000099d00     OpensslLib:v3_pcons.obj
 0002:00026258       ??_C@_0BH@HMKHOMED@Inhibit?5Policy?5Mapping@ 0000000000099d18     OpensslLib:v3_pcons.obj
 0002:00026270       POLICY_CONSTRAINTS_it      0000000000099d30     OpensslLib:v3_pcons.obj
 0002:000262e0       v3_cpols                   0000000000099da0     OpensslLib:v3_cpols.obj
 0002:00026348       ??_C@_0BE@GJBJOOCP@CERTIFICATEPOLICIES@ 0000000000099e08     OpensslLib:v3_cpols.obj
 0002:00026360       ??_C@_08NEBFOBH@policyid@  0000000000099e20     OpensslLib:v3_cpols.obj
 0002:00026370       ??_C@_0L@HMNGMMJI@qualifiers@ 0000000000099e30     OpensslLib:v3_cpols.obj
 0002:00026380       ??_C@_0L@POLPGHJK@POLICYINFO@ 0000000000099e40     OpensslLib:v3_cpols.obj
 0002:00026390       ??_C@_08EECALGEF@d?4cpsuri@ 0000000000099e50     OpensslLib:v3_cpols.obj
 0002:000263a0       ??_C@_0N@JPAHANFF@d?4usernotice@ 0000000000099e60     OpensslLib:v3_cpols.obj
 0002:000263b0       ??_C@_07LEEILOKB@pqualid@  0000000000099e70     OpensslLib:v3_cpols.obj
 0002:000263b8       ??_C@_0P@POBJIHLD@POLICYQUALINFO@ 0000000000099e78     OpensslLib:v3_cpols.obj
 0002:000263c8       ??_C@_09FIKFDFH@noticeref@ 0000000000099e88     OpensslLib:v3_cpols.obj
 0002:000263d8       ??_C@_07MHGINJOA@exptext@  0000000000099e98     OpensslLib:v3_cpols.obj
 0002:000263e0       ??_C@_0L@HCNDPADF@USERNOTICE@ 0000000000099ea0     OpensslLib:v3_cpols.obj
 0002:000263f0       ??_C@_0N@HEIPMDAG@organization@ 0000000000099eb0     OpensslLib:v3_cpols.obj
 0002:00026400       ??_C@_09CFGHNILC@noticenos@ 0000000000099ec0     OpensslLib:v3_cpols.obj
 0002:00026410       ??_C@_09DFHLGOKA@NOTICEREF@ 0000000000099ed0     OpensslLib:v3_cpols.obj
 0002:0002641c       ??_C@_06MIFIGELF@ia5org@   0000000000099edc     OpensslLib:v3_cpols.obj
 0002:00026428       ??_C@_0BB@FIJMMMGE@policyIdentifier@ 0000000000099ee8     OpensslLib:v3_cpols.obj
 0002:0002643c       ??_C@_03KKDAPHBH@CPS@      0000000000099efc     OpensslLib:v3_cpols.obj
 0002:00026440       ??_C@_0L@LADHLIJ@userNotice@ 0000000000099f00     OpensslLib:v3_cpols.obj
 0002:0002644c       ??_C@_04OOMJJNCF@UTF8@     0000000000099f0c     OpensslLib:v3_cpols.obj
 0002:00026458       ??_C@_0L@PJIJIHJD@UTF8String@ 0000000000099f18     OpensslLib:v3_cpols.obj
 0002:00026464       ??_C@_03CNFPPDJC@BMP@      0000000000099f24     OpensslLib:v3_cpols.obj
 0002:00026468       ??_C@_07MCGNPFEO@VISIBLE@  0000000000099f28     OpensslLib:v3_cpols.obj
 0002:00026470       ??_C@_0N@EALKMFB@explicitText@ 0000000000099f30     OpensslLib:v3_cpols.obj
 0002:00026480       ??_C@_0O@OKDALMJE@noticeNumbers@ 0000000000099f40     OpensslLib:v3_cpols.obj
 0002:00026490       ??_C@_0O@JBOAGIFP@?$CF?$CKsCPS?3?5?$CF?4?$CKs?6@ 0000000000099f50     OpensslLib:v3_cpols.obj
 0002:000264a0       ??_C@_0BH@KMGGMA@?$CF?$CKsOrganization?3?5?$CF?4?$CKs?6@ 0000000000099f60     OpensslLib:v3_cpols.obj
 0002:000264b8       ??_C@_0O@EFHNHHDA@?$CF?$CKsNumber?$CFs?3?5@ 0000000000099f78     OpensslLib:v3_cpols.obj
 0002:000264c8       ??_C@_06OJHGLDPL@?$CInull?$CJ@ 0000000000099f88     OpensslLib:v3_cpols.obj
 0002:000264d0       ??_C@_0BI@GOILGMJA@?$CF?$CKsExplicit?5Text?3?5?$CF?4?$CKs?6@ 0000000000099f90     OpensslLib:v3_cpols.obj
 0002:000264e8       NOTICEREF_it               0000000000099fa8     OpensslLib:v3_cpols.obj
 0002:000265a0       USERNOTICE_it              000000000009a060     OpensslLib:v3_cpols.obj
 0002:000266d0       POLICYQUALINFO_it          000000000009a190     OpensslLib:v3_cpols.obj
 0002:00026740       POLICYINFO_it              000000000009a200     OpensslLib:v3_cpols.obj
 0002:00026770       CERTIFICATEPOLICIES_it     000000000009a230     OpensslLib:v3_cpols.obj
 0002:000267a0       ??_C@_0BC@MGHKLCAP@OpenSSL?5DH?5Method@ 000000000009a260     OpensslLib:dh_key.obj
 0002:000267c0       cmac_asn1_meth             000000000009a280     OpensslLib:cm_ameth.obj
 0002:000268d8       ??_C@_0BE@GBIGMENL@OpenSSL?5CMAC?5method@ 000000000009a398     OpensslLib:cm_ameth.obj
 0002:000268f0       ed448_asn1_meth            000000000009a3b0     OpensslLib:ecx_meth.obj
 0002:00026a10       ed25519_asn1_meth          000000000009a4d0     OpensslLib:ecx_meth.obj
 0002:00026b30       ecx25519_asn1_meth         000000000009a5f0     OpensslLib:ecx_meth.obj
 0002:00026c50       ecx448_asn1_meth           000000000009a710     OpensslLib:ecx_meth.obj
 0002:00026d70       ecx448_pkey_meth           000000000009a830     OpensslLib:ecx_meth.obj
 0002:00026e70       ed448_pkey_meth            000000000009a930     OpensslLib:ecx_meth.obj
 0002:00026f70       ecx25519_pkey_meth         000000000009aa30     OpensslLib:ecx_meth.obj
 0002:00027070       ed25519_pkey_meth          000000000009ab30     OpensslLib:ecx_meth.obj
 0002:00027170       ??_C@_0BK@JGHKCBDG@?$CF?$CKs?$DMINVALID?5PRIVATE?5KEY?$DO?6@ 000000000009ac30     OpensslLib:ecx_meth.obj
 0002:00027190       ??_C@_0BE@BHOIIFAI@?$CF?$CKs?$CFs?5Private?9Key?3?6@ 000000000009ac50     OpensslLib:ecx_meth.obj
 0002:000271a8       ??_C@_09CDOGNPAC@?$CF?$CKspriv?3?6@ 000000000009ac68     OpensslLib:ecx_meth.obj
 0002:000271b8       ??_C@_0BJ@NBDPFAFL@?$CF?$CKs?$DMINVALID?5PUBLIC?5KEY?$DO?6@ 000000000009ac78     OpensslLib:ecx_meth.obj
 0002:000271d8       ??_C@_0BD@HFJAOMDB@?$CF?$CKs?$CFs?5Public?9Key?3?6@ 000000000009ac98     OpensslLib:ecx_meth.obj
 0002:000271f0       ??_C@_08BMIKENKP@?$CF?$CKspub?3?6@ 000000000009acb0     OpensslLib:ecx_meth.obj
 0002:00027200       ??_C@_0BJ@OPPGOKJE@OpenSSL?5X25519?5algorithm@ 000000000009acc0     OpensslLib:ecx_meth.obj
 0002:00027220       ??_C@_0BH@LCCDECOI@OpenSSL?5X448?5algorithm@ 000000000009ace0     OpensslLib:ecx_meth.obj
 0002:00027238       ??_C@_0BK@EOFFJDOF@OpenSSL?5ED25519?5algorithm@ 000000000009acf8     OpensslLib:ecx_meth.obj
 0002:00027258       ??_C@_0BI@FPELGGCO@OpenSSL?5ED448?5algorithm@ 000000000009ad18     OpensslLib:ecx_meth.obj
 0002:00027270       sm2_asn1_meth              000000000009ad30     OpensslLib:ec_ameth.obj
 0002:00027390       eckey_asn1_meth            000000000009ae50     OpensslLib:ec_ameth.obj
 0002:000274a8       ??_C@_0M@CJKOCIEC@Private?9Key@ 000000000009af68     OpensslLib:ec_ameth.obj
 0002:000274b8       ??_C@_0L@FMJMEKAC@Public?9Key@ 000000000009af78     OpensslLib:ec_ameth.obj
 0002:000274c8       ??_C@_0BB@DMDKLH@ECDSA?9Parameters@ 000000000009af88     OpensslLib:ec_ameth.obj
 0002:000274e0       ??_C@_0O@OPPPNLCD@?$CFs?3?5?$CI?$CFd?5bit?$CJ?6@ 000000000009afa0     OpensslLib:ec_ameth.obj
 0002:000274f0       ??_C@_02KNLLHFAA@EC@       000000000009afb0     OpensslLib:ec_ameth.obj
 0002:000274f8       ??_C@_0BF@DKDIFOGG@OpenSSL?5EC?5algorithm@ 000000000009afb8     OpensslLib:ec_ameth.obj
 0002:00027510       siphash_asn1_meth          000000000009afd0     OpensslLib:siphash_ameth.obj
 0002:00027628       ??_C@_07IBBIJFNK@SIPHASH@  000000000009b0e8     OpensslLib:siphash_ameth.obj
 0002:00027630       ??_C@_0BH@FCFCAEA@OpenSSL?5SIPHASH?5method@ 000000000009b0f0     OpensslLib:siphash_ameth.obj
 0002:00027650       hmac_asn1_meth             000000000009b110     OpensslLib:hm_ameth.obj
 0002:00027768       ??_C@_0BE@BABEGANF@OpenSSL?5HMAC?5method@ 000000000009b228     OpensslLib:hm_ameth.obj
 0002:00027780       rsa_pss_asn1_meth          000000000009b240     OpensslLib:rsa_ameth.obj
 0002:000278a0       rsa_asn1_meths             000000000009b360     OpensslLib:rsa_ameth.obj
 0002:00027ad0       ??_C@_0BP@CGCIOPAF@No?5PSS?5parameter?5restrictions?6@ 000000000009b590     OpensslLib:rsa_ameth.obj
 0002:00027af0       ??_C@_0BM@OMMNCLDM@PSS?5parameter?5restrictions?3@ 000000000009b5b0     OpensslLib:rsa_ameth.obj
 0002:00027b10       ??_C@_0BK@KFGFELEH@?$CIINVALID?5PSS?5PARAMETERS?$CJ?6@ 000000000009b5d0     OpensslLib:rsa_ameth.obj
 0002:00027b30       ??_C@_0BB@PMMDHLKH@Hash?5Algorithm?3?5@ 000000000009b5f0     OpensslLib:rsa_ameth.obj
 0002:00027b48       ??_C@_0P@ODEAMLKF@sha1?5?$CIdefault?$CJ@ 000000000009b608     OpensslLib:rsa_ameth.obj
 0002:00027b58       ??_C@_0BB@HEAMLCPA@Mask?5Algorithm?3?5@ 000000000009b618     OpensslLib:rsa_ameth.obj
 0002:00027b6c       ??_C@_06BIDGLIKJ@?5with?5@ 000000000009b62c     OpensslLib:rsa_ameth.obj
 0002:00027b78       ??_C@_07DNODLGKM@INVALID@  000000000009b638     OpensslLib:rsa_ameth.obj
 0002:00027b80       ??_C@_0BJ@NNFOENLD@mgf1?5with?5sha1?5?$CIdefault?$CJ@ 000000000009b640     OpensslLib:rsa_ameth.obj
 0002:00027ba0       ??_C@_07NLJCBFAF@Minimum@  000000000009b660     OpensslLib:rsa_ameth.obj
 0002:00027ba8       ??_C@_0BD@DPAJFAGN@?$CFs?5Salt?5Length?3?50x@ 000000000009b668     OpensslLib:rsa_ameth.obj
 0002:00027bc0       ??_C@_0N@CGLOPGL@14?5?$CIdefault?$CJ@ 000000000009b680     OpensslLib:rsa_ameth.obj
 0002:00027bd0       ??_C@_0BC@EDKEKAHK@Trailer?5Field?3?50x@ 000000000009b690     OpensslLib:rsa_ameth.obj
 0002:00027be8       ??_C@_0N@FFIHJHFK@BC?5?$CIdefault?$CJ@ 000000000009b6a8     OpensslLib:rsa_ameth.obj
 0002:00027bf8       ??_C@_07FGNHIEKH@RSA?9PSS@ 000000000009b6b8     OpensslLib:rsa_ameth.obj
 0002:00027c00       ??_C@_03IKGEINEE@?$CFs?5@  000000000009b6c0     OpensslLib:rsa_ameth.obj
 0002:00027c08       ??_C@_0CC@BJIIEMBB@Private?9Key?3?5?$CI?$CFd?5bit?0?5?$CFd?5primes@ 000000000009b6c8     OpensslLib:rsa_ameth.obj
 0002:00027c30       ??_C@_08OKDKAJKD@modulus?3@ 000000000009b6f0     OpensslLib:rsa_ameth.obj
 0002:00027c40       ??_C@_0BA@FAAMOFHC@publicExponent?3@ 000000000009b700     OpensslLib:rsa_ameth.obj
 0002:00027c50       ??_C@_0BG@HAJOCCOP@Public?9Key?3?5?$CI?$CFd?5bit?$CJ?6@ 000000000009b710     OpensslLib:rsa_ameth.obj
 0002:00027c68       ??_C@_08GIMLILAA@Modulus?3@ 000000000009b728     OpensslLib:rsa_ameth.obj
 0002:00027c78       ??_C@_09DALHJPOO@Exponent?3@ 000000000009b738     OpensslLib:rsa_ameth.obj
 0002:00027c88       ??_C@_0BB@NFOLHHHJ@privateExponent?3@ 000000000009b748     OpensslLib:rsa_ameth.obj
 0002:00027ca0       ??_C@_07PNLMLIF@prime1?3@  000000000009b760     OpensslLib:rsa_ameth.obj
 0002:00027ca8       ??_C@_07NJNHFNM@prime2?3@  000000000009b768     OpensslLib:rsa_ameth.obj
 0002:00027cb0       ??_C@_0L@OIOCMGKP@exponent1?3@ 000000000009b770     OpensslLib:rsa_ameth.obj
 0002:00027cc0       ??_C@_0L@OKKEHIPG@exponent2?3@ 000000000009b780     OpensslLib:rsa_ameth.obj
 0002:00027cd0       ??_C@_0N@GNAMJPHF@coefficient?3@ 000000000009b790     OpensslLib:rsa_ameth.obj
 0002:00027ce0       ??_C@_08BCNLBGP@prime?$CFd?3@ 000000000009b7a0     OpensslLib:rsa_ameth.obj
 0002:00027cf0       ??_C@_0M@NKHBEBLE@exponent?$CFd?3@ 000000000009b7b0     OpensslLib:rsa_ameth.obj
 0002:00027d00       ??_C@_0P@FAPFJECG@coefficient?$CFd?3@ 000000000009b7c0     OpensslLib:rsa_ameth.obj
 0002:00027d10       ??_C@_0BD@MHOEKPBI@OpenSSL?5RSA?5method@ 000000000009b7d0     OpensslLib:rsa_ameth.obj
 0002:00027d28       ??_C@_0BH@JANGLOLP@OpenSSL?5RSA?9PSS?5method@ 000000000009b7e8     OpensslLib:rsa_ameth.obj
 0002:00027d40       dh_asn1_meth               000000000009b800     OpensslLib:dh_ameth.obj
 0002:00027e60       dhx_asn1_meth              000000000009b920     OpensslLib:dh_ameth.obj
 0002:00027f78       ??_C@_0P@ELBFBOG@DH?5Private?9Key@ 000000000009ba38     OpensslLib:dh_ameth.obj
 0002:00027f88       ??_C@_0O@EBAKGDPN@DH?5Public?9Key@ 000000000009ba48     OpensslLib:dh_ameth.obj
 0002:00027f98       ??_C@_0O@OMPEPKAJ@DH?5Parameters@ 000000000009ba58     OpensslLib:dh_ameth.obj
 0002:00027fa8       ??_C@_0N@MPONDEBM@private?9key?3@ 000000000009ba68     OpensslLib:dh_ameth.obj
 0002:00027fb8       ??_C@_0M@BCALNHOD@public?9key?3@ 000000000009ba78     OpensslLib:dh_ameth.obj
 0002:00027fc4       ??_C@_06POMKLBDA@prime?3@  000000000009ba84     OpensslLib:dh_ameth.obj
 0002:00027fd0       ??_C@_0L@HDGHCIJF@generator?3@ 000000000009ba90     OpensslLib:dh_ameth.obj
 0002:00027fe0       ??_C@_0BA@PFGIPGBD@subgroup?5order?3@ 000000000009baa0     OpensslLib:dh_ameth.obj
 0002:00027ff0       ??_C@_0BB@HEOELHJJ@subgroup?5factor?3@ 000000000009bab0     OpensslLib:dh_ameth.obj
 0002:00028004       ??_C@_05PENGGDLK@seed?3@   000000000009bac4     OpensslLib:dh_ameth.obj
 0002:0002800c       ??_C@_06LEJCPMLM@?$CF02x?$CFs@ 000000000009bacc     OpensslLib:dh_ameth.obj
 0002:00028018       ??_C@_08ILALFGPI@counter?3@ 000000000009bad8     OpensslLib:dh_ameth.obj
 0002:00028028       ??_C@_0CF@KKPEILHE@recommended?9private?9length?3?5?$CFd?5@ 000000000009bae8     OpensslLib:dh_ameth.obj
 0002:00028050       ??_C@_02EPINMGPM@DH@       000000000009bb10     OpensslLib:dh_ameth.obj
 0002:00028058       ??_C@_0BJ@OPGBMMOB@OpenSSL?5PKCS?$CD3?5DH?5method@ 000000000009bb18     OpensslLib:dh_ameth.obj
 0002:00028078       ??_C@_0BI@JOIJFJMC@OpenSSL?5X9?442?5DH?5method@ 000000000009bb38     OpensslLib:dh_ameth.obj
 0002:00028090       ??_C@_03MEGLGNML@SM4@      000000000009bb50     OpensslLib:c_allc.obj
 0002:00028094       ??_C@_03FMBEIEBF@sm4@      000000000009bb54     OpensslLib:c_allc.obj
 0002:00028098       ??_C@_0M@DJNCOMHD@aes128?9wrap@ 000000000009bb58     OpensslLib:c_allc.obj
 0002:000280a4       ??_C@_06NICOGCEJ@AES128@   000000000009bb64     OpensslLib:c_allc.obj
 0002:000280ac       ??_C@_06NBPOHBOH@aes128@   000000000009bb6c     OpensslLib:c_allc.obj
 0002:000280b8       ??_C@_0M@MAMIKPGL@aes192?9wrap@ 000000000009bb78     OpensslLib:c_allc.obj
 0002:000280c4       ??_C@_06COJEGFCC@AES192@   000000000009bb84     OpensslLib:c_allc.obj
 0002:000280cc       ??_C@_06CHEEHGIM@aes192@   000000000009bb8c     OpensslLib:c_allc.obj
 0002:000280d8       ??_C@_0M@FKKFKCPC@aes256?9wrap@ 000000000009bb98     OpensslLib:c_allc.obj
 0002:000280e4       ??_C@_06FBFHPGKM@AES256@   000000000009bba4     OpensslLib:c_allc.obj
 0002:000280ec       ??_C@_06FIIHOFAC@aes256@   000000000009bbac     OpensslLib:c_allc.obj
 0002:000280f8       ??_C@_07POIDCCOH@ARIA128@  000000000009bbb8     OpensslLib:c_allc.obj
 0002:00028100       ??_C@_07OCFFDBP@aria128@   000000000009bbc0     OpensslLib:c_allc.obj
 0002:00028108       ??_C@_07IDJCFIM@ARIA192@   000000000009bbc8     OpensslLib:c_allc.obj
 0002:00028110       ??_C@_07PIJPFEHE@aria192@  000000000009bbd0     OpensslLib:c_allc.obj
 0002:00028118       ??_C@_07HHPKLGAC@ARIA256@  000000000009bbd8     OpensslLib:c_allc.obj
 0002:00028120       ??_C@_07IHFMMHPK@aria256@  000000000009bbe0     OpensslLib:c_allc.obj
 0002:00028148       ??_C@_08CBANLEIB@ssl3?9md5@ 000000000009bc08     OpensslLib:c_alld.obj
 0002:00028158       ??_C@_09KCHAKJIH@ssl3?9sha1@ 000000000009bc18     OpensslLib:c_alld.obj
 0002:00028170       dhx_pkey_meth              000000000009bc30     OpensslLib:dh_pmeth.obj
 0002:00028270       dh_pkey_meth               000000000009bd30     OpensslLib:dh_pmeth.obj
 0002:00028370       ??_C@_0BG@LEMCDPBI@dh_paramgen_prime_len@ 000000000009be30     OpensslLib:dh_pmeth.obj
 0002:00028388       ??_C@_0L@CMAICHCO@dh_rfc5114@ 000000000009be48     OpensslLib:dh_pmeth.obj
 0002:00028398       ??_C@_08DJOKJGHP@dh_param@ 000000000009be58     OpensslLib:dh_pmeth.obj
 0002:000283a8       ??_C@_0BG@POLEFOHA@dh_paramgen_generator@ 000000000009be68     OpensslLib:dh_pmeth.obj
 0002:000283c0       ??_C@_0BJ@HCAFJLBI@dh_paramgen_subprime_len@ 000000000009be80     OpensslLib:dh_pmeth.obj
 0002:000283e0       ??_C@_0BB@DCMALDKK@dh_paramgen_type@ 000000000009bea0     OpensslLib:dh_pmeth.obj
 0002:000283f4       ??_C@_06GADFDCHC@dh_pad@   000000000009beb4     OpensslLib:dh_pmeth.obj
 0002:00028400       cmac_pkey_meth             000000000009bec0     OpensslLib:cm_pmeth.obj
 0002:00028500       ??_C@_06KDGDAFPH@cipher@   000000000009bfc0     OpensslLib:cm_pmeth.obj
 0002:00028508       ??_C@_06BHJHKMJC@hexkey@   000000000009bfc8     OpensslLib:cm_pmeth.obj
 0002:00028510       rsa_pkey_meth              000000000009bfd0     OpensslLib:rsa_pmeth.obj
 0002:00028610       rsa_pss_pkey_meth          000000000009c0d0     OpensslLib:rsa_pmeth.obj
 0002:00028710       ??_C@_0BB@BILFEOKG@rsa_padding_mode@ 000000000009c1d0     OpensslLib:rsa_pmeth.obj
 0002:00028724       ??_C@_06PDLHKEJK@sslv23@   000000000009c1e4     OpensslLib:rsa_pmeth.obj
 0002:0002872c       ??_C@_04CGFJFPFD@none@     000000000009c1ec     OpensslLib:rsa_pmeth.obj
 0002:00028734       ??_C@_04EIGNDHKO@oeap@     000000000009c1f4     OpensslLib:rsa_pmeth.obj
 0002:0002873c       ??_C@_04MAAGAICF@oaep@     000000000009c1fc     OpensslLib:rsa_pmeth.obj
 0002:00028744       ??_C@_04JNCMEILM@x931@     000000000009c204     OpensslLib:rsa_pmeth.obj
 0002:00028750       ??_C@_0BA@CIHMEEHB@rsa_pss_saltlen@ 000000000009c210     OpensslLib:rsa_pmeth.obj
 0002:00028760       ??_C@_03LJAEFNNE@max@      000000000009c220     OpensslLib:rsa_pmeth.obj
 0002:00028764       ??_C@_04HAPDLBFF@auto@     000000000009c224     OpensslLib:rsa_pmeth.obj
 0002:00028770       ??_C@_0BA@GFPKPLAF@rsa_keygen_bits@ 000000000009c230     OpensslLib:rsa_pmeth.obj
 0002:00028780       ??_C@_0BC@DMECNPFD@rsa_keygen_pubexp@ 000000000009c240     OpensslLib:rsa_pmeth.obj
 0002:00028798       ??_C@_0BC@KMPAJFPF@rsa_keygen_primes@ 000000000009c258     OpensslLib:rsa_pmeth.obj
 0002:000287b0       ??_C@_0M@CNLGKALE@rsa_mgf1_md@ 000000000009c270     OpensslLib:rsa_pmeth.obj
 0002:000287c0       ??_C@_0BH@OIJPKNFL@rsa_pss_keygen_mgf1_md@ 000000000009c280     OpensslLib:rsa_pmeth.obj
 0002:000287d8       ??_C@_0BC@BFLLMFID@rsa_pss_keygen_md@ 000000000009c298     OpensslLib:rsa_pmeth.obj
 0002:000287f0       ??_C@_0BH@MFJEKBFK@rsa_pss_keygen_saltlen@ 000000000009c2b0     OpensslLib:rsa_pmeth.obj
 0002:00028808       ??_C@_0M@OPEEJBKE@rsa_oaep_md@ 000000000009c2c8     OpensslLib:rsa_pmeth.obj
 0002:00028818       ??_C@_0P@NCFNIFLM@rsa_oaep_label@ 000000000009c2d8     OpensslLib:rsa_pmeth.obj
 0002:00028830       tls1_prf_pkey_meth         000000000009c2f0     OpensslLib:tls1_prf.obj
 0002:00028930       ??_C@_06PNMBKEGN@secret@   000000000009c3f0     OpensslLib:tls1_prf.obj
 0002:00028938       ??_C@_09CIFGBJCP@hexsecret@ 000000000009c3f8     OpensslLib:tls1_prf.obj
 0002:00028948       ??_C@_07FKCLENDA@hexseed@  000000000009c408     OpensslLib:tls1_prf.obj
 0002:00028950       hkdf_pkey_meth             000000000009c410     OpensslLib:hkdf.obj
 0002:00028a50       ??_C@_04GMGOKAFF@mode@     000000000009c510     OpensslLib:hkdf.obj
 0002:00028a58       ??_C@_0BD@PBGBEBFD@EXTRACT_AND_EXPAND@ 000000000009c518     OpensslLib:hkdf.obj
 0002:00028a70       ??_C@_0N@OIPAJIAH@EXTRACT_ONLY@ 000000000009c530     OpensslLib:hkdf.obj
 0002:00028a80       ??_C@_0M@FMHABNKF@EXPAND_ONLY@ 000000000009c540     OpensslLib:hkdf.obj
 0002:00028a8c       ??_C@_04OKLIMCN@salt@      000000000009c54c     OpensslLib:hkdf.obj
 0002:00028a98       ??_C@_07JAFKPDLJ@hexsalt@  000000000009c558     OpensslLib:hkdf.obj
 0002:00028aa0       ??_C@_07EGMICCIA@hexinfo@  000000000009c560     OpensslLib:hkdf.obj
 0002:00028ab0       sm2_pkey_meth              000000000009c570     OpensslLib:sm2_pmeth.obj
 0002:00028bb0       ??_C@_0BC@BLCJLNNM@ec_paramgen_curve@ 000000000009c670     OpensslLib:sm2_pmeth.obj
 0002:00028bc8       ??_C@_0N@CHHABLAI@ec_param_enc@ 000000000009c688     OpensslLib:sm2_pmeth.obj
 0002:00028bd8       ??_C@_08FCANLLBJ@explicit@ 000000000009c698     OpensslLib:sm2_pmeth.obj
 0002:00028be8       ??_C@_0M@FBFAECBG@named_curve@ 000000000009c6a8     OpensslLib:sm2_pmeth.obj
 0002:00028c00       siphash_pkey_meth          000000000009c6c0     OpensslLib:siphash_pmeth.obj
 0002:00028d00       ??_C@_0L@NANBDDC@digestsize@ 000000000009c7c0     OpensslLib:siphash_pmeth.obj
 0002:00028d10       ec_pkey_meth               000000000009c7d0     OpensslLib:ec_pmeth.obj
 0002:00028e10       ??_C@_0M@JAAKIKPH@ecdh_kdf_md@ 000000000009c8d0     OpensslLib:ec_pmeth.obj
 0002:00028e20       ??_C@_0BD@CPNABICB@ecdh_cofactor_mode@ 000000000009c8e0     OpensslLib:ec_pmeth.obj
 0002:00028e40       hmac_pkey_meth             000000000009c900     OpensslLib:hm_pmeth.obj
 0002:00028f40       ??_C@_0L@LIHNHIHF@?$CF?$CKs?$CF04x?5?9?5@ 000000000009ca00     OpensslLib:b_dump.obj
 0002:00028f4c       ??_C@_03NDEAONJP@?5?5?5@   000000000009ca0c     OpensslLib:b_dump.obj
 0002:00028f50       ??_C@_02KNHHEEKP@?5?5@     000000000009ca10     OpensslLib:b_dump.obj
 0002:00028fc0       ??_C@_0P@ONGHGJEC@message?5digest@ 000000000009ca80     OpensslLib:bio_md.obj
 0002:00029090       ??_C@_06KAALCHHK@crlUrl@   000000000009cb50     OpensslLib:ocsp_asn.obj
 0002:00029098       ??_C@_06DLEHNACA@crlNum@   000000000009cb58     OpensslLib:ocsp_asn.obj
 0002:000290a0       ??_C@_07BDEAJPPO@crlTime@  000000000009cb60     OpensslLib:ocsp_asn.obj
 0002:000290a8       ??_C@_0L@JOKCDHBA@OCSP_CRLID@ 000000000009cb68     OpensslLib:ocsp_asn.obj
 0002:000290b8       ??_C@_07PAIKCKMF@locator@  000000000009cb78     OpensslLib:ocsp_asn.obj
 0002:000290c0       ??_C@_0BA@JLGHGCLL@OCSP_SERVICELOC@ 000000000009cb80     OpensslLib:ocsp_asn.obj
 0002:00029170       OCSP_SERVICELOC_it         000000000009cc30     OpensslLib:ocsp_asn.obj
 0002:000291a0       OCSP_CRLID_it              000000000009cc60     OpensslLib:ocsp_asn.obj
 0002:000291d0       v3_ocsp_accresp            000000000009cc90     OpensslLib:v3_extku.obj
 0002:00029240       v3_ext_ku                  000000000009cd00     OpensslLib:v3_extku.obj
 0002:000292a8       ??_C@_0BD@CKAGEBEF@EXTENDED_KEY_USAGE@ 000000000009cd68     OpensslLib:v3_extku.obj
 0002:000292e0       EXTENDED_KEY_USAGE_it      000000000009cda0     OpensslLib:v3_extku.obj
 0002:00029310       v3_key_usage               000000000009cdd0     OpensslLib:v3_bitst.obj
 0002:00029380       v3_nscert                  000000000009ce40     OpensslLib:v3_bitst.obj
 0002:000293e8       ??_C@_06DGDLPBAN@client@   000000000009cea8     OpensslLib:v3_bitst.obj
 0002:000293f0       ??_C@_06HJHJCKIO@server@   000000000009ceb0     OpensslLib:v3_bitst.obj
 0002:000293f8       ??_C@_0P@DDHLFHHK@Object?5Signing@ 000000000009ceb8     OpensslLib:v3_bitst.obj
 0002:00029408       ??_C@_07GIOKFKGL@objsign@  000000000009cec8     OpensslLib:v3_bitst.obj
 0002:00029410       ??_C@_08FINKBBAF@reserved@ 000000000009ced0     OpensslLib:v3_bitst.obj
 0002:0002941c       ??_C@_06FMDLPOFJ@SSL?5CA@  000000000009cedc     OpensslLib:v3_bitst.obj
 0002:00029424       ??_C@_05JHLHLOEK@sslCA@    000000000009cee4     OpensslLib:v3_bitst.obj
 0002:00029430       ??_C@_09GIEMCMEO@S?1MIME?5CA@ 000000000009cef0     OpensslLib:v3_bitst.obj
 0002:00029440       ??_C@_07FFHDGPMJ@emailCA@  000000000009cf00     OpensslLib:v3_bitst.obj
 0002:00029448       ??_C@_0BC@FAMHGMHB@Object?5Signing?5CA@ 000000000009cf08     OpensslLib:v3_bitst.obj
 0002:0002945c       ??_C@_05JLEIJNEE@objCA@    000000000009cf1c     OpensslLib:v3_bitst.obj
 0002:00029468       ??_C@_0BC@DPKEIPIO@Digital?5Signature@ 000000000009cf28     OpensslLib:v3_bitst.obj
 0002:00029480       ??_C@_0BB@MFKHIIOM@digitalSignature@ 000000000009cf40     OpensslLib:v3_bitst.obj
 0002:00029498       ??_C@_0BA@DJCGBBAI@Non?5Repudiation@ 000000000009cf58     OpensslLib:v3_bitst.obj
 0002:000294a8       ??_C@_0P@GPCNPOGO@nonRepudiation@ 000000000009cf68     OpensslLib:v3_bitst.obj
 0002:000294b8       ??_C@_0BB@KNACIBEN@Key?5Encipherment@ 000000000009cf78     OpensslLib:v3_bitst.obj
 0002:000294d0       ??_C@_0BA@MINCLOJG@keyEncipherment@ 000000000009cf90     OpensslLib:v3_bitst.obj
 0002:000294e0       ??_C@_0BC@GNPIAJLP@Data?5Encipherment@ 000000000009cfa0     OpensslLib:v3_bitst.obj
 0002:000294f8       ??_C@_0BB@LBKKKIGO@dataEncipherment@ 000000000009cfb8     OpensslLib:v3_bitst.obj
 0002:00029510       ??_C@_0O@EOJOBCHL@Key?5Agreement@ 000000000009cfd0     OpensslLib:v3_bitst.obj
 0002:00029520       ??_C@_0N@GONHKOEO@keyAgreement@ 000000000009cfe0     OpensslLib:v3_bitst.obj
 0002:00029530       ??_C@_0BB@ELNGMDLH@Certificate?5Sign@ 000000000009cff0     OpensslLib:v3_bitst.obj
 0002:00029548       ??_C@_0M@ONBOOMGI@keyCertSign@ 000000000009d008     OpensslLib:v3_bitst.obj
 0002:00029558       ??_C@_08OCJGKMAN@CRL?5Sign@ 000000000009d018     OpensslLib:v3_bitst.obj
 0002:00029568       ??_C@_07IHBCCDFJ@cRLSign@  000000000009d028     OpensslLib:v3_bitst.obj
 0002:00029570       ??_C@_0O@CANGKMJD@Encipher?5Only@ 000000000009d030     OpensslLib:v3_bitst.obj
 0002:00029580       ??_C@_0N@BEFDLIKF@encipherOnly@ 000000000009d040     OpensslLib:v3_bitst.obj
 0002:00029590       ??_C@_0O@FKBAPCEG@Decipher?5Only@ 000000000009d050     OpensslLib:v3_bitst.obj
 0002:000295a0       ??_C@_0N@LIFHMFCO@decipherOnly@ 000000000009d060     OpensslLib:v3_bitst.obj
 0002:000295b0       v3_ocsp_crlid              000000000009d070     OpensslLib:v3_ocsp.obj
 0002:00029620       v3_crl_hold                000000000009d0e0     OpensslLib:v3_ocsp.obj
 0002:00029690       v3_ocsp_nocheck            000000000009d150     OpensslLib:v3_ocsp.obj
 0002:00029700       v3_ocsp_acutoff            000000000009d1c0     OpensslLib:v3_ocsp.obj
 0002:00029770       v3_ocsp_nonce              000000000009d230     OpensslLib:v3_ocsp.obj
 0002:000297e0       v3_crl_invdate             000000000009d2a0     OpensslLib:v3_ocsp.obj
 0002:00029850       v3_ocsp_serviceloc         000000000009d310     OpensslLib:v3_ocsp.obj
 0002:000298b8       ??_C@_0M@KIKBFHBJ@?$CF?$CKscrlUrl?3?5@ 000000000009d378     OpensslLib:v3_ocsp.obj
 0002:000298c8       ??_C@_0M@MLCMBODE@?$CF?$CKscrlNum?3?5@ 000000000009d388     OpensslLib:v3_ocsp.obj
 0002:000298d8       ??_C@_0N@IBJOMEDL@?$CF?$CKscrlTime?3?5@ 000000000009d398     OpensslLib:v3_ocsp.obj
 0002:000298e8       ??_C@_0M@IHOINNJF@?$CF?$CKsIssuer?3?5@ 000000000009d3a8     OpensslLib:v3_ocsp.obj
 0002:000298f4       ??_C@_04NFEJKGEM@?6?$CF?$CKs@ 000000000009d3b4     OpensslLib:v3_ocsp.obj
 0002:000298fc       ??_C@_03NLJIHOMM@?5?9?5@   000000000009d3bc     OpensslLib:v3_ocsp.obj
 0002:00029900       v3_akey_id                 000000000009d3c0     OpensslLib:v3_akey.obj
 0002:00029968       ??_C@_06KHDOHNKC@always@   000000000009d428     OpensslLib:v3_akey.obj
 0002:00029970       v3_ns_ia5_list             000000000009d430     OpensslLib:v3_ia5.obj
 0002:00029cb0       v3_delta_crl               000000000009d770     OpensslLib:v3_int.obj
 0002:00029d20       v3_inhibit_anyp            000000000009d7e0     OpensslLib:v3_int.obj
 0002:00029d90       v3_crl_num                 000000000009d850     OpensslLib:v3_int.obj
 0002:00029e00       v3_ext_admission           000000000009d8c0     OpensslLib:v3_admis.obj
 0002:00029e68       ??_C@_0BC@KHBCHCNJ@namingAuthorityId@ 000000000009d928     OpensslLib:v3_admis.obj
 0002:00029e80       ??_C@_0BD@DEIEGLEM@namingAuthorityUrl@ 000000000009d940     OpensslLib:v3_admis.obj
 0002:00029e98       ??_C@_0BE@NPIMHIBI@namingAuthorityText@ 000000000009d958     OpensslLib:v3_admis.obj
 0002:00029eb0       ??_C@_0BB@COJAOCFM@NAMING_AUTHORITY@ 000000000009d970     OpensslLib:v3_admis.obj
 0002:00029ec8       ??_C@_0BA@DBBLIBJC@namingAuthority@ 000000000009d988     OpensslLib:v3_admis.obj
 0002:00029ed8       ??_C@_0BA@JCIKJJCP@professionItems@ 000000000009d998     OpensslLib:v3_admis.obj
 0002:00029ee8       ??_C@_0P@PBNEFCJO@professionOIDs@ 000000000009d9a8     OpensslLib:v3_admis.obj
 0002:00029ef8       ??_C@_0BD@NJLNALHF@registrationNumber@ 000000000009d9b8     OpensslLib:v3_admis.obj
 0002:00029f10       ??_C@_0BC@EDMGMCCO@addProfessionInfo@ 000000000009d9d0     OpensslLib:v3_admis.obj
 0002:00029f28       ??_C@_0BA@KKEGAEAH@PROFESSION_INFO@ 000000000009d9e8     OpensslLib:v3_admis.obj
 0002:00029f38       ??_C@_0BD@GKCCDPCL@admissionAuthority@ 000000000009d9f8     OpensslLib:v3_admis.obj
 0002:00029f50       ??_C@_0BA@KJOLGNIM@professionInfos@ 000000000009da10     OpensslLib:v3_admis.obj
 0002:00029f60       ??_C@_0L@OIMBEHAN@ADMISSIONS@ 000000000009da20     OpensslLib:v3_admis.obj
 0002:00029f70       ??_C@_0BF@FNBKMPAG@contentsOfAdmissions@ 000000000009da30     OpensslLib:v3_admis.obj
 0002:00029f88       ??_C@_0BB@PBMIGONA@ADMISSION_SYNTAX@ 000000000009da48     OpensslLib:v3_admis.obj
 0002:00029fa0       ??_C@_0BF@MPDFFBEA@?$CF?$CKsnamingAuthority?3?5@ 000000000009da60     OpensslLib:v3_admis.obj
 0002:00029fb8       ??_C@_0BM@DCICMEAO@?$CF?$CKs?5?5admissionAuthorityId?3?5@ 000000000009da78     OpensslLib:v3_admis.obj
 0002:00029fd4       ??_C@_01PKGAHCOL@?$CJ@     000000000009da94     OpensslLib:v3_admis.obj
 0002:00029fd8       ??_C@_02GFKOMOKH@?5?$CI@   000000000009da98     OpensslLib:v3_admis.obj
 0002:00029fe0       ??_C@_09MCJOGJJM@?$CFs?$CFs?$CFs?$CFs?6@ 000000000009daa0     OpensslLib:v3_admis.obj
 0002:00029ff0       ??_C@_0BL@DELGFPFK@?$CF?$CKs?5?5namingAuthorityText?3?5@ 000000000009dab0     OpensslLib:v3_admis.obj
 0002:0002a010       ??_C@_0BK@OPCGIEEP@?$CF?$CKs?5?5namingAuthorityUrl?3?5@ 000000000009dad0     OpensslLib:v3_admis.obj
 0002:0002a030       ??_C@_0BI@NKKBPCEB@?$CF?$CKsadmissionAuthority?3?6@ 000000000009daf0     OpensslLib:v3_admis.obj
 0002:0002a048       ??_C@_05EGGOJAEM@?$CF?$CKs?5?5@ 000000000009db08     OpensslLib:v3_admis.obj
 0002:0002a050       ??_C@_0P@ONCDAKNH@?$CF?$CKsEntry?5?$CF0d?3?6@ 000000000009db10     OpensslLib:v3_admis.obj
 0002:0002a060       ??_C@_0BK@MGPHHOEM@?$CF?$CKs?5?5admissionAuthority?3?6@ 000000000009db20     OpensslLib:v3_admis.obj
 0002:0002a080       ??_C@_07BAKLHGB@?$CF?$CKs?5?5?5?5@ 000000000009db40     OpensslLib:v3_admis.obj
 0002:0002a088       ??_C@_0CB@JOPMCDOG@?$CF?$CKs?5?5Profession?5Info?5Entry?5?$CF0d?3@ 000000000009db48     OpensslLib:v3_admis.obj
 0002:0002a0b0       ??_C@_0BM@PNLACIIE@?$CF?$CKs?5?5?5?5registrationNumber?3?5@ 000000000009db70     OpensslLib:v3_admis.obj
 0002:0002a0d0       ??_C@_0BG@COHLBKD@?$CF?$CKs?5?5?5?5Info?5Entries?3?6@ 000000000009db90     OpensslLib:v3_admis.obj
 0002:0002a0e8       ??_C@_09IECKBPIB@?$CF?$CKs?5?5?5?5?5?5@ 000000000009dba8     OpensslLib:v3_admis.obj
 0002:0002a0f8       ??_C@_0BJ@KFOBDAG@?$CF?$CKs?5?5?5?5Profession?5OIDs?3?6@ 000000000009dbb8     OpensslLib:v3_admis.obj
 0002:0002a118       ??_C@_0BD@OELCPJIC@?$CF?$CKs?5?5?5?5?5?5?$CFs?$CFs?$CFs?$CFs?6@ 000000000009dbd8     OpensslLib:v3_admis.obj
 0002:0002a130       PROFESSION_INFO_it         000000000009dbf0     OpensslLib:v3_admis.obj
 0002:0002a1c0       ADMISSION_SYNTAX_it        000000000009dc80     OpensslLib:v3_admis.obj
 0002:0002a1f0       ADMISSIONS_it              000000000009dcb0     OpensslLib:v3_admis.obj
 0002:0002a360       NAMING_AUTHORITY_it        000000000009de20     OpensslLib:v3_admis.obj
 0002:0002a390       v3_skey_id                 000000000009de50     OpensslLib:v3_skey.obj
 0002:0002a3f8       ??_C@_04OIJGJDKO@hash@     000000000009deb8     OpensslLib:v3_skey.obj
 0002:0002a400       v3_crl_reason              000000000009dec0     OpensslLib:v3_enum.obj
 0002:0002a468       ??_C@_0M@NNPCGPMF@Unspecified@ 000000000009df28     OpensslLib:v3_enum.obj
 0002:0002a478       ??_C@_0M@MFMDLEDN@unspecified@ 000000000009df38     OpensslLib:v3_enum.obj
 0002:0002a488       ??_C@_0BA@GLPEKBIK@Remove?5From?5CRL@ 000000000009df48     OpensslLib:v3_enum.obj
 0002:0002a498       ??_C@_0O@BILLKPKO@removeFromCRL@ 000000000009df58     OpensslLib:v3_enum.obj
 0002:0002a4b0       v3_pkey_usage_period       000000000009df70     OpensslLib:v3_pku.obj
 0002:0002a518       ??_C@_0BC@CCOKACDM@PKEY_USAGE_PERIOD@ 000000000009dfd8     OpensslLib:v3_pku.obj
 0002:0002a530       ??_C@_0N@KGLJEEMK@Not?5Before?3?5@ 000000000009dff0     OpensslLib:v3_pku.obj
 0002:0002a540       ??_C@_0M@FCHJLIHE@Not?5After?3?5@ 000000000009e000     OpensslLib:v3_pku.obj
 0002:0002a590       PKEY_USAGE_PERIOD_it       000000000009e050     OpensslLib:v3_pku.obj
 0002:0002a5c0       v3_policy_mappings         000000000009e080     OpensslLib:v3_pmaps.obj
 0002:0002a628       ??_C@_0BD@JILOPHFL@issuerDomainPolicy@ 000000000009e0e8     OpensslLib:v3_pmaps.obj
 0002:0002a640       ??_C@_0BE@FFIKMOKF@subjectDomainPolicy@ 000000000009e100     OpensslLib:v3_pmaps.obj
 0002:0002a658       ??_C@_0P@NLHMKCKF@POLICY_MAPPING@ 000000000009e118     OpensslLib:v3_pmaps.obj
 0002:0002a668       ??_C@_0BA@DHPBCFFC@POLICY_MAPPINGS@ 000000000009e128     OpensslLib:v3_pmaps.obj
 0002:0002a6c0       POLICY_MAPPINGS_it         000000000009e180     OpensslLib:v3_pmaps.obj
 0002:0002a6f0       POLICY_MAPPING_it          000000000009e1b0     OpensslLib:v3_pmaps.obj
 0002:0002a740       v3_sxnet                   000000000009e200     OpensslLib:v3_sxnet.obj
 0002:0002a7a8       ??_C@_04LDDJGOBB@zone@     000000000009e268     OpensslLib:v3_sxnet.obj
 0002:0002a7b0       ??_C@_04CCHAHKJA@user@     000000000009e270     OpensslLib:v3_sxnet.obj
 0002:0002a7b8       ??_C@_07FLDOGLPN@SXNETID@  000000000009e278     OpensslLib:v3_sxnet.obj
 0002:0002a7c0       ??_C@_03NDFJNBKD@ids@      000000000009e280     OpensslLib:v3_sxnet.obj
 0002:0002a7c4       ??_C@_05BPAJFIHK@SXNET@    000000000009e284     OpensslLib:v3_sxnet.obj
 0002:0002a7d0       ??_C@_0BF@NMLBNADB@?6?$CF?$CKsZone?3?5?$CFs?0?5User?3?5@ 000000000009e290     OpensslLib:v3_sxnet.obj
 0002:0002a830       SXNETID_it                 000000000009e2f0     OpensslLib:v3_sxnet.obj
 0002:0002a8a0       SXNET_it                   000000000009e360     OpensslLib:v3_sxnet.obj
 0002:0002a8d0       v3_pci                     000000000009e390     OpensslLib:v3_pci.obj
 0002:0002a938       ??_C@_0BG@IMLADBOH@?$CF?$CKsPolicy?5Text?3?5?$CF?4?$CKs?6@ 000000000009e3f8     OpensslLib:v3_pci.obj
 0002:0002a950       ??_C@_08JGCCIMAA@language@ 000000000009e410     OpensslLib:v3_pci.obj
 0002:0002a95c       ??_C@_04ODCMNEMO@hex?3@    000000000009e41c     OpensslLib:v3_pci.obj
 0002:0002a964       ??_C@_05BOPHDICO@file?3@   000000000009e424     OpensslLib:v3_pci.obj
 0002:0002a96c       ??_C@_05FHIGHPDA@text?3@   000000000009e42c     OpensslLib:v3_pci.obj
 0002:0002a980       v3_tls_feature             000000000009e440     OpensslLib:v3_tlsf.obj
 0002:0002a9e8       ??_C@_0M@HGHOPPFP@TLS_FEATURE@ 000000000009e4a8     OpensslLib:v3_tlsf.obj
 0002:0002a9f8       ??_C@_0P@NAKMKOPA@status_request@ 000000000009e4b8     OpensslLib:v3_tlsf.obj
 0002:0002aa08       ??_C@_0BC@HEECFCMD@status_request_v2@ 000000000009e4c8     OpensslLib:v3_tlsf.obj
 0002:0002aa70       ??_C@_04JBGFELJA@tag?$DN@  000000000009e530     OpensslLib:asn1_gen.obj
 0002:0002aa78       ??_C@_05CCNLIHFO@ASCII@    000000000009e538     OpensslLib:asn1_gen.obj
 0002:0002aa80       ??_C@_03IECIMIEG@HEX@      000000000009e540     OpensslLib:asn1_gen.obj
 0002:0002aa88       ??_C@_07HMNLDFAL@BITLIST@  000000000009e548     OpensslLib:asn1_gen.obj
 0002:0002aa90       ??_C@_05NALEHOPE@Char?$DN@ 000000000009e550     OpensslLib:asn1_gen.obj
 0002:0002aa98       ??_C@_04PPJDIBFE@BOOL@     000000000009e558     OpensslLib:asn1_gen.obj
 0002:0002aaa0       ??_C@_03JMHEAPMO@INT@      000000000009e560     OpensslLib:asn1_gen.obj
 0002:0002aaa4       ??_C@_04PNKFCNMG@ENUM@     000000000009e564     OpensslLib:asn1_gen.obj
 0002:0002aaac       ??_C@_03PGJCFEMG@OID@      000000000009e56c     OpensslLib:asn1_gen.obj
 0002:0002aab0       ??_C@_03JCIJEFNJ@UTC@      000000000009e570     OpensslLib:asn1_gen.obj
 0002:0002aab8       ??_C@_07EECHABMP@GENTIME@  000000000009e578     OpensslLib:asn1_gen.obj
 0002:0002aac0       ??_C@_03LBMHMDEB@OCT@      000000000009e580     OpensslLib:asn1_gen.obj
 0002:0002aac8       ??_C@_0M@JIDALIGG@OCTETSTRING@ 000000000009e588     OpensslLib:asn1_gen.obj
 0002:0002aad4       ??_C@_06GOEDGPII@BITSTR@   000000000009e594     OpensslLib:asn1_gen.obj
 0002:0002aae0       ??_C@_09MBLGEDKL@BITSTRING@ 000000000009e5a0     OpensslLib:asn1_gen.obj
 0002:0002aaec       ??_C@_04CBEPCLMK@UNIV@     000000000009e5ac     OpensslLib:asn1_gen.obj
 0002:0002aaf4       ??_C@_03OLMOBCBF@IA5@      000000000009e5b4     OpensslLib:asn1_gen.obj
 0002:0002aaf8       ??_C@_09OMDMMLJJ@PRINTABLE@ 000000000009e5b8     OpensslLib:asn1_gen.obj
 0002:0002ab04       ??_C@_03HMGPCGIG@T61@      000000000009e5c4     OpensslLib:asn1_gen.obj
 0002:0002ab08       ??_C@_0O@GENPGMAM@TELETEXSTRING@ 000000000009e5c8     OpensslLib:asn1_gen.obj
 0002:0002ab18       ??_C@_0O@OIKLOOAP@GeneralString@ 000000000009e5d8     OpensslLib:asn1_gen.obj
 0002:0002ab28       ??_C@_06GBOJAPHH@GENSTR@   000000000009e5e8     OpensslLib:asn1_gen.obj
 0002:0002ab30       ??_C@_07DBOJJFHC@NUMERIC@  000000000009e5f0     OpensslLib:asn1_gen.obj
 0002:0002ab38       ??_C@_03NCPCKDJB@SEQ@      000000000009e5f8     OpensslLib:asn1_gen.obj
 0002:0002ab3c       ??_C@_03KKGFKKLA@EXP@      000000000009e5fc     OpensslLib:asn1_gen.obj
 0002:0002ab40       ??_C@_08CNKBIFDO@EXPLICIT@ 000000000009e600     OpensslLib:asn1_gen.obj
 0002:0002ab4c       ??_C@_03PKFOHEJD@IMP@      000000000009e60c     OpensslLib:asn1_gen.obj
 0002:0002ab50       ??_C@_08PPMOEJGF@IMPLICIT@ 000000000009e610     OpensslLib:asn1_gen.obj
 0002:0002ab60       ??_C@_07KIEILLID@OCTWRAP@  000000000009e620     OpensslLib:asn1_gen.obj
 0002:0002ab68       ??_C@_07LAEBDLGO@SEQWRAP@  000000000009e628     OpensslLib:asn1_gen.obj
 0002:0002ab70       ??_C@_07OAIMKKNN@SETWRAP@  000000000009e630     OpensslLib:asn1_gen.obj
 0002:0002ab78       ??_C@_07JHDNPBBM@BITWRAP@  000000000009e638     OpensslLib:asn1_gen.obj
 0002:0002ab80       ??_C@_04HPGCGPG@FORM@      000000000009e640     OpensslLib:asn1_gen.obj
 0002:0002ab88       ??_C@_06DPGELLJH@FORMAT@   000000000009e648     OpensslLib:asn1_gen.obj
 0002:0002ab90       ??_C@_07IOGEOOAA@string?$DN@ 000000000009e650     OpensslLib:asn1_gen.obj
 0002:0002ab98       ??_C@_03DNALGGBA@DIR@      000000000009e658     OpensslLib:asn1_gen.obj
 0002:0002aef8       ??_C@_08KLAPILAK@SigEd448@ 000000000009e9b8     OpensslLib:eddsa.obj
 0002:00032bd0       ??_C@_05NJJIPCOC@?$CFs?50?6@ 00000000000a6690     OpensslLib:t_pkey.obj
 0002:00032bd8       ??_C@_0BE@KHLFKPFC@?$CFs?5?$CFs?$CFlu?5?$CI?$CFs0x?$CFlx?$CJ?6@ 00000000000a6698     OpensslLib:t_pkey.obj
 0002:00032bf0       ??_C@_0M@IBLDKCHK@?5?$CINegative?$CJ@ 00000000000a66b0     OpensslLib:t_pkey.obj
 0002:00032bfc       ??_C@_05JMJKDBEJ@?$CFs?$CFs?6@ 00000000000a66bc     OpensslLib:t_pkey.obj
 0002:00032c90       curve448_point_identity    00000000000a6750     OpensslLib:curve448.obj
 0002:00032dd0       ??_C@_0BI@DFFFIKFB@Generator?5?$CIcompressed?$CJ?3@ 00000000000a6890     OpensslLib:eck_prn.obj
 0002:00032de8       ??_C@_0BK@DOCPEENO@Generator?5?$CIuncompressed?$CJ?3@ 00000000000a68a8     OpensslLib:eck_prn.obj
 0002:00032e08       ??_C@_0BE@FPCNHCIJ@Generator?5?$CIhybrid?$CJ?3@ 00000000000a68c8     OpensslLib:eck_prn.obj
 0002:00032e20       ??_C@_0N@JOFLCJFF@ASN1?5OID?3?5?$CFs@ 00000000000a68e0     OpensslLib:eck_prn.obj
 0002:00032e30       ??_C@_0BA@LNIECBHN@NIST?5CURVE?3?5?$CFs?6@ 00000000000a68f0     OpensslLib:eck_prn.obj
 0002:00032e40       ??_C@_0BA@KNKNOIFH@Field?5Type?3?5?$CFs?6@ 00000000000a6900     OpensslLib:eck_prn.obj
 0002:00032e50       ??_C@_0BA@ENMKKION@Basis?5Type?3?5?$CFs?6@ 00000000000a6910     OpensslLib:eck_prn.obj
 0002:00032e60       ??_C@_0M@JDIPGLHE@Polynomial?3@ 00000000000a6920     OpensslLib:eck_prn.obj
 0002:00032e6c       ??_C@_06DBHHIIKM@Prime?3@  00000000000a692c     OpensslLib:eck_prn.obj
 0002:00032e74       ??_C@_05GMFDOKMO@A?3?5?5?5@ 00000000000a6934     OpensslLib:eck_prn.obj
 0002:00032e7c       ??_C@_05OKMHJIGA@B?3?5?5?5@ 00000000000a693c     OpensslLib:eck_prn.obj
 0002:00032e88       ??_C@_07KOGOKIFH@Order?3?5@ 00000000000a6948     OpensslLib:eck_prn.obj
 0002:00032e90       ??_C@_0L@IEMHODML@Cofactor?3?5@ 00000000000a6950     OpensslLib:eck_prn.obj
 0002:00032e9c       ??_C@_05PDHKGGIM@Seed?3@   00000000000a695c     OpensslLib:eck_prn.obj
 0002:00032ea4       ??_C@_02JPPHBJLD@?2?6@     00000000000a6964     OpensslLib:f_int.obj
 0002:00032ea8       ??_C@_01JEJKBAGA@g@        00000000000a6968     OpensslLib:dh_asn1.obj
 0002:00032eac       ??_C@_06IJDLPEM@length@    00000000000a696c     OpensslLib:dh_asn1.obj
 0002:00032eb8       ??_C@_08LKFDNFJ@DHparams@  00000000000a6978     OpensslLib:dh_asn1.obj
 0002:00032ec8       ??_C@_07HDOCMLOI@counter@  00000000000a6988     OpensslLib:dh_asn1.obj
 0002:00032ed0       ??_C@_0O@KANPBCM@int_dhvparams@ 00000000000a6990     OpensslLib:dh_asn1.obj
 0002:00032ee0       ??_C@_01CBDEGOCN@j@        00000000000a69a0     OpensslLib:dh_asn1.obj
 0002:00032ee8       ??_C@_07JLLHOFNK@vparams@  00000000000a69a8     OpensslLib:dh_asn1.obj
 0002:00032ef0       ??_C@_0O@HMLHGNDO@int_dhx942_dh@ 00000000000a69b0     OpensslLib:dh_asn1.obj
 0002:00032fd0       DHparams_it                00000000000a6a90     OpensslLib:dh_asn1.obj
 0002:00034cc0       ??_C@_0GE@BFJKPFGM@?$FLOPENSSL_RAND_POOL?$FN?5NULL?5RandBu@ 00000000000a8780     OpensslLib:rand_pool.obj
 0002:00034d28       ??_C@_0BL@BANKOLJL@RandBuffer?5?$CB?$DN?5?$CI?$CIvoid?5?$CK?$CJ?50?$CJ@ 00000000000a87e8     OpensslLib:rand_pool.obj
 0002:00034d48       ??_C@_0DI@IALCLMIH@d?3?2myedk2?2edk2?2CryptoPkg?2Librar@ 00000000000a8808     OpensslLib:rand_pool.obj
 0002:00034d88       ??_C@_03JFFFKLGJ@C1x@      00000000000a8848     OpensslLib:sm2_crypt.obj
 0002:00034d8c       ??_C@_03IMEOJKCI@C1y@      00000000000a884c     OpensslLib:sm2_crypt.obj
 0002:00034d90       ??_C@_02IGAJHAEE@C3@       00000000000a8850     OpensslLib:sm2_crypt.obj
 0002:00034d94       ??_C@_02JPBCEBAF@C2@       00000000000a8854     OpensslLib:sm2_crypt.obj
 0002:00034d98       ??_C@_0P@HHMLELMD@SM2_Ciphertext@ 00000000000a8858     OpensslLib:sm2_crypt.obj
 0002:00034e30       SM2_Ciphertext_it          00000000000a88f0     OpensslLib:sm2_crypt.obj
 0002:00036720       curve448_scalar_one        00000000000aa1e0     OpensslLib:scalar.obj
 0002:000367a0       curve448_scalar_zero       00000000000aa260     OpensslLib:scalar.obj
 0002:0003e6d0       ??_C@_09OJPHJNPC@fips_mode@ 00000000000b2190     OpensslLib:evp_cnf.obj
 0002:0003e6e0       ??_C@_0M@HEHLDANB@alg_section@ 00000000000b21a0     OpensslLib:evp_cnf.obj
 0002:0003e6f0       ??_C@_0N@DJMJOKGL@stbl_section@ 00000000000b21b0     OpensslLib:asn_mstbl.obj
 0002:0003e700       ??_C@_03KLIPLJLL@min@      00000000000b21c0     OpensslLib:asn_mstbl.obj
 0002:0003e704       ??_C@_04LFLEPBN@mask@      00000000000b21c4     OpensslLib:asn_mstbl.obj
 0002:0003e70c       ??_C@_05GECEPKB@flags@     00000000000b21cc     OpensslLib:asn_mstbl.obj
 0002:0003e714       ??_C@_06HCDOONEJ@nomask@   00000000000b21d4     OpensslLib:asn_mstbl.obj
 0002:0003e71c       ??_C@_06KABKJMAI@field?$DN@ 00000000000b21dc     OpensslLib:asn_mstbl.obj
 0002:0003e728       ??_C@_08IPPANOEC@ssl_conf@ 00000000000b21e8     OpensslLib:conf_ssl.obj
 0002:0003e738       ??_C@_0M@HCKPEIO@oid_section@ 00000000000b21f8     OpensslLib:asn_moid.obj
 0002:0003e810       _bignum_dh2048_224_q       00000000000b22d0     OpensslLib:bn_dh.obj
 0002:0003e828       _bignum_dh2048_256_g       00000000000b22e8     OpensslLib:bn_dh.obj
 0002:0003e840       _bignum_dh1024_160_g       00000000000b2300     OpensslLib:bn_dh.obj
 0002:0003e858       _bignum_dh2048_224_p       00000000000b2318     OpensslLib:bn_dh.obj
 0002:0003e870       _bignum_dh2048_256_p       00000000000b2330     OpensslLib:bn_dh.obj
 0002:0003e888       _bignum_dh2048_224_g       00000000000b2348     OpensslLib:bn_dh.obj
 0002:0003e8a0       _bignum_dh1024_160_p       00000000000b2360     OpensslLib:bn_dh.obj
 0002:0003e8b8       _bignum_dh2048_256_q       00000000000b2378     OpensslLib:bn_dh.obj
 0002:0003e8d0       _bignum_dh1024_160_q       00000000000b2390     OpensslLib:bn_dh.obj
 0002:0003e8e8       _bignum_ffdhe4096_p        00000000000b23a8     OpensslLib:bn_dh.obj
 0002:0003e900       _bignum_ffdhe8192_p        00000000000b23c0     OpensslLib:bn_dh.obj
 0002:0003e918       _bignum_ffdhe2048_p        00000000000b23d8     OpensslLib:bn_dh.obj
 0002:0003e930       _bignum_const_2            00000000000b23f0     OpensslLib:bn_dh.obj
 0002:0003e948       _bignum_ffdhe6144_p        00000000000b2408     OpensslLib:bn_dh.obj
 0002:0003e960       _bignum_ffdhe3072_p        00000000000b2420     OpensslLib:bn_dh.obj
 0002:0003fa60       ??_C@_0BN@FHPHCJAL@BufferToSort?5?$CB?$DN?5?$CI?$CIvoid?5?$CK?$CJ?50?$CJ@ 00000000000b3520     SmmCryptLib:CrtWrapper.obj
 0002:0003fa80       ??_C@_0ED@BFHODHP@d?3?2myedk2?2edk2?2CryptoPkg?2Librar@ 00000000000b3540     SmmCryptLib:CrtWrapper.obj
 0002:0003fac8       ??_C@_0CA@DJEMEKLN@CompareFunction?5?$CB?$DN?5?$CI?$CIvoid?5?$CK?$CJ?50?$CJ@ 00000000000b3588     SmmCryptLib:CrtWrapper.obj
 0002:0003fae8       ??_C@_0BD@IPPNMEE@s1?5?$CB?$DN?5?$CI?$CIvoid?5?$CK?$CJ?50?$CJ@ 00000000000b35a8     SmmCryptLib:CrtWrapper.obj
 0002:0003fb00       ??_C@_0BD@OCHJABCG@s2?5?$CB?$DN?5?$CI?$CIvoid?5?$CK?$CJ?50?$CJ@ 00000000000b35c0     SmmCryptLib:CrtWrapper.obj
 0002:0003fb18       ??_C@_0BF@MBPLIJNB@base?5?$CB?$DN?5?$CI?$CIvoid?5?$CK?$CJ?50?$CJ@ 00000000000b35d8     SmmCryptLib:CrtWrapper.obj
 0002:0003fb30       ??_C@_0BI@BKNMBGLA@compare?5?$CB?$DN?5?$CI?$CIvoid?5?$CK?$CJ?50?$CJ@ 00000000000b35f0     SmmCryptLib:CrtWrapper.obj
 0002:0003fb50       ??_C@_0EE@KPJOBFDM@d?3?2myedk2?2edk2?2MdePkg?2Library?2B@ 00000000000b3610     BaseMemoryLibRepStr:ScanMem8Wrapper.obj
 0002:0003fb98       ??_C@_0DP@DAHOLNJI@d?3?2myedk2?2edk2?2MdePkg?2Library?2B@ 00000000000b3658     BaseRngLibTimerLib:RngLibTimer.obj
 0002:0003fbd8       ??_C@_0BF@NGOMKDDB@Rand?5?$CB?$DN?5?$CI?$CIvoid?5?$CK?$CJ?50?$CJ@ 00000000000b3698     BaseRngLibTimerLib:RngLibTimer.obj
 0002:0003fbf0       __real@4020000000000000    00000000000b36b0     OpensslLib:drbg_lib.obj
 0002:0003fbf8       __real@43e0000000000000    00000000000b36b8     OpensslLib:drbg_lib.obj
 0002:0003fc00       __xmm@00000003000000020000000100000000 00000000000b36c0     OpensslLib:f_generic.obj
 0002:0003fc10       __xmm@00000008000000080000000800000008 00000000000b36d0     OpensslLib:f_generic.obj
 0002:0003fc20       __xmm@36363636363636363636363636363636 00000000000b36e0     OpensslLib:hmac.obj
 0002:0003fc30       __xmm@5c5c5c5c5c5c5c5c5c5c5c5c5c5c5c5c 00000000000b36f0     OpensslLib:hmac.obj
 0002:0003fca4       __volatile_metadata        00000000000b3764     <linker-defined>
 0003:00000000       _fltused                   00000000000b3e40     BaseIntrinsicLib:MemoryIntrinsics.obj
 0003:00000008       gEdkiiSmmVarCheckProtocolGuid 00000000000b3e48     VariableSmm:AutoGen.obj
 0003:00000018       gEfiSmmFaultTolerantWriteProtocolGuid 00000000000b3e58     VariableSmm:AutoGen.obj
 0003:00000028       gEfiVendorKeysNvGuid       00000000000b3e68     VariableSmm:AutoGen.obj
 0003:00000038       gEfiGlobalVariableGuid     00000000000b3e78     VariableSmm:AutoGen.obj
 0003:00000048       gEdkiiVarErrorFlagGuid     00000000000b3e88     VariableSmm:AutoGen.obj
 0003:00000058       gEfiSecureBootEnableDisableGuid 00000000000b3e98     VariableSmm:AutoGen.obj
 0003:00000068       gEfiSystemNvDataFvGuid     00000000000b3ea8     VariableSmm:AutoGen.obj
 0003:00000078       gEfiHardwareErrorVariableGuid 00000000000b3eb8     VariableSmm:AutoGen.obj
 0003:00000088       gEfiImageSecurityDatabaseGuid 00000000000b3ec8     VariableSmm:AutoGen.obj
 0003:00000098       gPcdProtocolGuid           00000000000b3ed8     VariableSmm:AutoGen.obj
 0003:000000a8       gVariableFlashInfoHobGuid  00000000000b3ee8     VariableSmm:AutoGen.obj
 0003:000000b8       gEfiCertPkcs7Guid          00000000000b3ef8     VariableSmm:AutoGen.obj
 0003:000000c8       gEfiMmBaseProtocolGuid     00000000000b3f08     VariableSmm:AutoGen.obj
 0003:000000d8       gEfiVariableGuid           00000000000b3f18     VariableSmm:AutoGen.obj
 0003:000000e8       gEfiSmmFirmwareVolumeBlockProtocolGuid 00000000000b3f28     VariableSmm:AutoGen.obj
 0003:000000f8       gEfiSmmVariableProtocolGuid 00000000000b3f38     VariableSmm:AutoGen.obj
 0003:00000108       gEfiCustomModeEnableGuid   00000000000b3f48     VariableSmm:AutoGen.obj
 0003:00000118       gEfiMemoryAttributesTableGuid 00000000000b3f58     VariableSmm:AutoGen.obj
 0003:00000128       gVarCheckPolicyLibMmiHandlerGuid 00000000000b3f68     VariableSmm:AutoGen.obj
 0003:00000138       gUefiOvmfPkgPlatformInfoGuid 00000000000b3f78     VariableSmm:AutoGen.obj
 0003:00000148       gEfiMemoryOverwriteControlDataGuid 00000000000b3f88     VariableSmm:AutoGen.obj
 0003:00000158       gEfiAuthenticatedVariableGuid 00000000000b3f98     VariableSmm:AutoGen.obj
 0003:00000168       gEfiMemoryOverwriteRequestControlLockGuid 00000000000b3fa8     VariableSmm:AutoGen.obj
 0003:00000178       gEfiCertX509Guid           00000000000b3fb8     VariableSmm:AutoGen.obj
 0003:00000188       gEfiDevicePathUtilitiesProtocolGuid 00000000000b3fc8     VariableSmm:AutoGen.obj
 0003:00000198       gEdkiiFaultTolerantWriteGuid 00000000000b3fd8     VariableSmm:AutoGen.obj
 0003:000001a8       gEfiTcg2ProtocolGuid       00000000000b3fe8     VariableSmm:AutoGen.obj
 0003:000001b8       gEfiSmmReadyToLockProtocolGuid 00000000000b3ff8     VariableSmm:AutoGen.obj
 0003:000001c8       gEfiHobListGuid            00000000000b4008     VariableSmm:AutoGen.obj
 0003:000001d8       gEfiCertDbGuid             00000000000b4018     VariableSmm:AutoGen.obj
 0003:000001e8       gEfiTcgProtocolGuid        00000000000b4028     VariableSmm:AutoGen.obj
 0003:000001f8       gSmmVariableWriteGuid      00000000000b4038     VariableSmm:AutoGen.obj
 0003:00000208       gEfiSmmEndOfDxeProtocolGuid 00000000000b4048     VariableSmm:AutoGen.obj
 0003:00000218       gEfiSmmBase2ProtocolGuid   00000000000b4058     VariableSmm:AutoGen.obj
 0003:00000228       gEfiDxeServicesTableGuid   00000000000b4068     VariableSmm:AutoGen.obj
 0003:00000238       gEfiMmEndOfDxeProtocolGuid 00000000000b4078     VariableSmm:AutoGen.obj
 0003:00000248       gEfiSmmAccess2ProtocolGuid 00000000000b4088     VariableSmm:AutoGen.obj
 0003:00000258       mSmmVarCheck               00000000000b4098     VariableSmm:VariableSmm.obj
 0003:00000270       gSmmVariable               00000000000b40b0     VariableSmm:VariableSmm.obj
 0003:00000290       mRequestSource             00000000000b40d0     VariableSmm:Variable.obj
 0003:000002a0       mVariableEntryProperty     00000000000b40e0     VariableSmm:Variable.obj
 0003:000002c8       mCurrentBootVarErrFlag     00000000000b4108     VariableSmm:Variable.obj
 0003:000002d0       mAuthContextIn             00000000000b4110     VariableSmm:Variable.obj
 0003:00000320       mMorVariableType           00000000000b4160     VariableSmm:TcgMorLockSmm.obj
 0003:00000340       mMorLockKeyEmpty           00000000000b4180     VariableSmm:TcgMorLockSmm.obj
 0003:00000350       mVarCheckVariableWithWildcardName 00000000000b4190     VarCheckLib:VarCheckLib.obj
 0003:00000440       mAuthVarEntry              00000000000b4280     AuthVariableLib:AuthVariableLib.obj
 0003:00000510       mSignatureSupport          00000000000b4350     AuthVariableLib:AuthVariableLib.obj
 0003:00000550       mSupportSigItem            00000000000b4390     AuthVariableLib:AuthService.obj
 0003:00000670       mHwErrRecVariable          00000000000b44b0     VarCheckUefiLib:VarCheckUefiLibNullClass.obj
 0003:000006a0       mGlobalVariableList        00000000000b44e0     VarCheckUefiLib:VarCheckUefiLibNullClass.obj
 0003:00000b80       mImageSecurityVariableList 00000000000b49c0     VarCheckUefiLib:VarCheckUefiLibNullClass.obj
 0003:00000c00       mGlobalVariableList2       00000000000b4a40     VarCheckUefiLib:VarCheckUefiLibNullClass.obj
 0003:00000cc8       mOidValue                  00000000000b4b08     SmmCryptLib:CryptPkcs7VerifyCommon.obj
 0003:000014d8       rand_meth                  00000000000b5318     OpensslLib:drbg_lib.obj
 0003:00001840       mAtRuntime                 00000000000b5680     VariableSmm:VariableSmm.obj
 0003:00001848       mVariableBufferPayload     00000000000b5688     VariableSmm:VariableSmm.obj
 0003:00001850       mEndOfDxe                  00000000000b5690     VariableSmm:Variable.obj
 0003:00001858       mNvFvHeaderCache           00000000000b5698     VariableSmm:Variable.obj
 0003:00001860       mNvVariableCache           00000000000b56a0     VariableSmm:Variable.obj
 0003:00001868       gVariableInfo              00000000000b56a8     VariableSmm:Variable.obj
 0003:00001870       mMorLockInitializationRequired 00000000000b56b0     VariableSmm:TcgMorLockSmm.obj
 0003:00001874       mMorLockState              00000000000b56b4     VariableSmm:TcgMorLockSmm.obj
 0003:00001878       mMorPassThru               00000000000b56b8     VariableSmm:TcgMorLockSmm.obj
 0003:00001879       mMorLockPassThru           00000000000b56b9     VariableSmm:TcgMorLockSmm.obj
 0003:00001880       mPcd                       00000000000b56c0     DxePcdLib:DxePcdLib.obj
 0003:00001888       gST                        00000000000b56c8     UefiBootServicesTableLib:UefiBootServicesTableLib.obj
 0003:00001890       gBS                        00000000000b56d0     UefiBootServicesTableLib:UefiBootServicesTableLib.obj
 0003:00001898       gImageHandle               00000000000b56d8     UefiBootServicesTableLib:UefiBootServicesTableLib.obj
 0003:000018a0       gSmst                      00000000000b56e0     SmmServicesTableLib:SmmServicesTableLib.obj
 0003:000018a8       gRT                        00000000000b56e8     UefiRuntimeServicesTableLib:UefiRuntimeServicesTableLib.obj
 0003:000018b0       mDevicePathLibDevicePathUtilities 00000000000b56f0     UefiDevicePathLibDevicePathProtocol:UefiDevicePathLib.obj
 0003:000018b8       mHobList                   00000000000b56f8     DxeHobLib:HobLib.obj
 0003:000018c0       gMmst                      00000000000b5700     MmServicesTableLib:MmServicesTableLib.obj
 0003:000018c8       gDS                        00000000000b5708     DxeServicesTableLib:DxeServicesTableLib.obj
 0003:000018d0       mGetVariableHelper         00000000000b5710     VariablePolicyLib:VariablePolicyLib.obj
 0003:000018e0       mPolicyTable               00000000000b5720     VariablePolicyLib:VariablePolicyLib.obj
 0003:000018f8       mVarCheckLibEndOfDxeCallback 00000000000b5738     VarCheckLib:VarCheckLib.obj
 0003:00001900       mVarCheckLibAddressPointerMaxCount 00000000000b5740     VarCheckLib:VarCheckLib.obj
 0003:00001908       mMaxNumberOfVarCheckVariable 00000000000b5748     VarCheckLib:VarCheckLib.obj
 0003:00001910       mVarCheckLibAddressPointer 00000000000b5750     VarCheckLib:VarCheckLib.obj
 0003:00001918       mVarCheckLibEndOfDxe       00000000000b5758     VarCheckLib:VarCheckLib.obj
 0003:00001920       mVarCheckHandlerTable      00000000000b5760     VarCheckLib:VarCheckLib.obj
 0003:00001928       mNumberOfVarCheckHandler   00000000000b5768     VarCheckLib:VarCheckLib.obj
 0003:00001930       mVarCheckLibAddressPointerCount 00000000000b5770     VarCheckLib:VarCheckLib.obj
 0003:00001938       mVarCheckLibEndOfDxeCallbackMaxCount 00000000000b5778     VarCheckLib:VarCheckLib.obj
 0003:00001940       mNumberOfVarCheckVariable  00000000000b5780     VarCheckLib:VarCheckLib.obj
 0003:00001948       mVarCheckVariableTable     00000000000b5788     VarCheckLib:VarCheckLib.obj
 0003:00001950       mMaxNumberOfVarCheckHandler 00000000000b5790     VarCheckLib:VarCheckLib.obj
 0003:00001958       mVarCheckLibEndOfDxeCallbackCount 00000000000b5798     VarCheckLib:VarCheckLib.obj
 0003:00001960       mSmmMemLibMemoryAttributesTable 00000000000b57a0     SmmMemLib:SmmMemLib.obj
 0003:00001968       mSmmMemLibGcdMemNumberOfDesc 00000000000b57a8     SmmMemLib:SmmMemLib.obj
 0003:00001970       mSmmMemLibGcdMemSpace      00000000000b57b0     SmmMemLib:SmmMemLib.obj
 0003:00001978       mSmmMemLibSmmReadyToLock   00000000000b57b8     SmmMemLib:SmmMemLib.obj
 0003:00001980       mSmmMemLibInternalMaximumSupportAddress 00000000000b57c0     SmmMemLib:SmmMemLib.obj
 0003:00001988       mAuthVarLibContextIn       00000000000b57c8     AuthVariableLib:AuthVariableLib.obj
 0003:00001990       mHashCtx                   00000000000b57d0     AuthVariableLib:AuthVariableLib.obj
 0003:00001998       mCurrentPaginationCommand  00000000000b57d8     VarCheckPolicyLib:VarCheckPolicyLib.obj
 0003:000019a0       mPaginationCacheSize       00000000000b57e0     VarCheckPolicyLib:VarCheckPolicyLib.obj
 0003:000019a8       mPaginationCache           00000000000b57e8     VarCheckPolicyLib:VarCheckPolicyLib.obj
 0003:000019b0       gParity                    00000000000b57f0     PcAtSerialPortLib:SerialPortLib.obj
 0003:000019b1       gBreakSet                  00000000000b57f1     PcAtSerialPortLib:SerialPortLib.obj
 0003:00001ac0       errno                      00000000000b5900     SmmCryptLib:CrtWrapper.obj
 0003:00002580       mSecurityEvalBuffer        00000000000b63c0     <common>
 0003:00006580       mAuthVarAddressPointer     00000000000ba3c0     <common>
 0003:000065c8       mCertDbStore               00000000000ba408     <common>
 0003:000065d0       mMaxCertDbSize             00000000000ba410     <common>
 0003:000065d4       mVendorKeyState            00000000000ba414     <common>
 0003:000065d8       mPlatformMode              00000000000ba418     <common>
 0003:000065e0       mMemoryMap                 00000000000ba420     <common>
 0003:000065e8       mMemoryMapEntryCount       00000000000ba428     <common>
 0003:000065f0       mSmmMemLibInternalSmramRanges 00000000000ba430     <common>
 0003:000065f8       mDescriptorSize            00000000000ba438     <common>
 0003:00006600       mRegistrationEndOfDxe      00000000000ba440     <common>
 0003:00006608       mRegistrationReadyToLock   00000000000ba448     <common>
 0003:00006610       mSmmMemLibInternalSmramCount 00000000000ba450     <common>
 0003:00006618       mSmramRangeCount           00000000000ba458     <common>
 0003:00006620       mSmramRanges               00000000000ba460     <common>
 0003:00006628       mMorLockKey                00000000000ba468     <common>
 0003:00006640       mAuthContextOut            00000000000ba480     <common>
 0003:00006670       mVariableModuleGlobal      00000000000ba4b0     <common>
 0003:00006678       mVariableBufferPayloadSize 00000000000ba4b8     <common>

 entry point at        0001:00000428

 Static symbols

 0001:0000001a       InternalMemCopyMem.0       00000000000002da     BaseMemoryLibRepStr:CopyMem.obj
 0001:0000002a       @CopyBackward              00000000000002ea     BaseMemoryLibRepStr:CopyMem.obj
 0001:00000033       @CopyBytes                 00000000000002f3     BaseMemoryLibRepStr:CopyMem.obj
 0001:00000123       CetDone                    00000000000003e3     BaseLib:SetJump.obj
 0001:000001e0       CetDone                    00000000000004a0     BaseLib:LongJump.obj
 0001:0000027f       AsmCpuid.0                 000000000000053f     BaseLib:CpuId.obj
 0001:00000284       AsmCpuid.1                 0000000000000544     BaseLib:CpuId.obj
 0001:0000028b       AsmCpuid.2                 000000000000054b     BaseLib:CpuId.obj
 0001:00000294       AsmCpuid.3                 0000000000000554     BaseLib:CpuId.obj
 0001:0000030e       TdVmCall.no_return_data    00000000000005ce     BaseLib:TdVmcall.obj
 0001:0000041b       TdCall.exit                00000000000006db     BaseLib:TdCall.obj
 0001:000082e4       IsValidVariablePolicyStructure 00000000000085a4 f   VariablePolicyLib:VariablePolicyLib.obj
 0001:000083ac       GetBestPolicyMatch         000000000000866c f   VariablePolicyLib:VariablePolicyLib.obj
 0001:0000cba0       GetVariableFlashInfoFromHob 000000000000ce60 f   BaseVariableFlashInfoLib:BaseVariableFlashInfoLib.obj
 0001:0000d0f4       VarCheckPolicyLibMmiHandler 000000000000d3b4 f   VarCheckPolicyLib:VarCheckPolicyLib.obj
 0001:0000e744       InternalX509GetNIDName     000000000000ea04 f   SmmCryptLib:CryptX509.obj
 0001:0000f408       sha256_block_data_order    000000000000f6c8 f   OpensslLib:sha256.obj
 0001:0000f720       null_callback              000000000000f9e0 f   OpensslLib:x509_vfy.obj
 0001:0000f724       verify_cb_cert             000000000000f9e4 f   OpensslLib:x509_vfy.obj
 0001:0000f774       check_auth_level           000000000000fa34 f   OpensslLib:x509_vfy.obj
 0001:0000f8e0       verify_chain               000000000000fba0 f   OpensslLib:x509_vfy.obj
 0001:0000fb40       find_issuer                000000000000fe00 f   OpensslLib:x509_vfy.obj
 0001:0000fc70       check_issued               000000000000ff30 f   OpensslLib:x509_vfy.obj
 0001:0000fc8c       check_chain_extensions     000000000000ff4c f   OpensslLib:x509_vfy.obj
 0001:000100ac       check_name_constraints     000000000001036c f   OpensslLib:x509_vfy.obj
 0001:000103a8       check_id_error             0000000000010668 f   OpensslLib:x509_vfy.obj
 0001:000103f4       check_hosts                00000000000106b4 f   OpensslLib:x509_vfy.obj
 0001:000104f0       check_id                   00000000000107b0 f   OpensslLib:x509_vfy.obj
 0001:00010638       check_trust                00000000000108f8 f   OpensslLib:x509_vfy.obj
 0001:000108c4       check_revocation           0000000000010b84 f   OpensslLib:x509_vfy.obj
 0001:00010940       check_cert                 0000000000010c00 f   OpensslLib:x509_vfy.obj
 0001:00010b94       check_crl_time             0000000000010e54 f   OpensslLib:x509_vfy.obj
 0001:00010c74       get_crl_sk                 0000000000010f34 f   OpensslLib:x509_vfy.obj
 0001:00010fdc       crl_extension_match        000000000001129c f   OpensslLib:x509_vfy.obj
 0001:000110dc       crl_akid_check             000000000001139c f   OpensslLib:x509_vfy.obj
 0001:00011268       check_crl_path             0000000000011528 f   OpensslLib:x509_vfy.obj
 0001:00011370       idp_check_dp               0000000000011630 f   OpensslLib:x509_vfy.obj
 0001:00011658       crl_crldp_check            0000000000011918 f   OpensslLib:x509_vfy.obj
 0001:000117b8       check_crl                  0000000000011a78 f   OpensslLib:x509_vfy.obj
 0001:00011a6c       cert_crl                   0000000000011d2c f   OpensslLib:x509_vfy.obj
 0001:00011b18       check_policy               0000000000011dd8 f   OpensslLib:x509_vfy.obj
 0001:00011da0       internal_verify            0000000000012060 f   OpensslLib:x509_vfy.obj
 0001:00012534       dane_match                 00000000000127f4 f   OpensslLib:x509_vfy.obj
 0001:00012890       check_dane_issuer          0000000000012b50 f   OpensslLib:x509_vfy.obj
 0001:0001290c       check_dane_pkeys           0000000000012bcc f   OpensslLib:x509_vfy.obj
 0001:00012a60       check_leaf_suiteb          0000000000012d20 f   OpensslLib:x509_vfy.obj
 0001:00012b08       dane_verify                0000000000012dc8 f   OpensslLib:x509_vfy.obj
 0001:00012c44       augment_stack              0000000000012f04 f   OpensslLib:x509_vfy.obj
 0001:00012cf0       build_chain                0000000000012fb0 f   OpensslLib:x509_vfy.obj
 0001:00013684       check_key_level            0000000000013944 f   OpensslLib:x509_vfy.obj
 0001:00013704       x509_cb                    00000000000139c4 f   OpensslLib:x_x509.obj
 0001:00013abc       sk_reserve                 0000000000013d7c f   OpensslLib:stack.obj
 0001:00013c9c       internal_delete            0000000000013f5c f   OpensslLib:stack.obj
 0001:00013cf0       internal_find              0000000000013fb0 f   OpensslLib:stack.obj
 0001:00013e50       init                       0000000000014110 f   OpensslLib:m_sha1.obj
 0001:00013e5c       update                     000000000001411c f   OpensslLib:m_sha1.obj
 0001:00013e68       final                      0000000000014128 f   OpensslLib:m_sha1.obj
 0001:00013e78       ctrl                       0000000000014138 f   OpensslLib:m_sha1.obj
 0001:00013f8c       init224                    000000000001424c f   OpensslLib:m_sha1.obj
 0001:00013f98       update224                  0000000000014258 f   OpensslLib:m_sha1.obj
 0001:00013f98       update256                  0000000000014258 f   OpensslLib:m_sha1.obj
 0001:00013fa4       final224                   0000000000014264 f   OpensslLib:m_sha1.obj
 0001:00013fa4       final256                   0000000000014264 f   OpensslLib:m_sha1.obj
 0001:00013fb4       init256                    0000000000014274 f   OpensslLib:m_sha1.obj
 0001:00013fc0       init512_224                0000000000014280 f   OpensslLib:m_sha1.obj
 0001:00014054       init512_256                0000000000014314 f   OpensslLib:m_sha1.obj
 0001:000140e8       init384                    00000000000143a8 f   OpensslLib:m_sha1.obj
 0001:000140f4       update384                  00000000000143b4 f   OpensslLib:m_sha1.obj
 0001:000140f4       update512                  00000000000143b4 f   OpensslLib:m_sha1.obj
 0001:00014100       final384                   00000000000143c0 f   OpensslLib:m_sha1.obj
 0001:00014100       final512                   00000000000143c0 f   OpensslLib:m_sha1.obj
 0001:00014110       init512                    00000000000143d0 f   OpensslLib:m_sha1.obj
 0001:00014288       pkey_set_type              0000000000014548 f   OpensslLib:p_lib.obj
 0001:000145b8       x509_name_ex_new           0000000000014878 f   OpensslLib:x_name.obj
 0001:0001464c       x509_name_ex_free          000000000001490c f   OpensslLib:x_name.obj
 0001:000146a0       local_sk_X509_NAME_ENTRY_free 0000000000014960 f   OpensslLib:x_name.obj
 0001:000146c4       local_sk_X509_NAME_ENTRY_pop_free 0000000000014984 f   OpensslLib:x_name.obj
 0001:000146d0       x509_name_ex_d2i           0000000000014990 f   OpensslLib:x_name.obj
 0001:000149b0       x509_name_ex_i2d           0000000000014c70 f   OpensslLib:x_name.obj
 0001:00014a18       x509_name_encode           0000000000014cd8 f   OpensslLib:x_name.obj
 0001:00014ba4       x509_name_ex_print         0000000000014e64 f   OpensslLib:x_name.obj
 0001:00014bec       x509_name_canon            0000000000014eac f   OpensslLib:x_name.obj
 0001:00014ddc       asn1_string_canon          000000000001509c f   OpensslLib:x_name.obj
 0001:00014f14       i2d_name_canon             00000000000151d4 f   OpensslLib:x_name.obj
 0001:000156ec       init                       00000000000159ac f   OpensslLib:m_md5.obj
 0001:0001572c       update                     00000000000159ec f   OpensslLib:m_md5.obj
 0001:00015738       final                      00000000000159f8 f   OpensslLib:m_md5.obj
 0001:000158fc       check_suite_b              0000000000015bbc f   OpensslLib:x509_cmp.obj
 0001:00015b20       x509_object_cmp            0000000000015de0 f   OpensslLib:x509_lu.obj
 0001:00015f44       x509_store_add             0000000000016204 f   OpensslLib:x509_lu.obj
 0001:0001605c       x509_object_idx_cnt        000000000001631c f   OpensslLib:x509_lu.obj
 0001:00016e30       send_bio_chars             00000000000170f0 f   OpensslLib:a_strex.obj
 0001:00016e6c       do_esc_char                000000000001712c f   OpensslLib:a_strex.obj
 0001:00016fec       do_buf                     00000000000172ac f   OpensslLib:a_strex.obj
 0001:00017218       do_hex_dump                00000000000174d8 f   OpensslLib:a_strex.obj
 0001:000172a4       do_dump                    0000000000017564 f   OpensslLib:a_strex.obj
 0001:000173b8       do_print_ex                0000000000017678 f   OpensslLib:a_strex.obj
 0001:000175b8       do_indent                  0000000000017878 f   OpensslLib:a_strex.obj
 0001:00017624       do_name_ex                 00000000000178e4 f   OpensslLib:a_strex.obj
 0001:00017a60       rsa_cb                     0000000000017d20 f   OpensslLib:rsa_asn1.obj
 0001:00017ad4       rsa_pss_cb                 0000000000017d94 f   OpensslLib:rsa_asn1.obj
 0001:00017b94       mem_init                   0000000000017e54 f   OpensslLib:bss_mem.obj
 0001:00017c28       mem_new                    0000000000017ee8 f   OpensslLib:bss_mem.obj
 0001:00017c30       mem_free                   0000000000017ef0 f   OpensslLib:bss_mem.obj
 0001:00017c68       mem_buf_free               0000000000017f28 f   OpensslLib:bss_mem.obj
 0001:00017d10       mem_buf_sync               0000000000017fd0 f   OpensslLib:bss_mem.obj
 0001:00017d6c       mem_read                   000000000001802c f   OpensslLib:bss_mem.obj
 0001:00017dfc       mem_write                  00000000000180bc f   OpensslLib:bss_mem.obj
 0001:00017ec4       mem_ctrl                   0000000000018184 f   OpensslLib:bss_mem.obj
 0001:00018038       mem_gets                   00000000000182f8 f   OpensslLib:bss_mem.obj
 0001:000180b4       mem_puts                   0000000000018374 f   OpensslLib:bss_mem.obj
 0001:000180e0       bio_call_callback          00000000000183a0 f   OpensslLib:bio_lib.obj
 0001:00018364       bio_read_intern            0000000000018624 f   OpensslLib:bio_lib.obj
 0001:00018490       bio_write_intern           0000000000018750 f   OpensslLib:bio_lib.obj
 0001:00018ed8       pk7_cb                     0000000000019198 f   OpensslLib:pk7_asn1.obj
 0001:00018f44       si_cb                      0000000000019204 f   OpensslLib:pk7_asn1.obj
 0001:00018f64       ri_cb                      0000000000019224 f   OpensslLib:pk7_asn1.obj
 0001:00018f84       o_names_init_ossl_         0000000000019244 f   OpensslLib:o_names.obj
 0001:00019020       obj_name_cmp               00000000000192e0 f   OpensslLib:o_names.obj
 0001:00019070       obj_name_hash              0000000000019330 f   OpensslLib:o_names.obj
 0001:000192f8       sn_cmp_BSEARCH_CMP_FN      00000000000195b8 f   OpensslLib:obj_dat.obj
 0001:00019314       ln_cmp_BSEARCH_CMP_FN      00000000000195d4 f   OpensslLib:obj_dat.obj
 0001:00019334       added_obj_hash             00000000000195f4 f   OpensslLib:obj_dat.obj
 0001:000193f8       added_obj_cmp              00000000000196b8 f   OpensslLib:obj_dat.obj
 0001:000197b8       obj_cmp_BSEARCH_CMP_FN     0000000000019a78 f   OpensslLib:obj_dat.obj
 0001:0001a138       bn_free_d                  000000000001a3f8 f   OpensslLib:bn_lib.obj
 0001:0001a55c       bn2binpad                  000000000001a81c f   OpensslLib:bn_lib.obj
 0001:0001ac78       encode_pkcs1               000000000001af38 f   OpensslLib:rsa_sign.obj
 0001:0001b278       leap_year                  000000000001b538 f   OpensslLib:a_time.obj
 0001:0001b2d8       determine_days             000000000001b598 f   OpensslLib:a_time.obj
 0001:0001b998       x509v3_add_len_value       000000000001bc58 f   OpensslLib:v3_utl.obj
 0001:0001bb6c       bignum_to_string           000000000001be2c f   OpensslLib:v3_utl.obj
 0001:0001c240       strip_spaces               000000000001c500 f   OpensslLib:v3_utl.obj
 0001:0001c320       equal_nocase               000000000001c5e0 f   OpensslLib:v3_utl.obj
 0001:0001c3a4       equal_case                 000000000001c664 f   OpensslLib:v3_utl.obj
 0001:0001c408       equal_email                000000000001c6c8 f   OpensslLib:v3_utl.obj
 0001:0001c4a8       wildcard_match             000000000001c768 f   OpensslLib:v3_utl.obj
 0001:0001c5d8       valid_star                 000000000001c898 f   OpensslLib:v3_utl.obj
 0001:0001c72c       equal_wildcard             000000000001c9ec f   OpensslLib:v3_utl.obj
 0001:0001c7d0       do_check_string            000000000001ca90 f   OpensslLib:v3_utl.obj
 0001:0001c908       do_x509_check              000000000001cbc8 f   OpensslLib:v3_utl.obj
 0001:0001cc78       ipv4_from_asc              000000000001cf38 f   OpensslLib:v3_utl.obj
 0001:0001ccfc       ipv6_from_asc              000000000001cfbc f   OpensslLib:v3_utl.obj
 0001:0001ce08       ipv6_cb                    000000000001d0c8 f   OpensslLib:v3_utl.obj
 0001:0001cff8       ERR_STATE_free             000000000001d2b8 f   OpensslLib:err.obj
 0001:0001d200       get_error_values           000000000001d4c0 f   OpensslLib:err.obj
 0001:0001d380       err_do_init_ossl_          000000000001d640 f   OpensslLib:err.obj
 0001:0001d4b0       err_set_error_data_int     000000000001d770 f   OpensslLib:err.obj
 0001:0001d90c       table_cmp_BSEARCH_CMP_FN   000000000001dbcc f   OpensslLib:a_strnid.obj
 0001:0001d90c       sig_cmp_BSEARCH_CMP_FN     000000000001dbcc f   OpensslLib:obj_xref.obj
 0001:0001d90c       nid_cmp_BSEARCH_CMP_FN     000000000001dbcc f   OpensslLib:v3_purp.obj
 0001:0001d914       check_sig_alg_match        000000000001dbd4 f   OpensslLib:v3_purp.obj
 0001:0001d9cc       x509v3_cache_extensions    000000000001dc8c f   OpensslLib:v3_purp.obj
 0001:0001e110       check_ca                   000000000001e3d0 f   OpensslLib:v3_purp.obj
 0001:0001e170       check_purpose_ssl_client   000000000001e430 f   OpensslLib:v3_purp.obj
 0001:0001e1e0       check_purpose_ssl_server   000000000001e4a0 f   OpensslLib:v3_purp.obj
 0001:0001e250       check_purpose_ns_ssl_server 000000000001e510 f   OpensslLib:v3_purp.obj
 0001:0001e28c       purpose_smime              000000000001e54c f   OpensslLib:v3_purp.obj
 0001:0001e2e8       check_purpose_smime_sign   000000000001e5a8 f   OpensslLib:v3_purp.obj
 0001:0001e324       check_purpose_smime_encrypt 000000000001e5e4 f   OpensslLib:v3_purp.obj
 0001:0001e360       check_purpose_crl_sign     000000000001e620 f   OpensslLib:v3_purp.obj
 0001:0001e398       ocsp_helper                000000000001e658 f   OpensslLib:v3_purp.obj
 0001:0001e3ac       check_purpose_timestamp_sign 000000000001e66c f   OpensslLib:v3_purp.obj
 0001:0001e438       ecx_cmp_parameters         000000000001e6f8 f   OpensslLib:ecx_meth.obj
 0001:0001e438       final                      000000000001e6f8 f   OpensslLib:m_null.obj
 0001:0001e438       init                       000000000001e6f8 f   OpensslLib:m_null.obj
 0001:0001e438       update                     000000000001e6f8 f   OpensslLib:m_null.obj
 0001:0001e438       i2r_ocsp_nocheck           000000000001e6f8 f   OpensslLib:v3_ocsp.obj
 0001:0001e438       no_check                   000000000001e6f8 f   OpensslLib:v3_purp.obj
 0001:0001e578       crl_inf_cb                 000000000001e838 f   OpensslLib:x_crl.obj
 0001:0001e5ac       crl_cb                     000000000001e86c f   OpensslLib:x_crl.obj
 0001:0001ebc8       setup_idp                  000000000001ee88 f   OpensslLib:x_crl.obj
 0001:0001ecc0       X509_REVOKED_cmp           000000000001ef80 f   OpensslLib:x_crl.obj
 0001:0001eccc       def_crl_verify             000000000001ef8c f   OpensslLib:x_crl.obj
 0001:0001ecf4       def_crl_lookup             000000000001efb4 f   OpensslLib:x_crl.obj
 0001:0001eeec       sk_OPENSSL_STRING_deep_copy 000000000001f1ac f   OpensslLib:x509_vpm.obj
 0001:0001f084       str_copy                   000000000001f344 f   OpensslLib:x509_vpm.obj
 0001:0001f08c       str_free                   000000000001f34c f   OpensslLib:x509_vpm.obj
 0001:0001f2e4       int_x509_param_set1        000000000001f5a4 f   OpensslLib:x509_vpm.obj
 0001:0001f4c0       table_cmp_BSEARCH_CMP_FN   000000000001f780 f   OpensslLib:x509_vpm.obj
 0001:0001f54c       tree_init                  000000000001f80c f   OpensslLib:pcy_tree.obj
 0001:0001f8b8       tree_link_nodes            000000000001fb78 f   OpensslLib:pcy_tree.obj
 0001:0001fa8c       tree_add_unmatched         000000000001fd4c f   OpensslLib:pcy_tree.obj
 0001:0001fb20       tree_link_any              000000000001fde0 f   OpensslLib:pcy_tree.obj
 0001:0001fd14       tree_add_auth_node         000000000001ffd4 f   OpensslLib:pcy_tree.obj
 0001:0001fd90       tree_calculate_authority_set 0000000000020050 f   OpensslLib:pcy_tree.obj
 0001:0001fec4       tree_calculate_user_set    0000000000020184 f   OpensslLib:pcy_tree.obj
 0001:00020034       tree_evaluate              00000000000202f4 f   OpensslLib:pcy_tree.obj
 0001:000201fc       exnode_free                00000000000204bc f   OpensslLib:pcy_tree.obj
 0001:0002063c       pubkey_cb                  00000000000208fc f   OpensslLib:x_pubkey.obj
 0001:000206a0       x509_pubkey_decode         0000000000020960 f   OpensslLib:x_pubkey.obj
 0001:0002094c       trust_1oidany              0000000000020c0c f   OpensslLib:x509_trs.obj
 0001:00020958       trust_1oid                 0000000000020c18 f   OpensslLib:x509_trs.obj
 0001:00020964       trust_compat               0000000000020c24 f   OpensslLib:x509_trs.obj
 0001:000209a8       obj_trust                  0000000000020c68 f   OpensslLib:x509_trs.obj
 0001:00020ac8       cleanup_old_md_data        0000000000020d88 f   OpensslLib:digest.obj
 0001:00020f00       do_ex_data_init_ossl_      00000000000211c0 f   OpensslLib:ex_data.obj
 0001:00020f48       get_and_lock               0000000000021208 f   OpensslLib:ex_data.obj
 0001:0002152c       ia5ncasecmp                00000000000217ec f   OpensslLib:v3_ncons.obj
 0001:00021574       v2i_NAME_CONSTRAINTS       0000000000021834 f   OpensslLib:v3_ncons.obj
 0001:00021734       i2r_NAME_CONSTRAINTS       00000000000219f4 f   OpensslLib:v3_ncons.obj
 0001:00021790       do_i2r_name_constraints    0000000000021a50 f   OpensslLib:v3_ncons.obj
 0001:00021c0c       nc_match                   0000000000021ecc f   OpensslLib:v3_ncons.obj
 0001:00021d48       nc_match_single            0000000000022008 f   OpensslLib:v3_ncons.obj
 0001:00021edc       nc_email                   000000000002219c f   OpensslLib:v3_ncons.obj
 0001:00022034       nc_uri                     00000000000222f4 f   OpensslLib:v3_ncons.obj
 0001:00022a20       i2c_ibuf                   0000000000022ce0 f   OpensslLib:a_int.obj
 0001:00022af4       c2i_ibuf                   0000000000022db4 f   OpensslLib:a_int.obj
 0001:00022c10       asn1_get_uint64            0000000000022ed0 f   OpensslLib:a_int.obj
 0001:00022d3c       asn1_string_get_int64      0000000000022ffc f   OpensslLib:a_int.obj
 0001:00022e10       asn1_string_set_int64      00000000000230d0 f   OpensslLib:a_int.obj
 0001:00022e70       bn_to_asn1_string          0000000000023130 f   OpensslLib:a_int.obj
 0001:00022f58       asn1_string_to_bn          0000000000023218 f   OpensslLib:a_int.obj
 0001:000230ec       ocsp_nonce_free            00000000000233ac f   OpensslLib:v3_ocsp.obj
 0001:0002328c       asn1_item_embed_d2i        000000000002354c f   OpensslLib:tasn_dec.obj
 0001:000239d4       asn1_template_ex_d2i       0000000000023c94 f   OpensslLib:tasn_dec.obj
 0001:00023b48       asn1_template_noexp_d2i    0000000000023e08 f   OpensslLib:tasn_dec.obj
 0001:00023dd8       asn1_d2i_ex_primitive      0000000000024098 f   OpensslLib:tasn_dec.obj
 0001:000240c8       asn1_ex_c2i                0000000000024388 f   OpensslLib:tasn_dec.obj
 0001:00024370       asn1_find_end              0000000000024630 f   OpensslLib:tasn_dec.obj
 0001:000244b0       asn1_collect               0000000000024770 f   OpensslLib:tasn_dec.obj
 0001:00024660       asn1_check_tlen            0000000000024920 f   OpensslLib:tasn_dec.obj
 0001:000248c0       gnames_from_sectname       0000000000024b80 f   OpensslLib:v3_crld.obj
 0001:00024964       set_dist_point_name        0000000000024c24 f   OpensslLib:v3_crld.obj
 0001:00024b28       set_reasons                0000000000024de8 f   OpensslLib:v3_crld.obj
 0001:00024c20       print_reasons              0000000000024ee0 f   OpensslLib:v3_crld.obj
 0001:00024cf4       crldp_from_section         0000000000024fb4 f   OpensslLib:v3_crld.obj
 0001:00024df4       v2i_crld                   00000000000250b4 f   OpensslLib:v3_crld.obj
 0001:00024fc0       dpn_cb                     0000000000025280 f   OpensslLib:v3_crld.obj
 0001:00025024       v2i_idp                    00000000000252e4 f   OpensslLib:v3_crld.obj
 0001:000251f4       print_gens                 00000000000254b4 f   OpensslLib:v3_crld.obj
 0001:00025274       print_distpoint            0000000000025534 f   OpensslLib:v3_crld.obj
 0001:000252c8       i2r_idp                    0000000000025588 f   OpensslLib:v3_crld.obj
 0001:0002530c       i2r_crldp                  00000000000255cc f   OpensslLib:v3_crld.obj
 0001:000254d4       asn1_item_embed_new        0000000000025794 f   OpensslLib:tasn_new.obj
 0001:0002571c       asn1_template_new          00000000000259dc f   OpensslLib:tasn_new.obj
 0001:000257b4       asn1_template_clear        0000000000025a74 f   OpensslLib:tasn_new.obj
 0001:00025830       asn1_primitive_new         0000000000025af0 f   OpensslLib:tasn_new.obj
 0001:0002596c       policy_cache_create        0000000000025c2c f   OpensslLib:pcy_cache.obj
 0001:00025ae8       policy_cache_new           0000000000025da8 f   OpensslLib:pcy_cache.obj
 0001:00025cb0       policy_data_cmp            0000000000025f70 f   OpensslLib:pcy_cache.obj
 0001:000260d8       asn1_item_flags_i2d        0000000000026398 f   OpensslLib:tasn_enc.obj
 0001:0002650c       asn1_template_ex_i2d       00000000000267cc f   OpensslLib:tasn_enc.obj
 0001:000267f0       der_cmp                    0000000000026ab0 f   OpensslLib:tasn_enc.obj
 0001:00026830       asn1_set_seq_out           0000000000026af0 f   OpensslLib:tasn_enc.obj
 0001:00026adc       asn1_i2d_ex_primitive      0000000000026d9c f   OpensslLib:tasn_enc.obj
 0001:00026bd0       asn1_ex_i2c                0000000000026e90 f   OpensslLib:tasn_enc.obj
 0001:000272bc       sha512_block_data_order    000000000002757c f   OpensslLib:sha512.obj
 0001:000279c8       sha1_block_data_order      0000000000027c88 f   OpensslLib:sha1dgst.obj
 0001:000281cc       sk_table_cmp               000000000002848c f   OpensslLib:a_strnid.obj
 0001:000281cc       ameth_cmp_BSEARCH_CMP_FN   000000000002848c f   OpensslLib:ameth_lib.obj
 0001:000281cc       pmeth_cmp_BSEARCH_CMP_FN   000000000002848c f   OpensslLib:pmeth_lib.obj
 0001:000281cc       ext_cmp_BSEARCH_CMP_FN     000000000002848c f   OpensslLib:v3_lib.obj
 0001:00028338       make_kn                    00000000000285f8 f   OpensslLib:cmac.obj
 0001:000286f4       ossl_init_get_thread_local 00000000000289b4 f   OpensslLib:init.obj
 0001:0002874c       ossl_init_base_ossl_       0000000000028a0c f   OpensslLib:init.obj
 0001:000287b8       ossl_init_add_all_digests_ossl_ 0000000000028a78 f   OpensslLib:init.obj
 0001:000288d4       ossl_init_config_ossl_     0000000000028b94 f   OpensslLib:init.obj
 0001:0002896c       ossl_init_async_ossl_      0000000000028c2c f   OpensslLib:init.obj
 0001:00028c90       sigx_cmp_BSEARCH_CMP_FN    0000000000028f50 f   OpensslLib:obj_xref.obj
 0001:00028df8       int_ctx_new                00000000000290b8 f   OpensslLib:pmeth_lib.obj
 0001:000295f0       sec_alloc_realloc          00000000000298b0 f   OpensslLib:buffer.obj
 0001:0002a1a0       st_free                    000000000002a460 f   OpensslLib:a_strnid.obj
 0001:0002b420       ec_guess_cofactor          000000000002b6e0 f   OpensslLib:ec_lib.obj
 0001:0002c0dc       ec_precompute_mont_data    000000000002c39c f   OpensslLib:ec_lib.obj
 0001:0002c1d4       ec_field_inverse_mod_ord   000000000002c494 f   OpensslLib:ec_lib.obj
 0001:0002cb1c       traverse_string            000000000002cddc f   OpensslLib:a_mbstr.obj
 0001:0002cc14       in_utf8                    000000000002ced4 f   OpensslLib:a_mbstr.obj
 0001:0002cc1c       out_utf8                   000000000002cedc f   OpensslLib:a_mbstr.obj
 0001:0002cc40       type_str                   000000000002cf00 f   OpensslLib:a_mbstr.obj
 0001:0002cce4       cpy_asc                    000000000002cfa4 f   OpensslLib:a_mbstr.obj
 0001:0002ccf4       cpy_bmp                    000000000002cfb4 f   OpensslLib:a_mbstr.obj
 0001:0002cd10       cpy_univ                   000000000002cfd0 f   OpensslLib:a_mbstr.obj
 0001:0002cd40       cpy_utf8                   000000000002d000 f   OpensslLib:a_mbstr.obj
 0001:0002cf80       bn_new                     000000000002d240 f   OpensslLib:x_bignum.obj
 0001:0002cfa4       bn_secure_new              000000000002d264 f   OpensslLib:x_bignum.obj
 0001:0002cfd0       bn_free                    000000000002d290 f   OpensslLib:x_bignum.obj
 0001:0002d000       bn_i2c                     000000000002d2c0 f   OpensslLib:x_bignum.obj
 0001:0002d078       bn_c2i                     000000000002d338 f   OpensslLib:x_bignum.obj
 0001:0002d0e0       bn_secure_c2i              000000000002d3a0 f   OpensslLib:x_bignum.obj
 0001:0002d16c       bn_print                   000000000002d42c f   OpensslLib:x_bignum.obj
 0001:0002d274       uint64_new                 000000000002d534 f   OpensslLib:x_int64.obj
 0001:0002d2b0       uint32_new                 000000000002d570 f   OpensslLib:x_int64.obj
 0001:0002d2ec       uint32_free                000000000002d5ac f   OpensslLib:x_int64.obj
 0001:0002d308       uint32_clear               000000000002d5c8 f   OpensslLib:x_int64.obj
 0001:0002d310       uint32_i2c                 000000000002d5d0 f   OpensslLib:x_int64.obj
 0001:0002d3a8       uint32_c2i                 000000000002d668 f   OpensslLib:x_int64.obj
 0001:0002d494       uint32_print               000000000002d754 f   OpensslLib:x_int64.obj
 0001:0002d6fc       PKCS7_get_octet_string     000000000002d9bc f   OpensslLib:pk7_doit.obj
 0001:0002d75c       PKCS7_bio_add_digest       000000000002da1c f   OpensslLib:pk7_doit.obj
 0001:0002d808       pkcs7_encode_rinfo         000000000002dac8 f   OpensslLib:pk7_doit.obj
 0001:0002e014       PKCS7_find_digest          000000000002e2d4 f   OpensslLib:pk7_doit.obj
 0001:0002e0a0       do_pkcs7_signed_attrib     000000000002e360 f   OpensslLib:pk7_doit.obj
 0001:0002eb24       get_attribute              000000000002ede4 f   OpensslLib:pk7_doit.obj
 0001:0002eb90       add_attribute              000000000002ee50 f   OpensslLib:pk7_doit.obj
 0001:0002f2a8       expand                     000000000002f568 f   OpensslLib:lhash.obj
 0001:0002f394       getrn                      000000000002f654 f   OpensslLib:lhash.obj
 0001:0002f5a0       ec_asn1_group2fieldid      000000000002f860 f   OpensslLib:ec_asn1.obj
 0001:0002f6d0       ec_asn1_group2curve        000000000002f990 f   OpensslLib:ec_asn1.obj
 0001:0003219c       bn_from_montgomery_word    000000000003245c f   OpensslLib:bn_mont.obj
 0001:00032828       rsa_ossl_public_encrypt    0000000000032ae8 f   OpensslLib:rsa_ossl.obj
 0001:00032ae8       rsa_get_blinding           0000000000032da8 f   OpensslLib:rsa_ossl.obj
 0001:00032b60       rsa_ossl_private_encrypt   0000000000032e20 f   OpensslLib:rsa_ossl.obj
 0001:00032fe0       rsa_ossl_private_decrypt   00000000000332a0 f   OpensslLib:rsa_ossl.obj
 0001:000333c8       rsa_ossl_public_decrypt    0000000000033688 f   OpensslLib:rsa_ossl.obj
 0001:00033704       rsa_ossl_mod_exp           00000000000339c4 f   OpensslLib:rsa_ossl.obj
 0001:000341f4       rsa_ossl_init              00000000000344b4 f   OpensslLib:rsa_ossl.obj
 0001:00034200       rsa_ossl_finish            00000000000344c0 f   OpensslLib:rsa_ossl.obj
 0001:000347f0       rsa_get_public_exp         0000000000034ab0 f   OpensslLib:rsa_crpt.obj
 0001:00034bd0       julian_adj                 0000000000034e90 f   OpensslLib:o_time.obj
 0001:00034cec       julian_to_date             0000000000034fac f   OpensslLib:o_time.obj
 0001:00034e18       i2v_AUTHORITY_INFO_ACCESS  00000000000350d8 f   OpensslLib:v3_info.obj
 0001:00034fc4       v2i_AUTHORITY_INFO_ACCESS  0000000000035284 f   OpensslLib:v3_info.obj
 0001:00035190       module_add                 0000000000035450 f   OpensslLib:conf_mod.obj
 0001:00035524       i2v_BASIC_CONSTRAINTS      00000000000357e4 f   OpensslLib:v3_bcons.obj
 0001:000355a8       v2i_BASIC_CONSTRAINTS      0000000000035868 f   OpensslLib:v3_bcons.obj
 0001:00035818       node_cmp                   0000000000035ad8 f   OpensslLib:pcy_node.obj
 0001:00035e5c       v2i_issuer_alt             000000000003611c f   OpensslLib:v3_alt.obj
 0001:00035f84       copy_issuer                0000000000036244 f   OpensslLib:v3_alt.obj
 0001:000360e0       v2i_subject_alt            00000000000363a0 f   OpensslLib:v3_alt.obj
 0001:00036240       copy_email                 0000000000036500 f   OpensslLib:v3_alt.obj
 0001:000367c8       do_othername               0000000000036a88 f   OpensslLib:v3_alt.obj
 0001:00036894       do_dirname                 0000000000036b54 f   OpensslLib:v3_alt.obj
 0001:00036b44       BN_STACK_push              0000000000036e04 f   OpensslLib:bn_ctx.obj
 0001:00036bf8       BN_POOL_get                0000000000036eb8 f   OpensslLib:bn_ctx.obj
 0001:00036d00       ec_group_new_from_data     0000000000036fc0 f   OpensslLib:ec_curve.obj
 0001:00037a6c       bnrand                     0000000000037d2c f   OpensslLib:bn_rand.obj
 0001:00037c24       bnrand_range               0000000000037ee4 f   OpensslLib:bn_rand.obj
 0001:00038460       i2v_POLICY_CONSTRAINTS     0000000000038720 f   OpensslLib:v3_pcons.obj
 0001:000384a4       v2i_POLICY_CONSTRAINTS     0000000000038764 f   OpensslLib:v3_pcons.obj
 0001:00038644       r2i_certpol                0000000000038904 f   OpensslLib:v3_cpols.obj
 0001:0003888c       policy_section             0000000000038b4c f   OpensslLib:v3_cpols.obj
 0001:00038b54       displaytext_str2tag        0000000000038e14 f   OpensslLib:v3_cpols.obj
 0001:00038c28       notice_section             0000000000038ee8 f   OpensslLib:v3_cpols.obj
 0001:00038ff8       i2r_certpol                00000000000392b8 f   OpensslLib:v3_cpols.obj
 0001:0003909c       print_qualifiers           000000000003935c f   OpensslLib:v3_cpols.obj
 0001:000396f0       evp_EncryptDecryptUpdate   00000000000399b0 f   OpensslLib:evp_enc.obj
 0001:00039eec       generate_key               000000000003a1ac f   OpensslLib:dh_key.obj
 0001:0003a144       compute_key                000000000003a404 f   OpensslLib:dh_key.obj
 0001:0003a2b0       dh_bn_mod_exp              000000000003a570 f   OpensslLib:dh_key.obj
 0001:0003a2ec       dh_init                    000000000003a5ac f   OpensslLib:dh_key.obj
 0001:0003a2f8       dh_finish                  000000000003a5b8 f   OpensslLib:dh_key.obj
 0001:0003a310       cmac_size                  000000000003a5d0 f   OpensslLib:cm_ameth.obj
 0001:0003a318       cmac_key_free              000000000003a5d8 f   OpensslLib:cm_ameth.obj
 0001:0003a318       pkey_cmac_cleanup          000000000003a5d8 f   OpensslLib:cm_pmeth.obj
 0001:0003a324       ecx_key_op                 000000000003a5e4 f   OpensslLib:ecx_meth.obj
 0001:0003a5fc       ecx_pub_encode             000000000003a8bc f   OpensslLib:ecx_meth.obj
 0001:0003a6e8       ecx_pub_decode             000000000003a9a8 f   OpensslLib:ecx_meth.obj
 0001:0003a714       ecx_pub_cmp                000000000003a9d4 f   OpensslLib:ecx_meth.obj
 0001:0003a784       ecx_priv_decode            000000000003aa44 f   OpensslLib:ecx_meth.obj
 0001:0003a818       ecx_priv_encode            000000000003aad8 f   OpensslLib:ecx_meth.obj
 0001:0003a964       ecx_size                   000000000003ac24 f   OpensslLib:ecx_meth.obj
 0001:0003a990       ecx_bits                   000000000003ac50 f   OpensslLib:ecx_meth.obj
 0001:0003a9c0       ecx_security_bits          000000000003ac80 f   OpensslLib:ecx_meth.obj
 0001:0003a9e0       ecx_free                   000000000003aca0 f   OpensslLib:ecx_meth.obj
 0001:0003aa58       ecx_key_print              000000000003ad18 f   OpensslLib:ecx_meth.obj
 0001:0003abf4       ecx_priv_print             000000000003aeb4 f   OpensslLib:ecx_meth.obj
 0001:0003ac0c       ecx_pub_print              000000000003aecc f   OpensslLib:ecx_meth.obj
 0001:0003ac20       ecx_ctrl                   000000000003aee0 f   OpensslLib:ecx_meth.obj
 0001:0003ace8       ecd_ctrl                   000000000003afa8 f   OpensslLib:ecx_meth.obj
 0001:0003ad00       ecx_set_priv_key           000000000003afc0 f   OpensslLib:ecx_meth.obj
 0001:0003ad28       ecx_set_pub_key            000000000003afe8 f   OpensslLib:ecx_meth.obj
 0001:0003ad4c       ecx_get_priv_key           000000000003b00c f   OpensslLib:ecx_meth.obj
 0001:0003ae28       ecx_get_pub_key            000000000003b0e8 f   OpensslLib:ecx_meth.obj
 0001:0003aefc       ecd_size25519              000000000003b1bc f   OpensslLib:ecx_meth.obj
 0001:0003aefc       hmac_size                  000000000003b1bc f   OpensslLib:hm_ameth.obj
 0001:0003af04       ecd_size448                000000000003b1c4 f   OpensslLib:ecx_meth.obj
 0001:0003af0c       ecd_item_verify            000000000003b1cc f   OpensslLib:ecx_meth.obj
 0001:0003af88       ecd_item_sign25519         000000000003b248 f   OpensslLib:ecx_meth.obj
 0001:0003afe0       ecd_sig_info_set25519      000000000003b2a0 f   OpensslLib:ecx_meth.obj
 0001:0003b000       ecd_item_sign448           000000000003b2c0 f   OpensslLib:ecx_meth.obj
 0001:0003b058       ecd_sig_info_set448        000000000003b318 f   OpensslLib:ecx_meth.obj
 0001:0003b078       pkey_ecx_keygen            000000000003b338 f   OpensslLib:ecx_meth.obj
 0001:0003b0a4       validate_ecx_derive        000000000003b364 f   OpensslLib:ecx_meth.obj
 0001:0003b114       pkey_ecx_derive25519       000000000003b3d4 f   OpensslLib:ecx_meth.obj
 0001:0003b19c       pkey_ecx_derive448         000000000003b45c f   OpensslLib:ecx_meth.obj
 0001:0003b1fc       pkey_ecx_ctrl              000000000003b4bc f   OpensslLib:ecx_meth.obj
 0001:0003b20c       pkey_ecd_digestsign25519   000000000003b4cc f   OpensslLib:ecx_meth.obj
 0001:0003b278       pkey_ecd_digestsign448     000000000003b538 f   OpensslLib:ecx_meth.obj
 0001:0003b2e4       pkey_ecd_digestverify25519 000000000003b5a4 f   OpensslLib:ecx_meth.obj
 0001:0003b30c       pkey_ecd_digestverify448   000000000003b5cc f   OpensslLib:ecx_meth.obj
 0001:0003b34c       pkey_ecd_ctrl              000000000003b60c f   OpensslLib:ecx_meth.obj
 0001:0003b394       eckey_param2type           000000000003b654 f   OpensslLib:ec_ameth.obj
 0001:0003b470       eckey_pub_encode           000000000003b730 f   OpensslLib:ec_ameth.obj
 0001:0003b67c       eckey_pub_decode           000000000003b93c f   OpensslLib:ec_ameth.obj
 0001:0003b804       eckey_pub_cmp              000000000003bac4 f   OpensslLib:ec_ameth.obj
 0001:0003b854       eckey_priv_decode          000000000003bb14 f   OpensslLib:ec_ameth.obj
 0001:0003b9d0       eckey_priv_encode          000000000003bc90 f   OpensslLib:ec_ameth.obj
 0001:0003baf4       int_ec_size                000000000003bdb4 f   OpensslLib:ec_ameth.obj
 0001:0003bb00       ec_bits                    000000000003bdc0 f   OpensslLib:ec_ameth.obj
 0001:0003bb10       ec_security_bits           000000000003bdd0 f   OpensslLib:ec_ameth.obj
 0001:0003bb74       ec_missing_parameters      000000000003be34 f   OpensslLib:ec_ameth.obj
 0001:0003bb90       ec_copy_parameters         000000000003be50 f   OpensslLib:ec_ameth.obj
 0001:0003bc00       ec_cmp_parameters          000000000003bec0 f   OpensslLib:ec_ameth.obj
 0001:0003bc3c       int_ec_free                000000000003befc f   OpensslLib:ec_ameth.obj
 0001:0003bc48       do_EC_KEY_print            000000000003bf08 f   OpensslLib:ec_ameth.obj
 0001:0003bec4       eckey_param_decode         000000000003c184 f   OpensslLib:ec_ameth.obj
 0001:0003bf08       eckey_param_encode         000000000003c1c8 f   OpensslLib:ec_ameth.obj
 0001:0003bf14       eckey_param_print          000000000003c1d4 f   OpensslLib:ec_ameth.obj
 0001:0003bf24       eckey_pub_print            000000000003c1e4 f   OpensslLib:ec_ameth.obj
 0001:0003bf34       eckey_priv_print           000000000003c1f4 f   OpensslLib:ec_ameth.obj
 0001:0003bf40       old_ec_priv_decode         000000000003c200 f   OpensslLib:ec_ameth.obj
 0001:0003bf88       old_ec_priv_encode         000000000003c248 f   OpensslLib:ec_ameth.obj
 0001:0003bf94       ec_pkey_ctrl               000000000003c254 f   OpensslLib:ec_ameth.obj
 0001:0003c09c       ec_pkey_check              000000000003c35c f   OpensslLib:ec_ameth.obj
 0001:0003c0d0       ec_pkey_public_check       000000000003c390 f   OpensslLib:ec_ameth.obj
 0001:0003c0dc       ec_pkey_param_check        000000000003c39c f   OpensslLib:ec_ameth.obj
 0001:0003c110       siphash_size               000000000003c3d0 f   OpensslLib:siphash_ameth.obj
 0001:0003c118       hmac_key_free              000000000003c3d8 f   OpensslLib:hm_ameth.obj
 0001:0003c118       siphash_key_free           000000000003c3d8 f   OpensslLib:siphash_ameth.obj
 0001:0003c14c       dh_pkey_ctrl               000000000003c40c f   OpensslLib:dh_ameth.obj
 0001:0003c14c       siphash_pkey_ctrl          000000000003c40c f   OpensslLib:siphash_ameth.obj
 0001:0003c154       hmac_pkey_public_cmp       000000000003c414 f   OpensslLib:hm_ameth.obj
 0001:0003c154       siphash_pkey_public_cmp    000000000003c414 f   OpensslLib:siphash_ameth.obj
 0001:0003c174       siphash_set_priv_key       000000000003c434 f   OpensslLib:siphash_ameth.obj
 0001:0003c1e4       siphash_get_priv_key       000000000003c4a4 f   OpensslLib:siphash_ameth.obj
 0001:0003c234       hmac_pkey_ctrl             000000000003c4f4 f   OpensslLib:hm_ameth.obj
 0001:0003c24c       hmac_set_priv_key          000000000003c50c f   OpensslLib:hm_ameth.obj
 0001:0003c2c0       hmac_get_priv_key          000000000003c580 f   OpensslLib:hm_ameth.obj
 0001:0003c308       rsa_param_encode           000000000003c5c8 f   OpensslLib:rsa_ameth.obj
 0001:0003c360       rsa_param_decode           000000000003c620 f   OpensslLib:rsa_ameth.obj
 0001:0003c3dc       rsa_pub_encode             000000000003c69c f   OpensslLib:rsa_ameth.obj
 0001:0003c4d4       rsa_pub_decode             000000000003c794 f   OpensslLib:rsa_ameth.obj
 0001:0003c56c       rsa_pub_cmp                000000000003c82c f   OpensslLib:rsa_ameth.obj
 0001:0003c5d4       old_rsa_priv_decode        000000000003c894 f   OpensslLib:rsa_ameth.obj
 0001:0003c620       old_rsa_priv_encode        000000000003c8e0 f   OpensslLib:rsa_ameth.obj
 0001:0003c634       rsa_priv_encode            000000000003c8f4 f   OpensslLib:rsa_ameth.obj
 0001:0003c70c       rsa_priv_decode            000000000003c9cc f   OpensslLib:rsa_ameth.obj
 0001:0003c7a0       int_rsa_size               000000000003ca60 f   OpensslLib:rsa_ameth.obj
 0001:0003c7c4       rsa_bits                   000000000003ca84 f   OpensslLib:rsa_ameth.obj
 0001:0003c7d4       rsa_security_bits          000000000003ca94 f   OpensslLib:rsa_ameth.obj
 0001:0003c890       int_rsa_free               000000000003cb50 f   OpensslLib:rsa_ameth.obj
 0001:0003c89c       rsa_pss_param_print        000000000003cb5c f   OpensslLib:rsa_ameth.obj
 0001:0003cb80       pkey_rsa_print             000000000003ce40 f   OpensslLib:rsa_ameth.obj
 0001:0003cee8       rsa_pub_print              000000000003d1a8 f   OpensslLib:rsa_ameth.obj
 0001:0003cef0       rsa_priv_print             000000000003d1b0 f   OpensslLib:rsa_ameth.obj
 0001:0003cefc       rsa_pss_decode             000000000003d1bc f   OpensslLib:rsa_ameth.obj
 0001:0003cf80       rsa_sig_print              000000000003d240 f   OpensslLib:rsa_ameth.obj
 0001:0003d030       rsa_pkey_ctrl              000000000003d2f0 f   OpensslLib:rsa_ameth.obj
 0001:0003d124       rsa_md_to_algor            000000000003d3e4 f   OpensslLib:rsa_ameth.obj
 0001:0003d194       rsa_md_to_mgf1             000000000003d454 f   OpensslLib:rsa_ameth.obj
 0001:0003d39c       rsa_ctx_to_pss_string      000000000003d65c f   OpensslLib:rsa_ameth.obj
 0001:0003d538       rsa_pss_to_ctx             000000000003d7f8 f   OpensslLib:rsa_ameth.obj
 0001:0003d920       rsa_item_verify            000000000003dbe0 f   OpensslLib:rsa_ameth.obj
 0001:0003d980       rsa_item_sign              000000000003dc40 f   OpensslLib:rsa_ameth.obj
 0001:0003da50       rsa_sig_info_set           000000000003dd10 f   OpensslLib:rsa_ameth.obj
 0001:0003db24       rsa_pkey_check             000000000003dde4 f   OpensslLib:rsa_ameth.obj
 0001:0003db30       i2d_dhp                    000000000003ddf0 f   OpensslLib:dh_ameth.obj
 0001:0003dbd8       int_dh_free                000000000003de98 f   OpensslLib:dh_ameth.obj
 0001:0003dbe4       dh_pub_decode              000000000003dea4 f   OpensslLib:dh_ameth.obj
 0001:0003ddb4       dh_pub_encode              000000000003e074 f   OpensslLib:dh_ameth.obj
 0001:0003df08       dh_priv_decode             000000000003e1c8 f   OpensslLib:dh_ameth.obj
 0001:0003e104       dh_priv_encode             000000000003e3c4 f   OpensslLib:dh_ameth.obj
 0001:0003e23c       dh_param_decode            000000000003e4fc f   OpensslLib:dh_ameth.obj
 0001:0003e29c       dh_param_encode            000000000003e55c f   OpensslLib:dh_ameth.obj
 0001:0003e2a8       do_dh_print                000000000003e568 f   OpensslLib:dh_ameth.obj
 0001:0003e59c       int_dh_size                000000000003e85c f   OpensslLib:dh_ameth.obj
 0001:0003e5c0       dh_bits                    000000000003e880 f   OpensslLib:dh_ameth.obj
 0001:0003e5d0       dh_security_bits           000000000003e890 f   OpensslLib:dh_ameth.obj
 0001:0003e618       dh_cmp_parameters          000000000003e8d8 f   OpensslLib:dh_ameth.obj
 0001:0003e68c       int_dh_bn_cpy              000000000003e94c f   OpensslLib:dh_ameth.obj
 0001:0003e6d8       int_dh_param_copy          000000000003e998 f   OpensslLib:dh_ameth.obj
 0001:0003e79c       dh_copy_parameters         000000000003ea5c f   OpensslLib:dh_ameth.obj
 0001:0003e7f8       dh_missing_parameters      000000000003eab8 f   OpensslLib:dh_ameth.obj
 0001:0003e818       dh_pub_cmp                 000000000003ead8 f   OpensslLib:dh_ameth.obj
 0001:0003e860       dh_param_print             000000000003eb20 f   OpensslLib:dh_ameth.obj
 0001:0003e86c       dh_public_print            000000000003eb2c f   OpensslLib:dh_ameth.obj
 0001:0003e87c       dh_private_print           000000000003eb3c f   OpensslLib:dh_ameth.obj
 0001:0003e88c       dh_pkey_public_check       000000000003eb4c f   OpensslLib:dh_ameth.obj
 0001:0003e91c       dh_pkey_param_check        000000000003ebdc f   OpensslLib:dh_ameth.obj
 0001:0003ef84       rand_drbg_new              000000000003f244 f   OpensslLib:drbg_lib.obj
 0001:0003fa18       drbg_setup                 000000000003fcd8 f   OpensslLib:drbg_lib.obj
 0001:0003fad0       do_rand_drbg_init_ossl_    000000000003fd90 f   OpensslLib:drbg_lib.obj
 0001:0003fb60       drbg_bytes                 000000000003fe20 f   OpensslLib:drbg_lib.obj
 0001:0003fcb8       drbg_add                   000000000003ff78 f   OpensslLib:drbg_lib.obj
 0001:0003fddc       drbg_seed                  000000000004009c f   OpensslLib:drbg_lib.obj
 0001:0003fdec       drbg_status                00000000000400ac f   OpensslLib:drbg_lib.obj
 0001:0004020c       do_rand_init_ossl_         00000000000404cc f   OpensslLib:rand_lib.obj
 0001:000403d4       rand_pool_grow             0000000000040694 f   OpensslLib:rand_lib.obj
 0001:00040774       pkey_dh_init               0000000000040a34 f   OpensslLib:dh_pmeth.obj
 0001:000407d0       pkey_dh_cleanup            0000000000040a90 f   OpensslLib:dh_pmeth.obj
 0001:00040800       pkey_dh_copy               0000000000040ac0 f   OpensslLib:dh_pmeth.obj
 0001:000408b4       pkey_dh_ctrl               0000000000040b74 f   OpensslLib:dh_pmeth.obj
 0001:00040a64       pkey_dh_ctrl_str           0000000000040d24 f   OpensslLib:dh_pmeth.obj
 0001:00040c04       pkey_dh_paramgen           0000000000040ec4 f   OpensslLib:dh_pmeth.obj
 0001:00040e28       pkey_dh_keygen             00000000000410e8 f   OpensslLib:dh_pmeth.obj
 0001:00040eb4       pkey_dh_derive             0000000000041174 f   OpensslLib:dh_pmeth.obj
 0001:00041040       pkey_cmac_init             0000000000041300 f   OpensslLib:cm_pmeth.obj
 0001:00041068       pkey_cmac_copy             0000000000041328 f   OpensslLib:cm_pmeth.obj
 0001:000410a8       pkey_cmac_keygen           0000000000041368 f   OpensslLib:cm_pmeth.obj
 0001:00041110       int_update                 00000000000413d0 f   OpensslLib:cm_pmeth.obj
 0001:00041204       cmac_signctx_init          00000000000414c4 f   OpensslLib:cm_pmeth.obj
 0001:0004121c       cmac_signctx               00000000000414dc f   OpensslLib:cm_pmeth.obj
 0001:0004132c       pkey_cmac_ctrl             00000000000415ec f   OpensslLib:cm_pmeth.obj
 0001:000413b8       pkey_cmac_ctrl_str         0000000000041678 f   OpensslLib:cm_pmeth.obj
 0001:00041488       pkey_rsa_init              0000000000041748 f   OpensslLib:rsa_pmeth.obj
 0001:000414ec       pkey_rsa_copy              00000000000417ac f   OpensslLib:rsa_pmeth.obj
 0001:00041580       setup_tbuf                 0000000000041840 f   OpensslLib:rsa_pmeth.obj
 0001:000415f8       pkey_rsa_cleanup           00000000000418b8 f   OpensslLib:rsa_pmeth.obj
 0001:00041630       pkey_rsa_sign              00000000000418f0 f   OpensslLib:rsa_pmeth.obj
 0001:00041840       pkey_rsa_verifyrecover     0000000000041b00 f   OpensslLib:rsa_pmeth.obj
 0001:000419d4       pkey_rsa_verify            0000000000041c94 f   OpensslLib:rsa_pmeth.obj
 0001:00041b80       pkey_rsa_encrypt           0000000000041e40 f   OpensslLib:rsa_pmeth.obj
 0001:00041c84       pkey_rsa_decrypt           0000000000041f44 f   OpensslLib:rsa_pmeth.obj
 0001:00041dc4       check_padding_md           0000000000042084 f   OpensslLib:rsa_pmeth.obj
 0001:00041e7c       pkey_rsa_ctrl              000000000004213c f   OpensslLib:rsa_pmeth.obj
 0001:0004220c       pkey_rsa_ctrl_str          00000000000424cc f   OpensslLib:rsa_pmeth.obj
 0001:000426bc       pkey_rsa_keygen            000000000004297c f   OpensslLib:rsa_pmeth.obj
 0001:0004285c       pkey_pss_init              0000000000042b1c f   OpensslLib:rsa_pmeth.obj
 0001:00042948       pkey_tls1_prf_init         0000000000042c08 f   OpensslLib:tls1_prf.obj
 0001:00042984       pkey_tls1_prf_cleanup      0000000000042c44 f   OpensslLib:tls1_prf.obj
 0001:000429e4       pkey_tls1_prf_ctrl         0000000000042ca4 f   OpensslLib:tls1_prf.obj
 0001:00042af8       pkey_tls1_prf_ctrl_str     0000000000042db8 f   OpensslLib:tls1_prf.obj
 0001:00042c0c       pkey_tls1_prf_derive       0000000000042ecc f   OpensslLib:tls1_prf.obj
 0001:00042c80       tls1_prf_P_hash            0000000000042f40 f   OpensslLib:tls1_prf.obj
 0001:00042fbc       tls1_prf_alg               000000000004327c f   OpensslLib:tls1_prf.obj
 0001:0004312c       pkey_hkdf_init             00000000000433ec f   OpensslLib:hkdf.obj
 0001:00043168       pkey_hkdf_cleanup          0000000000043428 f   OpensslLib:hkdf.obj
 0001:000431f0       pkey_hkdf_ctrl             00000000000434b0 f   OpensslLib:hkdf.obj
 0001:00043358       pkey_hkdf_ctrl_str         0000000000043618 f   OpensslLib:hkdf.obj
 0001:00043504       pkey_hkdf_derive_init      00000000000437c4 f   OpensslLib:hkdf.obj
 0001:00043598       pkey_hkdf_derive           0000000000043858 f   OpensslLib:hkdf.obj
 0001:00043718       HKDF_Extract               00000000000439d8 f   OpensslLib:hkdf.obj
 0001:00043800       HKDF_Expand                0000000000043ac0 f   OpensslLib:hkdf.obj
 0001:000439e8       pkey_sm2_init              0000000000043ca8 f   OpensslLib:sm2_pmeth.obj
 0001:00043a24       pkey_sm2_cleanup           0000000000043ce4 f   OpensslLib:sm2_pmeth.obj
 0001:00043a64       pkey_sm2_copy              0000000000043d24 f   OpensslLib:sm2_pmeth.obj
 0001:00043b28       pkey_sm2_sign              0000000000043de8 f   OpensslLib:sm2_pmeth.obj
 0001:00043bbc       pkey_sm2_verify            0000000000043e7c f   OpensslLib:sm2_pmeth.obj
 0001:00043d14       pkey_sm2_encrypt           0000000000043fd4 f   OpensslLib:sm2_pmeth.obj
 0001:00043e04       pkey_sm2_decrypt           00000000000440c4 f   OpensslLib:sm2_pmeth.obj
 0001:00043eb8       pkey_sm2_ctrl              0000000000044178 f   OpensslLib:sm2_pmeth.obj
 0001:00044000       pkey_sm2_ctrl_str          00000000000442c0 f   OpensslLib:sm2_pmeth.obj
 0001:000440e4       pkey_sm2_digest_custom     00000000000443a4 f   OpensslLib:sm2_pmeth.obj
 0001:000441b4       pkey_siphash_init          0000000000044474 f   OpensslLib:siphash_pmeth.obj
 0001:00044200       pkey_siphash_cleanup       00000000000444c0 f   OpensslLib:siphash_pmeth.obj
 0001:00044274       pkey_siphash_copy          0000000000044534 f   OpensslLib:siphash_pmeth.obj
 0001:000442e8       pkey_siphash_keygen        00000000000445a8 f   OpensslLib:siphash_pmeth.obj
 0001:00044324       int_update                 00000000000445e4 f   OpensslLib:siphash_pmeth.obj
 0001:00044344       siphash_signctx_init       0000000000044604 f   OpensslLib:siphash_pmeth.obj
 0001:000443a4       siphash_signctx            0000000000044664 f   OpensslLib:siphash_pmeth.obj
 0001:000443c8       pkey_siphash_ctrl          0000000000044688 f   OpensslLib:siphash_pmeth.obj
 0001:000444c4       pkey_siphash_ctrl_str      0000000000044784 f   OpensslLib:siphash_pmeth.obj
 0001:0004457c       pkey_ec_init               000000000004483c f   OpensslLib:ec_pmeth.obj
 0001:000445c0       pkey_ec_copy               0000000000044880 f   OpensslLib:ec_pmeth.obj
 0001:00044668       pkey_ec_cleanup            0000000000044928 f   OpensslLib:ec_pmeth.obj
 0001:000446b0       pkey_ec_sign               0000000000044970 f   OpensslLib:ec_pmeth.obj
 0001:00044784       pkey_ec_verify             0000000000044a44 f   OpensslLib:ec_pmeth.obj
 0001:000447f0       pkey_ec_derive             0000000000044ab0 f   OpensslLib:ec_pmeth.obj
 0001:000448ac       pkey_ec_kdf_derive         0000000000044b6c f   OpensslLib:ec_pmeth.obj
 0001:000449fc       pkey_ec_ctrl               0000000000044cbc f   OpensslLib:ec_pmeth.obj
 0001:00044c60       pkey_ec_ctrl_str           0000000000044f20 f   OpensslLib:ec_pmeth.obj
 0001:00044dd0       pkey_ec_paramgen           0000000000045090 f   OpensslLib:ec_pmeth.obj
 0001:00044e54       pkey_ec_keygen             0000000000045114 f   OpensslLib:ec_pmeth.obj
 0001:00044f40       pkey_hmac_init             0000000000045200 f   OpensslLib:hm_pmeth.obj
 0001:00044fac       pkey_hmac_copy             000000000004526c f   OpensslLib:hm_pmeth.obj
 0001:00045024       pkey_hmac_cleanup          00000000000452e4 f   OpensslLib:hm_pmeth.obj
 0001:00045090       pkey_hmac_keygen           0000000000045350 f   OpensslLib:hm_pmeth.obj
 0001:000450d4       int_update                 0000000000045394 f   OpensslLib:hm_pmeth.obj
 0001:0004510c       hmac_signctx_init          00000000000453cc f   OpensslLib:hm_pmeth.obj
 0001:0004514c       hmac_signctx               000000000004540c f   OpensslLib:hm_pmeth.obj
 0001:000451b8       pkey_hmac_ctrl             0000000000045478 f   OpensslLib:hm_pmeth.obj
 0001:00045228       pkey_hmac_ctrl_str         00000000000454e8 f   OpensslLib:hm_pmeth.obj
 0001:0004767c       bn_get_bits                000000000004793c f   OpensslLib:bn_exp.obj
 0001:000476d4       MOD_EXP_CTIME_COPY_TO_PREBUF 0000000000047994 f   OpensslLib:bn_exp.obj
 0001:0004772c       MOD_EXP_CTIME_COPY_FROM_PREBUF 00000000000479ec f   OpensslLib:bn_exp.obj
 0001:00048520       enc_new                    00000000000487e0 f   OpensslLib:bio_enc.obj
 0001:000485a0       enc_free                   0000000000048860 f   OpensslLib:bio_enc.obj
 0001:00048614       enc_read                   00000000000488d4 f   OpensslLib:bio_enc.obj
 0001:000488b0       enc_write                  0000000000048b70 f   OpensslLib:bio_enc.obj
 0001:00048a4c       enc_ctrl                   0000000000048d0c f   OpensslLib:bio_enc.obj
 0001:00048c44       enc_callback_ctrl          0000000000048f04 f   OpensslLib:bio_enc.obj
 0001:00048c44       md_callback_ctrl           0000000000048f04 f   OpensslLib:bio_md.obj
 0001:00048c5c       update                     0000000000048f1c f   OpensslLib:m_sigver.obj
 0001:00048c7c       do_sigver_init             0000000000048f3c f   OpensslLib:m_sigver.obj
 0001:00049174       md_new                     0000000000049434 f   OpensslLib:bio_md.obj
 0001:000491a0       md_free                    0000000000049460 f   OpensslLib:bio_md.obj
 0001:000491e4       md_read                    00000000000494a4 f   OpensslLib:bio_md.obj
 0001:00049288       md_write                   0000000000049548 f   OpensslLib:bio_md.obj
 0001:0004932c       md_ctrl                    00000000000495ec f   OpensslLib:bio_md.obj
 0001:00049454       md_gets                    0000000000049714 f   OpensslLib:bio_md.obj
 0001:000495f8       null_gets                  00000000000498b8 f   OpensslLib:bss_null.obj
 0001:000495f8       null_read                  00000000000498b8 f   OpensslLib:bss_null.obj
 0001:000495fc       null_write                 00000000000498bc f   OpensslLib:bss_null.obj
 0001:00049600       null_ctrl                  00000000000498c0 f   OpensslLib:bss_null.obj
 0001:00049638       null_puts                  00000000000498f8 f   OpensslLib:bss_null.obj
 0001:00049f2c       bn_mod_inverse_no_branch   000000000004a1ec f   OpensslLib:bn_gcd.obj
 0001:0004c808       i2v_EXTENDED_KEY_USAGE     000000000004cac8 f   OpensslLib:v3_extku.obj
 0001:0004c894       v2i_EXTENDED_KEY_USAGE     000000000004cb54 f   OpensslLib:v3_extku.obj
 0001:0004cba0       i2r_ocsp_crlid             000000000004ce60 f   OpensslLib:v3_ocsp.obj
 0001:0004ccf4       i2r_ocsp_acutoff           000000000004cfb4 f   OpensslLib:v3_ocsp.obj
 0001:0004cd40       i2r_object                 000000000004d000 f   OpensslLib:v3_ocsp.obj
 0001:0004cd84       ocsp_nonce_new             000000000004d044 f   OpensslLib:v3_ocsp.obj
 0001:0004cd90       i2d_ocsp_nonce             000000000004d050 f   OpensslLib:v3_ocsp.obj
 0001:0004cdc8       d2i_ocsp_nonce             000000000004d088 f   OpensslLib:v3_ocsp.obj
 0001:0004ce60       i2r_ocsp_nonce             000000000004d120 f   OpensslLib:v3_ocsp.obj
 0001:0004cea4       s2i_ocsp_nocheck           000000000004d164 f   OpensslLib:v3_ocsp.obj
 0001:0004ceb0       i2r_ocsp_serviceloc        000000000004d170 f   OpensslLib:v3_ocsp.obj
 0001:0004cfbc       i2v_AUTHORITY_KEYID        000000000004d27c f   OpensslLib:v3_akey.obj
 0001:0004d0fc       v2i_AUTHORITY_KEYID        000000000004d3bc f   OpensslLib:v3_akey.obj
 0001:0004d538       s2i_asn1_int               000000000004d7f8 f   OpensslLib:v3_int.obj
 0001:0004d540       i2r_NAMING_AUTHORITY       000000000004d800 f   OpensslLib:v3_admis.obj
 0001:0004d6ec       i2r_ADMISSION_SYNTAX       000000000004d9ac f   OpensslLib:v3_admis.obj
 0001:0004db28       s2i_skey_id                000000000004dde8 f   OpensslLib:v3_skey.obj
 0001:0004dd14       i2r_PKEY_USAGE_PERIOD      000000000004dfd4 f   OpensslLib:v3_pku.obj
 0001:0004dde0       i2v_POLICY_MAPPINGS        000000000004e0a0 f   OpensslLib:v3_pmaps.obj
 0001:0004de98       v2i_POLICY_MAPPINGS        000000000004e158 f   OpensslLib:v3_pmaps.obj
 0001:0004e080       sxnet_i2r                  000000000004e340 f   OpensslLib:v3_sxnet.obj
 0001:0004e140       sxnet_v2i                  000000000004e400 f   OpensslLib:v3_sxnet.obj
 0001:0004e43c       i2r_pci                    000000000004e6fc f   OpensslLib:v3_pci.obj
 0001:0004e4e0       process_pci_value          000000000004e7a0 f   OpensslLib:v3_pci.obj
 0001:0004e8f8       r2i_pci                    000000000004ebb8 f   OpensslLib:v3_pci.obj
 0001:0004ed24       i2v_TLS_FEATURE            000000000004efe4 f   OpensslLib:v3_tlsf.obj
 0001:0004edd8       v2i_TLS_FEATURE            000000000004f098 f   OpensslLib:v3_tlsf.obj
 0001:0004f0a0       generate_v3                000000000004f360 f   OpensslLib:asn1_gen.obj
 0001:0004f3e4       asn1_cb                    000000000004f6a4 f   OpensslLib:asn1_gen.obj
 0001:0004f660       parse_tagging              000000000004f920 f   OpensslLib:asn1_gen.obj
 0001:0004f70c       asn1_multi                 000000000004f9cc f   OpensslLib:asn1_gen.obj
 0001:0004f8bc       append_exp                 000000000004fb7c f   OpensslLib:asn1_gen.obj
 0001:0004f950       asn1_str2tag               000000000004fc10 f   OpensslLib:asn1_gen.obj
 0001:0004f9e8       asn1_str2type              000000000004fca8 f   OpensslLib:asn1_gen.obj
 0001:0004fd7c       bitstr_cb                  000000000005003c f   OpensslLib:asn1_gen.obj
 0001:0004fdd0       mask_cb                    0000000000050090 f   OpensslLib:asn1_gen.obj
 0001:00050714       ecdsa_sign_setup           00000000000509d4 f   OpensslLib:ecdsa_ossl.obj
 0001:00051848       oneshot_hash               0000000000051b08 f   OpensslLib:eddsa.obj
 0001:000518ec       hash_init_with_dom         0000000000051bac f   OpensslLib:eddsa.obj
 0001:00052004       fe_frombytes               00000000000522c4 f   OpensslLib:curve25519.obj
 0001:000522bc       fe_tobytes                 000000000005257c f   OpensslLib:curve25519.obj
 0001:0005252c       fe_mul                     00000000000527ec f   OpensslLib:curve25519.obj
 0001:00052de4       fe_sq                      00000000000530a4 f   OpensslLib:curve25519.obj
 0001:00053370       fe_invert                  0000000000053630 f   OpensslLib:curve25519.obj
 0001:000535b0       fe_sq2                     0000000000053870 f   OpensslLib:curve25519.obj
 0001:00053b20       fe_pow22523                0000000000053de0 f   OpensslLib:curve25519.obj
 0001:00053d64       ge_p3_tobytes              0000000000054024 f   OpensslLib:curve25519.obj
 0001:00053de4       ge_frombytes_vartime       00000000000540a4 f   OpensslLib:curve25519.obj
 0001:0005403c       ge_p3_to_cached            00000000000542fc f   OpensslLib:curve25519.obj
 0001:000540bc       ge_p1p1_to_p2              000000000005437c f   OpensslLib:curve25519.obj
 0001:00054118       ge_p1p1_to_p3              00000000000543d8 f   OpensslLib:curve25519.obj
 0001:0005418c       ge_p2_dbl                  000000000005444c f   OpensslLib:curve25519.obj
 0001:00054278       ge_p3_dbl                  0000000000054538 f   OpensslLib:curve25519.obj
 0001:000542e8       ge_madd                    00000000000545a8 f   OpensslLib:curve25519.obj
 0001:00054428       ge_add                     00000000000546e8 f   OpensslLib:curve25519.obj
 0001:0005457c       cmov                       000000000005483c f   OpensslLib:curve25519.obj
 0001:000545fc       table_select               00000000000548bc f   OpensslLib:curve25519.obj
 0001:000547f4       ge_scalarmult_base         0000000000054ab4 f   OpensslLib:curve25519.obj
 0001:000549e0       x25519_scalar_mult_generic 0000000000054ca0 f   OpensslLib:curve25519.obj
 0001:00054ea4       slide                      0000000000055164 f   OpensslLib:curve25519.obj
 0001:00054fa4       ge_double_scalarmult_vartime 0000000000055264 f   OpensslLib:curve25519.obj
 0001:0005550c       x25519_sc_reduce           00000000000557cc f   OpensslLib:curve25519.obj
 0001:00056344       sc_muladd                  0000000000056604 f   OpensslLib:curve25519.obj
 0001:0005872c       gf_bias                    00000000000589ec f   OpensslLib:curve448.obj
 0001:0005878c       gf_weak_reduce             0000000000058a4c f   OpensslLib:curve448.obj
 0001:0005878c       gf_weak_reduce             0000000000058a4c f   OpensslLib:f_generic.obj
 0001:000587d8       gf_sub_nr                  0000000000058a98 f   OpensslLib:curve448.obj
 0001:0005881c       gf_cond_neg                0000000000058adc f   OpensslLib:curve448.obj
 0001:00058894       gf_invert                  0000000000058b54 f   OpensslLib:curve448.obj
 0001:00058920       point_double_internal      0000000000058be0 f   OpensslLib:curve448.obj
 0001:00058aec       pt_to_pniels               0000000000058dac f   OpensslLib:curve448.obj
 0001:00058b6c       pniels_to_pt               0000000000058e2c f   OpensslLib:curve448.obj
 0001:00058c0c       niels_to_pt                0000000000058ecc f   OpensslLib:curve448.obj
 0001:00058ca8       add_niels_to_pt            0000000000058f68 f   OpensslLib:curve448.obj
 0001:00058e1c       sub_niels_from_pt          00000000000590dc f   OpensslLib:curve448.obj
 0001:00058f84       add_pniels_to_pt           0000000000059244 f   OpensslLib:curve448.obj
 0001:00059c10       recode_wnaf                0000000000059ed0 f   OpensslLib:curve448.obj
 0001:0005aa6c       print_bin                  000000000005ad2c f   OpensslLib:eck_prn.obj
 0001:0005b700       dh_cb                      000000000005b9c0 f   OpensslLib:dh_asn1.obj
 0001:0005bb1c       hmac_ctx_cleanup           000000000005bddc f   OpensslLib:hmac.obj
 0001:0005bbb4       hmac_ctx_alloc_mds         000000000005be74 f   OpensslLib:hmac.obj
 0001:0005bc98       sm4_init_key               000000000005bf58 f   OpensslLib:e_sm4.obj
 0001:0005bcb8       sm4_cbc_cipher             000000000005bf78 f   OpensslLib:e_sm4.obj
 0001:0005bdc0       sm4_cfb128_cipher          000000000005c080 f   OpensslLib:e_sm4.obj
 0001:0005be70       sm4_ecb_cipher             000000000005c130 f   OpensslLib:e_sm4.obj
 0001:0005bef4       sm4_ofb_cipher             000000000005c1b4 f   OpensslLib:e_sm4.obj
 0001:0005bff4       sm4_ctr_cipher             000000000005c2b4 f   OpensslLib:e_sm4.obj
 0001:0005c05c       aria_init_key              000000000005c31c f   OpensslLib:e_aria.obj
 0001:0005c0c8       aria_128_cbc_cipher        000000000005c388 f   OpensslLib:e_aria.obj
 0001:0005c0c8       aria_192_cbc_cipher        000000000005c388 f   OpensslLib:e_aria.obj
 0001:0005c0c8       aria_256_cbc_cipher        000000000005c388 f   OpensslLib:e_aria.obj
 0001:0005c19c       aria_128_cfb128_cipher     000000000005c45c f   OpensslLib:e_aria.obj
 0001:0005c19c       aria_192_cfb128_cipher     000000000005c45c f   OpensslLib:e_aria.obj
 0001:0005c19c       aria_256_cfb128_cipher     000000000005c45c f   OpensslLib:e_aria.obj
 0001:0005c24c       aria_128_ecb_cipher        000000000005c50c f   OpensslLib:e_aria.obj
 0001:0005c24c       aria_192_ecb_cipher        000000000005c50c f   OpensslLib:e_aria.obj
 0001:0005c24c       aria_256_ecb_cipher        000000000005c50c f   OpensslLib:e_aria.obj
 0001:0005c2c4       aria_128_ofb_cipher        000000000005c584 f   OpensslLib:e_aria.obj
 0001:0005c2c4       aria_192_ofb_cipher        000000000005c584 f   OpensslLib:e_aria.obj
 0001:0005c2c4       aria_256_ofb_cipher        000000000005c584 f   OpensslLib:e_aria.obj
 0001:0005c3c4       aria_128_cfb1_cipher       000000000005c684 f   OpensslLib:e_aria.obj
 0001:0005c3c4       aria_192_cfb1_cipher       000000000005c684 f   OpensslLib:e_aria.obj
 0001:0005c3c4       aria_256_cfb1_cipher       000000000005c684 f   OpensslLib:e_aria.obj
 0001:0005c480       aria_128_cfb8_cipher       000000000005c740 f   OpensslLib:e_aria.obj
 0001:0005c480       aria_192_cfb8_cipher       000000000005c740 f   OpensslLib:e_aria.obj
 0001:0005c480       aria_256_cfb8_cipher       000000000005c740 f   OpensslLib:e_aria.obj
 0001:0005c52c       aria_ctr_cipher            000000000005c7ec f   OpensslLib:e_aria.obj
 0001:0005c594       aria_gcm_init_key          000000000005c854 f   OpensslLib:e_aria.obj
 0001:0005c6b0       aria_gcm_ctrl              000000000005c970 f   OpensslLib:e_aria.obj
 0001:0005ca9c       aria_gcm_tls_cipher        000000000005cd5c f   OpensslLib:e_aria.obj
 0001:0005cbe0       aria_gcm_cipher            000000000005cea0 f   OpensslLib:e_aria.obj
 0001:0005ccb8       aria_gcm_cleanup           000000000005cf78 f   OpensslLib:e_aria.obj
 0001:0005cce4       aria_ccm_init_key          000000000005cfa4 f   OpensslLib:e_aria.obj
 0001:0005cdc4       aria_ccm_ctrl              000000000005d084 f   OpensslLib:e_aria.obj
 0001:0005cfe8       aria_ccm_tls_cipher        000000000005d2a8 f   OpensslLib:e_aria.obj
 0001:0005d1c8       aria_ccm_cipher            000000000005d488 f   OpensslLib:e_aria.obj
 0001:0005d3fc       aes_init_key               000000000005d6bc f   OpensslLib:e_aes.obj
 0001:0005d4b4       aes_cbc_cipher             000000000005d774 f   OpensslLib:e_aes.obj
 0001:0005d520       aes_ecb_cipher             000000000005d7e0 f   OpensslLib:e_aes.obj
 0001:0005d598       aes_ofb_cipher             000000000005d858 f   OpensslLib:e_aes.obj
 0001:0005d5f8       aes_cfb_cipher             000000000005d8b8 f   OpensslLib:e_aes.obj
 0001:0005d660       aes_cfb8_cipher            000000000005d920 f   OpensslLib:e_aes.obj
 0001:0005d6c0       aes_cfb1_cipher            000000000005d980 f   OpensslLib:e_aes.obj
 0001:0005d7f4       aes_ctr_cipher             000000000005dab4 f   OpensslLib:e_aes.obj
 0001:0005d888       aes_gcm_cleanup            000000000005db48 f   OpensslLib:e_aes.obj
 0001:0005d8e0       aes_gcm_ctrl               000000000005dba0 f   OpensslLib:e_aes.obj
 0001:0005dccc       aes_gcm_init_key           000000000005df8c f   OpensslLib:e_aes.obj
 0001:0005ddc4       aes_gcm_tls_cipher         000000000005e084 f   OpensslLib:e_aes.obj
 0001:0005df10       aes_gcm_cipher             000000000005e1d0 f   OpensslLib:e_aes.obj
 0001:0005e008       aes_xts_ctrl               000000000005e2c8 f   OpensslLib:e_aes.obj
 0001:0005e078       aes_xts_init_key           000000000005e338 f   OpensslLib:e_aes.obj
 0001:0005e1c4       aes_xts_cipher             000000000005e484 f   OpensslLib:e_aes.obj
 0001:0005e25c       aes_ccm_ctrl               000000000005e51c f   OpensslLib:e_aes.obj
 0001:0005e480       aes_ccm_init_key           000000000005e740 f   OpensslLib:e_aes.obj
 0001:0005e538       aes_ccm_tls_cipher         000000000005e7f8 f   OpensslLib:e_aes.obj
 0001:0005e718       aes_ccm_cipher             000000000005e9d8 f   OpensslLib:e_aes.obj
 0001:0005e94c       aes_wrap_init_key          000000000005ec0c f   OpensslLib:e_aes.obj
 0001:0005e9e8       aes_wrap_cipher            000000000005eca8 f   OpensslLib:e_aes.obj
 0001:0005eb8c       ctr_XOR                    000000000005ee4c f   OpensslLib:drbg_ctr.obj
 0001:0005ec0c       ctr_BCC_block              000000000005eecc f   OpensslLib:drbg_ctr.obj
 0001:0005ec78       ctr_BCC_blocks             000000000005ef38 f   OpensslLib:drbg_ctr.obj
 0001:0005ecf4       ctr_BCC_update             000000000005efb4 f   OpensslLib:drbg_ctr.obj
 0001:0005edb8       ctr_df                     000000000005f078 f   OpensslLib:drbg_ctr.obj
 0001:0005f01c       ctr_update                 000000000005f2dc f   OpensslLib:drbg_ctr.obj
 0001:0005f210       drbg_ctr_instantiate       000000000005f4d0 f   OpensslLib:drbg_ctr.obj
 0001:0005f308       drbg_ctr_reseed            000000000005f5c8 f   OpensslLib:drbg_ctr.obj
 0001:0005f374       drbg_ctr_generate          000000000005f634 f   OpensslLib:drbg_ctr.obj
 0001:0005f5e0       drbg_ctr_uninstantiate     000000000005f8a0 f   OpensslLib:drbg_ctr.obj
 0001:0005f864       init                       000000000005fb24 f   OpensslLib:m_sha3.obj
 0001:0005f8e4       sha3_init                  000000000005fba4 f   OpensslLib:m_sha3.obj
 0001:0005f8ec       shake_init                 000000000005fbac f   OpensslLib:m_sha3.obj
 0001:0005f8f4       sha3_update                000000000005fbb4 f   OpensslLib:m_sha3.obj
 0001:0005f9ec       sha3_final                 000000000005fcac f   OpensslLib:m_sha3.obj
 0001:0005fa90       shake_ctrl                 000000000005fd50 f   OpensslLib:m_sha3.obj
 0001:0005fab0       init                       000000000005fd70 f   OpensslLib:m_sm3.obj
 0001:0005fb0c       update                     000000000005fdcc f   OpensslLib:m_sm3.obj
 0001:0005fc20       final                      000000000005fee0 f   OpensslLib:m_sm3.obj
 0001:0005fc30       init                       000000000005fef0 f   OpensslLib:m_md5_sha1.obj
 0001:0005fc74       update                     000000000005ff34 f   OpensslLib:m_md5_sha1.obj
 0001:0005fcb8       final                      000000000005ff78 f   OpensslLib:m_md5_sha1.obj
 0001:0005fcf0       ctrl                       000000000005ffb0 f   OpensslLib:m_md5_sha1.obj
 0001:0005fe90       RandGetBytes               0000000000060150 f   OpensslLib:rand_pool.obj
 0001:0005ffac       trans_cb                   000000000006026c f   OpensslLib:pmeth_gn.obj
 0001:0005ffc4       dh_param_init              0000000000060284 f   OpensslLib:dh_rfc7919.obj
 0001:00060084       dh_builtin_genparams       0000000000060344 f   OpensslLib:dh_gen.obj
 0001:00060370       rsa_builtin_keygen         0000000000060630 f   OpensslLib:rsa_gen.obj
 0001:00061708       sm2_sig_gen                00000000000619c8 f   OpensslLib:sm2_sign.obj
 0001:000619b4       sm2_sig_verify             0000000000061c74 f   OpensslLib:sm2_sign.obj
 0001:00061dc0       ec_field_size              0000000000062080 f   OpensslLib:sm2_crypt.obj
 0001:000637f0       nist_cp_bn_0               0000000000063ab0 f   OpensslLib:bn_nist.obj
 0001:00065db0       witness                    0000000000066070 f   OpensslLib:bn_prime.obj
 0001:00065e90       probable_prime             0000000000066150 f   OpensslLib:bn_prime.obj
 0001:00066024       probable_prime_dh          00000000000662e4 f   OpensslLib:bn_prime.obj
 0001:00066314       sc_subx                    00000000000665d4 f   OpensslLib:scalar.obj
 0001:000663a0       sc_montmul                 0000000000066660 f   OpensslLib:scalar.obj
 0001:00066764       gf_sqrn                    0000000000066a24 f   OpensslLib:f_generic.obj
 0001:00066f8c       SM4_T_slow                 000000000006724c f   OpensslLib:sm4.obj
 0001:000688a0       cfbr_encrypt_block         0000000000068b60 f   OpensslLib:cfb128.obj
 0001:00068b6c       gcm_gmult_4bit             0000000000068e2c f   OpensslLib:gcm128.obj
 0001:0006a1a4       rotnr                      000000000006a464 f   OpensslLib:aria.obj
 0001:0006a22c       sl2                        000000000006a4ec f   OpensslLib:aria.obj
 0001:0006a2bc       a                          000000000006a57c f   OpensslLib:aria.obj
 0001:0006a438       FO                         000000000006a6f8 f   OpensslLib:aria.obj
 0001:0006c24c       crypto_128_unwrap_raw      000000000006c50c f   OpensslLib:wrap128.obj
 0001:0006c688       alg_module_init            000000000006c948 f   OpensslLib:evp_cnf.obj
 0001:0006c7e0       stbl_module_init           000000000006caa0 f   OpensslLib:asn_mstbl.obj
 0001:0006c8bc       stbl_module_finish         000000000006cb7c f   OpensslLib:asn_mstbl.obj
 0001:0006c8e8       do_tcreate                 000000000006cba8 f   OpensslLib:asn_mstbl.obj
 0001:0006cc4c       ssl_module_free            000000000006cf0c f   OpensslLib:conf_ssl.obj
 0001:0006cd18       ssl_module_init            000000000006cfd8 f   OpensslLib:conf_ssl.obj
 0001:0006d034       oid_module_init            000000000006d2f4 f   OpensslLib:asn_moid.obj
 0001:0006d248       oid_module_finish          000000000006d508 f   OpensslLib:asn_moid.obj
 0001:0006d24c       Round                      000000000006d50c f   OpensslLib:keccak1600.obj
 0001:0006d61c       KeccakF1600                000000000006d8dc f   OpensslLib:keccak1600.obj
 0001:00073294       QuickSortWorker            0000000000073554 f   SmmCryptLib:CrtWrapper.obj
 0002:000042c0       K256                       0000000000077d80     OpensslLib:sha256.obj
 0002:000043c8       minbits_table              0000000000077e88     OpensslLib:x509_vfy.obj
 0002:00004490       X509_CINF_seq_tt           0000000000077f50     OpensslLib:x_x509.obj
 0002:000045d0       X509_seq_tt                0000000000078090     OpensslLib:x_x509.obj
 0002:00004660       X509_CINF_aux              0000000000078120     OpensslLib:x_x509.obj
 0002:00004688       X509_aux                   0000000000078148     OpensslLib:x_x509.obj
 0002:000046e0       sha1_md                    00000000000781a0     OpensslLib:m_sha1.obj
 0002:00004730       sha224_md                  00000000000781f0     OpensslLib:m_sha1.obj
 0002:00004780       sha512_224_md              0000000000078240     OpensslLib:m_sha1.obj
 0002:000047d0       sha256_md                  0000000000078290     OpensslLib:m_sha1.obj
 0002:00004820       sha512_md                  00000000000782e0     OpensslLib:m_sha1.obj
 0002:00004870       sha384_md                  0000000000078330     OpensslLib:m_sha1.obj
 0002:000048c0       sha512_256_md              0000000000078380     OpensslLib:m_sha1.obj
 0002:000049a8       X509_NAME_ENTRIES_item_tt  0000000000078468     OpensslLib:x_name.obj
 0002:000049d0       X509_NAME_ENTRY_seq_tt     0000000000078490     OpensslLib:x_name.obj
 0002:00004a40       X509_NAME_INTERNAL_item_tt 0000000000078500     OpensslLib:x_name.obj
 0002:00004a60       x509_name_ff               0000000000078520     OpensslLib:x_name.obj
 0002:00004a98       X509_NAME_INTERNAL_it      0000000000078558     OpensslLib:x_name.obj
 0002:00004ac8       X509_NAME_ENTRIES_it       0000000000078588     OpensslLib:x_name.obj
 0002:00004b00       md5_md                     00000000000785c0     OpensslLib:m_md5.obj
 0002:00004b80       tag2nbyte                  0000000000078640     OpensslLib:a_strex.obj
 0002:00004ba0       char_type                  0000000000078660     OpensslLib:a_strex.obj
 0002:00004ca0       ?hexdig@?1??do_hex_dump@@9@9 0000000000078760     OpensslLib:a_strex.obj
 0002:00004ca0       ?hexdig@?1??OPENSSL_buf2hexstr@@9@9 0000000000078760     OpensslLib:o_str.obj
 0002:00004ca0       ?hex@?1??X509_NAME_oneline@@9@9 0000000000078760     OpensslLib:x509_obj.obj
 0002:00004d80       RSAPublicKey_seq_tt        0000000000078840     OpensslLib:rsa_asn1.obj
 0002:00004dc0       RSAPublicKey_aux           0000000000078880     OpensslLib:rsa_asn1.obj
 0002:00004df0       RSAPrivateKey_seq_tt       00000000000788b0     OpensslLib:rsa_asn1.obj
 0002:00004f30       RSAPrivateKey_aux          00000000000789f0     OpensslLib:rsa_asn1.obj
 0002:00004f88       RSA_PSS_PARAMS_aux         0000000000078a48     OpensslLib:rsa_asn1.obj
 0002:00004fb0       RSA_PSS_PARAMS_seq_tt      0000000000078a70     OpensslLib:rsa_asn1.obj
 0002:00005090       RSA_PRIME_INFO_seq_tt      0000000000078b50     OpensslLib:rsa_asn1.obj
 0002:00005130       mem_method                 0000000000078bf0     OpensslLib:bss_mem.obj
 0002:00005420       PKCS7_ENVELOPE_seq_tt      0000000000078ee0     OpensslLib:pk7_asn1.obj
 0002:00005510       PKCS7_adb                  0000000000078fd0     OpensslLib:pk7_asn1.obj
 0002:00005540       PKCS7_SIGNER_INFO_aux      0000000000079000     OpensslLib:pk7_asn1.obj
 0002:00005570       PKCS7_SIGNER_INFO_seq_tt   0000000000079030     OpensslLib:pk7_asn1.obj
 0002:000056b0       PKCS7_ENC_CONTENT_seq_tt   0000000000079170     OpensslLib:pk7_asn1.obj
 0002:00005770       PKCS7_adbtbl               0000000000079230     OpensslLib:pk7_asn1.obj
 0002:00005890       PKCS7_RECIP_INFO_aux       0000000000079350     OpensslLib:pk7_asn1.obj
 0002:000058e8       p7default_tt               00000000000793a8     OpensslLib:pk7_asn1.obj
 0002:00005910       PKCS7_ISSUER_AND_SERIAL_seq_tt 00000000000793d0     OpensslLib:pk7_asn1.obj
 0002:00005950       PKCS7_SIGN_ENVELOPE_seq_tt 0000000000079410     OpensslLib:pk7_asn1.obj
 0002:00005a30       PKCS7_RECIP_INFO_seq_tt    00000000000794f0     OpensslLib:pk7_asn1.obj
 0002:00005ae0       PKCS7_aux                  00000000000795a0     OpensslLib:pk7_asn1.obj
 0002:00005b40       PKCS7_SIGNED_seq_tt        0000000000079600     OpensslLib:pk7_asn1.obj
 0002:00005c00       PKCS7_ATTR_SIGN_item_tt    00000000000796c0     OpensslLib:pk7_asn1.obj
 0002:00005c20       PKCS7_DIGEST_seq_tt        00000000000796e0     OpensslLib:pk7_asn1.obj
 0002:00005cd0       PKCS7_ATTR_VERIFY_item_tt  0000000000079790     OpensslLib:pk7_asn1.obj
 0002:00005cf0       PKCS7_seq_tt               00000000000797b0     OpensslLib:pk7_asn1.obj
 0002:00005d30       PKCS7_ENCRYPT_seq_tt       00000000000797f0     OpensslLib:pk7_asn1.obj
 0002:0000e010       nid_objs                   0000000000081ad0     OpensslLib:obj_dat.obj
 0002:00019ad0       ln_objs                    000000000008d590     OpensslLib:obj_dat.obj
 0002:0001ad60       so                         000000000008e820     OpensslLib:obj_dat.obj
 0002:0001cbc0       obj_objs                   0000000000090680     OpensslLib:obj_dat.obj
 0002:0001dc80       sn_objs                    0000000000091740     OpensslLib:obj_dat.obj
 0002:0001ef08       ?const_one@?1??BN_value_one@@9@9 00000000000929c8     OpensslLib:bn_lib.obj
 0002:0001ef20       ?data_one@?1??BN_value_one@@9@9 00000000000929e0     OpensslLib:bn_lib.obj
 0002:0001ef90       ?max@?1??asn1_time_to_tm@@9@9 0000000000092a50     OpensslLib:a_time.obj
 0002:0001efc0       ?min@?1??asn1_time_to_tm@@9@9 0000000000092a80     OpensslLib:a_time.obj
 0002:0001efe8       _asn1_mon                  0000000000092aa8     OpensslLib:a_time.obj
 0002:0001f048       ?ydays@?1??determine_days@@9@9 0000000000092b08     OpensslLib:a_time.obj
 0002:0001f080       ?mdays@?1??asn1_time_to_tm@@9@9 0000000000092b40     OpensslLib:a_time.obj
 0002:0001f258       ?supported_nids@?1??X509_supported_extension@@9@9 0000000000092d18     OpensslLib:v3_purp.obj
 0002:0001f380       X509_REVOKED_seq_tt        0000000000092e40     OpensslLib:x_crl.obj
 0002:0001f3e0       X509_CRL_INFO_seq_tt       0000000000092ea0     OpensslLib:x_crl.obj
 0002:0001f4c0       X509_CRL_seq_tt            0000000000092f80     OpensslLib:x_crl.obj
 0002:0001f520       X509_CRL_INFO_aux          0000000000092fe0     OpensslLib:x_crl.obj
 0002:0001f548       X509_CRL_aux               0000000000093008     OpensslLib:x_crl.obj
 0002:0001f6f0       OTHERNAME_seq_tt           00000000000931b0     OpensslLib:v3_genn.obj
 0002:0001f730       EDIPARTYNAME_seq_tt        00000000000931f0     OpensslLib:v3_genn.obj
 0002:0001f770       GENERAL_NAMES_item_tt      0000000000093230     OpensslLib:v3_genn.obj
 0002:0001f7f0       GENERAL_NAME_ch_tt         00000000000932b0     OpensslLib:v3_genn.obj
 0002:0001f930       default_table              00000000000933f0     OpensslLib:x509_vpm.obj
 0002:0001fb90       X509_PUBKEY_aux            0000000000093650     OpensslLib:x_pubkey.obj
 0002:0001fbc0       X509_PUBKEY_seq_tt         0000000000093680     OpensslLib:x_pubkey.obj
 0002:0001fd50       NAME_CONSTRAINTS_seq_tt    0000000000093810     OpensslLib:v3_ncons.obj
 0002:0001fe30       GENERAL_SUBTREE_seq_tt     00000000000938f0     OpensslLib:v3_ncons.obj
 0002:0001fec0       ctype_char_map             0000000000093980     OpensslLib:ctype.obj
 0002:000201b8       ASN1_SEQUENCE_ANY_item_tt  0000000000093c78     OpensslLib:tasn_typ.obj
 0002:000202c8       ASN1_SET_ANY_item_tt       0000000000093d88     OpensslLib:tasn_typ.obj
 0002:00020540       tag2bit                    0000000000094000     OpensslLib:tasn_dec.obj
 0002:000205e0       X509_ALGOR_seq_tt          00000000000940a0     OpensslLib:x_algor.obj
 0002:000208c8       CRL_DIST_POINTS_item_tt    0000000000094388     OpensslLib:v3_crld.obj
 0002:000208f0       ISSUING_DIST_POINT_seq_tt  00000000000943b0     OpensslLib:v3_crld.obj
 0002:00020a80       reason_flags               0000000000094540     OpensslLib:v3_crld.obj
 0002:00020c10       DIST_POINT_NAME_ch_tt      00000000000946d0     OpensslLib:v3_crld.obj
 0002:00020cc0       DIST_POINT_seq_tt          0000000000094780     OpensslLib:v3_crld.obj
 0002:00020d50       DIST_POINT_NAME_aux        0000000000094810     OpensslLib:v3_crld.obj
 0002:00020da0       X509_EXTENSION_seq_tt      0000000000094860     OpensslLib:x_exten.obj
 0002:00020e70       X509_CERT_AUX_seq_tt       0000000000094930     OpensslLib:x_x509a.obj
 0002:00020f80       AUTHORITY_KEYID_seq_tt     0000000000094a40     OpensslLib:v3_akeya.obj
 0002:00021010       X509_VAL_seq_tt            0000000000094ad0     OpensslLib:x_val.obj
 0002:00021080       K512                       0000000000094b40     OpensslLib:sha512.obj
 0002:00021320       X509_ATTRIBUTE_seq_tt      0000000000094de0     OpensslLib:x_attrib.obj
 0002:00021390       ?zero_iv@?1??CMAC_Init@@9@9 0000000000094e50     OpensslLib:cmac.obj
 0002:000213b0       sigoid_srt_xref            0000000000094e70     OpensslLib:obj_xref.obj
 0002:00021510       sigoid_srt                 0000000000094fd0     OpensslLib:obj_xref.obj
 0002:00021770       tbl_standard               0000000000095230     OpensslLib:a_strnid.obj
 0002:00021b50       ?tag2str@?1??ASN1_tag2str@@9@9 0000000000095610     OpensslLib:asn1_par.obj
 0002:000228b0       X509_SIG_seq_tt            0000000000096370     OpensslLib:x_sig.obj
 0002:00022ae0       X9_62_CURVE_it             00000000000965a0     OpensslLib:ec_asn1.obj
 0002:00022b10       X9_62_FIELDID_seq_tt       00000000000965d0     OpensslLib:ec_asn1.obj
 0002:00022b50       X9_62_PENTANOMIAL_seq_tt   0000000000096610     OpensslLib:ec_asn1.obj
 0002:00022bb0       fieldID_def_tt             0000000000096670     OpensslLib:ec_asn1.obj
 0002:00022bd0       X9_62_CHARACTERISTIC_TWO_adb 0000000000096690     OpensslLib:ec_asn1.obj
 0002:00022c00       X9_62_CHARACTERISTIC_TWO_seq_tt 00000000000966c0     OpensslLib:ec_asn1.obj
 0002:00022c60       ECDSA_SIG_seq_tt           0000000000096720     OpensslLib:ec_asn1.obj
 0002:00022ca0       ECPARAMETERS_seq_tt        0000000000096760     OpensslLib:ec_asn1.obj
 0002:00022d60       ECDSA_SIG_it               0000000000096820     OpensslLib:ec_asn1.obj
 0002:00022d90       X9_62_FIELDID_it           0000000000096850     OpensslLib:ec_asn1.obj
 0002:00022dc0       X9_62_CHARACTERISTIC_TWO_it 0000000000096880     OpensslLib:ec_asn1.obj
 0002:00022df0       ECPKPARAMETERS_ch_tt       00000000000968b0     OpensslLib:ec_asn1.obj
 0002:00022e80       EC_PRIVATEKEY_it           0000000000096940     OpensslLib:ec_asn1.obj
 0002:00022eb0       X9_62_FIELDID_adb          0000000000096970     OpensslLib:ec_asn1.obj
 0002:00022ee0       EC_PRIVATEKEY_seq_tt       00000000000969a0     OpensslLib:ec_asn1.obj
 0002:00022f60       X9_62_CURVE_seq_tt         0000000000096a20     OpensslLib:ec_asn1.obj
 0002:00022fc0       X9_62_PENTANOMIAL_it       0000000000096a80     OpensslLib:ec_asn1.obj
 0002:00022ff0       X9_62_CHARACTERISTIC_TWO_adbtbl 0000000000096ab0     OpensslLib:ec_asn1.obj
 0002:00023068       char_two_def_tt            0000000000096b28     OpensslLib:ec_asn1.obj
 0002:00023090       X9_62_FIELDID_adbtbl       0000000000096b50     OpensslLib:ec_asn1.obj
 0002:00023100       Hex                        0000000000096bc0     OpensslLib:bn_print.obj
 0002:000231f0       ACCESS_DESCRIPTION_seq_tt  0000000000096cb0     OpensslLib:v3_info.obj
 0002:00023308       AUTHORITY_INFO_ACCESS_item_tt 0000000000096dc8     OpensslLib:v3_info.obj
 0002:000233b0       PROXY_POLICY_seq_tt        0000000000096e70     OpensslLib:v3_pcia.obj
 0002:00023420       PROXY_CERT_INFO_EXTENSION_seq_tt 0000000000096ee0     OpensslLib:v3_pcia.obj
 0002:00023520       BASIC_CONSTRAINTS_seq_tt   0000000000096fe0     OpensslLib:v3_bcons.obj
 0002:00023c90       _EC_brainpoolP512t1        0000000000097750     OpensslLib:ec_curve.obj
 0002:00023e20       _EC_WTLS_8                 00000000000978e0     OpensslLib:ec_curve.obj
 0002:00023e90       _EC_brainpoolP512r1        0000000000097950     OpensslLib:ec_curve.obj
 0002:00024020       _EC_X9_62_PRIME_239V3      0000000000097ae0     OpensslLib:ec_curve.obj
 0002:00024100       _EC_SECG_PRIME_224K1       0000000000097bc0     OpensslLib:ec_curve.obj
 0002:000241c0       _EC_SECG_PRIME_128R2       0000000000097c80     OpensslLib:ec_curve.obj
 0002:00024250       _EC_sm2p256v1              0000000000097d10     OpensslLib:ec_curve.obj
 0002:00024320       curve_list                 0000000000097de0     OpensslLib:ec_curve.obj
 0002:00024820       _EC_brainpoolP256t1        00000000000982e0     OpensslLib:ec_curve.obj
 0002:000248f0       _EC_SECG_PRIME_112R1       00000000000983b0     OpensslLib:ec_curve.obj
 0002:00024970       _EC_NIST_PRIME_521         0000000000098430     OpensslLib:ec_curve.obj
 0002:00024b20       _EC_NIST_PRIME_192         00000000000985e0     OpensslLib:ec_curve.obj
 0002:00024be0       _EC_NIST_PRIME_384         00000000000986a0     OpensslLib:ec_curve.obj
 0002:00024d30       _EC_SECG_PRIME_128R1       00000000000987f0     OpensslLib:ec_curve.obj
 0002:00024dc0       _EC_WTLS_9                 0000000000098880     OpensslLib:ec_curve.obj
 0002:00024e50       _EC_SECG_PRIME_160R2       0000000000098910     OpensslLib:ec_curve.obj
 0002:00024f00       _EC_SECG_PRIME_192K1       00000000000989c0     OpensslLib:ec_curve.obj
 0002:00024fa0       _EC_NIST_PRIME_224         0000000000098a60     OpensslLib:ec_curve.obj
 0002:00025070       _EC_brainpoolP160t1        0000000000098b30     OpensslLib:ec_curve.obj
 0002:00025100       _EC_brainpoolP384r1        0000000000098bc0     OpensslLib:ec_curve.obj
 0002:00025230       _EC_WTLS_12                0000000000098cf0     OpensslLib:ec_curve.obj
 0002:000252f0       _EC_SECG_PRIME_160K1       0000000000098db0     OpensslLib:ec_curve.obj
 0002:00025380       _EC_X9_62_PRIME_239V1      0000000000098e40     OpensslLib:ec_curve.obj
 0002:00025460       _EC_brainpoolP160r1        0000000000098f20     OpensslLib:ec_curve.obj
 0002:000254f0       _EC_brainpoolP224t1        0000000000098fb0     OpensslLib:ec_curve.obj
 0002:000255b0       _EC_X9_62_PRIME_239V2      0000000000099070     OpensslLib:ec_curve.obj
 0002:00025690       _EC_X9_62_PRIME_192V2      0000000000099150     OpensslLib:ec_curve.obj
 0002:00025750       _EC_SECG_PRIME_256K1       0000000000099210     OpensslLib:ec_curve.obj
 0002:00025820       _EC_brainpoolP224r1        00000000000992e0     OpensslLib:ec_curve.obj
 0002:000258e0       _EC_SECG_PRIME_112R2       00000000000993a0     OpensslLib:ec_curve.obj
 0002:00025960       _EC_brainpoolP192r1        0000000000099420     OpensslLib:ec_curve.obj
 0002:00025a00       _EC_brainpoolP320t1        00000000000994c0     OpensslLib:ec_curve.obj
 0002:00025b00       _EC_brainpoolP320r1        00000000000995c0     OpensslLib:ec_curve.obj
 0002:00025c00       _EC_SECG_PRIME_160R1       00000000000996c0     OpensslLib:ec_curve.obj
 0002:00025cb0       _EC_brainpoolP256r1        0000000000099770     OpensslLib:ec_curve.obj
 0002:00025d80       _EC_brainpoolP384t1        0000000000099840     OpensslLib:ec_curve.obj
 0002:00025eb0       _EC_brainpoolP192t1        0000000000099970     OpensslLib:ec_curve.obj
 0002:00025f50       _EC_X9_62_PRIME_192V3      0000000000099a10     OpensslLib:ec_curve.obj
 0002:00026010       _EC_X9_62_PRIME_256V1      0000000000099ad0     OpensslLib:ec_curve.obj
 0002:00026110       openssl_ec_key_method      0000000000099bd0     OpensslLib:ec_kmeth.obj
 0002:000262a0       POLICY_CONSTRAINTS_seq_tt  0000000000099d60     OpensslLib:v3_pcons.obj
 0002:00026518       POLICYQUALINFO_adb         0000000000099fd8     OpensslLib:v3_cpols.obj
 0002:00026550       POLICYQUALINFO_adbtbl      000000000009a010     OpensslLib:v3_cpols.obj
 0002:000265d0       POLICYQUALINFO_seq_tt      000000000009a090     OpensslLib:v3_cpols.obj
 0002:00026610       NOTICEREF_seq_tt           000000000009a0d0     OpensslLib:v3_cpols.obj
 0002:00026650       policydefault_tt           000000000009a110     OpensslLib:v3_cpols.obj
 0002:00026670       USERNOTICE_seq_tt          000000000009a130     OpensslLib:v3_cpols.obj
 0002:000266b0       CERTIFICATEPOLICIES_item_tt 000000000009a170     OpensslLib:v3_cpols.obj
 0002:00026700       POLICYINFO_seq_tt          000000000009a1c0     OpensslLib:v3_cpols.obj
 0002:00028128       ossl_pers_string           000000000009bbe8     OpensslLib:drbg_lib.obj
 0002:00028f60       methods_enc                000000000009ca20     OpensslLib:bio_enc.obj
 0002:00028fd0       methods_md                 000000000009ca90     OpensslLib:bio_md.obj
 0002:00029030       null_method                000000000009caf0     OpensslLib:bss_null.obj
 0002:000290d0       OCSP_SERVICELOC_seq_tt     000000000009cb90     OpensslLib:ocsp_asn.obj
 0002:00029110       OCSP_CRLID_seq_tt          000000000009cbd0     OpensslLib:ocsp_asn.obj
 0002:000292c0       EXTENDED_KEY_USAGE_item_tt 000000000009cd80     OpensslLib:v3_extku.obj
 0002:0002a160       ADMISSIONS_seq_tt          000000000009dc20     OpensslLib:v3_admis.obj
 0002:0002a220       NAMING_AUTHORITY_seq_tt    000000000009dce0     OpensslLib:v3_admis.obj
 0002:0002a280       PROFESSION_INFO_seq_tt     000000000009dd40     OpensslLib:v3_admis.obj
 0002:0002a320       ADMISSION_SYNTAX_seq_tt    000000000009dde0     OpensslLib:v3_admis.obj
 0002:0002a550       PKEY_USAGE_PERIOD_seq_tt   000000000009e010     OpensslLib:v3_pku.obj
 0002:0002a680       POLICY_MAPPING_seq_tt      000000000009e140     OpensslLib:v3_pmaps.obj
 0002:0002a720       POLICY_MAPPINGS_item_tt    000000000009e1e0     OpensslLib:v3_pmaps.obj
 0002:0002a7f0       SXNET_seq_tt               000000000009e2b0     OpensslLib:v3_sxnet.obj
 0002:0002a860       SXNETID_seq_tt             000000000009e320     OpensslLib:v3_sxnet.obj
 0002:0002aa20       TLS_FEATURE_it             000000000009e4e0     OpensslLib:v3_tlsf.obj
 0002:0002aa50       TLS_FEATURE_item_tt        000000000009e510     OpensslLib:v3_tlsf.obj
 0002:0002aba0       ?tnst@?1??asn1_str2tag@@9@9 000000000009e660     OpensslLib:asn1_gen.obj
 0002:0002aeb0       null_md                    000000000009e970     OpensslLib:m_null.obj
 0002:0002af10       ?order@?1??c448_ed448_verify@@9@9 000000000009e9d0     OpensslLib:eddsa.obj
 0002:0002af50       ?zero@?1??fe_isnonzero@@9@9 000000000009ea10     OpensslLib:curve25519.obj
 0002:0002af70       d                          000000000009ea30     OpensslLib:curve25519.obj
 0002:0002af98       d2                         000000000009ea58     OpensslLib:curve25519.obj
 0002:0002afc0       k25519Precomp              000000000009ea80     OpensslLib:curve25519.obj
 0002:000327c0       sqrtm1                     00000000000a6280     OpensslLib:curve25519.obj
 0002:000327e8       ?kZeros@?1??X25519@@9@9    00000000000a62a8     OpensslLib:curve25519.obj
 0002:00032810       Bi                         00000000000a62d0     OpensslLib:curve25519.obj
 0002:00032c10       ONE                        00000000000a66d0     OpensslLib:curve448.obj
 0002:00032c50       precomputed_scalarmul_adjustment 00000000000a6710     OpensslLib:curve448.obj
 0002:00032d90       ZERO                       00000000000a6850     OpensslLib:curve448.obj
 0002:00032f00       DHvparams_it               00000000000a69c0     OpensslLib:dh_asn1.obj
 0002:00032f30       DHxparams_seq_tt           00000000000a69f0     OpensslLib:dh_asn1.obj
 0002:00033000       DHparams_seq_tt            00000000000a6ac0     OpensslLib:dh_asn1.obj
 0002:00033060       DHvparams_seq_tt           00000000000a6b20     OpensslLib:dh_asn1.obj
 0002:000330a0       DHparams_aux               00000000000a6b60     OpensslLib:dh_asn1.obj
 0002:000330c8       DHxparams_it               00000000000a6b88     OpensslLib:dh_asn1.obj
 0002:000330f8       ?dummy_key@?1??HMAC@@9@9   00000000000a6bb8     OpensslLib:hmac.obj
 0002:00033100       sm4_ecb                    00000000000a6bc0     OpensslLib:e_sm4.obj
 0002:00033160       sm4_ctr_mode               00000000000a6c20     OpensslLib:e_sm4.obj
 0002:000331c0       sm4_cfb128                 00000000000a6c80     OpensslLib:e_sm4.obj
 0002:00033220       sm4_cbc                    00000000000a6ce0     OpensslLib:e_sm4.obj
 0002:00033280       sm4_ofb                    00000000000a6d40     OpensslLib:e_sm4.obj
 0002:000332e0       aria_256_ctr               00000000000a6da0     OpensslLib:e_aria.obj
 0002:00033340       aria_192_ofb               00000000000a6e00     OpensslLib:e_aria.obj
 0002:000333a0       aria_128_cbc               00000000000a6e60     OpensslLib:e_aria.obj
 0002:00033400       aria_192_ccm               00000000000a6ec0     OpensslLib:e_aria.obj
 0002:00033460       aria_128_ofb               00000000000a6f20     OpensslLib:e_aria.obj
 0002:000334c0       aria_128_gcm               00000000000a6f80     OpensslLib:e_aria.obj
 0002:00033520       aria_192_cfb8              00000000000a6fe0     OpensslLib:e_aria.obj
 0002:00033580       aria_256_cbc               00000000000a7040     OpensslLib:e_aria.obj
 0002:000335e0       aria_192_cfb1              00000000000a70a0     OpensslLib:e_aria.obj
 0002:00033640       aria_128_ecb               00000000000a7100     OpensslLib:e_aria.obj
 0002:000336a0       aria_256_ecb               00000000000a7160     OpensslLib:e_aria.obj
 0002:00033700       aria_192_ecb               00000000000a71c0     OpensslLib:e_aria.obj
 0002:00033760       aria_128_cfb1              00000000000a7220     OpensslLib:e_aria.obj
 0002:000337c0       aria_256_cfb8              00000000000a7280     OpensslLib:e_aria.obj
 0002:00033820       aria_256_gcm               00000000000a72e0     OpensslLib:e_aria.obj
 0002:00033880       aria_256_cfb1              00000000000a7340     OpensslLib:e_aria.obj
 0002:000338e0       aria_128_cfb128            00000000000a73a0     OpensslLib:e_aria.obj
 0002:00033940       aria_256_cfb128            00000000000a7400     OpensslLib:e_aria.obj
 0002:000339a0       aria_128_ctr               00000000000a7460     OpensslLib:e_aria.obj
 0002:00033a00       aria_128_cfb8              00000000000a74c0     OpensslLib:e_aria.obj
 0002:00033a60       aria_192_cfb128            00000000000a7520     OpensslLib:e_aria.obj
 0002:00033ac0       aria_192_cbc               00000000000a7580     OpensslLib:e_aria.obj
 0002:00033b20       aria_192_ctr               00000000000a75e0     OpensslLib:e_aria.obj
 0002:00033b80       aria_128_ccm               00000000000a7640     OpensslLib:e_aria.obj
 0002:00033be0       aria_256_ofb               00000000000a76a0     OpensslLib:e_aria.obj
 0002:00033c40       aria_256_ccm               00000000000a7700     OpensslLib:e_aria.obj
 0002:00033ca0       aria_192_gcm               00000000000a7760     OpensslLib:e_aria.obj
 0002:00033d00       aes_192_ecb                00000000000a77c0     OpensslLib:e_aes.obj
 0002:00033d60       aes_192_ccm                00000000000a7820     OpensslLib:e_aes.obj
 0002:00033dc0       aes_192_ctr                00000000000a7880     OpensslLib:e_aes.obj
 0002:00033e20       aes_128_ofb                00000000000a78e0     OpensslLib:e_aes.obj
 0002:00033e80       aes_256_ccm                00000000000a7940     OpensslLib:e_aes.obj
 0002:00033ee0       aes_192_gcm                00000000000a79a0     OpensslLib:e_aes.obj
 0002:00033f40       aes_128_wrap_pad           00000000000a7a00     OpensslLib:e_aes.obj
 0002:00033fa0       aes_256_ctr                00000000000a7a60     OpensslLib:e_aes.obj
 0002:00034000       aes_192_cfb8               00000000000a7ac0     OpensslLib:e_aes.obj
 0002:00034060       aes_192_cfb                00000000000a7b20     OpensslLib:e_aes.obj
 0002:000340c0       aes_256_gcm                00000000000a7b80     OpensslLib:e_aes.obj
 0002:00034120       aes_128_gcm                00000000000a7be0     OpensslLib:e_aes.obj
 0002:00034180       aes_128_cfb1               00000000000a7c40     OpensslLib:e_aes.obj
 0002:000341e0       aes_192_cbc                00000000000a7ca0     OpensslLib:e_aes.obj
 0002:00034240       aes_128_xts                00000000000a7d00     OpensslLib:e_aes.obj
 0002:000342a0       aes_128_ctr                00000000000a7d60     OpensslLib:e_aes.obj
 0002:00034300       aes_256_wrap               00000000000a7dc0     OpensslLib:e_aes.obj
 0002:00034360       aes_256_cbc                00000000000a7e20     OpensslLib:e_aes.obj
 0002:000343c0       aes_192_ofb                00000000000a7e80     OpensslLib:e_aes.obj
 0002:00034420       aes_256_wrap_pad           00000000000a7ee0     OpensslLib:e_aes.obj
 0002:00034480       aes_128_ecb                00000000000a7f40     OpensslLib:e_aes.obj
 0002:000344e0       aes_256_ofb                00000000000a7fa0     OpensslLib:e_aes.obj
 0002:00034540       aes_256_cfb                00000000000a8000     OpensslLib:e_aes.obj
 0002:000345a0       aes_128_wrap               00000000000a8060     OpensslLib:e_aes.obj
 0002:00034600       aes_256_cfb1               00000000000a80c0     OpensslLib:e_aes.obj
 0002:00034660       aes_128_cbc                00000000000a8120     OpensslLib:e_aes.obj
 0002:000346c0       aes_192_wrap_pad           00000000000a8180     OpensslLib:e_aes.obj
 0002:00034720       aes_256_cfb8               00000000000a81e0     OpensslLib:e_aes.obj
 0002:00034780       aes_128_cfb8               00000000000a8240     OpensslLib:e_aes.obj
 0002:000347e0       aes_256_ecb                00000000000a82a0     OpensslLib:e_aes.obj
 0002:00034840       aes_256_xts                00000000000a8300     OpensslLib:e_aes.obj
 0002:000348a0       aes_128_cfb                00000000000a8360     OpensslLib:e_aes.obj
 0002:00034900       aes_192_wrap               00000000000a83c0     OpensslLib:e_aes.obj
 0002:00034960       aes_192_cfb1               00000000000a8420     OpensslLib:e_aes.obj
 0002:000349c0       aes_128_ccm                00000000000a8480     OpensslLib:e_aes.obj
 0002:00034a18       ?df_key@?3??drbg_ctr_init@@9@9 00000000000a84d8     OpensslLib:drbg_ctr.obj
 0002:00034a40       ?shake128_md@?1??EVP_shake128@@9@9 00000000000a8500     OpensslLib:m_sha3.obj
 0002:00034a90       ?shake256_md@?1??EVP_shake256@@9@9 00000000000a8550     OpensslLib:m_sha3.obj
 0002:00034ae0       ?sha3_224_md@?1??EVP_sha3_224@@9@9 00000000000a85a0     OpensslLib:m_sha3.obj
 0002:00034b30       ?sha3_384_md@?1??EVP_sha3_384@@9@9 00000000000a85f0     OpensslLib:m_sha3.obj
 0002:00034b80       ?sha3_256_md@?1??EVP_sha3_256@@9@9 00000000000a8640     OpensslLib:m_sha3.obj
 0002:00034bd0       ?sha3_512_md@?1??EVP_sha3_512@@9@9 00000000000a8690     OpensslLib:m_sha3.obj
 0002:00034c20       sm3_md                     00000000000a86e0     OpensslLib:m_sm3.obj
 0002:00034c70       md5_sha1_md                00000000000a8730     OpensslLib:m_md5_sha1.obj
 0002:00034d80       zeroes                     00000000000a8840     OpensslLib:rsa_pss.obj
 0002:00034db0       SM2_Ciphertext_seq_tt      00000000000a8870     OpensslLib:sm2_crypt.obj
 0002:00034e60       ?ret@?1??EC_GFp_nist_method@@9@9 00000000000a8920     OpensslLib:ecp_nist.obj
 0002:00035010       _nist_p_256                00000000000a8ad0     OpensslLib:bn_nist.obj
 0002:000350b0       ?_bignum_nist_p_256_sqr@?1??BN_nist_mod_256@@9@9 00000000000a8b70     OpensslLib:bn_nist.obj
 0002:000350d0       _nist_p_521                00000000000a8b90     OpensslLib:bn_nist.obj
 0002:00035118       _nist_p_192_sqr            00000000000a8bd8     OpensslLib:bn_nist.obj
 0002:00035148       _nist_p_224_sqr            00000000000a8c08     OpensslLib:bn_nist.obj
 0002:00035180       _bignum_nist_p_521         00000000000a8c40     OpensslLib:bn_nist.obj
 0002:00035198       _bignum_nist_p_256         00000000000a8c58     OpensslLib:bn_nist.obj
 0002:000351b0       _bignum_nist_p_384         00000000000a8c70     OpensslLib:bn_nist.obj
 0002:000351c8       ?_bignum_nist_p_521_sqr@?1??BN_nist_mod_521@@9@9 00000000000a8c88     OpensslLib:bn_nist.obj
 0002:000351e0       _nist_p_384_sqr            00000000000a8ca0     OpensslLib:bn_nist.obj
 0002:00035240       ?_bignum_nist_p_224_sqr@?1??BN_nist_mod_224@@9@9 00000000000a8d00     OpensslLib:bn_nist.obj
 0002:00035260       _nist_p_224                00000000000a8d20     OpensslLib:bn_nist.obj
 0002:000352a0       ?_bignum_nist_p_384_sqr@?1??BN_nist_mod_384@@9@9 00000000000a8d60     OpensslLib:bn_nist.obj
 0002:000352b8       ?_bignum_nist_p_192_sqr@?1??BN_nist_mod_192@@9@9 00000000000a8d78     OpensslLib:bn_nist.obj
 0002:000352d0       _nist_p_521_sqr            00000000000a8d90     OpensslLib:bn_nist.obj
 0002:00035360       _nist_p_256_sqr            00000000000a8e20     OpensslLib:bn_nist.obj
 0002:000353a0       _bignum_nist_p_224         00000000000a8e60     OpensslLib:bn_nist.obj
 0002:000353b8       _bignum_nist_p_192         00000000000a8e78     OpensslLib:bn_nist.obj
 0002:000353d0       _nist_p_384                00000000000a8e90     OpensslLib:bn_nist.obj
 0002:000354c0       _nist_p_192                00000000000a8f80     OpensslLib:bn_nist.obj
 0002:00035510       ?ret@?1??EC_GFp_mont_method@@9@9 00000000000a8fd0     OpensslLib:ecp_mont.obj
 0002:000356c0       ?tab@?1??BN_kronecker@@9@9 00000000000a9180     OpensslLib:bn_kron.obj
 0002:000356e0       primes                     00000000000a91a0     OpensslLib:bn_prime.obj
 0002:000366e0       sc_p                       00000000000aa1a0     OpensslLib:scalar.obj
 0002:00036760       sc_r2                      00000000000aa220     OpensslLib:scalar.obj
 0002:000367e0       curve448_wnaf_base_table   00000000000aa2a0     OpensslLib:curve448_tables.obj
 0002:00037fe0       curve448_precomputed_base_table 00000000000abaa0     OpensslLib:curve448_tables.obj
 0002:0003bbe0       MODULUS                    00000000000af6a0     OpensslLib:f_generic.obj
 0002:0003bc20       ONE                        00000000000af6e0     OpensslLib:f_generic.obj
 0002:0003bc60       ?CK@?1??SM4_set_key@@9@9   00000000000af720     OpensslLib:sm4.obj
 0002:0003bce0       SM4_S                      00000000000af7a0     OpensslLib:sm4.obj
 0002:0003bde0       SM4_SBOX_T                 00000000000af8a0     OpensslLib:sm4.obj
 0002:0003c1e0       rem_4bit                   00000000000afca0     OpensslLib:gcm128.obj
 0002:0003c260       sb4                        00000000000afd20     OpensslLib:aria.obj
 0002:0003c360       c3                         00000000000afe20     OpensslLib:aria.obj
 0002:0003c370       Td4                        00000000000afe30     OpensslLib:aes_core.obj
 0002:0003c370       sb3                        00000000000afe30     OpensslLib:aria.obj
 0002:0003c470       c2                         00000000000aff30     OpensslLib:aria.obj
 0002:0003c480       c1                         00000000000aff40     OpensslLib:aria.obj
 0002:0003c490       sb2                        00000000000aff50     OpensslLib:aria.obj
 0002:0003c590       sb1                        00000000000b0050     OpensslLib:aria.obj
 0002:0003c690       Td2                        00000000000b0150     OpensslLib:aes_core.obj
 0002:0003ca90       Td1                        00000000000b0550     OpensslLib:aes_core.obj
 0002:0003ce90       Td0                        00000000000b0950     OpensslLib:aes_core.obj
 0002:0003d290       Te0                        00000000000b0d50     OpensslLib:aes_core.obj
 0002:0003d690       rcon                       00000000000b1150     OpensslLib:aes_core.obj
 0002:0003d6c0       Te3                        00000000000b1180     OpensslLib:aes_core.obj
 0002:0003dac0       Te2                        00000000000b1580     OpensslLib:aes_core.obj
 0002:0003dec0       Td3                        00000000000b1980     OpensslLib:aes_core.obj
 0002:0003e2c0       Te1                        00000000000b1d80     OpensslLib:aes_core.obj
 0002:0003e6c0       default_aiv                00000000000b2180     OpensslLib:wrap128.obj
 0002:0003e6c8       default_iv                 00000000000b2188     OpensslLib:wrap128.obj
 0002:0003e750       iotas                      00000000000b2210     OpensslLib:keccak1600.obj
 0002:0003e980       dh1024_160_g               00000000000b2440     OpensslLib:bn_dh.obj
 0002:0003ea00       ffdhe4096_p                00000000000b24c0     OpensslLib:bn_dh.obj
 0002:0003ec00       dh2048_256_q               00000000000b26c0     OpensslLib:bn_dh.obj
 0002:0003ec20       ffdhe3072_p                00000000000b26e0     OpensslLib:bn_dh.obj
 0002:0003eda0       dh2048_256_p               00000000000b2860     OpensslLib:bn_dh.obj
 0002:0003eea0       dh2048_256_g               00000000000b2960     OpensslLib:bn_dh.obj
 0002:0003efa0       dh2048_224_g               00000000000b2a60     OpensslLib:bn_dh.obj
 0002:0003f0a0       value_2                    00000000000b2b60     OpensslLib:bn_dh.obj
 0002:0003f0a8       dh2048_224_q               00000000000b2b68     OpensslLib:bn_dh.obj
 0002:0003f0c8       dh1024_160_q               00000000000b2b88     OpensslLib:bn_dh.obj
 0002:0003f0e0       dh2048_224_p               00000000000b2ba0     OpensslLib:bn_dh.obj
 0002:0003f1e0       ffdhe8192_p                00000000000b2ca0     OpensslLib:bn_dh.obj
 0002:0003f5e0       ffdhe2048_p                00000000000b30a0     OpensslLib:bn_dh.obj
 0002:0003f6e0       ffdhe6144_p                00000000000b31a0     OpensslLib:bn_dh.obj
 0002:0003f9e0       dh1024_160_p               00000000000b34a0     OpensslLib:bn_dh.obj
 0002:0003fc40       allzeroes                  00000000000b3700     OpensslLib:curve25519.obj
 0003:00000cd4       allow_customize            00000000000b4b14     OpensslLib:mem.obj
 0003:00000cd8       new_nid                    00000000000b4b18     OpensslLib:obj_dat.obj
 0003:00000ce0       memset_func                00000000000b4b20     OpensslLib:mem_clr.obj
 0003:00000cf0       xstandard                  00000000000b4b30     OpensslLib:v3_purp.obj
 0003:00000ea0       int_crl_meth               00000000000b4ce0     OpensslLib:x_crl.obj
 0003:00000ed0       trstandard                 00000000000b4d10     OpensslLib:x509_trs.obj
 0003:00001010       standard_methods           00000000000b4e50     OpensslLib:ameth_lib.obj
 0003:00001080       destructor_key             00000000000b4ec0     OpensslLib:init.obj
 0003:00001090       standard_methods           00000000000b4ed0     OpensslLib:pmeth_lib.obj
 0003:00001110       bignum_pf                  00000000000b4f50     OpensslLib:x_bignum.obj
 0003:00001150       cbignum_pf                 00000000000b4f90     OpensslLib:x_bignum.obj
 0003:00001190       uint32_pf                  00000000000b4fd0     OpensslLib:x_int64.obj
 0003:000011d0       rsa_pkcs1_ossl_meth        00000000000b5010     OpensslLib:rsa_ossl.obj
 0003:00001250       standard_exts              00000000000b5090     OpensslLib:v3_lib.obj
 0003:000013a0       nist_curves                00000000000b51e0     OpensslLib:ec_curve.obj
 0003:00001490       dh_ossl                    00000000000b52d0     OpensslLib:dh_key.obj
 0003:00001510       key_usage_type_table       00000000000b5350     OpensslLib:v3_bitst.obj
 0003:00001600       ns_cert_type_table         00000000000b5440     OpensslLib:v3_bitst.obj
 0003:000016e0       crl_reasons                00000000000b5520     OpensslLib:v3_enum.obj
 0003:000017f0       tls_feature_tbl            00000000000b5630     OpensslLib:v3_tlsf.obj
 0003:00001810       drbg_ctr_meth              00000000000b5650     OpensslLib:drbg_ctr.obj
 0003:00001830       ?c80@?1??ctr_df@@9@9       00000000000b5670     OpensslLib:drbg_ctr.obj
 0003:000018d8       mInterfaceLocked           00000000000b5718     VariablePolicyLib:VariablePolicyLib.obj
 0003:000018dc       mCurrentTableUsage         00000000000b571c     VariablePolicyLib:VariablePolicyLib.obj
 0003:000018e8       mCurrentTableSize          00000000000b5728     VariablePolicyLib:VariablePolicyLib.obj
 0003:000018ec       mProtectionDisabled        00000000000b572c     VariablePolicyLib:VariablePolicyLib.obj
 0003:000018f0       mCurrentTableCount         00000000000b5730     VariablePolicyLib:VariablePolicyLib.obj
 0003:000019b8       names_lh                   00000000000b57f8     OpensslLib:o_names.obj
 0003:000019c0       init                       00000000000b5800     OpensslLib:o_names.obj
 0003:000019c8       obj_lock                   00000000000b5808     OpensslLib:o_names.obj
 0003:000019d0       o_names_init_ossl_ret_     00000000000b5810     OpensslLib:o_names.obj
 0003:000019d8       added                      00000000000b5818     OpensslLib:obj_dat.obj
 0003:000019e0       err_init                   00000000000b5820     OpensslLib:err.obj
 0003:000019e4       err_do_init_ossl_ret_      00000000000b5824     OpensslLib:err.obj
 0003:000019e8       xptable                    00000000000b5828     OpensslLib:v3_purp.obj
 0003:000019f0       param_table                00000000000b5830     OpensslLib:x509_vpm.obj
 0003:000019f8       trtable                    00000000000b5838     OpensslLib:x509_trs.obj
 0003:00001a00       ex_data_lock               00000000000b5840     OpensslLib:ex_data.obj
 0003:00001a08       do_ex_data_init_ossl_ret_  00000000000b5848     OpensslLib:ex_data.obj
 0003:00001a0c       ex_data_init               00000000000b584c     OpensslLib:ex_data.obj
 0003:00001a10       app_methods                00000000000b5850     OpensslLib:ameth_lib.obj
 0003:00001a18       ?thread_local_key@?1??CRYPTO_THREAD_init_local@@9@9 00000000000b5858     OpensslLib:threads_none.obj
 0003:00001a1c       add_all_digests            00000000000b585c     OpensslLib:init.obj
 0003:00001a20       ossl_init_load_crypto_strings_ossl_ret_ 00000000000b5860     OpensslLib:init.obj
 0003:00001a24       ossl_init_base_ossl_ret_   00000000000b5864     OpensslLib:init.obj
 0003:00001a28       ossl_init_config_ossl_ret_ 00000000000b5868     OpensslLib:init.obj
 0003:00001a30       init_lock                  00000000000b5870     OpensslLib:init.obj
 0003:00001a38       register_atexit            00000000000b5878     OpensslLib:init.obj
 0003:00001a40       conf_settings              00000000000b5880     OpensslLib:init.obj
 0003:00001a48       ossl_init_async_ossl_ret_  00000000000b5888     OpensslLib:init.obj
 0003:00001a4c       ossl_init_zlib_ossl_ret_   00000000000b588c     OpensslLib:init.obj
 0003:00001a50       zlib                       00000000000b5890     OpensslLib:init.obj
 0003:00001a54       ossl_init_register_atexit_ossl_ret_ 00000000000b5894     OpensslLib:init.obj
 0003:00001a58       add_all_ciphers            00000000000b5898     OpensslLib:init.obj
 0003:00001a5c       ossl_init_load_crypto_nodelete_ossl_ret_ 00000000000b589c     OpensslLib:init.obj
 0003:00001a60       config                     00000000000b58a0     OpensslLib:init.obj
 0003:00001a64       load_crypto_nodelete       00000000000b58a4     OpensslLib:init.obj
 0003:00001a68       async                      00000000000b58a8     OpensslLib:init.obj
 0003:00001a6c       ossl_init_add_all_ciphers_ossl_ret_ 00000000000b58ac     OpensslLib:init.obj
 0003:00001a70       stopped                    00000000000b58b0     OpensslLib:init.obj
 0003:00001a74       load_crypto_strings        00000000000b58b4     OpensslLib:init.obj
 0003:00001a78       ossl_init_add_all_digests_ossl_ret_ 00000000000b58b8     OpensslLib:init.obj
 0003:00001a7c       base                       00000000000b58bc     OpensslLib:init.obj
 0003:00001a80       app_pkey_methods           00000000000b58c0     OpensslLib:pmeth_lib.obj
 0003:00001a88       stable                     00000000000b58c8     OpensslLib:a_strnid.obj
 0003:00001a90       supported_modules          00000000000b58d0     OpensslLib:conf_mod.obj
 0003:00001a98       ext_list                   00000000000b58d8     OpensslLib:v3_lib.obj
 0003:00001aa0       openssl_configured         00000000000b58e0     OpensslLib:conf_sap.obj
 0003:00001aa4       do_rand_drbg_init_ossl_ret_ 00000000000b58e4     OpensslLib:drbg_lib.obj
 0003:00001aa8       rand_drbg_init             00000000000b58e8     OpensslLib:drbg_lib.obj
 0003:00001aac       rand_drbg_flags            00000000000b58ec     OpensslLib:drbg_lib.obj
 0003:00001ab0       rand_init                  00000000000b58f0     OpensslLib:rand_lib.obj
 0003:00001ab4       do_rand_init_ossl_ret_     00000000000b58f4     OpensslLib:rand_lib.obj
 0003:00001ab8       ?zeros@?1??CRYPTO_128_unwrap_pad@@9@9 00000000000b58f8     OpensslLib:wrap128.obj
 0003:00001ad0       mJumpContext               00000000000b5910     VariableSmm:AutoGen.obj
 0003:00001bd0       mDriverEntryPointStatus    00000000000b5a10     VariableSmm:AutoGen.obj
 0003:00001bd8       ?Reclaimed@?1??ReclaimForOS@@9@9 00000000000b5a18     VariableSmm:Variable.obj
 0003:00001bd9       mRunningOnQ35              00000000000b5a19     DxePciLibI440FxQ35:PciLib.obj
 0003:00001bdc       mAcpiTimerIoAddr           00000000000b5a1c     DxeAcpiTimerLib:DxeAcpiTimerLib.obj
 0003:00001be0       free_type                  00000000000b5a20     OpensslLib:o_names.obj
 0003:00001be4       err_thread_local           00000000000b5a24     OpensslLib:err.obj
 0003:00001be8       name_funcs_stack           00000000000b5a28     OpensslLib:o_names.obj
 0003:00001bf0       ?nilbn@?1??bn_init@@9@9    00000000000b5a30     OpensslLib:bn_lib.obj
 0003:00001c08       err_string_lock            00000000000b5a48     OpensslLib:err.obj
 0003:00001c10       ex_data                    00000000000b5a50     OpensslLib:ex_data.obj
 0003:00001c90       ?m@?1??SHA512@@9@9         00000000000b5ad0     OpensslLib:sha512.obj
 0003:00001cd0       thread_local_storage       00000000000b5b10     OpensslLib:threads_none.obj
 0003:000024d0       pbe_algs                   00000000000b6310     OpensslLib:evp_pbe.obj
 0003:000024d8       sigx_app                   00000000000b6318     OpensslLib:obj_xref.obj
 0003:000024e0       sig_app                    00000000000b6320     OpensslLib:obj_xref.obj
 0003:000024e8       ctxkey                     00000000000b6328     OpensslLib:async.obj
 0003:000024ec       poolkey                    00000000000b632c     OpensslLib:async.obj
 0003:000024f0       private_drbg               00000000000b6330     OpensslLib:drbg_lib.obj
 0003:000024f4       public_drbg                00000000000b6334     OpensslLib:drbg_lib.obj
 0003:000024f8       master_drbg                00000000000b6338     OpensslLib:drbg_lib.obj
 0003:00002500       rand_nonce_count           00000000000b6340     OpensslLib:rand_lib.obj
 0003:00002508       default_RAND_meth          00000000000b6348     OpensslLib:rand_lib.obj
 0003:00002510       rand_nonce_lock            00000000000b6350     OpensslLib:rand_lib.obj
 0003:00002518       rand_meth_lock             00000000000b6358     OpensslLib:rand_lib.obj
 0003:00002520       ?tntmp@?1??asn1_str2tag@@9@9 00000000000b6360     OpensslLib:asn1_gen.obj
 0003:00002528       ssl_names_count            00000000000b6368     OpensslLib:conf_ssl.obj
 0003:00002530       ?m@?1??HMAC@@9@9           00000000000b6370     OpensslLib:hmac.obj
 0003:00002570       ssl_names                  00000000000b63b0     OpensslLib:conf_ssl.obj
 0005:00000000       $unwind$X509ConstructCertificate 00000000000be580     SmmCryptLib:CryptX509.obj
 0005:00000000       $unwind$malloc             00000000000be580     SmmCryptLib:BaseMemAllocation.obj
 0005:00000000       $unwind$ASN1_INTEGER_cmp   00000000000be580     OpensslLib:a_int.obj
 0005:00000000       $unwind$cpy_utf8           00000000000be580     OpensslLib:a_mbstr.obj
 0005:00000000       $unwind$out_utf8           00000000000be580     OpensslLib:a_mbstr.obj
 0005:00000000       $unwind$send_bio_chars     00000000000be580     OpensslLib:a_strex.obj
 0005:00000000       $unwind$ASN1_item_new      00000000000be580     OpensslLib:tasn_new.obj
 0005:00000000       $unwind$bn_free            00000000000be580     OpensslLib:x_bignum.obj
 0005:00000000       $unwind$bn_new             00000000000be580     OpensslLib:x_bignum.obj
 0005:00000000       $unwind$bn_secure_new      00000000000be580     OpensslLib:x_bignum.obj
 0005:00000000       $unwind$uint32_free        00000000000be580     OpensslLib:x_int64.obj
 0005:00000000       $unwind$BIO_push           00000000000be580     OpensslLib:bio_lib.obj
 0005:00000000       $unwind$bread_conv         00000000000be580     OpensslLib:bio_meth.obj
 0005:00000000       $unwind$bwrite_conv        00000000000be580     OpensslLib:bio_meth.obj
 0005:00000000       $unwind$mem_buf_sync       00000000000be580     OpensslLib:bss_mem.obj
 0005:00000000       $unwind$mem_free           00000000000be580     OpensslLib:bss_mem.obj
 0005:00000000       $unwind$mem_gets           00000000000be580     OpensslLib:bss_mem.obj
 0005:00000000       $unwind$bn_free_d          00000000000be580     OpensslLib:bn_lib.obj
 0005:00000000       $unwind$nist_cp_bn_0       00000000000be580     OpensslLib:bn_nist.obj
 0005:00000000       $unwind$pkey_cmac_init     00000000000be580     OpensslLib:cm_pmeth.obj
 0005:00000000       $unwind$dh_cb              00000000000be580     OpensslLib:dh_asn1.obj
 0005:00000000       $unwind$pkey_dh_cleanup    00000000000be580     OpensslLib:dh_pmeth.obj
 0005:00000000       $unwind$ec_cmp_parameters  00000000000be580     OpensslLib:ec_ameth.obj
 0005:00000000       $unwind$ec_GFp_mont_group_clear_finish 00000000000be580     OpensslLib:ecp_mont.obj
 0005:00000000       $unwind$ec_GFp_mont_group_finish 00000000000be580     OpensslLib:ecp_mont.obj
 0005:00000000       $unwind$ec_GFp_mont_group_init 00000000000be580     OpensslLib:ecp_mont.obj
 0005:00000000       $unwind$ec_GFp_simple_group_clear_finish 00000000000be580     OpensslLib:ecp_smpl.obj
 0005:00000000       $unwind$ec_GFp_simple_group_finish 00000000000be580     OpensslLib:ecp_smpl.obj
 0005:00000000       $unwind$ec_GFp_simple_group_init 00000000000be580     OpensslLib:ecp_smpl.obj
 0005:00000000       $unwind$ec_GFp_simple_point_clear_finish 00000000000be580     OpensslLib:ecp_smpl.obj
 0005:00000000       $unwind$ec_GFp_simple_point_finish 00000000000be580     OpensslLib:ecp_smpl.obj
 0005:00000000       $unwind$ec_GFp_simple_point_init 00000000000be580     OpensslLib:ecp_smpl.obj
 0005:00000000       $unwind$ecd_item_sign25519 00000000000be580     OpensslLib:ecx_meth.obj
 0005:00000000       $unwind$ecd_item_sign448   00000000000be580     OpensslLib:ecx_meth.obj
 0005:00000000       $unwind$ERR_pop_to_mark    00000000000be580     OpensslLib:err.obj
 0005:00000000       $unwind$err_clear_last_constant_time 00000000000be580     OpensslLib:err.obj
 0005:00000000       $unwind$get_error_values   00000000000be580     OpensslLib:err.obj
 0005:00000000       $unwind$md_new             00000000000be580     OpensslLib:bio_md.obj
 0005:00000000       $unwind$openssl_add_all_ciphers_int 00000000000be580     OpensslLib:c_allc.obj
 0005:00000000       $unwind$EVP_MD_CTX_reset   00000000000be580     OpensslLib:digest.obj
 0005:00000000       $unwind$EVP_CIPHER_CTX_reset 00000000000be580     OpensslLib:evp_enc.obj
 0005:00000000       $unwind$init               00000000000be580     OpensslLib:m_md5.obj
 0005:00000000       $unwind$init               00000000000be580     OpensslLib:m_md5_sha1.obj
 0005:00000000       $unwind$EVP_add_cipher     00000000000be580     OpensslLib:names.obj
 0005:00000000       $unwind$EVP_get_cipherbyname 00000000000be580     OpensslLib:names.obj
 0005:00000000       $unwind$EVP_get_digestbyname 00000000000be580     OpensslLib:names.obj
 0005:00000000       $unwind$do_ex_data_init_ossl_ 00000000000be580     OpensslLib:ex_data.obj
 0005:00000000       $unwind$hmac_key_free      00000000000be580     OpensslLib:hm_ameth.obj
 0005:00000000       $unwind$pkey_hmac_keygen   00000000000be580     OpensslLib:hm_pmeth.obj
 0005:00000000       $unwind$HMAC_CTX_new       00000000000be580     OpensslLib:hmac.obj
 0005:00000000       $unwind$hmac_ctx_cleanup   00000000000be580     OpensslLib:hmac.obj
 0005:00000000       $unwind$ossl_init_thread_start 00000000000be580     OpensslLib:init.obj
 0005:00000000       $unwind$OPENSSL_LH_retrieve 00000000000be580     OpensslLib:lhash.obj
 0005:00000000       $unwind$openssl_lh_strcasehash 00000000000be580     OpensslLib:lhash.obj
 0005:00000000       $unwind$CRYPTO_ccm128_setiv 00000000000be580     OpensslLib:ccm128.obj
 0005:00000000       $unwind$CRYPTO_ccm128_tag  00000000000be580     OpensslLib:ccm128.obj
 0005:00000000       $unwind$o_names_init_ossl_ 00000000000be580     OpensslLib:o_names.obj
 0005:00000000       $unwind$obj_name_hash      00000000000be580     OpensslLib:o_names.obj
 0005:00000000       $unwind$added_obj_hash     00000000000be580     OpensslLib:obj_dat.obj
 0005:00000000       $unwind$PKCS7_get_octet_string 00000000000be580     OpensslLib:pk7_doit.obj
 0005:00000000       $unwind$PKCS7_get_signer_info 00000000000be580     OpensslLib:pk7_lib.obj
 0005:00000000       $unwind$do_rand_drbg_init_ossl_ 00000000000be580     OpensslLib:drbg_lib.obj
 0005:00000000       $unwind$do_rand_init_ossl_ 00000000000be580     OpensslLib:rand_lib.obj
 0005:00000000       $unwind$rand_drbg_cleanup_entropy 00000000000be580     OpensslLib:rand_lib.obj
 0005:00000000       $unwind$rsa_param_encode   00000000000be580     OpensslLib:rsa_ameth.obj
 0005:00000000       $unwind$rsa_security_bits  00000000000be580     OpensslLib:rsa_ameth.obj
 0005:00000000       $unwind$rsa_multip_info_free 00000000000be580     OpensslLib:rsa_mp.obj
 0005:00000000       $unwind$pkey_rsa_cleanup   00000000000be580     OpensslLib:rsa_pmeth.obj
 0005:00000000       $unwind$pkey_rsa_init      00000000000be580     OpensslLib:rsa_pmeth.obj
 0005:00000000       $unwind$SHA1_Init          00000000000be580     OpensslLib:sha1dgst.obj
 0005:00000000       $unwind$SHA224_Init        00000000000be580     OpensslLib:sha256.obj
 0005:00000000       $unwind$SHA256_Init        00000000000be580     OpensslLib:sha256.obj
 0005:00000000       $unwind$siphash_get_priv_key 00000000000be580     OpensslLib:siphash_ameth.obj
 0005:00000000       $unwind$siphash_key_free   00000000000be580     OpensslLib:siphash_ameth.obj
 0005:00000000       $unwind$pkey_siphash_keygen 00000000000be580     OpensslLib:siphash_pmeth.obj
 0005:00000000       $unwind$init               00000000000be580     OpensslLib:m_sm3.obj
 0005:00000000       $unwind$X509_OBJECT_free   00000000000be580     OpensslLib:x509_lu.obj
 0005:00000000       $unwind$X509V3_EXT_d2i     00000000000be580     OpensslLib:v3_lib.obj
 0005:00000000       $unwind$check_purpose_timestamp_sign 00000000000be580     OpensslLib:v3_purp.obj
 0005:00000000       $unwind$equal_case         00000000000be580     OpensslLib:v3_utl.obj
 0005:00000000       $unwind$ipv6_cb            00000000000be580     OpensslLib:v3_utl.obj
 0005:00000000       $unwind$GetVariableFlashInfoFromHob 00000000000be580     BaseVariableFlashInfoLib:BaseVariableFlashInfoLib.obj
 0005:00000000       $unwind$VarCheckLibInitializeAtEndOfDxe 00000000000be580     VarCheckLib:VarCheckLib.obj
 0005:00000000       $unwind$DumpVariablePolicy 00000000000be580     VariablePolicyLib:VariablePolicyLib.obj
 0005:00000000       $unwind$ProcessModuleEntryPointList 00000000000be580     VariableSmm:AutoGen.obj
 0005:00000000       $unwind$GetVariableStoreStatus 00000000000be580     VariableSmm:VariableParsing.obj
 0005:00000000       $unwind$FlushPendingRuntimeVariableCacheUpdates 00000000000be580     VariableSmm:VariableRuntimeCache.obj
 0005:00000000       $unwind$VariableWriteServiceInitializeSmm 00000000000be580     VariableSmm:VariableSmm.obj
 0005:00000000       $unwind$MmioRead32         00000000000be580     BaseIoLibIntrinsicSev:IoLib.obj
 0005:00000000       $unwind$IoRead32           00000000000be580     BaseIoLibIntrinsicSev:IoLibMsc.obj
 0005:00000000       $unwind$SaveAndDisableInterrupts 00000000000be580     BaseLib:Cpu.obj
 0005:00000000       $unwind$PciExpressRead32   00000000000be580     BasePciExpressLib:PciExpressLib.obj
 0005:00000000       $unwind$AllocateZeroPool   00000000000be580     SmmMemoryAllocationLib:MemoryAllocationLib.obj
 0005:00000000       $unwind$FreePool           00000000000be580     SmmMemoryAllocationLib:MemoryAllocationLib.obj
 0005:00000000       $unwind$_ModuleEntryPoint  00000000000be580     UefiDriverEntryPoint:DriverEntryPoint.obj
 0005:00000008       $unwind$ProcessLibraryConstructorList 00000000000be588     VariableSmm:AutoGen.obj
 0005:00000020       $unwind$ASN1_ENUMERATED_get 00000000000be5a0     OpensslLib:a_int.obj
 0005:00000020       $unwind$ASN1_INTEGER_get   00000000000be5a0     OpensslLib:a_int.obj
 0005:00000020       $unwind$asn1_string_set_int64 00000000000be5a0     OpensslLib:a_int.obj
 0005:00000020       $unwind$st_free            00000000000be5a0     OpensslLib:a_strnid.obj
 0005:00000020       $unwind$stbl_module_finish 00000000000be5a0     OpensslLib:asn_mstbl.obj
 0005:00000020       $unwind$ASN1_TYPE_free     00000000000be5a0     OpensslLib:tasn_typ.obj
 0005:00000020       $unwind$X509_ALGOR_free    00000000000be5a0     OpensslLib:x_algor.obj
 0005:00000020       $unwind$BN_GENCB_call      00000000000be5a0     OpensslLib:bn_prime.obj
 0005:00000020       $unwind$int_dh_size        00000000000be5a0     OpensslLib:dh_ameth.obj
 0005:00000020       $unwind$dh_finish          00000000000be5a0     OpensslLib:dh_key.obj
 0005:00000020       $unwind$gf_sub_nr          00000000000be5a0     OpensslLib:curve448.obj
 0005:00000020       $unwind$ec_security_bits   00000000000be5a0     OpensslLib:ec_ameth.obj
 0005:00000020       $unwind$eckey_pub_cmp      00000000000be5a0     OpensslLib:ec_ameth.obj
 0005:00000020       $unwind$ERR_set_mark       00000000000be5a0     OpensslLib:err.obj
 0005:00000020       $unwind$md_gets            00000000000be5a0     OpensslLib:bio_md.obj
 0005:00000020       $unwind$aria_gcm_cleanup   00000000000be5a0     OpensslLib:e_aria.obj
 0005:00000020       $unwind$sm4_init_key       00000000000be5a0     OpensslLib:e_sm4.obj
 0005:00000020       $unwind$EVP_CIPHER_CTX_iv_length 00000000000be5a0     OpensslLib:evp_lib.obj
 0005:00000020       $unwind$hmac_get_priv_key  00000000000be5a0     OpensslLib:hm_ameth.obj
 0005:00000020       $unwind$hmac_pkey_public_cmp 00000000000be5a0     OpensslLib:hm_ameth.obj
 0005:00000020       $unwind$int_update         00000000000be5a0     OpensslLib:hm_pmeth.obj
 0005:00000020       $unwind$ossl_init_add_all_digests_ossl_ 00000000000be5a0     OpensslLib:init.obj
 0005:00000020       $unwind$ossl_init_config_ossl_ 00000000000be5a0     OpensslLib:init.obj
 0005:00000020       $unwind$obj_name_cmp       00000000000be5a0     OpensslLib:o_names.obj
 0005:00000020       $unwind$added_obj_cmp      00000000000be5a0     OpensslLib:obj_dat.obj
 0005:00000020       $unwind$obj_cmp_BSEARCH_CMP_FN 00000000000be5a0     OpensslLib:obj_dat.obj
 0005:00000020       $unwind$i2r_object         00000000000be5a0     OpensslLib:v3_ocsp.obj
 0005:00000020       $unwind$i2r_ocsp_acutoff   00000000000be5a0     OpensslLib:v3_ocsp.obj
 0005:00000020       $unwind$i2r_ocsp_nonce     00000000000be5a0     OpensslLib:v3_ocsp.obj
 0005:00000020       $unwind$ri_cb              00000000000be5a0     OpensslLib:pk7_asn1.obj
 0005:00000020       $unwind$si_cb              00000000000be5a0     OpensslLib:pk7_asn1.obj
 0005:00000020       $unwind$RAND_DRBG_get0_master 00000000000be5a0     OpensslLib:drbg_lib.obj
 0005:00000020       $unwind$drbg_status        00000000000be5a0     OpensslLib:drbg_lib.obj
 0005:00000020       $unwind$RAND_get_rand_method 00000000000be5a0     OpensslLib:rand_lib.obj
 0005:00000020       $unwind$int_rsa_size       00000000000be5a0     OpensslLib:rsa_ameth.obj
 0005:00000020       $unwind$rsa_pss_cb         00000000000be5a0     OpensslLib:rsa_asn1.obj
 0005:00000020       $unwind$siphash_pkey_public_cmp 00000000000be5a0     OpensslLib:siphash_ameth.obj
 0005:00000020       $unwind$int_update         00000000000be5a0     OpensslLib:siphash_pmeth.obj
 0005:00000020       $unwind$x509_object_cmp    00000000000be5a0     OpensslLib:x509_lu.obj
 0005:00000020       $unwind$check_issued       00000000000be5a0     OpensslLib:x509_vfy.obj
 0005:00000020       $unwind$X509_ATTRIBUTE_free 00000000000be5a0     OpensslLib:x_attrib.obj
 0005:00000020       $unwind$X509_CRL_free      00000000000be5a0     OpensslLib:x_crl.obj
 0005:00000020       $unwind$X509_NAME_ENTRY_free 00000000000be5a0     OpensslLib:x_name.obj
 0005:00000020       $unwind$X509_free          00000000000be5a0     OpensslLib:x_x509.obj
 0005:00000020       $unwind$policy_data_cmp    00000000000be5a0     OpensslLib:pcy_cache.obj
 0005:00000020       $unwind$node_cmp           00000000000be5a0     OpensslLib:pcy_node.obj
 0005:00000020       $unwind$exnode_free        00000000000be5a0     OpensslLib:pcy_tree.obj
 0005:00000020       $unwind$POLICYINFO_free    00000000000be5a0     OpensslLib:v3_cpols.obj
 0005:00000020       $unwind$POLICYQUALINFO_free 00000000000be5a0     OpensslLib:v3_cpols.obj
 0005:00000020       $unwind$DIST_POINT_free    00000000000be5a0     OpensslLib:v3_crld.obj
 0005:00000020       $unwind$dpn_cb             00000000000be5a0     OpensslLib:v3_crld.obj
 0005:00000020       $unwind$GENERAL_NAMES_free 00000000000be5a0     OpensslLib:v3_genn.obj
 0005:00000020       $unwind$GENERAL_NAME_free  00000000000be5a0     OpensslLib:v3_genn.obj
 0005:00000020       $unwind$ACCESS_DESCRIPTION_free 00000000000be5a0     OpensslLib:v3_info.obj
 0005:00000020       $unwind$POLICY_MAPPING_free 00000000000be5a0     OpensslLib:v3_pmaps.obj
 0005:00000020       $unwind$check_purpose_crl_sign 00000000000be5a0     OpensslLib:v3_purp.obj
 0005:00000020       $unwind$check_purpose_smime_encrypt 00000000000be5a0     OpensslLib:v3_purp.obj
 0005:00000020       $unwind$check_purpose_smime_sign 00000000000be5a0     OpensslLib:v3_purp.obj
 0005:00000020       $unwind$check_purpose_ssl_client 00000000000be5a0     OpensslLib:v3_purp.obj
 0005:00000020       $unwind$check_purpose_ssl_server 00000000000be5a0     OpensslLib:v3_purp.obj
 0005:00000020       $unwind$purpose_smime      00000000000be5a0     OpensslLib:v3_purp.obj
 0005:00000020       $unwind$InternalVarCheckDevicePath 00000000000be5a0     VarCheckUefiLib:VarCheckUefiLibNullClass.obj
 0005:00000020       $unwind$InternalVarCheckLoadOption 00000000000be5a0     VarCheckUefiLib:VarCheckUefiLibNullClass.obj
 0005:00000020       $unwind$ProcessLibraryDestructorList 00000000000be5a0     VariableSmm:AutoGen.obj
 0005:00000020       $unwind$GetLangFromSupportedLangCodes 00000000000be5a0     VariableSmm:Variable.obj
 0005:00000020       $unwind$InitNonVolatileVariableStore 00000000000be5a0     VariableSmm:VariableNonVolatile.obj
 0005:00000020       $unwind$SmmEndOfDxeCallback 00000000000be5a0     VariableSmm:VariableSmm.obj
 0005:00000020       $unwind$InternalAssertJumpBuffer 00000000000be5a0     BaseLib:SetJump.obj
 0005:00000020       $unwind$GetHobList         00000000000be5a0     DxeHobLib:HobLib.obj
 0005:00000020       $unwind$GetPcdProtocol     00000000000be5a0     DxePcdLib:DxePcdLib.obj
 0005:00000020       $unwind$InternalAllocatePool 00000000000be5a0     SmmMemoryAllocationLib:MemoryAllocationLib.obj
 0005:00000028       $unwind$asn1_get_uint64    00000000000be5a8     OpensslLib:a_int.obj
 0005:00000028       $unwind$bitstr_cb          00000000000be5a8     OpensslLib:asn1_gen.obj
 0005:00000028       $unwind$parse_tagging      00000000000be5a8     OpensslLib:asn1_gen.obj
 0005:00000028       $unwind$BN_CTX_new         00000000000be5a8     OpensslLib:bn_ctx.obj
 0005:00000028       $unwind$BN_mod_exp         00000000000be5a8     OpensslLib:bn_exp.obj
 0005:00000028       $unwind$BN_new             00000000000be5a8     OpensslLib:bn_lib.obj
 0005:00000028       $unwind$BN_MONT_CTX_new    00000000000be5a8     OpensslLib:bn_mont.obj
 0005:00000028       $unwind$BUF_MEM_new        00000000000be5a8     OpensslLib:buffer.obj
 0005:00000028       $unwind$DH_new_by_nid      00000000000be5a8     OpensslLib:dh_rfc7919.obj
 0005:00000028       $unwind$ec_pkey_check      00000000000be5a8     OpensslLib:ec_ameth.obj
 0005:00000028       $unwind$ec_pkey_param_check 00000000000be5a8     OpensslLib:ec_ameth.obj
 0005:00000028       $unwind$EC_GROUP_new_from_ecpkparameters 00000000000be5a8     OpensslLib:ec_asn1.obj
 0005:00000028       $unwind$EC_KEY_check_key   00000000000be5a8     OpensslLib:ec_key.obj
 0005:00000028       $unwind$ec_key_simple_generate_public_key 00000000000be5a8     OpensslLib:ec_key.obj
 0005:00000028       $unwind$EC_POINT_add       00000000000be5a8     OpensslLib:ec_lib.obj
 0005:00000028       $unwind$EC_POINT_cmp       00000000000be5a8     OpensslLib:ec_lib.obj
 0005:00000028       $unwind$EC_POINT_copy      00000000000be5a8     OpensslLib:ec_lib.obj
 0005:00000028       $unwind$EC_POINT_dbl       00000000000be5a8     OpensslLib:ec_lib.obj
 0005:00000028       $unwind$EC_POINT_invert    00000000000be5a8     OpensslLib:ec_lib.obj
 0005:00000028       $unwind$EC_POINT_is_at_infinity 00000000000be5a8     OpensslLib:ec_lib.obj
 0005:00000028       $unwind$EC_POINT_is_on_curve 00000000000be5a8     OpensslLib:ec_lib.obj
 0005:00000028       $unwind$EC_POINT_set_to_infinity 00000000000be5a8     OpensslLib:ec_lib.obj
 0005:00000028       $unwind$EC_POINT_oct2point 00000000000be5a8     OpensslLib:ec_oct.obj
 0005:00000028       $unwind$EC_POINT_point2oct 00000000000be5a8     OpensslLib:ec_oct.obj
 0005:00000028       $unwind$EC_POINT_set_compressed_coordinates 00000000000be5a8     OpensslLib:ec_oct.obj
 0005:00000028       $unwind$ossl_ecdh_compute_key 00000000000be5a8     OpensslLib:ecdh_ossl.obj
 0005:00000028       $unwind$ossl_ecdsa_sign_setup 00000000000be5a8     OpensslLib:ecdsa_ossl.obj
 0005:00000028       $unwind$ecx_priv_print     00000000000be5a8     OpensslLib:ecx_meth.obj
 0005:00000028       $unwind$ecx_pub_decode     00000000000be5a8     OpensslLib:ecx_meth.obj
 0005:00000028       $unwind$ecx_pub_print      00000000000be5a8     OpensslLib:ecx_meth.obj
 0005:00000028       $unwind$ecx_set_priv_key   00000000000be5a8     OpensslLib:ecx_meth.obj
 0005:00000028       $unwind$ecx_set_pub_key    00000000000be5a8     OpensslLib:ecx_meth.obj
 0005:00000028       $unwind$pkey_ecd_ctrl      00000000000be5a8     OpensslLib:ecx_meth.obj
 0005:00000028       $unwind$pkey_ecx_keygen    00000000000be5a8     OpensslLib:ecx_meth.obj
 0005:00000028       $unwind$validate_ecx_derive 00000000000be5a8     OpensslLib:ecx_meth.obj
 0005:00000028       $unwind$aria_init_key      00000000000be5a8     OpensslLib:e_aria.obj
 0005:00000028       $unwind$EVP_CIPHER_CTX_ctrl 00000000000be5a8     OpensslLib:evp_enc.obj
 0005:00000028       $unwind$EVP_CIPHER_CTX_set_key_length 00000000000be5a8     OpensslLib:evp_enc.obj
 0005:00000028       $unwind$update             00000000000be5a8     OpensslLib:m_sigver.obj
 0005:00000028       $unwind$EVP_PKEY_verify    00000000000be5a8     OpensslLib:pmeth_fn.obj
 0005:00000028       $unwind$pkey_hmac_ctrl     00000000000be5a8     OpensslLib:hm_pmeth.obj
 0005:00000028       $unwind$rand_pool_add_end  00000000000be5a8     OpensslLib:rand_lib.obj
 0005:00000028       $unwind$RSA_pkey_ctx_ctrl  00000000000be5a8     OpensslLib:rsa_lib.obj
 0005:00000028       $unwind$check_padding_md   00000000000be5a8     OpensslLib:rsa_pmeth.obj
 0005:00000028       $unwind$siphash_signctx_init 00000000000be5a8     OpensslLib:siphash_pmeth.obj
 0005:00000028       $unwind$X509_OBJECT_new    00000000000be5a8     OpensslLib:x509_lu.obj
 0005:00000028       $unwind$def_crl_verify     00000000000be5a8     OpensslLib:x_crl.obj
 0005:00000028       $unwind$GENERAL_NAME_print 00000000000be5a8     OpensslLib:v3_alt.obj
 0005:00000028       $unwind$X509V3_get_section 00000000000be5a8     OpensslLib:v3_conf.obj
 0005:00000028       $unwind$ReclaimForOS       00000000000be5a8     VariableSmm:Variable.obj
 0005:00000028       $unwind$SmmVariableSetVariable 00000000000be5a8     VariableSmm:VariableSmm.obj
 0005:00000028       $unwind$VendorKeyIsModified 00000000000be5a8     AuthVariableLib:AuthService.obj
 0005:00000030       $unwind$asn1_multi         00000000000be5b0     OpensslLib:asn1_gen.obj
 0005:00000030       $unwind$probable_prime     00000000000be5b0     OpensslLib:bn_prime.obj
 0005:00000030       $unwind$BN_bn2dec          00000000000be5b0     OpensslLib:bn_print.obj
 0005:00000030       $unwind$ec_GFp_simple_group_set_curve 00000000000be5b0     OpensslLib:ecp_smpl.obj
 0005:00000030       $unwind$aria_128_cbc_cipher 00000000000be5b0     OpensslLib:e_aria.obj
 0005:00000030       $unwind$aria_192_cbc_cipher 00000000000be5b0     OpensslLib:e_aria.obj
 0005:00000030       $unwind$aria_256_cbc_cipher 00000000000be5b0     OpensslLib:e_aria.obj
 0005:00000030       $unwind$sm4_cbc_cipher     00000000000be5b0     OpensslLib:e_sm4.obj
 0005:00000030       $unwind$EVP_DecryptUpdate  00000000000be5b0     OpensslLib:evp_enc.obj
 0005:00000030       $unwind$check_hosts        00000000000be5b0     OpensslLib:x509_vfy.obj
 0005:00000030       $unwind$X509V3_NAME_from_section 00000000000be5b0     OpensslLib:v3_utl.obj
 0005:00000030       $unwind$SmmVariableGetStatistics 00000000000be5b0     VariableSmm:VariableSmm.obj
 0005:0000004c       $unwind$set_dist_point_name 00000000000be5cc     OpensslLib:v3_crld.obj
 0005:0000004c       $unwind$SmmVariableHandler 00000000000be5cc     VariableSmm:VariableSmm.obj
 0005:00000064       $unwind$c2i_ibuf           00000000000be5e4     OpensslLib:a_int.obj
 0005:00000064       $unwind$BIO_new            00000000000be5e4     OpensslLib:bio_lib.obj
 0005:00000064       $unwind$bn_expand2         00000000000be5e4     OpensslLib:bn_lib.obj
 0005:00000064       $unwind$BN_mod_sqr         00000000000be5e4     OpensslLib:bn_mod.obj
 0005:00000064       $unwind$BN_bn2hex          00000000000be5e4     OpensslLib:bn_print.obj
 0005:00000064       $unwind$BUF_MEM_grow       00000000000be5e4     OpensslLib:buffer.obj
 0005:00000064       $unwind$BUF_MEM_grow_clean 00000000000be5e4     OpensslLib:buffer.obj
 0005:00000064       $unwind$DH_new             00000000000be5e4     OpensslLib:dh_lib.obj
 0005:00000064       $unwind$d2i_ECParameters   00000000000be5e4     OpensslLib:ec_asn1.obj
 0005:00000064       $unwind$EC_KEY_copy        00000000000be5e4     OpensslLib:ec_key.obj
 0005:00000064       $unwind$EC_KEY_oct2key     00000000000be5e4     OpensslLib:ec_key.obj
 0005:00000064       $unwind$ec_key_simple_oct2priv 00000000000be5e4     OpensslLib:ec_key.obj
 0005:00000064       $unwind$EC_GROUP_copy      00000000000be5e4     OpensslLib:ec_lib.obj
 0005:00000064       $unwind$EC_GROUP_set_seed  00000000000be5e4     OpensslLib:ec_lib.obj
 0005:00000064       $unwind$EC_POINT_set_affine_coordinates 00000000000be5e4     OpensslLib:ec_lib.obj
 0005:00000064       $unwind$pkey_ec_ctrl       00000000000be5e4     OpensslLib:ec_pmeth.obj
 0005:00000064       $unwind$pkey_ec_ctrl_str   00000000000be5e4     OpensslLib:ec_pmeth.obj
 0005:00000064       $unwind$pkey_ec_paramgen   00000000000be5e4     OpensslLib:ec_pmeth.obj
 0005:00000064       $unwind$ecx_ctrl           00000000000be5e4     OpensslLib:ecx_meth.obj
 0005:00000064       $unwind$EVP_DigestFinalXOF 00000000000be5e4     OpensslLib:digest.obj
 0005:00000064       $unwind$EVP_MD_CTX_copy_ex 00000000000be5e4     OpensslLib:digest.obj
 0005:00000064       $unwind$aes_ccm_init_key   00000000000be5e4     OpensslLib:e_aes.obj
 0005:00000064       $unwind$EVP_PKEY_assign    00000000000be5e4     OpensslLib:p_lib.obj
 0005:00000064       $unwind$EVP_PKEY_CTX_md    00000000000be5e4     OpensslLib:pmeth_lib.obj
 0005:00000064       $unwind$OPENSSL_init_crypto 00000000000be5e4     OpensslLib:init.obj
 0005:00000064       $unwind$pkey_hkdf_ctrl_str 00000000000be5e4     OpensslLib:hkdf.obj
 0005:00000064       $unwind$pkey_tls1_prf_ctrl_str 00000000000be5e4     OpensslLib:tls1_prf.obj
 0005:00000064       $unwind$OPENSSL_hexstr2buf 00000000000be5e4     OpensslLib:o_str.obj
 0005:00000064       $unwind$PKCS7_bio_add_digest 00000000000be5e4     OpensslLib:pk7_doit.obj
 0005:00000064       $unwind$PKCS7_find_digest  00000000000be5e4     OpensslLib:pk7_doit.obj
 0005:00000064       $unwind$rsa_param_decode   00000000000be5e4     OpensslLib:rsa_ameth.obj
 0005:00000064       $unwind$pkey_sm2_copy      00000000000be5e4     OpensslLib:sm2_pmeth.obj
 0005:00000064       $unwind$pkey_sm2_ctrl_str  00000000000be5e4     OpensslLib:sm2_pmeth.obj
 0005:00000064       $unwind$pkey_sm2_encrypt   00000000000be5e4     OpensslLib:sm2_pmeth.obj
 0005:00000064       $unwind$check_policy       00000000000be5e4     OpensslLib:x509_vfy.obj
 0005:00000064       $unwind$X509_NAME_ENTRY_create_by_OBJ 00000000000be5e4     OpensslLib:x509name.obj
 0005:00000064       $unwind$x509_pubkey_decode 00000000000be5e4     OpensslLib:x_pubkey.obj
 0005:00000064       $unwind$i2s_ASN1_ENUMERATED_TABLE 00000000000be5e4     OpensslLib:v3_enum.obj
 0005:00000064       $unwind$i2r_NAME_CONSTRAINTS 00000000000be5e4     OpensslLib:v3_ncons.obj
 0005:00000064       $unwind$i2r_pci            00000000000be5e4     OpensslLib:v3_pci.obj
 0005:00000064       $unwind$bignum_to_string   00000000000be5e4     OpensslLib:v3_utl.obj
 0005:00000064       $unwind$SmmFtwNotificationEvent 00000000000be5e4     VariableSmm:VariableSmm.obj
 0005:00000064       $unwind$SmmIsBufferOutsideSmmValid 00000000000be5e4     SmmMemLib:SmmMemLib.obj
 0005:00000074       $unwind$MmVariableServiceInitialize 00000000000be5f4     VariableSmm:VariableSmm.obj
 0005:00000088       $unwind$UpdateVariableStore 00000000000be608     VariableSmm:Variable.obj
 0005:000000a0       $unwind$RecordVarErrorFlag 00000000000be620     VariableSmm:Variable.obj
 0005:000000b0       $unwind$InitializeVarErrorFlag 00000000000be630     VariableSmm:Variable.obj
 0005:000000b8       $unwind$pkey_ecd_digestverify448 00000000000be638     OpensslLib:ecx_meth.obj
 0005:000000b8       $unwind$pkey_tls1_prf_derive 00000000000be638     OpensslLib:tls1_prf.obj
 0005:000000b8       $unwind$IsUserVariable     00000000000be638     VariableSmm:Variable.obj
 0005:000000c0       $unwind$OBJ_find_sigid_algs 00000000000be640     OpensslLib:obj_xref.obj
 0005:000000c0       $unwind$drbg_ctr_reseed    00000000000be640     OpensslLib:drbg_ctr.obj
 0005:000000c0       $unwind$X509V3_get_value_int 00000000000be640     OpensslLib:v3_utl.obj
 0005:000000c0       $unwind$CalculateCommonUserVariableTotalSize 00000000000be640     VariableSmm:Variable.obj
 0005:000000cc       $unwind$bn_div_fixed_top   00000000000be64c     OpensslLib:bn_div.obj
 0005:000000cc       $unwind$Reclaim            00000000000be64c     VariableSmm:Variable.obj
 0005:000000e4       $unwind$ge_p2_dbl          00000000000be664     OpensslLib:curve25519.obj
 0005:000000e4       $unwind$cfbr_encrypt_block 00000000000be664     OpensslLib:cfb128.obj
 0005:000000e4       $unwind$FindVariable       00000000000be664     VariableSmm:Variable.obj
 0005:000000e4       $unwind$ProcessVarWithKek  00000000000be664     AuthVariableLib:AuthService.obj
 0005:000000fc       $unwind$i2c_ASN1_BIT_STRING 00000000000be67c     OpensslLib:a_bitstr.obj
 0005:000000fc       $unwind$mem_ctrl           00000000000be67c     OpensslLib:bss_mem.obj
 0005:000000fc       $unwind$BN_mul_word        00000000000be67c     OpensslLib:bn_word.obj
 0005:000000fc       $unwind$cmac_signctx       00000000000be67c     OpensslLib:cm_pmeth.obj
 0005:000000fc       $unwind$ssl_module_free    00000000000be67c     OpensslLib:conf_ssl.obj
 0005:000000fc       $unwind$DH_check_params    00000000000be67c     OpensslLib:dh_check.obj
 0005:000000fc       $unwind$ge_p1p1_to_p3      00000000000be67c     OpensslLib:curve25519.obj
 0005:000000fc       $unwind$EVP_CIPHER_set_asn1_iv 00000000000be67c     OpensslLib:evp_lib.obj
 0005:000000fc       $unwind$sha3_update        00000000000be67c     OpensslLib:m_sha3.obj
 0005:000000fc       $unwind$expand             00000000000be67c     OpensslLib:lhash.obj
 0005:000000fc       $unwind$MD5_Final          00000000000be67c     OpensslLib:md5_dgst.obj
 0005:000000fc       $unwind$MD5_Update         00000000000be67c     OpensslLib:md5_dgst.obj
 0005:000000fc       $unwind$CRYPTO_realloc     00000000000be67c     OpensslLib:mem.obj
 0005:000000fc       $unwind$SHA3_absorb        00000000000be67c     OpensslLib:keccak1600.obj
 0005:000000fc       $unwind$SHA1_Update        00000000000be67c     OpensslLib:sha1dgst.obj
 0005:000000fc       $unwind$SHA256_Update      00000000000be67c     OpensslLib:sha256.obj
 0005:000000fc       $unwind$SHA512_Update      00000000000be67c     OpensslLib:sha512.obj
 0005:000000fc       $unwind$update             00000000000be67c     OpensslLib:m_sm3.obj
 0005:000000fc       $unwind$sm3_final          00000000000be67c     OpensslLib:sm3.obj
 0005:000000fc       $unwind$check_crl          00000000000be67c     OpensslLib:x509_vfy.obj
 0005:000000fc       $unwind$dane_verify        00000000000be67c     OpensslLib:x509_vfy.obj
 0005:000000fc       $unwind$internal_verify    00000000000be67c     OpensslLib:x509_vfy.obj
 0005:000000fc       $unwind$X509_VERIFY_PARAM_inherit 00000000000be67c     OpensslLib:x509_vpm.obj
 0005:000000fc       $unwind$i2v_GENERAL_NAMES  00000000000be67c     OpensslLib:v3_alt.obj
 0005:000000fc       $unwind$i2r_crldp          00000000000be67c     OpensslLib:v3_crld.obj
 0005:000000fc       $unwind$SXNET_get_id_INTEGER 00000000000be67c     OpensslLib:v3_sxnet.obj
 0005:000000fc       $unwind$GetHobVariableStore 00000000000be67c     VariableSmm:Variable.obj
 0005:000000fc       $unwind$GetIndexFromSupportedLangCodes 00000000000be67c     VariableSmm:Variable.obj
 0005:000000fc       $unwind$EfiGetSystemConfigurationTable 00000000000be67c     UefiLib:UefiLib.obj
 0005:00000114       $unwind$VariableGetBestLanguage 00000000000be694     VariableSmm:Variable.obj
 0005:00000128       $unwind$CheckRemainingSpaceForConsistencyInternal 00000000000be6a8     VariableSmm:Variable.obj
 0005:00000138       $unwind$CheckRemainingSpaceForConsistency 00000000000be6b8     VariableSmm:Variable.obj
 0005:00000138       $unwind$VariableExLibCheckRemainingSpaceForConsistency 00000000000be6b8     VariableSmm:VariableExLib.obj
 0005:00000140       $unwind$AutoUpdateLangVariable 00000000000be6c0     VariableSmm:Variable.obj
 0005:00000160       $unwind$UpdateVariable     00000000000be6e0     VariableSmm:Variable.obj
 0005:0000017c       $unwind$VariableServiceGetVariable 00000000000be6fc     VariableSmm:Variable.obj
 0005:00000194       $unwind$VariableServiceGetNextVariableName 00000000000be714     VariableSmm:Variable.obj
 0005:000001ac       $unwind$i2v_AUTHORITY_INFO_ACCESS 00000000000be72c     OpensslLib:v3_info.obj
 0005:000001ac       $unwind$FlushHobVariableToFlash 00000000000be72c     VariableSmm:Variable.obj
 0005:000001ac       $unwind$VariableServiceSetVariable 00000000000be72c     VariableSmm:Variable.obj
 0005:000001c8       $unwind$VariableServiceQueryVariableInfoInternal 00000000000be748     VariableSmm:Variable.obj
 0005:000001e0       $unwind$eckey_param2type   00000000000be760     OpensslLib:ec_ameth.obj
 0005:000001e0       $unwind$EC_KEY_priv2buf    00000000000be760     OpensslLib:ec_key.obj
 0005:000001e0       $unwind$CRYPTO_gcm128_init 00000000000be760     OpensslLib:gcm128.obj
 0005:000001e0       $unwind$VariableWriteServiceInitialize 00000000000be760     VariableSmm:Variable.obj
 0005:000001f4       $unwind$WrapPkcs7Data      00000000000be774     SmmCryptLib:CryptPkcs7VerifyCommon.obj
 0005:000001f4       $unwind$bn_mul_normal      00000000000be774     OpensslLib:bn_mul.obj
 0005:000001f4       $unwind$BN_hex2bn          00000000000be774     OpensslLib:bn_print.obj
 0005:000001f4       $unwind$ec_GFp_simple_get_Jprojective_coordinates_GFp 00000000000be774     OpensslLib:ecp_smpl.obj
 0005:000001f4       $unwind$ec_GFp_simple_set_Jprojective_coordinates_GFp 00000000000be774     OpensslLib:ecp_smpl.obj
 0005:000001f4       $unwind$CRYPTO_cfb128_encrypt 00000000000be774     OpensslLib:cfb128.obj
 0005:000001f4       $unwind$CRYPTO_gcm128_finish 00000000000be774     OpensslLib:gcm128.obj
 0005:000001f4       $unwind$CRYPTO_ofb128_encrypt 00000000000be774     OpensslLib:ofb128.obj
 0005:000001f4       $unwind$OBJ_bsearch_ex_    00000000000be774     OpensslLib:obj_dat.obj
 0005:000001f4       $unwind$add_attribute      00000000000be774     OpensslLib:pk7_doit.obj
 0005:000001f4       $unwind$SHA512_Final       00000000000be774     OpensslLib:sha512.obj
 0005:000001f4       $unwind$tree_evaluate      00000000000be774     OpensslLib:pcy_tree.obj
 0005:000001f4       $unwind$set_reasons        00000000000be774     OpensslLib:v3_crld.obj
 0005:000001f4       $unwind$nc_email           00000000000be774     OpensslLib:v3_ncons.obj
 0005:000001f4       $unwind$valid_star         00000000000be774     OpensslLib:v3_utl.obj
 0005:000001f4       $unwind$GetUefiDefinedVarCheckFunction 00000000000be774     VarCheckUefiLib:VarCheckUefiLibNullClass.obj
 0005:000001f4       $unwind$ConvertNormalVarStorageToAuthVarStorage 00000000000be774     VariableSmm:Variable.obj
 0005:00000210       $unwind$GetFvbInfoByAddress 00000000000be790     VariableSmm:Variable.obj
 0005:00000228       $unwind$BN_kronecker       00000000000be7a8     OpensslLib:bn_kron.obj
 0005:00000228       $unwind$bn_lshift_fixed_top 00000000000be7a8     OpensslLib:bn_shift.obj
 0005:00000228       $unwind$bn_rshift_fixed_top 00000000000be7a8     OpensslLib:bn_shift.obj
 0005:00000228       $unwind$aes_gcm_tls_cipher 00000000000be7a8     OpensslLib:e_aes.obj
 0005:00000228       $unwind$aria_gcm_tls_cipher 00000000000be7a8     OpensslLib:e_aria.obj
 0005:00000228       $unwind$CRYPTO_ctr128_encrypt 00000000000be7a8     OpensslLib:ctr128.obj
 0005:00000228       $unwind$CRYPTO_gcm128_aad  00000000000be7a8     OpensslLib:gcm128.obj
 0005:00000228       $unwind$rsa_pss_param_print 00000000000be7a8     OpensslLib:rsa_ameth.obj
 0005:00000228       $unwind$rsa_get_public_exp 00000000000be7a8     OpensslLib:rsa_crpt.obj
 0005:00000228       $unwind$SipHash_Update     00000000000be7a8     OpensslLib:siphash.obj
 0005:00000228       $unwind$X509_chain_check_suiteb 00000000000be7a8     OpensslLib:x509_cmp.obj
 0005:00000228       $unwind$check_auth_level   00000000000be7a8     OpensslLib:x509_vfy.obj
 0005:00000228       $unwind$crl_akid_check     00000000000be7a8     OpensslLib:x509_vfy.obj
 0005:00000228       $unwind$X509_VERIFY_PARAM_set1_policies 00000000000be7a8     OpensslLib:x509_vpm.obj
 0005:00000228       $unwind$X509V3_get_d2i     00000000000be7a8     OpensslLib:v3_lib.obj
 0005:00000228       $unwind$VariablePropertyGetFunction 00000000000be7a8     VarCheckLib:VarCheckLib.obj
 0005:00000228       $unwind$GetBestPolicyMatch 00000000000be7a8     VariablePolicyLib:VariablePolicyLib.obj
 0005:00000228       $unwind$FindVariableEx     00000000000be7a8     VariableSmm:VariableParsing.obj
 0005:00000228       $unwind$CheckSignatureListFormat 00000000000be7a8     AuthVariableLib:AuthService.obj
 0005:00000244       $unwind$VariableServiceGetNextVariableInternal 00000000000be7c4     VariableSmm:VariableParsing.obj
 0005:00000260       $unwind$VariableLockRequestToLock 00000000000be7e0     VariableSmm:VariableLockRequestToLock.obj
 0005:00000274       $unwind$SetMorLockVariable 00000000000be7f4     VariableSmm:TcgMorLockSmm.obj
 0005:0000027c       $unwind$SetVariableCheckHandlerMorLock 00000000000be7fc     VariableSmm:TcgMorLockSmm.obj
 0005:00000288       $unwind$ASN1_BIT_STRING_set_bit 00000000000be808     OpensslLib:a_bitstr.obj
 0005:00000288       $unwind$BN_usub            00000000000be808     OpensslLib:bn_add.obj
 0005:00000288       $unwind$BN_mod_mul_reciprocal 00000000000be808     OpensslLib:bn_recp.obj
 0005:00000288       $unwind$DH_check_pub_key   00000000000be808     OpensslLib:dh_check.obj
 0005:00000288       $unwind$ec_field_inverse_mod_ord 00000000000be808     OpensslLib:ec_lib.obj
 0005:00000288       $unwind$ec_guess_cofactor  00000000000be808     OpensslLib:ec_lib.obj
 0005:00000288       $unwind$ec_GFp_mont_field_inv 00000000000be808     OpensslLib:ecp_mont.obj
 0005:00000288       $unwind$ec_GFp_nist_field_mul 00000000000be808     OpensslLib:ecp_nist.obj
 0005:00000288       $unwind$ec_GFp_nist_group_set_curve 00000000000be808     OpensslLib:ecp_nist.obj
 0005:00000288       $unwind$ec_GFp_simple_field_inv 00000000000be808     OpensslLib:ecp_smpl.obj
 0005:00000288       $unwind$ec_GFp_simple_make_affine 00000000000be808     OpensslLib:ecp_smpl.obj
 0005:00000288       $unwind$X509_STORE_CTX_get_by_subject 00000000000be808     OpensslLib:x509_lu.obj
 0005:00000288       $unwind$v2i_issuer_alt     00000000000be808     OpensslLib:v3_alt.obj
 0005:00000288       $unwind$v2i_subject_alt    00000000000be808     OpensslLib:v3_alt.obj
 0005:00000288       $unwind$x509v3_add_len_value 00000000000be808     OpensslLib:v3_utl.obj
 0005:00000288       $unwind$SetVariableCheckHandlerMor 00000000000be808     VariableSmm:TcgMorLockSmm.obj
 0005:000002a4       $unwind$MorLockInitAtEndOfDxe 00000000000be824     VariableSmm:TcgMorLockSmm.obj
 0005:000002b8       $unwind$InitRealNonVolatileVariableStore 00000000000be838     VariableSmm:VariableNonVolatile.obj
 0005:000002d0       $unwind$GetLbaAndOffsetByAddress 00000000000be850     VariableSmm:Reclaim.obj
 0005:000002e0       $unwind$FtwVariableSpace   00000000000be860     VariableSmm:Reclaim.obj
 0005:000002ec       $unwind$VariableExLibFindVariable 00000000000be86c     VariableSmm:VariableExLib.obj
 0005:000002fc       $unwind$rsa_priv_encode    00000000000be87c     OpensslLib:rsa_ameth.obj
 0005:000002fc       $unwind$VariableExLibFindNextVariable 00000000000be87c     VariableSmm:VariableExLib.obj
 0005:0000030c       $unwind$VariableExLibUpdateVariable 00000000000be88c     VariableSmm:VariableExLib.obj
 0005:00000314       $unwind$strncasecmp        00000000000be894     SmmCryptLib:CrtWrapper.obj
 0005:00000314       $unwind$asn1_str2tag       00000000000be894     OpensslLib:asn1_gen.obj
 0005:00000314       $unwind$mask_cb            00000000000be894     OpensslLib:asn1_gen.obj
 0005:00000314       $unwind$ASN1_STRING_set0   00000000000be894     OpensslLib:asn1_lib.obj
 0005:00000314       $unwind$PKCS8_pkey_set0    00000000000be894     OpensslLib:p8_pkey.obj
 0005:00000314       $unwind$bn_c2i             00000000000be894     OpensslLib:x_bignum.obj
 0005:00000314       $unwind$bn_i2c             00000000000be894     OpensslLib:x_bignum.obj
 0005:00000314       $unwind$mem_init           00000000000be894     OpensslLib:bss_mem.obj
 0005:00000314       $unwind$mem_read           00000000000be894     OpensslLib:bss_mem.obj
 0005:00000314       $unwind$BN_add             00000000000be894     OpensslLib:bn_add.obj
 0005:00000314       $unwind$BN_sub             00000000000be894     OpensslLib:bn_add.obj
 0005:00000314       $unwind$BN_copy            00000000000be894     OpensslLib:bn_lib.obj
 0005:00000314       $unwind$BN_sub_word        00000000000be894     OpensslLib:bn_word.obj
 0005:00000314       $unwind$sec_alloc_realloc  00000000000be894     OpensslLib:buffer.obj
 0005:00000314       $unwind$pkey_cmac_keygen   00000000000be894     OpensslLib:cm_pmeth.obj
 0005:00000314       $unwind$CMAC_CTX_copy      00000000000be894     OpensslLib:cmac.obj
 0005:00000314       $unwind$dh_cmp_parameters  00000000000be894     OpensslLib:dh_ameth.obj
 0005:00000314       $unwind$dh_copy_parameters 00000000000be894     OpensslLib:dh_ameth.obj
 0005:00000314       $unwind$int_dh_param_copy  00000000000be894     OpensslLib:dh_ameth.obj
 0005:00000314       $unwind$d2i_DHxparams      00000000000be894     OpensslLib:dh_asn1.obj
 0005:00000314       $unwind$pkey_dh_ctrl       00000000000be894     OpensslLib:dh_pmeth.obj
 0005:00000314       $unwind$pt_to_pniels       00000000000be894     OpensslLib:curve448.obj
 0005:00000314       $unwind$EC_KEY_set_group   00000000000be894     OpensslLib:ec_key.obj
 0005:00000314       $unwind$ecx_get_priv_key   00000000000be894     OpensslLib:ecx_meth.obj
 0005:00000314       $unwind$ecx_get_pub_key    00000000000be894     OpensslLib:ecx_meth.obj
 0005:00000314       $unwind$err_set_error_data_int 00000000000be894     OpensslLib:err.obj
 0005:00000314       $unwind$enc_free           00000000000be894     OpensslLib:bio_enc.obj
 0005:00000314       $unwind$EVP_DigestFinal_ex 00000000000be894     OpensslLib:digest.obj
 0005:00000314       $unwind$cleanup_old_md_data 00000000000be894     OpensslLib:digest.obj
 0005:00000314       $unwind$aes_gcm_init_key   00000000000be894     OpensslLib:e_aes.obj
 0005:00000314       $unwind$update             00000000000be894     OpensslLib:m_md5_sha1.obj
 0005:00000314       $unwind$EVP_PKEY_CTX_hex2ctrl 00000000000be894     OpensslLib:pmeth_lib.obj
 0005:00000314       $unwind$pkey_hmac_cleanup  00000000000be894     OpensslLib:hm_pmeth.obj
 0005:00000314       $unwind$pkey_hmac_copy     00000000000be894     OpensslLib:hm_pmeth.obj
 0005:00000314       $unwind$pkey_hmac_ctrl_str 00000000000be894     OpensslLib:hm_pmeth.obj
 0005:00000314       $unwind$OPENSSL_LH_new     00000000000be894     OpensslLib:lhash.obj
 0005:00000314       $unwind$CRYPTO_strndup     00000000000be894     OpensslLib:o_str.obj
 0005:00000314       $unwind$drbg_ctr_uninstantiate 00000000000be894     OpensslLib:drbg_ctr.obj
 0005:00000314       $unwind$rsa_md_to_algor    00000000000be894     OpensslLib:rsa_ameth.obj
 0005:00000314       $unwind$rsa_cb             00000000000be894     OpensslLib:rsa_asn1.obj
 0005:00000314       $unwind$rsa_get_blinding   00000000000be894     OpensslLib:rsa_ossl.obj
 0005:00000314       $unwind$rsa_ossl_finish    00000000000be894     OpensslLib:rsa_ossl.obj
 0005:00000314       $unwind$siphash_set_priv_key 00000000000be894     OpensslLib:siphash_ameth.obj
 0005:00000314       $unwind$pkey_siphash_cleanup 00000000000be894     OpensslLib:siphash_pmeth.obj
 0005:00000314       $unwind$pkey_siphash_copy  00000000000be894     OpensslLib:siphash_pmeth.obj
 0005:00000314       $unwind$pkey_siphash_ctrl_str 00000000000be894     OpensslLib:siphash_pmeth.obj
 0005:00000314       $unwind$OPENSSL_sk_new_reserve 00000000000be894     OpensslLib:stack.obj
 0005:00000314       $unwind$check_crl_time     00000000000be894     OpensslLib:x509_vfy.obj
 0005:00000314       $unwind$check_revocation   00000000000be894     OpensslLib:x509_vfy.obj
 0005:00000314       $unwind$x509_check_cert_time 00000000000be894     OpensslLib:x509_vfy.obj
 0005:00000314       $unwind$X509_NAME_delete_entry 00000000000be894     OpensslLib:x509name.obj
 0005:00000314       $unwind$x509_name_ex_i2d   00000000000be894     OpensslLib:x_name.obj
 0005:00000314       $unwind$tree_add_auth_node 00000000000be894     OpensslLib:pcy_tree.obj
 0005:00000314       $unwind$nc_match_single    00000000000be894     OpensslLib:v3_ncons.obj
 0005:00000314       $unwind$X509_check_purpose 00000000000be894     OpensslLib:v3_purp.obj
 0005:00000314       $unwind$X509V3_add_value_int 00000000000be894     OpensslLib:v3_utl.obj
 0005:00000314       $unwind$rand_pool_acquire_entropy 00000000000be894     OpensslLib:rand_pool.obj
 0005:00000314       $unwind$DivU64x32Remainder 00000000000be894     BaseLib:DivU64x32Remainder.obj
 0005:00000314       $unwind$AsciiStrnCmp       00000000000be894     BaseLib:String.obj
 0005:00000314       $unwind$StrCmp             00000000000be894     BaseLib:String.obj
 0005:00000314       $unwind$StrLen             00000000000be894     BaseLib:String.obj
 0005:00000314       $unwind$CopyGuid           00000000000be894     BaseMemoryLibRepStr:MemLibGuid.obj
 0005:00000314       $unwind$ScanMem8           00000000000be894     BaseMemoryLibRepStr:ScanMem8Wrapper.obj
 0005:00000314       $unwind$SetMem             00000000000be894     BaseMemoryLibRepStr:SetMemWrapper.obj
 0005:00000314       $unwind$PciCf8Read32       00000000000be894     BasePciCf8Lib:PciCf8Lib.obj
 0005:00000314       $unwind$InternalAcpiDelay  00000000000be894     DxeAcpiTimerLib:AcpiTimerLib.obj
 0005:00000324       $unwind$nc_match           00000000000be8a4     OpensslLib:v3_ncons.obj
 0005:00000324       $unwind$CompareGuid        00000000000be8a4     BaseMemoryLibRepStr:MemLibGuid.obj
 0005:0000033c       $unwind$asn1_primitive_free 00000000000be8bc     OpensslLib:tasn_fre.obj
 0005:0000033c       $unwind$X509_ALGOR_set0    00000000000be8bc     OpensslLib:x_algor.obj
 0005:0000033c       $unwind$BN_set_bit         00000000000be8bc     OpensslLib:bn_lib.obj
 0005:0000033c       $unwind$BN_MONT_CTX_set_locked 00000000000be8bc     OpensslLib:bn_mont.obj
 0005:0000033c       $unwind$BN_add_word        00000000000be8bc     OpensslLib:bn_word.obj
 0005:0000033c       $unwind$ge_p1p1_to_p2      00000000000be8bc     OpensslLib:curve25519.obj
 0005:0000033c       $unwind$niels_to_pt        00000000000be8bc     OpensslLib:curve448.obj
 0005:0000033c       $unwind$oneshot_hash       00000000000be8bc     OpensslLib:eddsa.obj
 0005:0000033c       $unwind$EC_curve_nist2nid  00000000000be8bc     OpensslLib:ec_curve.obj
 0005:0000033c       $unwind$ec_precompute_mont_data 00000000000be8bc     OpensslLib:ec_lib.obj
 0005:0000033c       $unwind$ERR_clear_error    00000000000be8bc     OpensslLib:err.obj
 0005:0000033c       $unwind$ERR_put_error      00000000000be8bc     OpensslLib:err.obj
 0005:0000033c       $unwind$aes_ccm_ctrl       00000000000be8bc     OpensslLib:e_aes.obj
 0005:0000033c       $unwind$aes_wrap_init_key  00000000000be8bc     OpensslLib:e_aes.obj
 0005:0000033c       $unwind$aria_ccm_ctrl      00000000000be8bc     OpensslLib:e_aria.obj
 0005:0000033c       $unwind$init               00000000000be8bc     OpensslLib:m_sha3.obj
 0005:0000033c       $unwind$sha3_final         00000000000be8bc     OpensslLib:m_sha3.obj
 0005:0000033c       $unwind$hmac_set_priv_key  00000000000be8bc     OpensslLib:hm_ameth.obj
 0005:0000033c       $unwind$pkey_hkdf_ctrl     00000000000be8bc     OpensslLib:hkdf.obj
 0005:0000033c       $unwind$pkey_tls1_prf_ctrl 00000000000be8bc     OpensslLib:tls1_prf.obj
 0005:0000033c       $unwind$CRYPTO_clear_realloc 00000000000be8bc     OpensslLib:mem.obj
 0005:0000033c       $unwind$CRYPTO_ccm128_init 00000000000be8bc     OpensslLib:ccm128.obj
 0005:0000033c       $unwind$PKCS7_add1_attrib_digest 00000000000be8bc     OpensslLib:pk7_attr.obj
 0005:0000033c       $unwind$ctr_BCC_update     00000000000be8bc     OpensslLib:drbg_ctr.obj
 0005:0000033c       $unwind$rsa_pss_params_create 00000000000be8bc     OpensslLib:rsa_ameth.obj
 0005:0000033c       $unwind$OPENSSL_sk_insert  00000000000be8bc     OpensslLib:stack.obj
 0005:0000033c       $unwind$x509_store_add     00000000000be8bc     OpensslLib:x509_lu.obj
 0005:0000033c       $unwind$X509_check_trust   00000000000be8bc     OpensslLib:x509_trs.obj
 0005:0000033c       $unwind$crl_extension_match 00000000000be8bc     OpensslLib:x509_vfy.obj
 0005:0000033c       $unwind$X509_ATTRIBUTE_create 00000000000be8bc     OpensslLib:x_attrib.obj
 0005:0000033c       $unwind$tree_add_unmatched 00000000000be8bc     OpensslLib:pcy_tree.obj
 0005:0000033c       $unwind$do_othername       00000000000be8bc     OpensslLib:v3_alt.obj
 0005:0000033c       $unwind$print_gens         00000000000be8bc     OpensslLib:v3_crld.obj
 0005:0000033c       $unwind$print_reasons      00000000000be8bc     OpensslLib:v3_crld.obj
 0005:0000033c       $unwind$nc_uri             00000000000be8bc     OpensslLib:v3_ncons.obj
 0005:0000033c       $unwind$VarCheckAddTableEntry 00000000000be8bc     VarCheckLib:VarCheckLib.obj
 0005:0000033c       $unwind$StrnCmp            00000000000be8bc     BaseLib:String.obj
 0005:0000033c       $unwind$CompareMem         00000000000be8bc     BaseMemoryLibRepStr:CompareMemWrapper.obj
 0005:0000033c       $unwind$CopyMem            00000000000be8bc     BaseMemoryLibRepStr:CopyMemWrapper.obj
 0005:0000033c       $unwind$GetNextGuidHob     00000000000be8bc     DxeHobLib:HobLib.obj
 0005:0000033c       $unwind$InternalReallocatePool 00000000000be8bc     SmmMemoryAllocationLib:MemoryAllocationLib.obj
 0005:00000350       $unwind$AES_set_decrypt_key 00000000000be8d0     OpensslLib:aes_core.obj
 0005:00000350       $unwind$ASN1_STRING_cmp    00000000000be8d0     OpensslLib:asn1_lib.obj
 0005:00000350       $unwind$ASN1_STRING_copy   00000000000be8d0     OpensslLib:asn1_lib.obj
 0005:00000350       $unwind$ASN1_STRING_dup    00000000000be8d0     OpensslLib:asn1_lib.obj
 0005:00000350       $unwind$der_cmp            00000000000be8d0     OpensslLib:tasn_enc.obj
 0005:00000350       $unwind$BIO_indent         00000000000be8d0     OpensslLib:bio_lib.obj
 0005:00000350       $unwind$BIO_pop            00000000000be8d0     OpensslLib:bio_lib.obj
 0005:00000350       $unwind$mem_buf_free       00000000000be8d0     OpensslLib:bss_mem.obj
 0005:00000350       $unwind$BN_dup             00000000000be8d0     OpensslLib:bn_lib.obj
 0005:00000350       $unwind$BN_set_word        00000000000be8d0     OpensslLib:bn_lib.obj
 0005:00000350       $unwind$BN_mod_lshift1_quick 00000000000be8d0     OpensslLib:bn_mod.obj
 0005:00000350       $unwind$BN_mod_sub_quick   00000000000be8d0     OpensslLib:bn_mod.obj
 0005:00000350       $unwind$BN_MONT_CTX_copy   00000000000be8d0     OpensslLib:bn_mont.obj
 0005:00000350       $unwind$BN_lshift1         00000000000be8d0     OpensslLib:bn_shift.obj
 0005:00000350       $unwind$BN_mod_word        00000000000be8d0     OpensslLib:bn_word.obj
 0005:00000350       $unwind$pkey_cmac_copy     00000000000be8d0     OpensslLib:cm_pmeth.obj
 0005:00000350       $unwind$dh_pub_cmp         00000000000be8d0     OpensslLib:dh_ameth.obj
 0005:00000350       $unwind$dh_security_bits   00000000000be8d0     OpensslLib:dh_ameth.obj
 0005:00000350       $unwind$int_dh_bn_cpy      00000000000be8d0     OpensslLib:dh_ameth.obj
 0005:00000350       $unwind$pkey_dh_copy       00000000000be8d0     OpensslLib:dh_pmeth.obj
 0005:00000350       $unwind$dh_param_init      00000000000be8d0     OpensslLib:dh_rfc7919.obj
 0005:00000350       $unwind$ge_p3_to_cached    00000000000be8d0     OpensslLib:curve25519.obj
 0005:00000350       $unwind$gf_strong_reduce   00000000000be8d0     OpensslLib:f_generic.obj
 0005:00000350       $unwind$ec_copy_parameters 00000000000be8d0     OpensslLib:ec_ameth.obj
 0005:00000350       $unwind$EC_KEY_dup         00000000000be8d0     OpensslLib:ec_key.obj
 0005:00000350       $unwind$EC_GROUP_dup       00000000000be8d0     OpensslLib:ec_lib.obj
 0005:00000350       $unwind$pkey_ec_cleanup    00000000000be8d0     OpensslLib:ec_pmeth.obj
 0005:00000350       $unwind$pkey_ec_copy       00000000000be8d0     OpensslLib:ec_pmeth.obj
 0005:00000350       $unwind$ec_GFp_mont_group_copy 00000000000be8d0     OpensslLib:ecp_mont.obj
 0005:00000350       $unwind$ec_GFp_simple_group_copy 00000000000be8d0     OpensslLib:ecp_smpl.obj
 0005:00000350       $unwind$ec_GFp_simple_invert 00000000000be8d0     OpensslLib:ecp_smpl.obj
 0005:00000350       $unwind$ec_GFp_simple_point_copy 00000000000be8d0     OpensslLib:ecp_smpl.obj
 0005:00000350       $unwind$ecx_free           00000000000be8d0     OpensslLib:ecx_meth.obj
 0005:00000350       $unwind$md_free            00000000000be8d0     OpensslLib:bio_md.obj
 0005:00000350       $unwind$aes_gcm_cipher     00000000000be8d0     OpensslLib:e_aes.obj
 0005:00000350       $unwind$aes_gcm_cleanup    00000000000be8d0     OpensslLib:e_aes.obj
 0005:00000350       $unwind$aria_gcm_cipher    00000000000be8d0     OpensslLib:e_aria.obj
 0005:00000350       $unwind$EVP_CIPHER_type    00000000000be8d0     OpensslLib:evp_lib.obj
 0005:00000350       $unwind$final              00000000000be8d0     OpensslLib:m_md5_sha1.obj
 0005:00000350       $unwind$EVP_add_digest     00000000000be8d0     OpensslLib:names.obj
 0005:00000350       $unwind$HMAC_CTX_copy      00000000000be8d0     OpensslLib:hmac.obj
 0005:00000350       $unwind$hmac_ctx_alloc_mds 00000000000be8d0     OpensslLib:hmac.obj
 0005:00000350       $unwind$ossl_init_base_ossl_ 00000000000be8d0     OpensslLib:init.obj
 0005:00000350       $unwind$pkey_hkdf_cleanup  00000000000be8d0     OpensslLib:hkdf.obj
 0005:00000350       $unwind$pkey_hkdf_derive_init 00000000000be8d0     OpensslLib:hkdf.obj
 0005:00000350       $unwind$pkey_tls1_prf_cleanup 00000000000be8d0     OpensslLib:tls1_prf.obj
 0005:00000350       $unwind$CRYPTO_zalloc      00000000000be8d0     OpensslLib:mem.obj
 0005:00000350       $unwind$CRYPTO_gcm128_tag  00000000000be8d0     OpensslLib:gcm128.obj
 0005:00000350       $unwind$CRYPTO_strdup      00000000000be8d0     OpensslLib:o_str.obj
 0005:00000350       $unwind$i2d_ocsp_nonce     00000000000be8d0     OpensslLib:v3_ocsp.obj
 0005:00000350       $unwind$pk7_cb             00000000000be8d0     OpensslLib:pk7_asn1.obj
 0005:00000350       $unwind$get_attribute      00000000000be8d0     OpensslLib:pk7_doit.obj
 0005:00000350       $unwind$PKCS7_stream       00000000000be8d0     OpensslLib:pk7_lib.obj
 0005:00000350       $unwind$RAND_priv_bytes    00000000000be8d0     OpensslLib:rand_lib.obj
 0005:00000350       $unwind$rsa_pub_cmp        00000000000be8d0     OpensslLib:rsa_ameth.obj
 0005:00000350       $unwind$pkey_rsa_copy      00000000000be8d0     OpensslLib:rsa_pmeth.obj
 0005:00000350       $unwind$pkey_sm2_cleanup   00000000000be8d0     OpensslLib:sm2_pmeth.obj
 0005:00000350       $unwind$internal_delete    00000000000be8d0     OpensslLib:stack.obj
 0005:00000350       $unwind$X509_NAME_cmp      00000000000be8d0     OpensslLib:x509_cmp.obj
 0005:00000350       $unwind$X509_cmp           00000000000be8d0     OpensslLib:x509_cmp.obj
 0005:00000350       $unwind$check_suite_b      00000000000be8d0     OpensslLib:x509_cmp.obj
 0005:00000350       $unwind$trust_compat       00000000000be8d0     OpensslLib:x509_trs.obj
 0005:00000350       $unwind$X509v3_get_ext_by_NID 00000000000be8d0     OpensslLib:x509_v3.obj
 0005:00000350       $unwind$X509_STORE_CTX_cleanup 00000000000be8d0     OpensslLib:x509_vfy.obj
 0005:00000350       $unwind$check_dane_issuer  00000000000be8d0     OpensslLib:x509_vfy.obj
 0005:00000350       $unwind$check_key_level    00000000000be8d0     OpensslLib:x509_vfy.obj
 0005:00000350       $unwind$verify_chain       00000000000be8d0     OpensslLib:x509_vfy.obj
 0005:00000350       $unwind$X509_NAME_get_index_by_NID 00000000000be8d0     OpensslLib:x509name.obj
 0005:00000350       $unwind$X509_PUBKEY_set0_param 00000000000be8d0     OpensslLib:x_pubkey.obj
 0005:00000350       $unwind$pubkey_cb          00000000000be8d0     OpensslLib:x_pubkey.obj
 0005:00000350       $unwind$displaytext_str2tag 00000000000be8d0     OpensslLib:v3_cpols.obj
 0005:00000350       $unwind$i2r_idp            00000000000be8d0     OpensslLib:v3_crld.obj
 0005:00000350       $unwind$i2r_PKEY_USAGE_PERIOD 00000000000be8d0     OpensslLib:v3_pku.obj
 0005:00000350       $unwind$X509_check_akid    00000000000be8d0     OpensslLib:v3_purp.obj
 0005:00000350       $unwind$check_purpose_ns_ssl_server 00000000000be8d0     OpensslLib:v3_purp.obj
 0005:00000350       $unwind$x509_likely_issued 00000000000be8d0     OpensslLib:v3_purp.obj
 0005:00000350       $unwind$a2i_ipadd          00000000000be8d0     OpensslLib:v3_utl.obj
 0005:00000350       $unwind$name_cmp           00000000000be8d0     OpensslLib:v3_utl.obj
 0005:00000350       $unwind$VarCheckLibRegisterSetVariableCheckHandler 00000000000be8d0     VarCheckLib:VarCheckLib.obj
 0005:00000350       $unwind$VarCheckLibVariablePropertyGet 00000000000be8d0     VarCheckLib:VarCheckLib.obj
 0005:00000350       $unwind$IsHwErrRecVariable 00000000000be8d0     VarCheckUefiLib:VarCheckUefiLibNullClass.obj
 0005:00000350       $unwind$LShiftU64          00000000000be8d0     BaseLib:LShiftU64.obj
 0005:00000350       $unwind$StrnLenS           00000000000be8d0     BaseLib:SafeString.obj
 0005:00000350       $unwind$AsciiStrCmp        00000000000be8d0     BaseLib:String.obj
 0005:00000350       $unwind$AsciiStrLen        00000000000be8d0     BaseLib:String.obj
 0005:00000350       $unwind$AsciiStriCmp       00000000000be8d0     BaseLib:String.obj
 0005:00000350       $unwind$ZeroMem            00000000000be8d0     BaseMemoryLibRepStr:ZeroMemWrapper.obj
 0005:00000350       $unwind$GetRandomNumber64  00000000000be8d0     BaseRngLibTimerLib:RngLibTimer.obj
 0005:00000350       $unwind$InternalAllocateCopyPool 00000000000be8d0     SmmMemoryAllocationLib:MemoryAllocationLib.obj
 0005:00000350       $unwind$NextDevicePathNode 00000000000be8d0     UefiDevicePathLibDevicePathProtocol:UefiDevicePathLib.obj
 0005:0000035c       $unwind$c2i_uint64_int     00000000000be8dc     OpensslLib:a_int.obj
 0005:0000035c       $unwind$OBJ_NAME_get       00000000000be8dc     OpensslLib:o_names.obj
 0005:0000035c       $unwind$equal_wildcard     00000000000be8dc     OpensslLib:v3_utl.obj
 0005:0000035c       $unwind$StrCpyS            00000000000be8dc     BaseLib:SafeString.obj
 0005:00000374       $unwind$strcpy             00000000000be8f4     SmmCryptLib:CrtWrapper.obj
 0005:00000374       $unwind$BIO_free           00000000000be8f4     OpensslLib:bio_lib.obj
 0005:00000374       $unwind$pkey_ecd_digestsign448 00000000000be8f4     OpensslLib:ecx_meth.obj
 0005:00000374       $unwind$aes_ctr_cipher     00000000000be8f4     OpensslLib:e_aes.obj
 0005:00000374       $unwind$AsciiStrCatS       00000000000be8f4     BaseLib:SafeString.obj
 0005:00000374       $unwind$AsciiStrDecimalToUintnS 00000000000be8f4     BaseLib:SafeString.obj
 0005:00000374       $unwind$AsciiStrnCpyS      00000000000be8f4     BaseLib:SafeString.obj
 0005:0000037c       $unwind$DebugPrint         00000000000be8fc     BaseDebugLibSerialPort:DebugLib.obj
 0005:00000384       $unwind$DebugPrintMarker   00000000000be904     BaseDebugLibSerialPort:DebugLib.obj
 0005:00000398       $unwind$DebugAssert        00000000000be918     BaseDebugLibSerialPort:DebugLib.obj
 0005:000003a0       $unwind$BN_uadd            00000000000be920     OpensslLib:bn_add.obj
 0005:000003a0       $unwind$bn_div_words       00000000000be920     OpensslLib:bn_asm.obj
 0005:000003a0       $unwind$BN_bin2bn          00000000000be920     OpensslLib:bn_lib.obj
 0005:000003a0       $unwind$BN_num_bits        00000000000be920     OpensslLib:bn_lib.obj
 0005:000003a0       $unwind$bn_from_mont_fixed_top 00000000000be920     OpensslLib:bn_mont.obj
 0005:000003a0       $unwind$BN_div_word        00000000000be920     OpensslLib:bn_word.obj
 0005:000003a0       $unwind$int_update         00000000000be920     OpensslLib:cm_pmeth.obj
 0005:000003a0       $unwind$ec_GFp_simple_group_get_curve 00000000000be920     OpensslLib:ecp_smpl.obj
 0005:000003a0       $unwind$md_ctrl            00000000000be920     OpensslLib:bio_md.obj
 0005:000003a0       $unwind$EVP_Digest         00000000000be920     OpensslLib:digest.obj
 0005:000003a0       $unwind$aes_ecb_cipher     00000000000be920     OpensslLib:e_aes.obj
 0005:000003a0       $unwind$aria_128_ecb_cipher 00000000000be920     OpensslLib:e_aria.obj
 0005:000003a0       $unwind$aria_192_ecb_cipher 00000000000be920     OpensslLib:e_aria.obj
 0005:000003a0       $unwind$aria_256_ecb_cipher 00000000000be920     OpensslLib:e_aria.obj
 0005:000003a0       $unwind$sm4_ecb_cipher     00000000000be920     OpensslLib:e_sm4.obj
 0005:000003a0       $unwind$getrn              00000000000be920     OpensslLib:lhash.obj
 0005:000003a0       $unwind$OBJ_NAME_add       00000000000be920     OpensslLib:o_names.obj
 0005:000003a0       $unwind$SHA1_Final         00000000000be920     OpensslLib:sha1dgst.obj
 0005:000003a0       $unwind$SHA256_Final       00000000000be920     OpensslLib:sha256.obj
 0005:000003a0       $unwind$SM4_decrypt        00000000000be920     OpensslLib:sm4.obj
 0005:000003a0       $unwind$SM4_encrypt        00000000000be920     OpensslLib:sm4.obj
 0005:000003a0       $unwind$obj_trust          00000000000be920     OpensslLib:x509_trs.obj
 0005:000003a0       $unwind$augment_stack      00000000000be920     OpensslLib:x509_vfy.obj
 0005:000003a0       $unwind$i2r_certpol        00000000000be920     OpensslLib:v3_cpols.obj
 0005:000003a0       $unwind$crldp_from_section 00000000000be920     OpensslLib:v3_crld.obj
 0005:000003a0       $unwind$VarCheckLibVariablePropertySet 00000000000be920     VarCheckLib:VarCheckLib.obj
 0005:000003a0       $unwind$IsDevicePathValid  00000000000be920     UefiDevicePathLibDevicePathProtocol:UefiDevicePathLib.obj
 0005:000003b8       $unwind$RandGetBytes       00000000000be938     OpensslLib:rand_pool.obj
 0005:000003b8       $unwind$RegisterVariablePolicy 00000000000be938     VariablePolicyLib:VariablePolicyLib.obj
 0005:000003c8       $unwind$v2i_ASN1_BIT_STRING 00000000000be948     OpensslLib:v3_bitst.obj
 0005:000003c8       $unwind$ValidateSetVariable 00000000000be948     VariablePolicyLib:VariablePolicyLib.obj
 0005:000003e4       $unwind$ASN1_item_verify   00000000000be964     OpensslLib:a_verify.obj
 0005:000003e4       $unwind$ASN1_bn_print      00000000000be964     OpensslLib:t_pkey.obj
 0005:000003e4       $unwind$aes_cfb1_cipher    00000000000be964     OpensslLib:e_aes.obj
 0005:000003e4       $unwind$aria_128_ofb_cipher 00000000000be964     OpensslLib:e_aria.obj
 0005:000003e4       $unwind$aria_192_ofb_cipher 00000000000be964     OpensslLib:e_aria.obj
 0005:000003e4       $unwind$aria_256_ofb_cipher 00000000000be964     OpensslLib:e_aria.obj
 0005:000003e4       $unwind$sm4_ofb_cipher     00000000000be964     OpensslLib:e_sm4.obj
 0005:000003e4       $unwind$tls1_prf_alg       00000000000be964     OpensslLib:tls1_prf.obj
 0005:000003e4       $unwind$int_rsa_verify     00000000000be964     OpensslLib:rsa_sign.obj
 0005:000003e4       $unwind$policy_cache_set_mapping 00000000000be964     OpensslLib:pcy_map.obj
 0005:000003e4       $unwind$policy_section     00000000000be964     OpensslLib:v3_cpols.obj
 0005:000003e4       $unwind$r2i_certpol        00000000000be964     OpensslLib:v3_cpols.obj
 0005:000003e4       $unwind$v2i_idp            00000000000be964     OpensslLib:v3_crld.obj
 0005:000003e4       $unwind$v2i_POLICY_MAPPINGS 00000000000be964     OpensslLib:v3_pmaps.obj
 0005:000003e4       $unwind$v2i_TLS_FEATURE    00000000000be964     OpensslLib:v3_tlsf.obj
 0005:000003e4       $unwind$VarCheckLibSetVariableCheck 00000000000be964     VarCheckLib:VarCheckLib.obj
 0005:00000400       $unwind$CreateBasicVariablePolicy 00000000000be980     VariablePolicyHelperLib:VariablePolicyHelperLib.obj
 0005:0000041c       $unwind$SmmLibInternalEndOfDxeNotify 00000000000be99c     SmmMemLib:SmmMemLib.obj
 0005:00000434       $unwind$SmmMemLibConstructor 00000000000be9b4     SmmMemLib:SmmMemLib.obj
 0005:00000444       $unwind$AuthVariableLibInitialize 00000000000be9c4     AuthVariableLib:AuthVariableLib.obj
 0005:0000045c       $unwind$qsort              00000000000be9dc     SmmCryptLib:CrtWrapper.obj
 0005:0000045c       $unwind$ASN1_STRING_set    00000000000be9dc     OpensslLib:asn1_lib.obj
 0005:0000045c       $unwind$ASN1_item_pack     00000000000be9dc     OpensslLib:asn_pack.obj
 0005:0000045c       $unwind$bn_secure_c2i      00000000000be9dc     OpensslLib:x_bignum.obj
 0005:0000045c       $unwind$mem_write          00000000000be9dc     OpensslLib:bss_mem.obj
 0005:0000045c       $unwind$witness            00000000000be9dc     OpensslLib:bn_prime.obj
 0005:0000045c       $unwind$CONF_parse_list    00000000000be9dc     OpensslLib:conf_mod.obj
 0005:0000045c       $unwind$ec_asn1_group2fieldid 00000000000be9dc     OpensslLib:ec_asn1.obj
 0005:0000045c       $unwind$EC_GROUP_new_curve_GFp 00000000000be9dc     OpensslLib:ec_cvt.obj
 0005:0000045c       $unwind$ec_key_simple_check_key 00000000000be9dc     OpensslLib:ec_key.obj
 0005:0000045c       $unwind$EC_GROUP_set_generator 00000000000be9dc     OpensslLib:ec_lib.obj
 0005:0000045c       $unwind$pkey_ec_keygen     00000000000be9dc     OpensslLib:ec_pmeth.obj
 0005:0000045c       $unwind$ecx_key_print      00000000000be9dc     OpensslLib:ecx_meth.obj
 0005:0000045c       $unwind$EVP_CipherInit_ex  00000000000be9dc     OpensslLib:evp_enc.obj
 0005:0000045c       $unwind$PKCS7_get0_signers 00000000000be9dc     OpensslLib:pk7_smime.obj
 0005:0000045c       $unwind$RSA_padding_add_PKCS1_type_2 00000000000be9dc     OpensslLib:rsa_pk1.obj
 0005:0000045c       $unwind$RSA_padding_add_SSLv23 00000000000be9dc     OpensslLib:rsa_ssl.obj
 0005:0000045c       $unwind$ec_field_size      00000000000be9dc     OpensslLib:sm2_crypt.obj
 0005:0000045c       $unwind$check_id           00000000000be9dc     OpensslLib:x509_vfy.obj
 0005:0000045c       $unwind$level_add_node     00000000000be9dc     OpensslLib:pcy_node.obj
 0005:0000045c       $unwind$copy_issuer        00000000000be9dc     OpensslLib:v3_alt.obj
 0005:0000045c       $unwind$v2i_GENERAL_NAME_ex 00000000000be9dc     OpensslLib:v3_alt.obj
 0005:0000045c       $unwind$NAME_CONSTRAINTS_check 00000000000be9dc     OpensslLib:v3_ncons.obj
 0005:0000045c       $unwind$do_i2r_name_constraints 00000000000be9dc     OpensslLib:v3_ncons.obj
 0005:0000045c       $unwind$AuthVariableLibProcessVariable 00000000000be9dc     AuthVariableLib:AuthVariableLib.obj
 0005:00000474       $unwind$AuthServiceInternalFindVariable 00000000000be9f4     AuthVariableLib:AuthService.obj
 0005:00000488       $unwind$add_pniels_to_pt   00000000000bea08     OpensslLib:curve448.obj
 0005:00000488       $unwind$pniels_to_pt       00000000000bea08     OpensslLib:curve448.obj
 0005:00000488       $unwind$gf_serialize       00000000000bea08     OpensslLib:f_generic.obj
 0005:00000488       $unwind$AuthServiceInternalUpdateVariable 00000000000bea08     AuthVariableLib:AuthService.obj
 0005:0000049c       $unwind$AuthServiceInternalUpdateVariableWithTimeStamp 00000000000bea1c     AuthVariableLib:AuthService.obj
 0005:000004b0       $unwind$UpdatePlatformMode 00000000000bea30     AuthVariableLib:AuthService.obj
 0005:000004c0       $unwind$ProcessVarWithPk   00000000000bea40     AuthVariableLib:AuthService.obj
 0005:000004dc       $unwind$PKCS7_signatureVerify 00000000000bea5c     OpensslLib:pk7_doit.obj
 0005:000004dc       $unwind$ProcessVariable    00000000000bea5c     AuthVariableLib:AuthService.obj
 0005:000004f8       $unwind$FilterSignatureList 00000000000bea78     AuthVariableLib:AuthService.obj
 0005:00000510       $unwind$CalculatePrivAuthVarSignChainSHA256Digest 00000000000bea90     AuthVariableLib:AuthService.obj
 0005:00000528       $unwind$FindCertsFromDb    00000000000beaa8     AuthVariableLib:AuthService.obj
 0005:00000540       $unwind$GetCertsFromDb     00000000000beac0     AuthVariableLib:AuthService.obj
 0005:00000554       $unwind$DeleteCertsFromDb  00000000000bead4     AuthVariableLib:AuthService.obj
 0005:0000056c       $unwind$CleanCertsFromDb   00000000000beaec     AuthVariableLib:AuthService.obj
 0005:00000580       $unwind$VerifyTimeBasedPayload 00000000000beb00     AuthVariableLib:AuthService.obj
 0005:00000598       $unwind$table_select       00000000000beb18     OpensslLib:curve25519.obj
 0005:00000598       $unwind$VerifyTimeBasedPayloadAndUpdate 00000000000beb18     AuthVariableLib:AuthService.obj
 0005:000005b8       $unwind$SetVariableCheckHandlerUefiDefined 00000000000beb38     VarCheckUefiLib:VarCheckUefiLibNullClass.obj
 0005:000005cc       $unwind$c2i_ASN1_INTEGER   00000000000beb4c     OpensslLib:a_int.obj
 0005:000005cc       $unwind$VarCheckPolicyLibMmiHandler 00000000000beb4c     VarCheckPolicyLib:VarCheckPolicyLib.obj
 0005:000005e0       $unwind$AsciiSPrint        00000000000beb60     BasePrintLib:PrintLib.obj
 0005:000005e8       $unwind$rsa_pss_decode     00000000000beb68     OpensslLib:rsa_ameth.obj
 0005:000005e8       $unwind$BasePrintLibValueToString 00000000000beb68     BasePrintLib:PrintLibInternal.obj
 0005:000005f4       $unwind$BasePrintLibSPrintMarker 00000000000beb74     BasePrintLib:PrintLibInternal.obj
 0005:00000610       $unwind$i2d_X509_NAME      00000000000beb90     OpensslLib:x_name.obj
 0005:00000610       $unwind$BasePrintLibSPrint 00000000000beb90     BasePrintLib:PrintLibInternal.obj
 0005:00000618       $unwind$InternalX509GetNIDName 00000000000beb98     SmmCryptLib:CryptX509.obj
 0005:00000630       $unwind$RsaGetPublicKeyFromX509 00000000000bebb0     SmmCryptLib:CryptX509.obj
 0005:00000644       $unwind$X509PopCertificate 00000000000bebc4     SmmCryptLib:CryptPkcs7VerifyCommon.obj
 0005:0000065c       $unwind$Pkcs7GetSigners    00000000000bebdc     SmmCryptLib:CryptPkcs7VerifyCommon.obj
 0005:00000674       $unwind$free               00000000000bebf4     SmmCryptLib:BaseMemAllocation.obj
 0005:00000674       $unwind$ASN1_OBJECT_free   00000000000bebf4     OpensslLib:a_object.obj
 0005:00000674       $unwind$ASN1_STRING_clear_free 00000000000bebf4     OpensslLib:asn1_lib.obj
 0005:00000674       $unwind$asn1_ex_i2c        00000000000bebf4     OpensslLib:tasn_enc.obj
 0005:00000674       $unwind$BN_BLINDING_free   00000000000bebf4     OpensslLib:bn_blind.obj
 0005:00000674       $unwind$BN_clear_free      00000000000bebf4     OpensslLib:bn_lib.obj
 0005:00000674       $unwind$BN_MONT_CTX_free   00000000000bebf4     OpensslLib:bn_mont.obj
 0005:00000674       $unwind$EC_GROUP_free      00000000000bebf4     OpensslLib:ec_lib.obj
 0005:00000674       $unwind$EC_POINT_clear_free 00000000000bebf4     OpensslLib:ec_lib.obj
 0005:00000674       $unwind$EC_POINT_free      00000000000bebf4     OpensslLib:ec_lib.obj
 0005:00000674       $unwind$EVP_PKEY_free      00000000000bebf4     OpensslLib:p_lib.obj
 0005:00000674       $unwind$EVP_PKEY_CTX_free  00000000000bebf4     OpensslLib:pmeth_lib.obj
 0005:00000674       $unwind$RAND_DRBG_free     00000000000bebf4     OpensslLib:drbg_lib.obj
 0005:00000674       $unwind$rand_drbg_cleanup_nonce 00000000000bebf4     OpensslLib:rand_lib.obj
 0005:00000674       $unwind$OPENSSL_sk_sort    00000000000bebf4     OpensslLib:stack.obj
 0005:00000674       $unwind$X509_VERIFY_PARAM_free 00000000000bebf4     OpensslLib:x509_vpm.obj
 0005:00000674       $unwind$local_sk_X509_NAME_ENTRY_free 00000000000bebf4     OpensslLib:x_name.obj
 0005:00000674       $unwind$policy_data_free   00000000000bebf4     OpensslLib:pcy_data.obj
 0005:00000674       $unwind$i2v_BASIC_CONSTRAINTS 00000000000bebf4     OpensslLib:v3_bcons.obj
 0005:00000674       $unwind$i2v_POLICY_CONSTRAINTS 00000000000bebf4     OpensslLib:v3_pcons.obj
 0005:00000674       $unwind$X509V3_conf_free   00000000000bebf4     OpensslLib:v3_utl.obj
 0005:0000067c       $unwind$sha256_block_data_order 00000000000bebfc     OpensslLib:sha256.obj
 0005:00000694       $unwind$ASN1_item_digest   00000000000bec14     OpensslLib:a_digest.obj
 0005:00000694       $unwind$ASN1_item_dup      00000000000bec14     OpensslLib:a_dup.obj
 0005:00000694       $unwind$asn1_template_new  00000000000bec14     OpensslLib:tasn_new.obj
 0005:00000694       $unwind$asn1_do_adb        00000000000bec14     OpensslLib:tasn_utl.obj
 0005:00000694       $unwind$asn1_do_lock       00000000000bec14     OpensslLib:tasn_utl.obj
 0005:00000694       $unwind$BIO_new_mem_buf    00000000000bec14     OpensslLib:bss_mem.obj
 0005:00000694       $unwind$BN_BLINDING_new    00000000000bec14     OpensslLib:bn_blind.obj
 0005:00000694       $unwind$BN_POOL_get        00000000000bec14     OpensslLib:bn_ctx.obj
 0005:00000694       $unwind$BN_div             00000000000bec14     OpensslLib:bn_div.obj
 0005:00000694       $unwind$BN_nnmod           00000000000bec14     OpensslLib:bn_mod.obj
 0005:00000694       $unwind$pkey_dh_keygen     00000000000bec14     OpensslLib:dh_pmeth.obj
 0005:00000694       $unwind$EC_GROUP_get_ecpkparameters 00000000000bec14     OpensslLib:ec_asn1.obj
 0005:00000694       $unwind$EC_KEY_new_method  00000000000bec14     OpensslLib:ec_kmeth.obj
 0005:00000694       $unwind$EC_GROUP_new       00000000000bec14     OpensslLib:ec_lib.obj
 0005:00000694       $unwind$EC_POINT_new       00000000000bec14     OpensslLib:ec_lib.obj
 0005:00000694       $unwind$EC_POINTs_make_affine 00000000000bec14     OpensslLib:ec_lib.obj
 0005:00000694       $unwind$pkey_ec_derive     00000000000bec14     OpensslLib:ec_pmeth.obj
 0005:00000694       $unwind$ecd_item_verify    00000000000bec14     OpensslLib:ecx_meth.obj
 0005:00000694       $unwind$enc_new            00000000000bec14     OpensslLib:bio_enc.obj
 0005:00000694       $unwind$EVP_DigestInit_ex  00000000000bec14     OpensslLib:digest.obj
 0005:00000694       $unwind$aes_init_key       00000000000bec14     OpensslLib:e_aes.obj
 0005:00000694       $unwind$aes_xts_cipher     00000000000bec14     OpensslLib:e_aes.obj
 0005:00000694       $unwind$EVP_CIPHER_CTX_copy 00000000000bec14     OpensslLib:evp_enc.obj
 0005:00000694       $unwind$EVP_DecryptFinal_ex 00000000000bec14     OpensslLib:evp_enc.obj
 0005:00000694       $unwind$EVP_CIPHER_param_to_asn1 00000000000bec14     OpensslLib:evp_lib.obj
 0005:00000694       $unwind$EVP_PKEY_copy_parameters 00000000000bec14     OpensslLib:p_lib.obj
 0005:00000694       $unwind$EVP_PKEY_CTX_dup   00000000000bec14     OpensslLib:pmeth_lib.obj
 0005:00000694       $unwind$pkey_hmac_init     00000000000bec14     OpensslLib:hm_pmeth.obj
 0005:00000694       $unwind$CRYPTO_memdup      00000000000bec14     OpensslLib:o_str.obj
 0005:00000694       $unwind$OPENSSL_buf2hexstr 00000000000bec14     OpensslLib:o_str.obj
 0005:00000694       $unwind$OBJ_dup            00000000000bec14     OpensslLib:obj_lib.obj
 0005:00000694       $unwind$drbg_setup         00000000000bec14     OpensslLib:drbg_lib.obj
 0005:00000694       $unwind$rand_drbg_new      00000000000bec14     OpensslLib:drbg_lib.obj
 0005:00000694       $unwind$RAND_bytes         00000000000bec14     OpensslLib:rand_lib.obj
 0005:00000694       $unwind$rand_pool_add      00000000000bec14     OpensslLib:rand_lib.obj
 0005:00000694       $unwind$rand_pool_bytes_needed 00000000000bec14     OpensslLib:rand_lib.obj
 0005:00000694       $unwind$rsa_item_verify    00000000000bec14     OpensslLib:rsa_ameth.obj
 0005:00000694       $unwind$pkey_siphash_ctrl  00000000000bec14     OpensslLib:siphash_pmeth.obj
 0005:00000694       $unwind$OPENSSL_sk_dup     00000000000bec14     OpensslLib:stack.obj
 0005:00000694       $unwind$sk_reserve         00000000000bec14     OpensslLib:stack.obj
 0005:00000694       $unwind$X509_STORE_new     00000000000bec14     OpensslLib:x509_lu.obj
 0005:00000694       $unwind$X509_verify_cert   00000000000bec14     OpensslLib:x509_vfy.obj
 0005:00000694       $unwind$x509_name_ex_new   00000000000bec14     OpensslLib:x_name.obj
 0005:00000694       $unwind$i2s_ASN1_IA5STRING 00000000000bec14     OpensslLib:v3_ia5.obj
 0005:00000694       $unwind$s2i_ASN1_IA5STRING 00000000000bec14     OpensslLib:v3_ia5.obj
 0005:00000694       $unwind$i2s_ASN1_INTEGER   00000000000bec14     OpensslLib:v3_utl.obj
 0005:000006a0       $unwind$find_issuer        00000000000bec20     OpensslLib:x509_vfy.obj
 0005:000006b8       $unwind$rsa_multip_calc_product 00000000000bec38     OpensslLib:rsa_mp.obj
 0005:000006b8       $unwind$check_chain_extensions 00000000000bec38     OpensslLib:x509_vfy.obj
 0005:000006d0       $unwind$EC_GROUP_new_from_ecparameters 00000000000bec50     OpensslLib:ec_asn1.obj
 0005:000006d0       $unwind$ec_asn1_group2curve 00000000000bec50     OpensslLib:ec_asn1.obj
 0005:000006d0       $unwind$ec_GFp_mont_group_set_curve 00000000000bec50     OpensslLib:ecp_mont.obj
 0005:000006d0       $unwind$ec_GFp_simple_group_check_discriminant 00000000000bec50     OpensslLib:ecp_smpl.obj
 0005:000006d0       $unwind$enc_write          00000000000bec50     OpensslLib:bio_enc.obj
 0005:000006d0       $unwind$rand_drbg_restart  00000000000bec50     OpensslLib:drbg_lib.obj
 0005:000006d0       $unwind$check_name_constraints 00000000000bec50     OpensslLib:x509_vfy.obj
 0005:000006ec       $unwind$CRYPTO_gcm128_decrypt 00000000000bec6c     OpensslLib:gcm128.obj
 0005:000006ec       $unwind$CRYPTO_gcm128_encrypt 00000000000bec6c     OpensslLib:gcm128.obj
 0005:000006ec       $unwind$CRYPTO_gcm128_setiv 00000000000bec6c     OpensslLib:gcm128.obj
 0005:000006ec       $unwind$check_dane_pkeys   00000000000bec6c     OpensslLib:x509_vfy.obj
 0005:000006ec       $unwind$check_trust        00000000000bec6c     OpensslLib:x509_vfy.obj
 0005:000006ec       $unwind$tree_calculate_authority_set 00000000000bec6c     OpensslLib:pcy_tree.obj
 0005:00000708       $unwind$check_cert         00000000000bec88     OpensslLib:x509_vfy.obj
 0005:0000071c       $unwind$get_crl_sk         00000000000bec9c     OpensslLib:x509_vfy.obj
 0005:00000734       $unwind$check_crl_path     00000000000becb4     OpensslLib:x509_vfy.obj
 0005:00000744       $unwind$bn_mod_sub_fixed_top 00000000000becc4     OpensslLib:bn_mod.obj
 0005:00000744       $unwind$idp_check_dp       00000000000becc4     OpensslLib:x509_vfy.obj
 0005:0000075c       $unwind$crl_crldp_check    00000000000becdc     OpensslLib:x509_vfy.obj
 0005:00000774       $unwind$cert_crl           00000000000becf4     OpensslLib:x509_vfy.obj
 0005:00000774       $unwind$check_leaf_suiteb  00000000000becf4     OpensslLib:x509_vfy.obj
 0005:00000774       $unwind$check_sig_alg_match 00000000000becf4     OpensslLib:v3_purp.obj
 0005:00000784       $unwind$X509_cmp_time      00000000000bed04     OpensslLib:x509_vfy.obj
 0005:0000078c       $unwind$bn_to_asn1_string  00000000000bed0c     OpensslLib:a_int.obj
 0005:0000078c       $unwind$BN_BLINDING_convert_ex 00000000000bed0c     OpensslLib:bn_blind.obj
 0005:0000078c       $unwind$BN_BLINDING_invert_ex 00000000000bed0c     OpensslLib:bn_blind.obj
 0005:0000078c       $unwind$BN_BLINDING_update 00000000000bed0c     OpensslLib:bn_blind.obj
 0005:0000078c       $unwind$BN_STACK_push      00000000000bed0c     OpensslLib:bn_ctx.obj
 0005:0000078c       $unwind$BN_mod_inverse     00000000000bed0c     OpensslLib:bn_gcd.obj
 0005:0000078c       $unwind$BN_mod_lshift_quick 00000000000bed0c     OpensslLib:bn_mod.obj
 0005:0000078c       $unwind$bnrand_range       00000000000bed0c     OpensslLib:bn_rand.obj
 0005:0000078c       $unwind$pkey_cmac_ctrl_str 00000000000bed0c     OpensslLib:cm_pmeth.obj
 0005:0000078c       $unwind$module_add         00000000000bed0c     OpensslLib:conf_mod.obj
 0005:0000078c       $unwind$i2o_ECPublicKey    00000000000bed0c     OpensslLib:ec_asn1.obj
 0005:0000078c       $unwind$EC_GROUP_check     00000000000bed0c     OpensslLib:ec_check.obj
 0005:0000078c       $unwind$ec_key_simple_priv2oct 00000000000bed0c     OpensslLib:ec_key.obj
 0005:0000078c       $unwind$EC_POINT_get_affine_coordinates 00000000000bed0c     OpensslLib:ec_lib.obj
 0005:0000078c       $unwind$ecx_pub_encode     00000000000bed0c     OpensslLib:ecx_meth.obj
 0005:0000078c       $unwind$aria_ccm_init_key  00000000000bed0c     OpensslLib:e_aria.obj
 0005:0000078c       $unwind$aria_gcm_init_key  00000000000bed0c     OpensslLib:e_aria.obj
 0005:0000078c       $unwind$EVP_EncryptFinal_ex 00000000000bed0c     OpensslLib:evp_enc.obj
 0005:0000078c       $unwind$EVP_CIPHER_get_asn1_iv 00000000000bed0c     OpensslLib:evp_lib.obj
 0005:0000078c       $unwind$EVP_PKEY_sign      00000000000bed0c     OpensslLib:pmeth_fn.obj
 0005:0000078c       $unwind$CRYPTO_set_ex_data 00000000000bed0c     OpensslLib:ex_data.obj
 0005:0000078c       $unwind$OBJ_create         00000000000bed0c     OpensslLib:obj_dat.obj
 0005:0000078c       $unwind$d2i_ocsp_nonce     00000000000bed0c     OpensslLib:v3_ocsp.obj
 0005:0000078c       $unwind$RAND_DRBG_set      00000000000bed0c     OpensslLib:drbg_lib.obj
 0005:0000078c       $unwind$drbg_bytes         00000000000bed0c     OpensslLib:drbg_lib.obj
 0005:0000078c       $unwind$rand_pool_grow     00000000000bed0c     OpensslLib:rand_lib.obj
 0005:0000078c       $unwind$pkey_sm2_ctrl      00000000000bed0c     OpensslLib:sm2_pmeth.obj
 0005:0000078c       $unwind$X509_STORE_CTX_init 00000000000bed0c     OpensslLib:x509_vfy.obj
 0005:0000078c       $unwind$X509_get_pubkey_parameters 00000000000bed0c     OpensslLib:x509_vfy.obj
 0005:0000078c       $unwind$policy_data_new    00000000000bed0c     OpensslLib:pcy_data.obj
 0005:0000078c       $unwind$gnames_from_sectname 00000000000bed0c     OpensslLib:v3_crld.obj
 0005:0000078c       $unwind$equal_email        00000000000bed0c     OpensslLib:v3_utl.obj
 0005:000007a0       $unwind$bn_mod_add_fixed_top 00000000000bed20     OpensslLib:bn_mod.obj
 0005:000007a0       $unwind$dane_match         00000000000bed20     OpensslLib:x509_vfy.obj
 0005:000007bc       $unwind$build_chain        00000000000bed3c     OpensslLib:x509_vfy.obj
 0005:000007d4       $unwind$x509_cb            00000000000bed54     OpensslLib:x_x509.obj
 0005:000007e8       $unwind$ECDH_compute_key   00000000000bed68     OpensslLib:ec_kmeth.obj
 0005:000007e8       $unwind$pkey_set_type      00000000000bed68     OpensslLib:p_lib.obj
 0005:000007e8       $unwind$internal_find      00000000000bed68     OpensslLib:stack.obj
 0005:000007f4       $unwind$ERR_STATE_free     00000000000bed74     OpensslLib:err.obj
 0005:000007f4       $unwind$OPENSSL_sk_pop_free 00000000000bed74     OpensslLib:stack.obj
 0005:00000808       $unwind$ctrl               00000000000bed88     OpensslLib:m_sha1.obj
 0005:00000818       $unwind$asn1_string_to_bn  00000000000bed98     OpensslLib:a_int.obj
 0005:00000818       $unwind$ASN1_TYPE_unpack_sequence 00000000000bed98     OpensslLib:a_type.obj
 0005:00000818       $unwind$ASN1_generate_v3   00000000000bed98     OpensslLib:asn1_gen.obj
 0005:00000818       $unwind$append_exp         00000000000bed98     OpensslLib:asn1_gen.obj
 0005:00000818       $unwind$ASN1_STRING_type_new 00000000000bed98     OpensslLib:asn1_lib.obj
 0005:00000818       $unwind$uint32_new         00000000000bed98     OpensslLib:x_int64.obj
 0005:00000818       $unwind$uint64_new         00000000000bed98     OpensslLib:x_int64.obj
 0005:00000818       $unwind$BN_CTX_get         00000000000bed98     OpensslLib:bn_ctx.obj
 0005:00000818       $unwind$BN_CTX_start       00000000000bed98     OpensslLib:bn_ctx.obj
 0005:00000818       $unwind$BN_lshift          00000000000bed98     OpensslLib:bn_shift.obj
 0005:00000818       $unwind$BN_rshift          00000000000bed98     OpensslLib:bn_shift.obj
 0005:00000818       $unwind$pkey_cmac_ctrl     00000000000bed98     OpensslLib:cm_pmeth.obj
 0005:00000818       $unwind$CMAC_CTX_new       00000000000bed98     OpensslLib:cmac.obj
 0005:00000818       $unwind$dh_param_decode    00000000000bed98     OpensslLib:dh_ameth.obj
 0005:00000818       $unwind$dh_pkey_public_check 00000000000bed98     OpensslLib:dh_ameth.obj
 0005:00000818       $unwind$dh_bn_mod_exp      00000000000bed98     OpensslLib:dh_key.obj
 0005:00000818       $unwind$pkey_dh_init       00000000000bed98     OpensslLib:dh_pmeth.obj
 0005:00000818       $unwind$curve448_scalar_add 00000000000bed98     OpensslLib:scalar.obj
 0005:00000818       $unwind$eckey_param_decode 00000000000bed98     OpensslLib:ec_ameth.obj
 0005:00000818       $unwind$old_ec_priv_decode 00000000000bed98     OpensslLib:ec_ameth.obj
 0005:00000818       $unwind$ECDSA_SIG_new      00000000000bed98     OpensslLib:ec_asn1.obj
 0005:00000818       $unwind$pkey_ec_init       00000000000bed98     OpensslLib:ec_pmeth.obj
 0005:00000818       $unwind$pkey_ec_verify     00000000000bed98     OpensslLib:ec_pmeth.obj
 0005:00000818       $unwind$ec_GFp_mont_field_decode 00000000000bed98     OpensslLib:ecp_mont.obj
 0005:00000818       $unwind$ec_GFp_mont_field_encode 00000000000bed98     OpensslLib:ecp_mont.obj
 0005:00000818       $unwind$ec_GFp_mont_field_mul 00000000000bed98     OpensslLib:ecp_mont.obj
 0005:00000818       $unwind$ec_GFp_mont_field_set_to_one 00000000000bed98     OpensslLib:ecp_mont.obj
 0005:00000818       $unwind$ec_GFp_mont_field_sqr 00000000000bed98     OpensslLib:ecp_mont.obj
 0005:00000818       $unwind$ec_GFp_simple_point_set_affine_coordinates 00000000000bed98     OpensslLib:ecp_smpl.obj
 0005:00000818       $unwind$pkey_ecd_digestsign25519 00000000000bed98     OpensslLib:ecx_meth.obj
 0005:00000818       $unwind$aes_cbc_cipher     00000000000bed98     OpensslLib:e_aes.obj
 0005:00000818       $unwind$EVP_PKEY_get0_EC_KEY 00000000000bed98     OpensslLib:p_lib.obj
 0005:00000818       $unwind$EVP_PKEY_new       00000000000bed98     OpensslLib:p_lib.obj
 0005:00000818       $unwind$EVP_PKEY_sign_init 00000000000bed98     OpensslLib:pmeth_fn.obj
 0005:00000818       $unwind$EVP_PKEY_verify_init 00000000000bed98     OpensslLib:pmeth_fn.obj
 0005:00000818       $unwind$EVP_PKEY_CTX_ctrl  00000000000bed98     OpensslLib:pmeth_lib.obj
 0005:00000818       $unwind$hmac_signctx       00000000000bed98     OpensslLib:hm_pmeth.obj
 0005:00000818       $unwind$pkey_hkdf_init     00000000000bed98     OpensslLib:hkdf.obj
 0005:00000818       $unwind$pkey_tls1_prf_init 00000000000bed98     OpensslLib:tls1_prf.obj
 0005:00000818       $unwind$PKCS7_ctrl         00000000000bed98     OpensslLib:pk7_lib.obj
 0005:00000818       $unwind$ctr_BCC_block      00000000000bed98     OpensslLib:drbg_ctr.obj
 0005:00000818       $unwind$rand_pool_add_begin 00000000000bed98     OpensslLib:rand_lib.obj
 0005:00000818       $unwind$old_rsa_priv_decode 00000000000bed98     OpensslLib:rsa_ameth.obj
 0005:00000818       $unwind$rsa_multip_info_new 00000000000bed98     OpensslLib:rsa_mp.obj
 0005:00000818       $unwind$RSA_padding_check_PKCS1_type_1 00000000000bed98     OpensslLib:rsa_pk1.obj
 0005:00000818       $unwind$setup_tbuf         00000000000bed98     OpensslLib:rsa_pmeth.obj
 0005:00000818       $unwind$pkey_siphash_init  00000000000bed98     OpensslLib:siphash_pmeth.obj
 0005:00000818       $unwind$pkey_sm2_decrypt   00000000000bed98     OpensslLib:sm2_pmeth.obj
 0005:00000818       $unwind$pkey_sm2_init      00000000000bed98     OpensslLib:sm2_pmeth.obj
 0005:00000818       $unwind$x509_name_ex_print 00000000000bed98     OpensslLib:x_name.obj
 0005:00000818       $unwind$X509_PUBKEY_get0   00000000000bed98     OpensslLib:x_pubkey.obj
 0005:00000820       $unwind$ASN1_STRING_free   00000000000beda0     OpensslLib:asn1_lib.obj
 0005:00000820       $unwind$BIO_free_all       00000000000beda0     OpensslLib:bio_lib.obj
 0005:00000820       $unwind$BN_free            00000000000beda0     OpensslLib:bn_lib.obj
 0005:00000820       $unwind$BUF_MEM_free       00000000000beda0     OpensslLib:buffer.obj
 0005:00000820       $unwind$EC_ec_pre_comp_free 00000000000beda0     OpensslLib:ec_mult.obj
 0005:00000820       $unwind$HMAC_CTX_free      00000000000beda0     OpensslLib:hmac.obj
 0005:00000820       $unwind$rand_pool_free     00000000000beda0     OpensslLib:rand_lib.obj
 0005:00000820       $unwind$x509_name_ex_free  00000000000beda0     OpensslLib:x_name.obj
 0005:00000820       $unwind$i2v_ASN1_BIT_STRING 00000000000beda0     OpensslLib:v3_bitst.obj
 0005:0000082c       $unwind$x509_name_ex_d2i   00000000000bedac     OpensslLib:x_name.obj
 0005:00000848       $unwind$x509_name_encode   00000000000bedc8     OpensslLib:x_name.obj
 0005:00000860       $unwind$x509_name_canon    00000000000bede0     OpensslLib:x_name.obj
 0005:00000878       $unwind$asn1_string_canon  00000000000bedf8     OpensslLib:x_name.obj
 0005:00000888       $unwind$BN_BLINDING_create_param 00000000000bee08     OpensslLib:bn_blind.obj
 0005:00000888       $unwind$pkey_dh_derive     00000000000bee08     OpensslLib:dh_pmeth.obj
 0005:00000888       $unwind$aes_wrap_cipher    00000000000bee08     OpensslLib:e_aes.obj
 0005:00000888       $unwind$RAND_DRBG_reseed   00000000000bee08     OpensslLib:drbg_lib.obj
 0005:00000888       $unwind$i2d_name_canon     00000000000bee08     OpensslLib:x_name.obj
 0005:00000888       $unwind$do_check_string    00000000000bee08     OpensslLib:v3_utl.obj
 0005:0000089c       $unwind$X509_NAME_print    00000000000bee1c     OpensslLib:x_name.obj
 0005:000008b4       $unwind$X509v3_get_ext_by_OBJ 00000000000bee34     OpensslLib:x509_v3.obj
 0005:000008b4       $unwind$X509_NAME_get_index_by_OBJ 00000000000bee34     OpensslLib:x509name.obj
 0005:000008c8       $unwind$CRYPTO_128_wrap_pad 00000000000bee48     OpensslLib:wrap128.obj
 0005:000008c8       $unwind$X509_NAME_add_entry 00000000000bee48     OpensslLib:x509name.obj
 0005:000008e4       $unwind$X509_find_by_issuer_and_serial 00000000000bee64     OpensslLib:x509_cmp.obj
 0005:00000900       $unwind$CRYPTO_ccm128_aad  00000000000bee80     OpensslLib:ccm128.obj
 0005:00000900       $unwind$X509_STORE_free    00000000000bee80     OpensslLib:x509_lu.obj
 0005:00000918       $unwind$ED25519_sign       00000000000bee98     OpensslLib:curve25519.obj
 0005:00000918       $unwind$x509_object_idx_cnt 00000000000bee98     OpensslLib:x509_lu.obj
 0005:00000934       $unwind$X509_STORE_CTX_get1_certs 00000000000beeb4     OpensslLib:x509_lu.obj
 0005:00000950       $unwind$X509_STORE_CTX_get1_crls 00000000000beed0     OpensslLib:x509_lu.obj
 0005:0000096c       $unwind$X509_OBJECT_retrieve_match 00000000000beeec     OpensslLib:x509_lu.obj
 0005:00000984       $unwind$X509_STORE_CTX_get1_issuer 00000000000bef04     OpensslLib:x509_lu.obj
 0005:000009a0       $unwind$ASN1_get_object    00000000000bef20     OpensslLib:asn1_lib.obj
 0005:000009a0       $unwind$asn1_item_embed_new 00000000000bef20     OpensslLib:tasn_new.obj
 0005:000009a0       $unwind$DH_check           00000000000bef20     OpensslLib:dh_check.obj
 0005:000009a0       $unwind$pkey_dh_paramgen   00000000000bef20     OpensslLib:dh_pmeth.obj
 0005:000009a0       $unwind$ec_key_simple_generate_key 00000000000bef20     OpensslLib:ec_key.obj
 0005:000009a0       $unwind$EC_POINT_point2buf 00000000000bef20     OpensslLib:ec_oct.obj
 0005:000009a0       $unwind$ec_GFp_nist_field_sqr 00000000000bef20     OpensslLib:ecp_nist.obj
 0005:000009a0       $unwind$ec_GFp_simple_blind_coordinates 00000000000bef20     OpensslLib:ecp_smpl.obj
 0005:000009a0       $unwind$aes_xts_init_key   00000000000bef20     OpensslLib:e_aes.obj
 0005:000009a0       $unwind$i2r_ocsp_serviceloc 00000000000bef20     OpensslLib:v3_ocsp.obj
 0005:000009a0       $unwind$rand_pool_new      00000000000bef20     OpensslLib:rand_lib.obj
 0005:000009a0       $unwind$RSA_setup_blinding 00000000000bef20     OpensslLib:rsa_crpt.obj
 0005:000009a0       $unwind$pkey_rsa_ctrl      00000000000bef20     OpensslLib:rsa_pmeth.obj
 0005:000009a0       $unwind$pkey_rsa_keygen    00000000000bef20     OpensslLib:rsa_pmeth.obj
 0005:000009a0       $unwind$sk_OPENSSL_STRING_deep_copy 00000000000bef20     OpensslLib:x509_vpm.obj
 0005:000009a0       $unwind$copy_email         00000000000bef20     OpensslLib:v3_alt.obj
 0005:000009a0       $unwind$do_dirname         00000000000bef20     OpensslLib:v3_alt.obj
 0005:000009a0       $unwind$v2i_GENERAL_NAMES  00000000000bef20     OpensslLib:v3_alt.obj
 0005:000009a0       $unwind$sxnet_i2r          00000000000bef20     OpensslLib:v3_sxnet.obj
 0005:000009b8       $unwind$i2c_ibuf           00000000000bef38     OpensslLib:a_int.obj
 0005:000009b8       $unwind$ASN1_put_object    00000000000bef38     OpensslLib:asn1_lib.obj
 0005:000009b8       $unwind$make_kn            00000000000bef38     OpensslLib:cmac.obj
 0005:000009b8       $unwind$gf_mulw_unsigned   00000000000bef38     OpensslLib:f_impl.obj
 0005:000009b8       $unwind$sc_subx            00000000000bef38     OpensslLib:scalar.obj
 0005:000009b8       $unwind$gcm_gmult_4bit     00000000000bef38     OpensslLib:gcm128.obj
 0005:000009b8       $unwind$julian_to_date     00000000000bef38     OpensslLib:o_time.obj
 0005:000009b8       $unwind$SipHash_Final      00000000000bef38     OpensslLib:siphash.obj
 0005:000009c8       $unwind$do_esc_char        00000000000bef48     OpensslLib:a_strex.obj
 0005:000009d0       $unwind$do_buf             00000000000bef50     OpensslLib:a_strex.obj
 0005:000009e8       $unwind$do_hex_dump        00000000000bef68     OpensslLib:a_strex.obj
 0005:000009fc       $unwind$do_dump            00000000000bef7c     OpensslLib:a_strex.obj
 0005:00000a0c       $unwind$do_print_ex        00000000000bef8c     OpensslLib:a_strex.obj
 0005:00000a24       $unwind$do_indent          00000000000befa4     OpensslLib:a_strex.obj
 0005:00000a34       $unwind$do_name_ex         00000000000befb4     OpensslLib:a_strex.obj
 0005:00000a50       $unwind$ASN1_STRING_to_UTF8 00000000000befd0     OpensslLib:a_strex.obj
 0005:00000a50       $unwind$ASN1_item_d2i      00000000000befd0     OpensslLib:tasn_dec.obj
 0005:00000a58       $unwind$bio_call_callback  00000000000befd8     OpensslLib:bio_lib.obj
 0005:00000a58       $unwind$aes_cfb8_cipher    00000000000befd8     OpensslLib:e_aes.obj
 0005:00000a58       $unwind$X509V3_get_value_bool 00000000000befd8     OpensslLib:v3_utl.obj
 0005:00000a68       $unwind$BIO_ctrl           00000000000befe8     OpensslLib:bio_lib.obj
 0005:00000a68       $unwind$bio_read_intern    00000000000befe8     OpensslLib:bio_lib.obj
 0005:00000a68       $unwind$bio_write_intern   00000000000befe8     OpensslLib:bio_lib.obj
 0005:00000a68       $unwind$ossl_ecdsa_verify  00000000000befe8     OpensslLib:ecdsa_ossl.obj
 0005:00000a68       $unwind$rand_drbg_get_nonce 00000000000befe8     OpensslLib:rand_lib.obj
 0005:00000a7c       $unwind$BIO_puts           00000000000beffc     OpensslLib:bio_lib.obj
 0005:00000a8c       $unwind$BIO_callback_ctrl  00000000000bf00c     OpensslLib:bio_lib.obj
 0005:00000a94       $unwind$BN_div_recp        00000000000bf014     OpensslLib:bn_recp.obj
 0005:00000a94       $unwind$PKCS7_verify       00000000000bf014     OpensslLib:pk7_smime.obj
 0005:00000aac       $unwind$uint32_i2c         00000000000bf02c     OpensslLib:x_int64.obj
 0005:00000aac       $unwind$X509_verify        00000000000bf02c     OpensslLib:x_all.obj
 0005:00000abc       $unwind$OBJ_add_object     00000000000bf03c     OpensslLib:obj_dat.obj
 0005:00000ad4       $unwind$OBJ_nid2ln         00000000000bf054     OpensslLib:obj_dat.obj
 0005:00000ad4       $unwind$OBJ_nid2obj        00000000000bf054     OpensslLib:obj_dat.obj
 0005:00000ad4       $unwind$OBJ_nid2sn         00000000000bf054     OpensslLib:obj_dat.obj
 0005:00000adc       $unwind$OBJ_obj2nid        00000000000bf05c     OpensslLib:obj_dat.obj
 0005:00000ae4       $unwind$OBJ_txt2obj        00000000000bf064     OpensslLib:obj_dat.obj
 0005:00000ae4       $unwind$sxnet_v2i          00000000000bf064     OpensslLib:v3_sxnet.obj
 0005:00000af8       $unwind$CRYPTO_ccm128_decrypt_ccm64 00000000000bf078     OpensslLib:ccm128.obj
 0005:00000af8       $unwind$CRYPTO_ccm128_encrypt_ccm64 00000000000bf078     OpensslLib:ccm128.obj
 0005:00000af8       $unwind$OBJ_obj2txt        00000000000bf078     OpensslLib:obj_dat.obj
 0005:00000b10       $unwind$OBJ_ln2nid         00000000000bf090     OpensslLib:obj_dat.obj
 0005:00000b10       $unwind$OBJ_sn2nid         00000000000bf090     OpensslLib:obj_dat.obj
 0005:00000b18       $unwind$aria_encrypt       00000000000bf098     OpensslLib:aria.obj
 0005:00000b18       $unwind$bn2binpad          00000000000bf098     OpensslLib:bn_lib.obj
 0005:00000b18       $unwind$aria_128_cfb1_cipher 00000000000bf098     OpensslLib:e_aria.obj
 0005:00000b18       $unwind$aria_128_cfb8_cipher 00000000000bf098     OpensslLib:e_aria.obj
 0005:00000b18       $unwind$aria_192_cfb1_cipher 00000000000bf098     OpensslLib:e_aria.obj
 0005:00000b18       $unwind$aria_192_cfb8_cipher 00000000000bf098     OpensslLib:e_aria.obj
 0005:00000b18       $unwind$aria_256_cfb1_cipher 00000000000bf098     OpensslLib:e_aria.obj
 0005:00000b18       $unwind$aria_256_cfb8_cipher 00000000000bf098     OpensslLib:e_aria.obj
 0005:00000b18       $unwind$pkey_rsa_encrypt   00000000000bf098     OpensslLib:rsa_pmeth.obj
 0005:00000b18       $unwind$RSA_sign           00000000000bf098     OpensslLib:rsa_sign.obj
 0005:00000b18       $unwind$a2i_GENERAL_NAME   00000000000bf098     OpensslLib:v3_alt.obj
 0005:00000b18       $unwind$v2i_EXTENDED_KEY_USAGE 00000000000bf098     OpensslLib:v3_extku.obj
 0005:00000b30       $unwind$BN_consttime_swap  00000000000bf0b0     OpensslLib:bn_lib.obj
 0005:00000b3c       $unwind$RSA_new_method     00000000000bf0bc     OpensslLib:rsa_lib.obj
 0005:00000b48       $unwind$DH_free            00000000000bf0c8     OpensslLib:dh_lib.obj
 0005:00000b48       $unwind$EC_KEY_free        00000000000bf0c8     OpensslLib:ec_key.obj
 0005:00000b48       $unwind$RSA_free           00000000000bf0c8     OpensslLib:rsa_lib.obj
 0005:00000b50       $unwind$encode_pkcs1       00000000000bf0d0     OpensslLib:rsa_sign.obj
 0005:00000b64       $unwind$determine_days     00000000000bf0e4     OpensslLib:a_time.obj
 0005:00000b64       $unwind$BN_rshift1         00000000000bf0e4     OpensslLib:bn_shift.obj
 0005:00000b64       $unwind$int_x509_param_set1 00000000000bf0e4     OpensslLib:x509_vpm.obj
 0005:00000b78       $unwind$asn1_time_to_tm    00000000000bf0f8     OpensslLib:a_time.obj
 0005:00000b90       $unwind$ASN1_TIME_diff     00000000000bf110     OpensslLib:a_time.obj
 0005:00000ba0       $unwind$ASN1_TIME_print    00000000000bf120     OpensslLib:a_time.obj
 0005:00000bb8       $unwind$s2i_ASN1_INTEGER   00000000000bf138     OpensslLib:v3_utl.obj
 0005:00000bc8       $unwind$bn_print           00000000000bf148     OpensslLib:x_bignum.obj
 0005:00000bc8       $unwind$X509V3_parse_list  00000000000bf148     OpensslLib:v3_utl.obj
 0005:00000be0       $unwind$wildcard_match     00000000000bf160     OpensslLib:v3_utl.obj
 0005:00000bfc       $unwind$BN_is_prime_fasttest_ex 00000000000bf17c     OpensslLib:bn_prime.obj
 0005:00000bfc       $unwind$BN_mod_sqrt        00000000000bf17c     OpensslLib:bn_sqrt.obj
 0005:00000bfc       $unwind$do_x509_check      00000000000bf17c     OpensslLib:v3_utl.obj
 0005:00000c14       $unwind$a2i_IPADDRESS_NC   00000000000bf194     OpensslLib:v3_utl.obj
 0005:00000c28       $unwind$ipv4_from_asc      00000000000bf1a8     OpensslLib:v3_utl.obj
 0005:00000c30       $unwind$ipv6_from_asc      00000000000bf1b0     OpensslLib:v3_utl.obj
 0005:00000c40       $unwind$ERR_get_state      00000000000bf1c0     OpensslLib:err.obj
 0005:00000c54       $unwind$ERR_add_error_data 00000000000bf1d4     OpensslLib:err.obj
 0005:00000c68       $unwind$ECDSA_size         00000000000bf1e8     OpensslLib:ec_asn1.obj
 0005:00000c68       $unwind$EC_GROUP_new_by_curve_name 00000000000bf1e8     OpensslLib:ec_curve.obj
 0005:00000c68       $unwind$X509_TRUST_get_by_id 00000000000bf1e8     OpensslLib:x509_trs.obj
 0005:00000c68       $unwind$X509_PURPOSE_get_by_id 00000000000bf1e8     OpensslLib:v3_purp.obj
 0005:00000c70       $unwind$x509v3_cache_extensions 00000000000bf1f0     OpensslLib:v3_purp.obj
 0005:00000c88       $unwind$crl_cb             00000000000bf208     OpensslLib:x_crl.obj
 0005:00000ca0       $unwind$def_crl_lookup     00000000000bf220     OpensslLib:x_crl.obj
 0005:00000cb8       $unwind$X509_VERIFY_PARAM_lookup 00000000000bf238     OpensslLib:x509_vpm.obj
 0005:00000cc4       $unwind$RSA_check_key_ex   00000000000bf244     OpensslLib:rsa_chk.obj
 0005:00000cc4       $unwind$tree_init          00000000000bf244     OpensslLib:pcy_tree.obj
 0005:00000cdc       $unwind$rsa_ossl_public_encrypt 00000000000bf25c     OpensslLib:rsa_ossl.obj
 0005:00000cdc       $unwind$RSA_padding_add_PKCS1_PSS_mgf1 00000000000bf25c     OpensslLib:rsa_pss.obj
 0005:00000cdc       $unwind$tree_link_nodes    00000000000bf25c     OpensslLib:pcy_tree.obj
 0005:00000cf4       $unwind$CRYPTO_ccm128_decrypt 00000000000bf274     OpensslLib:ccm128.obj
 0005:00000cf4       $unwind$tree_link_any      00000000000bf274     OpensslLib:pcy_tree.obj
 0005:00000d0c       $unwind$c2i_ASN1_OBJECT    00000000000bf28c     OpensslLib:a_object.obj
 0005:00000d0c       $unwind$BN_nist_mod_256    00000000000bf28c     OpensslLib:bn_nist.obj
 0005:00000d0c       $unwind$ec_GFp_simple_dbl  00000000000bf28c     OpensslLib:ecp_smpl.obj
 0005:00000d0c       $unwind$tree_calculate_user_set 00000000000bf28c     OpensslLib:pcy_tree.obj
 0005:00000d28       $unwind$X509_policy_tree_free 00000000000bf2a8     OpensslLib:pcy_tree.obj
 0005:00000d38       $unwind$X509_policy_check  00000000000bf2b8     OpensslLib:pcy_tree.obj
 0005:00000d50       $unwind$get_and_lock       00000000000bf2d0     OpensslLib:ex_data.obj
 0005:00000d58       $unwind$CRYPTO_new_ex_data 00000000000bf2d8     OpensslLib:ex_data.obj
 0005:00000d70       $unwind$CRYPTO_dup_ex_data 00000000000bf2f0     OpensslLib:ex_data.obj
 0005:00000d8c       $unwind$CRYPTO_free_ex_data 00000000000bf30c     OpensslLib:ex_data.obj
 0005:00000da8       $unwind$v2i_NAME_CONSTRAINTS 00000000000bf328     OpensslLib:v3_ncons.obj
 0005:00000dc0       $unwind$NAME_CONSTRAINTS_check_CN 00000000000bf340     OpensslLib:v3_ncons.obj
 0005:00000dd8       $unwind$asn1_string_get_int64 00000000000bf358     OpensslLib:a_int.obj
 0005:00000dd8       $unwind$ec_pkey_ctrl       00000000000bf358     OpensslLib:ec_ameth.obj
 0005:00000de8       $unwind$stbl_module_init   00000000000bf368     OpensslLib:asn_mstbl.obj
 0005:00000de8       $unwind$ASN1_item_ex_d2i   00000000000bf368     OpensslLib:tasn_dec.obj
 0005:00000de8       $unwind$ctr_BCC_blocks     00000000000bf368     OpensslLib:drbg_ctr.obj
 0005:00000df8       $unwind$asn1_item_embed_d2i 00000000000bf378     OpensslLib:tasn_dec.obj
 0005:00000e10       $unwind$asn1_template_ex_d2i 00000000000bf390     OpensslLib:tasn_dec.obj
 0005:00000e28       $unwind$asn1_template_noexp_d2i 00000000000bf3a8     OpensslLib:tasn_dec.obj
 0005:00000e40       $unwind$asn1_d2i_ex_primitive 00000000000bf3c0     OpensslLib:tasn_dec.obj
 0005:00000e60       $unwind$asn1_ex_c2i        00000000000bf3e0     OpensslLib:tasn_dec.obj
 0005:00000e60       $unwind$ec_GFp_simple_point2oct 00000000000bf3e0     OpensslLib:ecp_oct.obj
 0005:00000e60       $unwind$ec_GFp_simple_set_compressed_coordinates 00000000000bf3e0     OpensslLib:ecp_oct.obj
 0005:00000e60       $unwind$pkey_rsa_print     00000000000bf3e0     OpensslLib:rsa_ameth.obj
 0005:00000e7c       $unwind$asn1_find_end      00000000000bf3fc     OpensslLib:tasn_dec.obj
 0005:00000e8c       $unwind$asn1_collect       00000000000bf40c     OpensslLib:tasn_dec.obj
 0005:00000ea4       $unwind$asn1_check_tlen    00000000000bf424     OpensslLib:tasn_dec.obj
 0005:00000ea4       $unwind$sha1_block_data_order 00000000000bf424     OpensslLib:sha1dgst.obj
 0005:00000ec0       $unwind$c2i_ASN1_BIT_STRING 00000000000bf440     OpensslLib:a_bitstr.obj
 0005:00000ec0       $unwind$v2i_crld           00000000000bf440     OpensslLib:v3_crld.obj
 0005:00000edc       $unwind$print_distpoint    00000000000bf45c     OpensslLib:v3_crld.obj
 0005:00000ee4       $unwind$DIST_POINT_set_dpname 00000000000bf464     OpensslLib:v3_crld.obj
 0005:00000ef8       $unwind$asn1_primitive_new 00000000000bf478     OpensslLib:tasn_new.obj
 0005:00000f0c       $unwind$policy_cache_create 00000000000bf48c     OpensslLib:pcy_cache.obj
 0005:00000f28       $unwind$policy_cache_new   00000000000bf4a8     OpensslLib:pcy_cache.obj
 0005:00000f3c       $unwind$asn1_item_embed_free 00000000000bf4bc     OpensslLib:tasn_fre.obj
 0005:00000f54       $unwind$asn1_template_free 00000000000bf4d4     OpensslLib:tasn_fre.obj
 0005:00000f68       $unwind$asn1_item_flags_i2d 00000000000bf4e8     OpensslLib:tasn_enc.obj
 0005:00000f7c       $unwind$ASN1_item_ex_i2d   00000000000bf4fc     OpensslLib:tasn_enc.obj
 0005:00000f98       $unwind$asn1_template_ex_i2d 00000000000bf518     OpensslLib:tasn_enc.obj
 0005:00000fb4       $unwind$asn1_set_seq_out   00000000000bf534     OpensslLib:tasn_enc.obj
 0005:00000fb4       $unwind$BN_generate_prime_ex 00000000000bf534     OpensslLib:bn_prime.obj
 0005:00000fb4       $unwind$rsa_ossl_private_encrypt 00000000000bf534     OpensslLib:rsa_ossl.obj
 0005:00000fcc       $unwind$asn1_i2d_ex_primitive 00000000000bf54c     OpensslLib:tasn_enc.obj
 0005:00000fe4       $unwind$sha512_block_data_order 00000000000bf564     OpensslLib:sha512.obj
 0005:00000ffc       $unwind$EVP_PKEY_asn1_find 00000000000bf57c     OpensslLib:ameth_lib.obj
 0005:00001008       $unwind$CMAC_CTX_free      00000000000bf588     OpensslLib:cmac.obj
 0005:00001008       $unwind$EC_GROUP_clear_free 00000000000bf588     OpensslLib:ec_lib.obj
 0005:00001014       $unwind$CMAC_Init          00000000000bf594     OpensslLib:cmac.obj
 0005:0000102c       $unwind$ossl_init_get_thread_local 00000000000bf5ac     OpensslLib:init.obj
 0005:00001034       $unwind$OBJ_find_sigid_by_algs 00000000000bf5b4     OpensslLib:obj_xref.obj
 0005:0000103c       $unwind$int_ctx_new        00000000000bf5bc     OpensslLib:pmeth_lib.obj
 0005:00001050       $unwind$X509_NAME_oneline  00000000000bf5d0     OpensslLib:x509_obj.obj
 0005:0000106c       $unwind$a2d_ASN1_OBJECT    00000000000bf5ec     OpensslLib:a_object.obj
 0005:00001084       $unwind$i2a_ASN1_OBJECT    00000000000bf604     OpensslLib:a_object.obj
 0005:00001098       $unwind$d2i_ASN1_OBJECT    00000000000bf618     OpensslLib:a_object.obj
 0005:000010a0       $unwind$ASN1_STRING_set_by_NID 00000000000bf620     OpensslLib:a_strnid.obj
 0005:000010a0       $unwind$aes_cfb_cipher     00000000000bf620     OpensslLib:e_aes.obj
 0005:000010a0       $unwind$aes_ofb_cipher     00000000000bf620     OpensslLib:e_aes.obj
 0005:000010a0       $unwind$aria_ctr_cipher    00000000000bf620     OpensslLib:e_aria.obj
 0005:000010a0       $unwind$sm4_ctr_cipher     00000000000bf620     OpensslLib:e_sm4.obj
 0005:000010ac       $unwind$ASN1_STRING_TABLE_get 00000000000bf62c     OpensslLib:a_strnid.obj
 0005:000010b4       $unwind$ASN1_STRING_print  00000000000bf634     OpensslLib:a_print.obj
 0005:000010c8       $unwind$md5_block_data_order 00000000000bf648     OpensslLib:md5_dgst.obj
 0005:000010e0       $unwind$EC_GROUP_cmp       00000000000bf660     OpensslLib:ec_lib.obj
 0005:000010f8       $unwind$EC_POINT_mul       00000000000bf678     OpensslLib:ec_lib.obj
 0005:00001110       $unwind$UTF8_getc          00000000000bf690     OpensslLib:a_utf8.obj
 0005:00001110       $unwind$bn_add_words       00000000000bf690     OpensslLib:bn_asm.obj
 0005:00001110       $unwind$MOD_EXP_CTIME_COPY_TO_PREBUF 00000000000bf690     OpensslLib:bn_exp.obj
 0005:00001110       $unwind$cmov               00000000000bf690     OpensslLib:curve25519.obj
 0005:00001110       $unwind$OPENSSL_LH_strhash 00000000000bf690     OpensslLib:lhash.obj
 0005:00001110       $unwind$ctr_XOR            00000000000bf690     OpensslLib:drbg_ctr.obj
 0005:00001118       $unwind$ASN1_mbstring_ncopy 00000000000bf698     OpensslLib:a_mbstr.obj
 0005:00001130       $unwind$traverse_string    00000000000bf6b0     OpensslLib:a_mbstr.obj
 0005:00001130       $unwind$md_read            00000000000bf6b0     OpensslLib:bio_md.obj
 0005:00001144       $unwind$uint32_c2i         00000000000bf6c4     OpensslLib:x_int64.obj
 0005:00001158       $unwind$pkcs7_encode_rinfo 00000000000bf6d8     OpensslLib:pk7_doit.obj
 0005:00001174       $unwind$PKCS7_dataInit     00000000000bf6f4     OpensslLib:pk7_doit.obj
 0005:00001190       $unwind$do_pkcs7_signed_attrib 00000000000bf710     OpensslLib:pk7_doit.obj
 0005:000011a0       $unwind$ec_curve_nid_from_params 00000000000bf720     OpensslLib:ec_curve.obj
 0005:000011a0       $unwind$PKCS7_dataFinal    00000000000bf720     OpensslLib:pk7_doit.obj
 0005:000011b8       $unwind$PKCS7_SIGNER_INFO_sign 00000000000bf738     OpensslLib:pk7_doit.obj
 0005:000011cc       $unwind$OPENSSL_LH_insert  00000000000bf74c     OpensslLib:lhash.obj
 0005:000011e0       $unwind$EC_GROUP_get_ecparameters 00000000000bf760     OpensslLib:ec_asn1.obj
 0005:000011f0       $unwind$d2i_ECPKParameters 00000000000bf770     OpensslLib:ec_asn1.obj
 0005:000011f0       $unwind$d2i_ECPrivateKey   00000000000bf770     OpensslLib:ec_asn1.obj
 0005:00001200       $unwind$i2d_ECPrivateKey   00000000000bf780     OpensslLib:ec_asn1.obj
 0005:00001218       $unwind$i2d_ECParameters   00000000000bf798     OpensslLib:ec_asn1.obj
 0005:00001228       $unwind$ASN1_item_i2d_bio  00000000000bf7a8     OpensslLib:a_i2d_fp.obj
 0005:00001238       $unwind$BN_dec2bn          00000000000bf7b8     OpensslLib:bn_print.obj
 0005:00001250       $unwind$BN_mod_mul         00000000000bf7d0     OpensslLib:bn_mod.obj
 0005:00001250       $unwind$bn_mul_mont_fixed_top 00000000000bf7d0     OpensslLib:bn_mont.obj
 0005:00001268       $unwind$bn_from_montgomery_word 00000000000bf7e8     OpensslLib:bn_mont.obj
 0005:00001280       $unwind$BN_MONT_CTX_set    00000000000bf800     OpensslLib:bn_mont.obj
 0005:0000129c       $unwind$rsa_ossl_private_decrypt 00000000000bf81c     OpensslLib:rsa_ossl.obj
 0005:000012b4       $unwind$rsa_ossl_public_decrypt 00000000000bf834     OpensslLib:rsa_ossl.obj
 0005:000012cc       $unwind$rsa_ossl_mod_exp   00000000000bf84c     OpensslLib:rsa_ossl.obj
 0005:000012e8       $unwind$OPENSSL_gmtime_adj 00000000000bf868     OpensslLib:o_time.obj
 0005:000012f0       $unwind$OPENSSL_gmtime_diff 00000000000bf870     OpensslLib:o_time.obj
 0005:00001300       $unwind$bn_sub_words       00000000000bf880     OpensslLib:bn_asm.obj
 0005:00001300       $unwind$curve448_scalar_halve 00000000000bf880     OpensslLib:scalar.obj
 0005:00001300       $unwind$julian_adj         00000000000bf880     OpensslLib:o_time.obj
 0005:0000130c       $unwind$v2i_AUTHORITY_INFO_ACCESS 00000000000bf88c     OpensslLib:v3_info.obj
 0005:00001328       $unwind$X509V3_EXT_get_nid 00000000000bf8a8     OpensslLib:v3_lib.obj
 0005:00001334       $unwind$dh_priv_encode     00000000000bf8b4     OpensslLib:dh_ameth.obj
 0005:00001334       $unwind$aria_128_cfb128_cipher 00000000000bf8b4     OpensslLib:e_aria.obj
 0005:00001334       $unwind$aria_192_cfb128_cipher 00000000000bf8b4     OpensslLib:e_aria.obj
 0005:00001334       $unwind$aria_256_cfb128_cipher 00000000000bf8b4     OpensslLib:e_aria.obj
 0005:00001334       $unwind$sm4_cfb128_cipher  00000000000bf8b4     OpensslLib:e_sm4.obj
 0005:00001334       $unwind$v2i_BASIC_CONSTRAINTS 00000000000bf8b4     OpensslLib:v3_bcons.obj
 0005:00001334       $unwind$v2i_POLICY_CONSTRAINTS 00000000000bf8b4     OpensslLib:v3_pcons.obj
 0005:00001348       $unwind$ASN1_TYPE_set      00000000000bf8c8     OpensslLib:a_type.obj
 0005:00001354       $unwind$i2v_GENERAL_NAME   00000000000bf8d4     OpensslLib:v3_alt.obj
 0005:00001364       $unwind$BN_CTX_free        00000000000bf8e4     OpensslLib:bn_ctx.obj
 0005:00001374       $unwind$ec_group_new_from_data 00000000000bf8f4     OpensslLib:ec_curve.obj
 0005:0000138c       $unwind$bn_compute_wNAF    00000000000bf90c     OpensslLib:bn_intern.obj
 0005:000013a4       $unwind$bnrand             00000000000bf924     OpensslLib:bn_rand.obj
 0005:000013bc       $unwind$BN_generate_dsa_nonce 00000000000bf93c     OpensslLib:bn_rand.obj
 0005:000013dc       $unwind$notice_section     00000000000bf95c     OpensslLib:v3_cpols.obj
 0005:000013f4       $unwind$BN_gcd             00000000000bf974     OpensslLib:bn_gcd.obj
 0005:000013f4       $unwind$ec_GFp_simple_oct2point 00000000000bf974     OpensslLib:ecp_oct.obj
 0005:000013f4       $unwind$ec_GFp_simple_ladder_pre 00000000000bf974     OpensslLib:ecp_smpl.obj
 0005:000013f4       $unwind$CRYPTO_ctr128_encrypt_ctr32 00000000000bf974     OpensslLib:ctr128.obj
 0005:000013f4       $unwind$print_qualifiers   00000000000bf974     OpensslLib:v3_cpols.obj
 0005:0000140c       $unwind$evp_EncryptDecryptUpdate 00000000000bf98c     OpensslLib:evp_enc.obj
 0005:00001428       $unwind$BN_nist_mod_192    00000000000bf9a8     OpensslLib:bn_nist.obj
 0005:00001428       $unwind$generate_key       00000000000bf9a8     OpensslLib:dh_key.obj
 0005:00001428       $unwind$aes_ccm_cipher     00000000000bf9a8     OpensslLib:e_aes.obj
 0005:00001428       $unwind$aes_ccm_tls_cipher 00000000000bf9a8     OpensslLib:e_aes.obj
 0005:00001428       $unwind$aria_ccm_cipher    00000000000bf9a8     OpensslLib:e_aria.obj
 0005:00001428       $unwind$aria_ccm_tls_cipher 00000000000bf9a8     OpensslLib:e_aria.obj
 0005:00001428       $unwind$drbg_ctr_instantiate 00000000000bf9a8     OpensslLib:drbg_ctr.obj
 0005:00001428       $unwind$RAND_DRBG_bytes    00000000000bf9a8     OpensslLib:drbg_lib.obj
 0005:00001444       $unwind$compute_key        00000000000bf9c4     OpensslLib:dh_key.obj
 0005:0000145c       $unwind$ecx_key_op         00000000000bf9dc     OpensslLib:ecx_meth.obj
 0005:0000147c       $unwind$ecx_priv_decode    00000000000bf9fc     OpensslLib:ecx_meth.obj
 0005:0000148c       $unwind$ecx_priv_encode    00000000000bfa0c     OpensslLib:ecx_meth.obj
 0005:0000149c       $unwind$pkey_ecx_derive25519 00000000000bfa1c     OpensslLib:ecx_meth.obj
 0005:0000149c       $unwind$pkey_ecx_derive448 00000000000bfa1c     OpensslLib:ecx_meth.obj
 0005:0000149c       $unwind$rsa_pkey_ctrl      00000000000bfa1c     OpensslLib:rsa_ameth.obj
 0005:000014a8       $unwind$eckey_pub_encode   00000000000bfa28     OpensslLib:ec_ameth.obj
 0005:000014bc       $unwind$eckey_priv_decode  00000000000bfa3c     OpensslLib:ec_ameth.obj
 0005:000014bc       $unwind$eckey_pub_decode   00000000000bfa3c     OpensslLib:ec_ameth.obj
 0005:000014d4       $unwind$eckey_priv_encode  00000000000bfa54     OpensslLib:ec_ameth.obj
 0005:000014e8       $unwind$do_EC_KEY_print    00000000000bfa68     OpensslLib:ec_ameth.obj
 0005:00001504       $unwind$dh_pub_decode      00000000000bfa84     OpensslLib:dh_ameth.obj
 0005:00001504       $unwind$rsa_pub_encode     00000000000bfa84     OpensslLib:rsa_ameth.obj
 0005:00001514       $unwind$FO                 00000000000bfa94     OpensslLib:aria.obj
 0005:00001514       $unwind$rsa_priv_decode    00000000000bfa94     OpensslLib:rsa_ameth.obj
 0005:00001514       $unwind$rsa_pub_decode     00000000000bfa94     OpensslLib:rsa_ameth.obj
 0005:00001524       $unwind$md_write           00000000000bfaa4     OpensslLib:bio_md.obj
 0005:00001524       $unwind$rsa_sig_print      00000000000bfaa4     OpensslLib:rsa_ameth.obj
 0005:00001538       $unwind$rsa_md_to_mgf1     00000000000bfab8     OpensslLib:rsa_ameth.obj
 0005:00001548       $unwind$rsa_ctx_to_pss_string 00000000000bfac8     OpensslLib:rsa_ameth.obj
 0005:00001558       $unwind$rsa_pss_to_ctx     00000000000bfad8     OpensslLib:rsa_ameth.obj
 0005:00001570       $unwind$enc_ctrl           00000000000bfaf0     OpensslLib:bio_enc.obj
 0005:00001570       $unwind$RAND_DRBG_generate 00000000000bfaf0     OpensslLib:drbg_lib.obj
 0005:00001570       $unwind$rsa_pss_get_param  00000000000bfaf0     OpensslLib:rsa_ameth.obj
 0005:00001588       $unwind$rsa_item_sign      00000000000bfb08     OpensslLib:rsa_ameth.obj
 0005:00001598       $unwind$rsa_sig_info_set   00000000000bfb18     OpensslLib:rsa_ameth.obj
 0005:000015a8       $unwind$i2d_dhp            00000000000bfb28     OpensslLib:dh_ameth.obj
 0005:000015b0       $unwind$dh_pub_encode      00000000000bfb30     OpensslLib:dh_ameth.obj
 0005:000015c4       $unwind$dh_priv_decode     00000000000bfb44     OpensslLib:dh_ameth.obj
 0005:000015d8       $unwind$do_dh_print        00000000000bfb58     OpensslLib:dh_ameth.obj
 0005:000015f0       $unwind$dh_pkey_param_check 00000000000bfb70     OpensslLib:dh_ameth.obj
 0005:000015f0       $unwind$pkey_sm2_sign      00000000000bfb70     OpensslLib:sm2_pmeth.obj
 0005:00001604       $unwind$RAND_DRBG_instantiate 00000000000bfb84     OpensslLib:drbg_lib.obj
 0005:00001618       $unwind$drbg_add           00000000000bfb98     OpensslLib:drbg_lib.obj
 0005:00001628       $unwind$RAND_DRBG_get0_private 00000000000bfba8     OpensslLib:drbg_lib.obj
 0005:00001638       $unwind$rand_drbg_get_entropy 00000000000bfbb8     OpensslLib:rand_lib.obj
 0005:0000164c       $unwind$pkey_dh_ctrl_str   00000000000bfbcc     OpensslLib:dh_pmeth.obj
 0005:00001660       $unwind$pkey_rsa_sign      00000000000bfbe0     OpensslLib:rsa_pmeth.obj
 0005:00001660       $unwind$SXNET_add_id_INTEGER 00000000000bfbe0     OpensslLib:v3_sxnet.obj
 0005:00001678       $unwind$pkey_ec_sign       00000000000bfbf8     OpensslLib:ec_pmeth.obj
 0005:00001678       $unwind$pkey_rsa_verifyrecover 00000000000bfbf8     OpensslLib:rsa_pmeth.obj
 0005:0000168c       $unwind$pkey_rsa_verify    00000000000bfc0c     OpensslLib:rsa_pmeth.obj
 0005:000016a0       $unwind$pkey_rsa_decrypt   00000000000bfc20     OpensslLib:rsa_pmeth.obj
 0005:000016b4       $unwind$pkey_rsa_ctrl_str  00000000000bfc34     OpensslLib:rsa_pmeth.obj
 0005:000016cc       $unwind$pkey_pss_init      00000000000bfc4c     OpensslLib:rsa_pmeth.obj
 0005:000016dc       $unwind$tls1_prf_P_hash    00000000000bfc5c     OpensslLib:tls1_prf.obj
 0005:000016f8       $unwind$pkey_hkdf_derive   00000000000bfc78     OpensslLib:hkdf.obj
 0005:00001710       $unwind$HKDF_Extract       00000000000bfc90     OpensslLib:hkdf.obj
 0005:00001728       $unwind$HKDF_Expand        00000000000bfca8     OpensslLib:hkdf.obj
 0005:00001740       $unwind$pkey_sm2_verify    00000000000bfcc0     OpensslLib:sm2_pmeth.obj
 0005:00001754       $unwind$pkey_sm2_digest_custom 00000000000bfcd4     OpensslLib:sm2_pmeth.obj
 0005:0000176c       $unwind$pkey_ec_kdf_derive 00000000000bfcec     OpensslLib:ec_pmeth.obj
 0005:0000176c       $unwind$drbg_ctr_generate  00000000000bfcec     OpensslLib:drbg_ctr.obj
 0005:00001784       $unwind$BIO_dump_indent_cb 00000000000bfd04     OpensslLib:b_dump.obj
 0005:000017a0       $unwind$ec_scalar_mul_ladder 00000000000bfd20     OpensslLib:ec_mult.obj
 0005:000017a0       $unwind$ec_GFp_simple_ladder_post 00000000000bfd20     OpensslLib:ecp_smpl.obj
 0005:000017a0       $unwind$ec_GFp_simple_points_make_affine 00000000000bfd20     OpensslLib:ecp_smpl.obj
 0005:000017b8       $unwind$ec_wNAF_mul        00000000000bfd38     OpensslLib:ec_mult.obj
 0005:000017d4       $unwind$BN_mod_exp_recp    00000000000bfd54     OpensslLib:bn_exp.obj
 0005:000017f0       $unwind$BN_mod_exp_mont    00000000000bfd70     OpensslLib:bn_exp.obj
 0005:00001810       $unwind$MOD_EXP_CTIME_COPY_FROM_PREBUF 00000000000bfd90     OpensslLib:bn_exp.obj
 0005:00001828       $unwind$BN_mod_exp_mont_consttime 00000000000bfda8     OpensslLib:bn_exp.obj
 0005:00001828       $unwind$bn_mod_inverse_no_branch 00000000000bfda8     OpensslLib:bn_gcd.obj
 0005:00001840       $unwind$BN_mod_exp_mont_word 00000000000bfdc0     OpensslLib:bn_exp.obj
 0005:00001840       $unwind$ec_GFp_simple_ladder_step 00000000000bfdc0     OpensslLib:ecp_smpl.obj
 0005:00001858       $unwind$bn_mul_fixed_top   00000000000bfdd8     OpensslLib:bn_mul.obj
 0005:00001874       $unwind$enc_read           00000000000bfdf4     OpensslLib:bio_enc.obj
 0005:00001874       $unwind$v2i_AUTHORITY_KEYID 00000000000bfdf4     OpensslLib:v3_akey.obj
 0005:0000188c       $unwind$do_sigver_init     00000000000bfe0c     OpensslLib:m_sigver.obj
 0005:000018a0       $unwind$EVP_DigestSignFinal 00000000000bfe20     OpensslLib:m_sigver.obj
 0005:000018a0       $unwind$EVP_DigestVerifyFinal 00000000000bfe20     OpensslLib:m_sigver.obj
 0005:000018a0       $unwind$EVP_VerifyFinal    00000000000bfe20     OpensslLib:p_verify.obj
 0005:000018b8       $unwind$EVP_SignFinal      00000000000bfe38     OpensslLib:p_sign.obj
 0005:000018cc       $unwind$ASN1_buf_print     00000000000bfe4c     OpensslLib:t_pkey.obj
 0005:000018cc       $unwind$X509at_get_attr_by_OBJ 00000000000bfe4c     OpensslLib:x509_att.obj
 0005:000018e0       $unwind$bn_mul_add_words   00000000000bfe60     OpensslLib:bn_asm.obj
 0005:000018e0       $unwind$gf_deserialize     00000000000bfe60     OpensslLib:f_generic.obj
 0005:000018f4       $unwind$bn_mul_words       00000000000bfe74     OpensslLib:bn_asm.obj
 0005:0000190c       $unwind$int_bn_mod_inverse 00000000000bfe8c     OpensslLib:bn_gcd.obj
 0005:0000190c       $unwind$ossl_ecdsa_sign_sig 00000000000bfe8c     OpensslLib:ecdsa_ossl.obj
 0005:00001924       $unwind$bn_sqr_fixed_top   00000000000bfea4     OpensslLib:bn_sqr.obj
 0005:00001944       $unwind$bn_sqr_normal      00000000000bfec4     OpensslLib:bn_sqr.obj
 0005:0000195c       $unwind$RSA_padding_check_PKCS1_type_2 00000000000bfedc     OpensslLib:rsa_pk1.obj
 0005:00001978       $unwind$RSA_padding_check_SSLv23 00000000000bfef8     OpensslLib:rsa_ssl.obj
 0005:00001994       $unwind$RSA_padding_add_PKCS1_OAEP_mgf1 00000000000bff14     OpensslLib:rsa_oaep.obj
 0005:000019ac       $unwind$RSA_padding_check_PKCS1_OAEP_mgf1 00000000000bff2c     OpensslLib:rsa_oaep.obj
 0005:000019c8       $unwind$PKCS1_MGF1         00000000000bff48     OpensslLib:rsa_oaep.obj
 0005:000019e0       $unwind$i2v_EXTENDED_KEY_USAGE 00000000000bff60     OpensslLib:v3_extku.obj
 0005:000019f0       $unwind$i2r_ocsp_crlid     00000000000bff70     OpensslLib:v3_ocsp.obj
 0005:00001a04       $unwind$i2v_AUTHORITY_KEYID 00000000000bff84     OpensslLib:v3_akey.obj
 0005:00001a14       $unwind$i2r_NAMING_AUTHORITY 00000000000bff94     OpensslLib:v3_admis.obj
 0005:00001a30       $unwind$i2r_ADMISSION_SYNTAX 00000000000bffb0     OpensslLib:v3_admis.obj
 0005:00001a50       $unwind$s2i_skey_id        00000000000bffd0     OpensslLib:v3_skey.obj
 0005:00001a60       $unwind$i2v_POLICY_MAPPINGS 00000000000bffe0     OpensslLib:v3_pmaps.obj
 0005:00001a78       $unwind$process_pci_value  00000000000bfff8     OpensslLib:v3_pci.obj
 0005:00001a94       $unwind$r2i_pci            00000000000c0014     OpensslLib:v3_pci.obj
 0005:00001aac       $unwind$i2v_TLS_FEATURE    00000000000c002c     OpensslLib:v3_tlsf.obj
 0005:00001ac0       $unwind$generate_v3        00000000000c0040     OpensslLib:asn1_gen.obj
 0005:00001ae0       $unwind$asn1_cb            00000000000c0060     OpensslLib:asn1_gen.obj
 0005:00001af8       $unwind$asn1_str2type      00000000000c0078     OpensslLib:asn1_gen.obj
 0005:00001b0c       $unwind$hash_init_with_dom 00000000000c008c     OpensslLib:eddsa.obj
 0005:00001b0c       $unwind$ossl_ecdsa_sign    00000000000c008c     OpensslLib:ecdsa_ossl.obj
 0005:00001b14       $unwind$ecdsa_sign_setup   00000000000c0094     OpensslLib:ecdsa_ossl.obj
 0005:00001b2c       $unwind$ossl_ecdsa_verify_sig 00000000000c00ac     OpensslLib:ecdsa_ossl.obj
 0005:00001b44       $unwind$ecdh_simple_compute_key 00000000000c00c4     OpensslLib:ecdh_ossl.obj
 0005:00001b5c       $unwind$c448_ed448_sign    00000000000c00dc     OpensslLib:eddsa.obj
 0005:00001b7c       $unwind$c448_ed448_verify  00000000000c00fc     OpensslLib:eddsa.obj
 0005:00001b9c       $unwind$ED448_public_from_private 00000000000c011c     OpensslLib:eddsa.obj
 0005:00001bb8       $unwind$fe_frombytes       00000000000c0138     OpensslLib:curve25519.obj
 0005:00001bd0       $unwind$fe_tobytes         00000000000c0150     OpensslLib:curve25519.obj
 0005:00001bec       $unwind$fe_mul             00000000000c016c     OpensslLib:curve25519.obj
 0005:00001c04       $unwind$fe_sq              00000000000c0184     OpensslLib:curve25519.obj
 0005:00001c04       $unwind$fe_sq2             00000000000c0184     OpensslLib:curve25519.obj
 0005:00001c1c       $unwind$fe_invert          00000000000c019c     OpensslLib:curve25519.obj
 0005:00001c38       $unwind$fe_pow22523        00000000000c01b8     OpensslLib:curve25519.obj
 0005:00001c54       $unwind$ge_p3_tobytes      00000000000c01d4     OpensslLib:curve25519.obj
 0005:00001c64       $unwind$ge_frombytes_vartime 00000000000c01e4     OpensslLib:curve25519.obj
 0005:00001c80       $unwind$ge_p3_dbl          00000000000c0200     OpensslLib:curve25519.obj
 0005:00001c94       $unwind$ge_add             00000000000c0214     OpensslLib:curve25519.obj
 0005:00001c94       $unwind$ge_madd            00000000000c0214     OpensslLib:curve25519.obj
 0005:00001cb0       $unwind$ge_scalarmult_base 00000000000c0230     OpensslLib:curve25519.obj
 0005:00001ccc       $unwind$x25519_scalar_mult_generic 00000000000c024c     OpensslLib:curve25519.obj
 0005:00001ce8       $unwind$slide              00000000000c0268     OpensslLib:curve25519.obj
 0005:00001d00       $unwind$ge_double_scalarmult_vartime 00000000000c0280     OpensslLib:curve25519.obj
 0005:00001d20       $unwind$x25519_sc_reduce   00000000000c02a0     OpensslLib:curve25519.obj
 0005:00001d38       $unwind$sc_muladd          00000000000c02b8     OpensslLib:curve25519.obj
 0005:00001d50       $unwind$ED25519_verify     00000000000c02d0     OpensslLib:curve25519.obj
 0005:00001d70       $unwind$X25519_public_from_private 00000000000c02f0     OpensslLib:curve25519.obj
 0005:00001d80       $unwind$gf_cond_neg        00000000000c0300     OpensslLib:curve448.obj
 0005:00001d80       $unwind$gf_sqrn            00000000000c0300     OpensslLib:f_generic.obj
 0005:00001d8c       $unwind$gf_invert          00000000000c030c     OpensslLib:curve448.obj
 0005:00001da0       $unwind$point_double_internal 00000000000c0320     OpensslLib:curve448.obj
 0005:00001dc0       $unwind$add_niels_to_pt    00000000000c0340     OpensslLib:curve448.obj
 0005:00001dc0       $unwind$sub_niels_from_pt  00000000000c0340     OpensslLib:curve448.obj
 0005:00001de0       $unwind$curve448_precomputed_scalarmul 00000000000c0360     OpensslLib:curve448.obj
 0005:00001dfc       $unwind$curve448_point_mul_by_ratio_and_encode_like_eddsa 00000000000c037c     OpensslLib:curve448.obj
 0005:00001e10       $unwind$curve448_point_decode_like_eddsa_and_mul_by_ratio 00000000000c0390     OpensslLib:curve448.obj
 0005:00001e30       $unwind$x448_int           00000000000c03b0     OpensslLib:curve448.obj
 0005:00001e50       $unwind$recode_wnaf        00000000000c03d0     OpensslLib:curve448.obj
 0005:00001e6c       $unwind$curve448_base_double_scalarmul_non_secret 00000000000c03ec     OpensslLib:curve448.obj
 0005:00001e8c       $unwind$X448_public_from_private 00000000000c040c     OpensslLib:curve448.obj
 0005:00001ea4       $unwind$ECPKParameters_print 00000000000c0424     OpensslLib:eck_prn.obj
 0005:00001ebc       $unwind$print_bin          00000000000c043c     OpensslLib:eck_prn.obj
 0005:00001ed8       $unwind$X509_signature_dump 00000000000c0458     OpensslLib:t_x509.obj
 0005:00001ef4       $unwind$i2a_ASN1_INTEGER   00000000000c0474     OpensslLib:f_int.obj
 0005:00001f08       $unwind$HMAC_Init_ex       00000000000c0488     OpensslLib:hmac.obj
 0005:00001f28       $unwind$HMAC_Final         00000000000c04a8     OpensslLib:hmac.obj
 0005:00001f38       $unwind$aes_gcm_ctrl       00000000000c04b8     OpensslLib:e_aes.obj
 0005:00001f38       $unwind$aria_gcm_ctrl      00000000000c04b8     OpensslLib:e_aria.obj
 0005:00001f50       $unwind$ctr_df             00000000000c04d0     OpensslLib:drbg_ctr.obj
 0005:00001f68       $unwind$ctr_update         00000000000c04e8     OpensslLib:drbg_ctr.obj
 0005:00001f88       $unwind$drbg_ctr_init      00000000000c0508     OpensslLib:drbg_ctr.obj
 0005:00001fa0       $unwind$ctrl               00000000000c0520     OpensslLib:m_md5_sha1.obj
 0005:00001fb8       $unwind$dh_builtin_genparams 00000000000c0538     OpensslLib:dh_gen.obj
 0005:00001fd4       $unwind$RSA_sign_ASN1_OCTET_STRING 00000000000c0554     OpensslLib:rsa_saos.obj
 0005:00001fec       $unwind$rsa_builtin_keygen 00000000000c056c     OpensslLib:rsa_gen.obj
 0005:00002008       $unwind$RSA_verify_PKCS1_PSS_mgf1 00000000000c0588     OpensslLib:rsa_pss.obj
 0005:00002024       $unwind$sm2_compute_z_digest 00000000000c05a4     OpensslLib:sm2_sign.obj
 0005:00002040       $unwind$sm2_sig_gen        00000000000c05c0     OpensslLib:sm2_sign.obj
 0005:00002058       $unwind$sm2_sig_verify     00000000000c05d8     OpensslLib:sm2_sign.obj
 0005:00002070       $unwind$sm2_sign           00000000000c05f0     OpensslLib:sm2_sign.obj
 0005:00002084       $unwind$sm2_encrypt        00000000000c0604     OpensslLib:sm2_crypt.obj
 0005:000020a0       $unwind$sm2_decrypt        00000000000c0620     OpensslLib:sm2_crypt.obj
 0005:000020bc       $unwind$ecdh_KDF_X9_63     00000000000c063c     OpensslLib:ecdh_kdf.obj
 0005:000020d4       $unwind$BN_nist_mod_224    00000000000c0654     OpensslLib:bn_nist.obj
 0005:000020f0       $unwind$BN_nist_mod_384    00000000000c0670     OpensslLib:bn_nist.obj
 0005:00002108       $unwind$BN_nist_mod_521    00000000000c0688     OpensslLib:bn_nist.obj
 0005:00002124       $unwind$i2a_ASN1_STRING    00000000000c06a4     OpensslLib:f_string.obj
 0005:00002138       $unwind$probable_prime_dh  00000000000c06b8     OpensslLib:bn_prime.obj
 0005:00002150       $unwind$sc_montmul         00000000000c06d0     OpensslLib:scalar.obj
 0005:00002168       $unwind$curve448_scalar_decode_long 00000000000c06e8     OpensslLib:scalar.obj
 0005:00002184       $unwind$gf_eq              00000000000c0704     OpensslLib:f_generic.obj
 0005:0000218c       $unwind$gf_isr             00000000000c070c     OpensslLib:f_generic.obj
 0005:000021a0       $unwind$gf_mul             00000000000c0720     OpensslLib:f_impl.obj
 0005:000021b8       $unwind$SM4_set_key        00000000000c0738     OpensslLib:sm4.obj
 0005:000021c8       $unwind$CRYPTO_cbc128_encrypt 00000000000c0748     OpensslLib:cbc128.obj
 0005:000021e0       $unwind$CRYPTO_cbc128_decrypt 00000000000c0760     OpensslLib:cbc128.obj
 0005:000021f8       $unwind$CRYPTO_cfb128_1_encrypt 00000000000c0778     OpensslLib:cfb128.obj
 0005:00002210       $unwind$CRYPTO_cfb128_8_encrypt 00000000000c0790     OpensslLib:cfb128.obj
 0005:0000222c       $unwind$CRYPTO_ccm128_encrypt 00000000000c07ac     OpensslLib:ccm128.obj
 0005:00002244       $unwind$rotnr              00000000000c07c4     OpensslLib:aria.obj
 0005:00002250       $unwind$aria_set_encrypt_key 00000000000c07d0     OpensslLib:aria.obj
 0005:00002274       $unwind$aria_set_decrypt_key 00000000000c07f4     OpensslLib:aria.obj
 0005:0000228c       $unwind$CRYPTO_xts128_encrypt 00000000000c080c     OpensslLib:xts128.obj
 0005:000022a8       $unwind$AES_set_encrypt_key 00000000000c0828     OpensslLib:aes_core.obj
 0005:000022c4       $unwind$AES_decrypt        00000000000c0844     OpensslLib:aes_core.obj
 0005:000022c4       $unwind$AES_encrypt        00000000000c0844     OpensslLib:aes_core.obj
 0005:000022e0       $unwind$CRYPTO_128_wrap    00000000000c0860     OpensslLib:wrap128.obj
 0005:000022fc       $unwind$crypto_128_unwrap_raw 00000000000c087c     OpensslLib:wrap128.obj
 0005:00002314       $unwind$CRYPTO_128_unwrap_pad 00000000000c0894     OpensslLib:wrap128.obj
 0005:0000232c       $unwind$alg_module_init    00000000000c08ac     OpensslLib:evp_cnf.obj
 0005:00002340       $unwind$do_tcreate         00000000000c08c0     OpensslLib:asn_mstbl.obj
 0005:00002358       $unwind$ssl_module_init    00000000000c08d8     OpensslLib:conf_ssl.obj
 0005:00002370       $unwind$oid_module_init    00000000000c08f0     OpensslLib:asn_moid.obj
 0005:00002370       $unwind$ec_GFp_simple_is_on_curve 00000000000c08f0     OpensslLib:ecp_smpl.obj
 0005:00002370       $unwind$ec_GFp_simple_point_get_affine_coordinates 00000000000c08f0     OpensslLib:ecp_smpl.obj
 0005:0000238c       $unwind$Round              00000000000c090c     OpensslLib:keccak1600.obj
 0005:000023a4       $unwind$KeccakF1600        00000000000c0924     OpensslLib:keccak1600.obj
 0005:000023b4       $unwind$SHA3_squeeze       00000000000c0934     OpensslLib:keccak1600.obj
 0005:000023c8       $unwind$sm3_block_data_order 00000000000c0948     OpensslLib:sm3.obj
 0005:000023e0       $unwind$ec_GFp_simple_add  00000000000c0960     OpensslLib:ecp_smpl.obj
 0005:000023f8       $unwind$ec_GFp_simple_cmp  00000000000c0978     OpensslLib:ecp_smpl.obj
 0005:00002414       $unwind$QuickSortWorker    00000000000c0994     SmmCryptLib:CrtWrapper.obj
