 ArpDxe

 Timestamp is 62c3c24c (Tue Jul  5 12:47:08 2022)

 Preferred load address is 0000000000000000

 Start         Length     Name                   Class
 0001:00000000 000001d8H .text                   CODE
 0001:000001d8 0000480eH .text$mn                CODE
 0002:00000000 00001850H .rdata                  DATA
 0002:00001850 00000020H .rdata$voltmd           DATA
 0002:00001870 0000012cH .rdata$zzzdbg           DATA
 0003:00000000 00000178H .data                   DATA
 0003:00000178 00000038H .bss                    DATA
 0004:00000000 000002dcH .pdata                  DATA
 0005:00000000 000002d0H .xdata                  DATA

  Address         Publics by Value              Rva+Base               Lib:Object

 0000:00000000       __x64_code_ranges_to_entry_points_count 0000000000000000     <absolute>
 0000:00000000       __arm64x_redirection_metadata 0000000000000000     <absolute>
 0000:00000000       __x64_code_ranges_to_entry_points 0000000000000000     <absolute>
 0000:00000000       __guard_iat_table          0000000000000000     <absolute>
 0000:00000000       __guard_fids_count         0000000000000000     <absolute>
 0000:00000000       __arm64x_extra_rfe_table   0000000000000000     <absolute>
 0000:00000000       __guard_iat_count          0000000000000000     <absolute>
 0000:00000000       __guard_longjmp_count      0000000000000000     <absolute>
 0000:00000000       __dynamic_value_reloc_table 0000000000000000     <absolute>
 0000:00000000       __hybrid_code_map          0000000000000000     <absolute>
 0000:00000000       __hybrid_auxiliary_iat     0000000000000000     <absolute>
 0000:00000000       __arm64x_extra_rfe_table_size 0000000000000000     <absolute>
 0000:00000000       __hybrid_code_map_count    0000000000000000     <absolute>
 0000:00000000       __hybrid_auxiliary_iat_copy 0000000000000000     <absolute>
 0000:00000000       __guard_longjmp_table      0000000000000000     <absolute>
 0000:00000000       __AbsoluteZero             0000000000000000     <absolute>
 0000:00000000       __guard_check_icall_a64n_fptr 0000000000000000     <absolute>
 0000:00000000       __guard_fids_table         0000000000000000     <absolute>
 0000:00000000       __guard_flags              0000000000000000     <absolute>
 0000:00000000       __guard_eh_cont_count      0000000000000000     <absolute>
 0000:00000000       __arm64x_redirection_metadata_count 0000000000000000     <absolute>
 0000:00000000       __enclave_config           0000000000000000     <absolute>
 0000:00000000       __guard_eh_cont_table      0000000000000000     <absolute>
 0000:00000000       __arm64x_native_entrypoint 0000000000000000     <absolute>
 0001:00000000       InternalMemCopyMem         00000000000002c0     BaseMemoryLibRepStr:CopyMem.obj
 0001:00000040       InternalMemZeroMem         0000000000000300     BaseMemoryLibRepStr:ZeroMem.obj
 0001:00000060       InternalMemCompareMem      0000000000000320     BaseMemoryLibRepStr:CompareMem.obj
 0001:00000080       InternalMemSetMem          0000000000000340     BaseMemoryLibRepStr:SetMem.obj
 0001:000000a0       InternalMemSetMem64        0000000000000360     BaseMemoryLibRepStr:SetMem64.obj
 0001:000000c0       InternalMemSetMem32        0000000000000380     BaseMemoryLibRepStr:SetMem32.obj
 0001:000000e0       CpuPause                   00000000000003a0     BaseLib:CpuPause.obj
 0001:000000f0       TdVmCall                   00000000000003b0     BaseLib:TdVmcall.obj
 0001:00000180       TdCall                     0000000000000440     BaseLib:TdCall.obj
 0001:000001d8       _DriverUnloadHandler       0000000000000498 f   UefiDriverEntryPoint:DriverEntryPoint.obj
 0001:0000035c       _ModuleEntryPoint          000000000000061c f   UefiDriverEntryPoint:DriverEntryPoint.obj
 0001:00000470       ProcessLibraryConstructorList 0000000000000730 f   ArpDxe:AutoGen.obj
 0001:00000688       ArpCreateService           0000000000000948 f   ArpDxe:ArpDriver.obj
 0001:0000092c       ArpCleanService            0000000000000bec f   ArpDxe:ArpDriver.obj
 0001:00000a34       ArpDestroyChildEntryInHandleBuffer 0000000000000cf4 f   ArpDxe:ArpDriver.obj
 0001:00000a98       ArpDriverBindingSupported  0000000000000d58 f   ArpDxe:ArpDriver.obj
 0001:00000b1c       ArpDriverBindingStart      0000000000000ddc f   ArpDxe:ArpDriver.obj
 0001:00000bc4       ArpDriverBindingStop       0000000000000e84 f   ArpDxe:ArpDriver.obj
 0001:00000da8       ArpServiceBindingCreateChild 0000000000001068 f   ArpDxe:ArpDriver.obj
 0001:00000fd4       ArpServiceBindingDestroyChild 0000000000001294 f   ArpDxe:ArpDriver.obj
 0001:000011ac       ArpComponentNameGetDriverName 000000000000146c f   ArpDxe:ComponentName.obj
 0001:000011e0       ArpComponentNameGetControllerName 00000000000014a0 f   ArpDxe:ComponentName.obj
 0001:000012f8       ArpOnFrameRcvdDpc          00000000000015b8 f   ArpDxe:ArpImpl.obj
 0001:0000161c       ArpOnFrameRcvd             00000000000018dc f   ArpDxe:ArpImpl.obj
 0001:00001638       ArpOnFrameSentDpc          00000000000018f8 f   ArpDxe:ArpImpl.obj
 0001:000016b0       ArpOnFrameSent             0000000000001970 f   ArpDxe:ArpImpl.obj
 0001:000016cc       ArpTimerHandler            000000000000198c f   ArpDxe:ArpImpl.obj
 0001:000018bc       ArpMatchAddress            0000000000001b7c f   ArpDxe:ArpImpl.obj
 0001:0000192c       ArpFindNextCacheEntryInTable 0000000000001bec f   ArpDxe:ArpImpl.obj
 0001:000019bc       ArpFindDeniedCacheEntry    0000000000001c7c f   ArpDxe:ArpImpl.obj
 0001:00001a80       ArpAllocCacheEntry         0000000000001d40 f   ArpDxe:ArpImpl.obj
 0001:00001b48       ArpAddressResolved         0000000000001e08 f   ArpDxe:ArpImpl.obj
 0001:00001c04       ArpFillAddressInCacheEntry 0000000000001ec4 f   ArpDxe:ArpImpl.obj
 0001:00001c80       ArpConfigureInstance       0000000000001f40 f   ArpDxe:ArpImpl.obj
 0001:00001ddc       ArpSendFrame               000000000000209c f   ArpDxe:ArpImpl.obj
 0001:00002098       ArpDeleteCacheEntryInTable 0000000000002358 f   ArpDxe:ArpImpl.obj
 0001:00002180       ArpDeleteCacheEntry        0000000000002440 f   ArpDxe:ArpImpl.obj
 0001:00002224       ArpCancelRequest           00000000000024e4 f   ArpDxe:ArpImpl.obj
 0001:00002300       ArpFindCacheEntry          00000000000025c0 f   ArpDxe:ArpImpl.obj
 0001:00002654       ArpConfigure               0000000000002914 f   ArpDxe:ArpMain.obj
 0001:00002700       ArpAdd                     00000000000029c0 f   ArpDxe:ArpMain.obj
 0001:000028f8       ArpFind                    0000000000002bb8 f   ArpDxe:ArpMain.obj
 0001:00002a18       ArpDelete                  0000000000002cd8 f   ArpDxe:ArpMain.obj
 0001:00002ae4       ArpFlush                   0000000000002da4 f   ArpDxe:ArpMain.obj
 0001:00002b94       ArpRequest                 0000000000002e54 f   ArpDxe:ArpMain.obj
 0001:00002e7c       ArpCancel                  000000000000313c f   ArpDxe:ArpMain.obj
 0001:00002f60       CopyMem                    0000000000003220 f   BaseMemoryLibRepStr:CopyMemWrapper.obj
 0001:00002ffc       ZeroMem                    00000000000032bc f   BaseMemoryLibRepStr:ZeroMemWrapper.obj
 0001:0000306c       CompareMem                 000000000000332c f   BaseMemoryLibRepStr:CompareMemWrapper.obj
 0001:00003144       InternalBaseLibIsListValid 0000000000003404 f   BaseLib:LinkedList.obj
 0001:000031b0       InsertHeadList             0000000000003470 f   BaseLib:LinkedList.obj
 0001:00003200       InsertTailList             00000000000034c0 f   BaseLib:LinkedList.obj
 0001:00003254       IsListEmpty                0000000000003514 f   BaseLib:LinkedList.obj
 0001:0000328c       RemoveEntryList            000000000000354c f   BaseLib:LinkedList.obj
 0001:000032d4       DebugPrint                 0000000000003594 f   BaseDebugLibSerialPort:DebugLib.obj
 0001:000032f8       DebugPrintMarker           00000000000035b8 f   BaseDebugLibSerialPort:DebugLib.obj
 0001:000033a8       DebugAssert                0000000000003668 f   BaseDebugLibSerialPort:DebugLib.obj
 0001:00003420       InternalAllocatePool       00000000000036e0 f   UefiMemoryAllocationLib:MemoryAllocationLib.obj
 0001:00003450       AllocateZeroPool           0000000000003710 f   UefiMemoryAllocationLib:MemoryAllocationLib.obj
 0001:00003478       FreePool                   0000000000003738 f   UefiMemoryAllocationLib:MemoryAllocationLib.obj
 0001:000034bc       IsLanguageSupported        000000000000377c f   UefiLib:UefiLib.obj
 0001:00003544       LookupUnicodeString2       0000000000003804 f   UefiLib:UefiLib.obj
 0001:00003638       NetDestroyLinkList         00000000000038f8 f   DxeNetLib:DxeNetLib.obj
 0001:00003740       NetMapAllocItem            0000000000003a00 f   DxeNetLib:DxeNetLib.obj
 0001:000037e0       NetMapInsertTail           0000000000003aa0 f   DxeNetLib:DxeNetLib.obj
 0001:0000385c       AsciiStrLen                0000000000003b1c f   BaseLib:String.obj
 0001:000038c8       AsciiStrnCmp               0000000000003b88 f   BaseLib:String.obj
 0001:00003994       StrnLenS                   0000000000003c54 f   BaseLib:SafeString.obj
 0001:000039ec       AsciiSPrint                0000000000003cac f   BasePrintLib:PrintLib.obj
 0001:00003a18       BasePrintLibFillBuffer     0000000000003cd8 f   BasePrintLib:PrintLibInternal.obj
 0001:00003a4c       BasePrintLibValueToString  0000000000003d0c f   BasePrintLib:PrintLibInternal.obj
 0001:00003ab8       BasePrintLibSPrintMarker   0000000000003d78 f   BasePrintLib:PrintLibInternal.obj
 0001:000049c4       BasePrintLibSPrint         0000000000004c84 f   BasePrintLib:PrintLibInternal.obj
 0002:00000000       ??_C@_0CB@DMEJJJHA@?6ASSERT_EFI_ERROR?5?$CIStatus?5?$DN?5?$CFr?$CJ@ 0000000000004cc0     UefiDriverEntryPoint:DriverEntryPoint.obj
 0002:00000028       ??_C@_0CH@BBNBJKHK@?$CB?$CI?$CI?$CIINTN?$CJ?$CIRETURN_STATUS?$CJ?$CIStatus@ 0000000000004ce8     UefiDriverEntryPoint:DriverEntryPoint.obj
 0002:00000050       ??_C@_0EG@HIPMDNNL@d?3?2myedk2?2edk2?2MdePkg?2Library?2U@ 0000000000004d10     UefiDriverEntryPoint:DriverEntryPoint.obj
 0002:00000098       ??_C@_06GJMJHLCJ@ArpDxe@   0000000000004d58     ArpDxe:AutoGen.obj
 0002:000000a0       ??_C@_0FH@BMFMHOBL@d?3?2myedk2?2edk2?2Build?2OvmfX64?2DE@ 0000000000004d60     ArpDxe:AutoGen.obj
 0002:000000f8       ??_C@_0BL@HOPCCABG@ArpService?5?$CB?$DN?5?$CI?$CIvoid?5?$CK?$CJ?50?$CJ@ 0000000000004db8     ArpDxe:ArpDriver.obj
 0002:00000118       ??_C@_0CN@DJDFACMK@d?3?2myedk2?2edk2?2NetworkPkg?2ArpDx@ 0000000000004dd8     ArpDxe:ArpDriver.obj
 0002:00000150       ??_C@_0HH@OEMAMHMF@?$CI?$CIArpService?$CJ?5?$CB?$DN?5?$CI?$CIvoid?5?$CK?$CJ?50?$CJ?$CJ?5@ 0000000000004e10     ArpDxe:ArpDriver.obj
 0002:000001c8       ??_C@_0BF@NDBIKIKC@CR?5has?5Bad?5Signature@ 0000000000004e88     ArpDxe:ArpDriver.obj
 0002:000001e0       ??_C@_0CO@NKFGGBOK@ArpDriverBindingStop?3?5Open?5ArpS@ 0000000000004ea0     ArpDxe:ArpDriver.obj
 0002:00000210       ??_C@_0CP@DPCPFIAK@IsListEmpty?5?$CI?$CGArpService?9?$DOPendi@ 0000000000004ed0     ArpDxe:ArpDriver.obj
 0002:00000240       ??_C@_0CM@LCOLGKJA@IsListEmpty?5?$CI?$CGArpService?9?$DODenie@ 0000000000004f00     ArpDxe:ArpDriver.obj
 0002:00000270       ??_C@_0CO@JKFJMLEO@IsListEmpty?5?$CI?$CGArpService?9?$DOResol@ 0000000000004f30     ArpDxe:ArpDriver.obj
 0002:000002a0       ??_C@_0DL@LNGPHNHN@ArpSBCreateChild?3?5Failed?5to?5all@ 0000000000004f60     ArpDxe:ArpDriver.obj
 0002:000002e0       ??_C@_0DH@NDIOMJKL@ArpSBCreateChild?3?5failed?5to?5ins@ 0000000000004fa0     ArpDxe:ArpDriver.obj
 0002:00000318       ??_C@_0DO@EDBFBAPL@ArpSBDestroyChild?3?5Failed?5to?5un@ 0000000000004fd8     ArpDxe:ArpDriver.obj
 0002:00000358       ??_C@_03LKLGDMJI@eng@      0000000000005018     ArpDxe:ComponentName.obj
 0002:0000035c       ??_C@_02LFNMGJAP@en@       000000000000501c     ArpDxe:ComponentName.obj
 0002:00000360       ??_C@_06DALJLGPG@eng?$DLen@ 0000000000005020     ArpDxe:ComponentName.obj
 0002:00000368       ??_C@_1DG@MAGPPHDD@?$AAA?$AAR?$AAP?$AA?5?$AAN?$AAe?$AAt?$AAw?$AAo?$AAr?$AAk?$AA?5?$AAS?$AAe?$AAr@ 0000000000005028     ArpDxe:ComponentName.obj
 0002:000003a0       ??_C@_1BO@OPAEHCBJ@?$AAA?$AAR?$AAP?$AA?5?$AAC?$AAo?$AAn?$AAt?$AAr?$AAo?$AAl?$AAl?$AAe?$AAr@ 0000000000005060     ArpDxe:ComponentName.obj
 0002:000003c0       ??_C@_0CL@IAIBMKLB@d?3?2myedk2?2edk2?2NetworkPkg?2ArpDx@ 0000000000005080     ArpDxe:ArpImpl.obj
 0002:000003f0       ??_C@_0HD@MLDEIEGA@?$CI?$CIInstance?$CJ?5?$CB?$DN?5?$CI?$CIvoid?5?$CK?$CJ?50?$CJ?$CJ?5?$CG?$CG@ 00000000000050b0     ArpDxe:ArpImpl.obj
 0002:00000468       ??_C@_0DG@ILNKFPFJ@ArpOnFrameRcvd?3?5ArpService?9?$DOMnp@ 0000000000005128     ArpDxe:ArpImpl.obj
 0002:000004a0       ??_C@_0BI@DNICFLOF@Context?5?$CB?$DN?5?$CI?$CIvoid?5?$CK?$CJ?50?$CJ@ 0000000000005160     ArpDxe:ArpImpl.obj
 0002:000004b8       ??_C@_0CG@ONMDNHIG@ArpOnFrameSent?3?5TxToken?9?$DOStatus@ 0000000000005178     ArpDxe:ArpImpl.obj
 0002:000004e0       ??_C@_0CL@COMBBMPL@IsListEmpty?5?$CI?$CGCacheEntry?9?$DOUserR@ 00000000000051a0     ArpDxe:ArpImpl.obj
 0002:00000510       ??_C@_0CM@DKBEPGDD@?$CBIsListEmpty?5?$CI?$CGCacheEntry?9?$DOUser@ 00000000000051d0     ArpDxe:ArpImpl.obj
 0002:00000540       ??_C@_0DJ@HELGJJND@AddressOne?5?$CB?$DN?5?$CI?$CIvoid?5?$CK?$CJ?50?$CJ?5?$CG?$CG?5A@ 0000000000005200     ArpDxe:ArpImpl.obj
 0002:00000580       ??_C@_0EH@DIJFAGEB@?$CIProtocolAddress?5?$CB?$DN?5?$CI?$CIvoid?5?$CK?$CJ?50@ 0000000000005240     ArpDxe:ArpImpl.obj
 0002:000005d0       ??_C@_0EA@GLPEJEOG@ArpConfigInstance?3?5AllocatePool@ 0000000000005290     ArpDxe:ArpImpl.obj
 0002:00000610       ??_C@_0DL@LJAAHLFO@?$CIInstance?5?$CB?$DN?5?$CI?$CIvoid?5?$CK?$CJ?50?$CJ?$CJ?5?$CG?$CG?5?$CI@ 00000000000052d0     ArpDxe:ArpImpl.obj
 0002:00000650       ??_C@_0DD@FAKEBFAE@ArpSendFrame?3?5Allocate?5memory?5f@ 0000000000005310     ArpDxe:ArpImpl.obj
 0002:00000688       ??_C@_0DG@BIJDFACK@ArpSendFrame?3?5CreateEvent?5faile@ 0000000000005348     ArpDxe:ArpImpl.obj
 0002:000006c0       ??_C@_0DC@GOOFJHEK@ArpSendFrame?3?5Allocate?5memory?5f@ 0000000000005380     ArpDxe:ArpImpl.obj
 0002:000006f8       ??_C@_0DC@FCCOCOMJ@ArpSendFrame?3?5Allocate?5memory?5f@ 00000000000053b8     ArpDxe:ArpImpl.obj
 0002:00000730       ??_C@_0BH@CELONLOG@Packet?5?$CB?$DN?5?$CI?$CIvoid?5?$CK?$CJ?50?$CJ@ 00000000000053f0     ArpDxe:ArpImpl.obj
 0002:00000748       ??_C@_0BL@MDLNNGFA@Mnp?9?$DOTransmit?5failed?0?5?$CFr?4?6@ 0000000000005408     ArpDxe:ArpImpl.obj
 0002:00000768       ??_C@_0CP@EACDFCMH@ArpFindCacheEntry?3?5Failed?5to?5al@ 0000000000005428     ArpDxe:ArpImpl.obj
 0002:00000798       ??_C@_0CL@MEPFBDKB@d?3?2myedk2?2edk2?2NetworkPkg?2ArpDx@ 0000000000005458     ArpDxe:ArpMain.obj
 0002:000007c8       ??_C@_0DB@HHEDNJEI@ArpAdd?3?5Failed?5to?5allocate?5pool@ 0000000000005488     ArpDxe:ArpMain.obj
 0002:00000800       ??_C@_0DI@DMMJLIIM@ArpRequest?3?5Allocate?5memory?5for@ 00000000000054c0     ArpDxe:ArpMain.obj
 0002:00000838       ??_C@_0DE@KDEKIHAM@ArpRequest?3?5Allocate?5memory?5for@ 00000000000054f8     ArpDxe:ArpMain.obj
 0002:00000870       ??_C@_0ED@MKGCMJG@?$CILength?5?9?51?$CJ?5?$DM?$DN?5?$CI0xFFFFFFFFFFFF@ 0000000000005530     BaseMemoryLibRepStr:CopyMemWrapper.obj
 0002:000008c0       ??_C@_0ED@JAIIHABO@d?3?2myedk2?2edk2?2MdePkg?2Library?2B@ 0000000000005580     BaseMemoryLibRepStr:CopyMemWrapper.obj
 0002:00000908       ??_C@_0DO@MAOBOFEG@?$CILength?5?9?51?$CJ?5?$DM?$DN?5?$CI0xFFFFFFFFFFFF@ 00000000000055c8     BaseMemoryLibRepStr:CopyMemWrapper.obj
 0002:00000948       ??_C@_0BH@IACGKAP@Buffer?5?$CB?$DN?5?$CI?$CIvoid?5?$CK?$CJ?50?$CJ@ 0000000000005608     BaseMemoryLibRepStr:ZeroMemWrapper.obj
 0002:00000960       ??_C@_0ED@CECKBBNJ@d?3?2myedk2?2edk2?2MdePkg?2Library?2B@ 0000000000005620     BaseMemoryLibRepStr:ZeroMemWrapper.obj
 0002:000009a8       ??_C@_0DG@EEENIGGL@Length?5?$DM?$DN?5?$CI0xFFFFFFFFFFFFFFFFUL@ 0000000000005668     BaseMemoryLibRepStr:ZeroMemWrapper.obj
 0002:000009e0       ??_C@_0CC@JOEHDGKB@DestinationBuffer?5?$CB?$DN?5?$CI?$CIvoid?5?$CK?$CJ?5@ 00000000000056a0     BaseMemoryLibRepStr:CompareMemWrapper.obj
 0002:00000a10       ??_C@_0EG@FCOMBDPM@d?3?2myedk2?2edk2?2MdePkg?2Library?2B@ 00000000000056d0     BaseMemoryLibRepStr:CompareMemWrapper.obj
 0002:00000a58       ??_C@_0BN@MDMCNBCC@SourceBuffer?5?$CB?$DN?5?$CI?$CIvoid?5?$CK?$CJ?50?$CJ@ 0000000000005718     BaseMemoryLibRepStr:CompareMemWrapper.obj
 0002:00000a78       ??_C@_0BF@NJNGJMPC@List?5?$CB?$DN?5?$CI?$CIvoid?5?$CK?$CJ?50?$CJ@ 0000000000005738     BaseLib:LinkedList.obj
 0002:00000a90       ??_C@_0DD@DMMJEGIP@d?3?2myedk2?2edk2?2MdePkg?2Library?2B@ 0000000000005750     BaseLib:LinkedList.obj
 0002:00000ac8       ??_C@_0CC@KDLPLAED@List?9?$DOForwardLink?5?$CB?$DN?5?$CI?$CIvoid?5?$CK?$CJ?5@ 0000000000005788     BaseLib:LinkedList.obj
 0002:00000af0       ??_C@_0BP@IJJCCMAK@List?9?$DOBackLink?5?$CB?$DN?5?$CI?$CIvoid?5?$CK?$CJ?50?$CJ@ 00000000000057b0     BaseLib:LinkedList.obj
 0002:00000b10       ??_C@_0BJ@NJABNCDK@ListHead?5?$CB?$DN?5?$CI?$CIvoid?5?$CK?$CJ?50?$CJ@ 00000000000057d0     BaseLib:LinkedList.obj
 0002:00000b30       ??_C@_0CG@LGIALJFK@InternalBaseLibIsListValid?5?$CILis@ 00000000000057f0     BaseLib:LinkedList.obj
 0002:00000b58       ??_C@_0CC@JLDICICM@InternalBaseLibIsListValid?5?$CILis@ 0000000000005818     BaseLib:LinkedList.obj
 0002:00000b80       ??_C@_0BF@NMBJJECB@?$CBIsListEmpty?5?$CIEntry?$CJ@ 0000000000005840     BaseLib:LinkedList.obj
 0002:00000b98       ??_C@_0BH@LKMBFCBF@Format?5?$CB?$DN?5?$CI?$CIvoid?5?$CK?$CJ?50?$CJ@ 0000000000005858     BaseDebugLibSerialPort:DebugLib.obj
 0002:00000bb0       ??_C@_0EA@MCEJFCHO@d?3?2myedk2?2edk2?2MdePkg?2Library?2B@ 0000000000005870     BaseDebugLibSerialPort:DebugLib.obj
 0002:00000bf0       ??_C@_0BI@NOCKJDBJ@ASSERT?5?$FL?$CFa?$FN?5?$CFa?$CI?$CFd?$CJ?3?5?$CFa?6@ 00000000000058b0     BaseDebugLibSerialPort:DebugLib.obj
 0002:00000c08       ??_C@_0BN@COECPDCC@gImageHandle?5?$CB?$DN?5?$CI?$CIvoid?5?$CK?$CJ?50?$CJ@ 00000000000058c8     UefiBootServicesTableLib:UefiBootServicesTableLib.obj
 0002:00000c30       ??_C@_0FC@HJEJKBBP@d?3?2myedk2?2edk2?2MdePkg?2Library?2U@ 00000000000058f0     UefiBootServicesTableLib:UefiBootServicesTableLib.obj
 0002:00000c88       ??_C@_0BE@DGNHAHIL@gST?5?$CB?$DN?5?$CI?$CIvoid?5?$CK?$CJ?50?$CJ@ 0000000000005948     UefiBootServicesTableLib:UefiBootServicesTableLib.obj
 0002:00000ca0       ??_C@_0BE@BDFJLGLN@gBS?5?$CB?$DN?5?$CI?$CIvoid?5?$CK?$CJ?50?$CJ@ 0000000000005960     UefiBootServicesTableLib:UefiBootServicesTableLib.obj
 0002:00000cc0       ??_C@_0EM@BLKCBDHP@d?3?2myedk2?2edk2?2MdePkg?2Library?2U@ 0000000000005980     UefiMemoryAllocationLib:MemoryAllocationLib.obj
 0002:00000d10       ??_C@_0FG@PKIHNGDJ@d?3?2myedk2?2edk2?2MdePkg?2Library?2U@ 00000000000059d0     UefiDevicePathLibDevicePathProtocol:UefiDevicePathLib.obj
 0002:00000d68       ??_C@_0DC@CNNBPJA@mDevicePathLibDevicePathUtiliti@ 0000000000005a28     UefiDevicePathLibDevicePathProtocol:UefiDevicePathLib.obj
 0002:00000da0       ??_C@_0BE@OBDFIHND@gRT?5?$CB?$DN?5?$CI?$CIvoid?5?$CK?$CJ?50?$CJ@ 0000000000005a60     UefiRuntimeServicesTableLib:UefiRuntimeServicesTableLib.obj
 0002:00000dc0       ??_C@_0FI@ELFALICJ@d?3?2myedk2?2edk2?2MdePkg?2Library?2U@ 0000000000005a80     UefiRuntimeServicesTableLib:UefiRuntimeServicesTableLib.obj
 0002:00000e18       ??_C@_0DI@BANHGNLM@d?3?2myedk2?2edk2?2MdePkg?2Library?2U@ 0000000000005ad8     UefiLib:UefiDriverModel.obj
 0002:00000e50       ??_C@_0DI@FNJBLHID@d?3?2myedk2?2edk2?2NetworkPkg?2Libra@ 0000000000005b10     DxeNetLib:DxeNetLib.obj
 0002:00000e88       ??_C@_0BE@GMKCNDGH@Map?5?$CB?$DN?5?$CI?$CIvoid?5?$CK?$CJ?50?$CJ@ 0000000000005b48     DxeNetLib:DxeNetLib.obj
 0002:00000ea0       ??_C@_0CO@MHIOADDG@?$CIMap?9?$DOCount?5?$DN?$DN?50?$CJ?5?$CG?$CG?5IsListEmpt@ 0000000000005b60     DxeNetLib:DxeNetLib.obj
 0002:00000ed0       ??_C@_0BN@JFJNMPHO@IsListEmpty?5?$CI?$CGMap?9?$DORecycled?$CJ@ 0000000000005b90     DxeNetLib:DxeNetLib.obj
 0002:00000ef0       ??_C@_0CL@KMKICODD@Map?5?$CB?$DN?5?$CI?$CIvoid?5?$CK?$CJ?50?$CJ?5?$CG?$CG?5Key?5?$CB?$DN?5?$CI@ 0000000000005bb0     DxeNetLib:DxeNetLib.obj
 0002:00000f20       ??_C@_0CB@DNKJKBEA@Map?5?$CG?$CG?5?$CBIsListEmpty?5?$CI?$CGMap?9?$DOUsed@ 0000000000005be0     DxeNetLib:DxeNetLib.obj
 0002:00000f50       ??_C@_0EG@FMMHPKDI@?$CIServiceBindingGuid?5?$CB?$DN?5?$CI?$CIvoid?5?$CK@ 0000000000005c10     DxeNetLib:DxeNetLib.obj
 0002:00000f98       ??_C@_0DF@FLOOCGEB@d?3?2myedk2?2edk2?2NetworkPkg?2Libra@ 0000000000005c58     DxeDpcLib:DpcLib.obj
 0002:00000fd0       ??_C@_0BH@MAAHKCPC@String?5?$CB?$DN?5?$CI?$CIvoid?5?$CK?$CJ?50?$CJ@ 0000000000005c90     BaseLib:String.obj
 0002:00000fe8       ??_C@_0CP@DJBLNMJI@d?3?2myedk2?2edk2?2MdePkg?2Library?2B@ 0000000000005ca8     BaseLib:String.obj
 0002:00001018       ??_C@_0CC@GFNLNIOC@?$CI?$CIUINTN?$CJString?5?$CG?50x00000001?$CJ?5?$DN?$DN@ 0000000000005cd8     BaseLib:String.obj
 0002:00001040       ??_C@_0DI@MDIKFADO@Length?5?$DM?5_gPcd_FixedAtBuild_Pcd@ 0000000000005d00     BaseLib:String.obj
 0002:00001078       ??_C@_0BL@IKFBNFIL@AsciiStrSize?5?$CIFirstString?$CJ@ 0000000000005d38     BaseLib:String.obj
 0002:00001098       ??_C@_0BM@EDNOKLLE@AsciiStrSize?5?$CISecondString?$CJ@ 0000000000005d58     BaseLib:String.obj
 0002:000010b8       ??_C@_0DJ@JJHGIFMP@Length?5?$DM?$DN?5_gPcd_FixedAtBuild_Pc@ 0000000000005d78     BaseLib:String.obj
 0002:000010f8       ??_C@_0DC@DDBICJIK@d?3?2myedk2?2edk2?2MdePkg?2Library?2B@ 0000000000005db8     BaseLib:Unaligned.obj
 0002:00001130       ??_C@_0DD@OKIGPFG@d?3?2myedk2?2edk2?2MdePkg?2Library?2B@ 0000000000005df0     BaseLib:SafeString.obj
 0002:00001168       ??_C@_0BJ@CNKJJNE@?$CIBuffer?5?$CB?$DN?5?$CI?$CIvoid?5?$CK?$CJ?50?$CJ?$CJ@ 0000000000005e28     BaseLib:SafeString.obj
 0002:00001188       ??_C@_0N@KGHEHMDL@Divisor?5?$CB?$DN?50@ 0000000000005e48     BaseLib:DivU64x32.obj
 0002:00001198       ??_C@_0DO@DLJLNPNA@d?3?2myedk2?2edk2?2MdePkg?2Library?2B@ 0000000000005e58     BasePrintLib:PrintLibInternal.obj
 0002:000011e0       ??_C@_0EB@HDGIDCIO@?$CIBufferSize?5?$DM?$DN?5?$CI_gPcd_FixedAtBu@ 0000000000005ea0     BasePrintLib:PrintLibInternal.obj
 0002:00001228       ??_C@_0BJ@PPAKKDJG@?$CIFormat?5?$CB?$DN?5?$CI?$CIvoid?5?$CK?$CJ?50?$CJ?$CJ@ 0000000000005ee8     BasePrintLib:PrintLibInternal.obj
 0002:00001250       ??_C@_0ED@LPDDCECB@?$CIBufferSize?5?$DM?$DN?5?$CI_gPcd_FixedAtBu@ 0000000000005f10     BasePrintLib:PrintLibInternal.obj
 0002:000012a0       ??_C@_0IM@BFJJFLGB@?$CIStrnLenS?5?$CI?$CICHAR16?5?$CK?$CJFormat?0?5?$CI_@ 0000000000005f60     BasePrintLib:PrintLibInternal.obj
 0002:00001330       ??_C@_0ID@PLGJGION@?$CIAsciiStrnLenS?5?$CIFormat?0?5?$CI_gPcd_@ 0000000000005ff0     BasePrintLib:PrintLibInternal.obj
 0002:000013b8       ??_C@_0O@MLOLIMFM@?$DMnull?5string?$DO@ 0000000000006078     BasePrintLib:PrintLibInternal.obj
 0002:000013c8       ??_C@_0M@BJJDNPHK@?$DMnull?5guid?$DO@ 0000000000006088     BasePrintLib:PrintLibInternal.obj
 0002:000013d8       ??_C@_0DB@PMLHLBMO@?$CF08x?9?$CF04x?9?$CF04x?9?$CF02x?$CF02x?9?$CF02x?$CF02@ 0000000000006098     BasePrintLib:PrintLibInternal.obj
 0002:00001410       ??_C@_0M@LHGBCIKM@?$DMnull?5time?$DO@ 00000000000060d0     BasePrintLib:PrintLibInternal.obj
 0002:00001420       ??_C@_0BK@FCPKCIDD@?$CF02d?1?$CF02d?1?$CF04d?5?5?$CF02d?3?$CF02d@ 00000000000060e0     BasePrintLib:PrintLibInternal.obj
 0002:0000143c       ??_C@_04JIMNDDED@?$CF08X@  00000000000060fc     BasePrintLib:PrintLibInternal.obj
 0002:00001444       ??_C@_02PCIJFNDE@?$AN?6@   0000000000006104     BasePrintLib:PrintLibInternal.obj
 0002:00001448       ??_C@_01LIIJDEN@?$AN@      0000000000006108     BasePrintLib:PrintLibInternal.obj
 0002:00001450       mWarningString             0000000000006110     BasePrintLib:PrintLibInternal.obj
 0002:000014f0       mErrorString               00000000000061b0     BasePrintLib:PrintLibInternal.obj
 0002:000017b0       mHexStr                    0000000000006470     BasePrintLib:PrintLibInternal.obj
 0002:000017c0       ??_C@_0DL@JEBMKBEC@d?3?2myedk2?2edk2?2MdePkg?2Library?2B@ 0000000000006480     BaseLib:DivU64x32Remainder.obj
 0002:00001850       __volatile_metadata        0000000000006510     <linker-defined>
 0003:00000000       gEfiLoadedImageProtocolGuid 0000000000006660     ArpDxe:AutoGen.obj
 0003:00000010       gEfiComponentName2ProtocolGuid 0000000000006670     ArpDxe:AutoGen.obj
 0003:00000020       gEfiDevicePathUtilitiesProtocolGuid 0000000000006680     ArpDxe:AutoGen.obj
 0003:00000030       gEfiManagedNetworkServiceBindingProtocolGuid 0000000000006690     ArpDxe:AutoGen.obj
 0003:00000040       gEfiDriverBindingProtocolGuid 00000000000066a0     ArpDxe:AutoGen.obj
 0003:00000050       gEfiArpServiceBindingProtocolGuid 00000000000066b0     ArpDxe:AutoGen.obj
 0003:00000060       gEfiComponentNameProtocolGuid 00000000000066c0     ArpDxe:AutoGen.obj
 0003:00000070       gEfiDpcProtocolGuid        00000000000066d0     ArpDxe:AutoGen.obj
 0003:00000080       gEfiManagedNetworkProtocolGuid 00000000000066e0     ArpDxe:AutoGen.obj
 0003:00000090       gEfiArpProtocolGuid        00000000000066f0     ArpDxe:AutoGen.obj
 0003:000000a0       gArpDriverBinding          0000000000006700     ArpDxe:ArpDriver.obj
 0003:000000d0       gArpComponentName2         0000000000006730     ArpDxe:ComponentName.obj
 0003:000000e8       gArpComponentName          0000000000006748     ArpDxe:ComponentName.obj
 0003:00000100       mArpDriverNameTable        0000000000006760     ArpDxe:ComponentName.obj
 0003:00000120       mArpControllerNameTable    0000000000006780     ArpDxe:ComponentName.obj
 0003:00000140       mEfiArpProtocolTemplate    00000000000067a0     ArpDxe:ArpImpl.obj
 0003:00000178       gST                        00000000000067d8     UefiBootServicesTableLib:UefiBootServicesTableLib.obj
 0003:00000180       gBS                        00000000000067e0     UefiBootServicesTableLib:UefiBootServicesTableLib.obj
 0003:00000188       gImageHandle               00000000000067e8     UefiBootServicesTableLib:UefiBootServicesTableLib.obj
 0003:00000190       mDevicePathLibDevicePathUtilities 00000000000067f0     UefiDevicePathLibDevicePathProtocol:UefiDevicePathLib.obj
 0003:00000198       gRT                        00000000000067f8     UefiRuntimeServicesTableLib:UefiRuntimeServicesTableLib.obj
 0003:000001a0       gParity                    0000000000006800     PcAtSerialPortLib:SerialPortLib.obj
 0003:000001a1       gBreakSet                  0000000000006801     PcAtSerialPortLib:SerialPortLib.obj
 0003:000001a8       mDpc                       0000000000006808     <common>

 entry point at        0001:0000035c

 Static symbols

 0001:0000001a       InternalMemCopyMem.0       00000000000002da     BaseMemoryLibRepStr:CopyMem.obj
 0001:0000002a       @CopyBackward              00000000000002ea     BaseMemoryLibRepStr:CopyMem.obj
 0001:00000033       @CopyBytes                 00000000000002f3     BaseMemoryLibRepStr:CopyMem.obj
 0001:0000014e       TdVmCall.no_return_data    000000000000040e     BaseLib:TdVmcall.obj
 0001:000001cb       TdCall.exit                000000000000048b     BaseLib:TdCall.obj
 0005:00000000       $unwind$_DriverUnloadHandler 0000000000006b00     UefiDriverEntryPoint:DriverEntryPoint.obj
 0005:00000010       $unwind$_ModuleEntryPoint  0000000000006b10     UefiDriverEntryPoint:DriverEntryPoint.obj
 0005:0000001c       $unwind$ProcessLibraryConstructorList 0000000000006b1c     ArpDxe:AutoGen.obj
 0005:0000002c       $unwind$ArpCreateService   0000000000006b2c     ArpDxe:ArpDriver.obj
 0005:00000044       $unwind$ArpCleanService    0000000000006b44     ArpDxe:ArpDriver.obj
 0005:00000050       $unwind$InsertHeadList     0000000000006b50     BaseLib:LinkedList.obj
 0005:00000050       $unwind$InsertTailList     0000000000006b50     BaseLib:LinkedList.obj
 0005:00000050       $unwind$AsciiStrLen        0000000000006b50     BaseLib:String.obj
 0005:00000050       $unwind$ZeroMem            0000000000006b50     BaseMemoryLibRepStr:ZeroMemWrapper.obj
 0005:00000050       $unwind$ArpDestroyChildEntryInHandleBuffer 0000000000006b50     ArpDxe:ArpDriver.obj
 0005:00000050       $unwind$ArpMatchAddress    0000000000006b50     ArpDxe:ArpImpl.obj
 0005:00000050       $unwind$ArpOnFrameSentDpc  0000000000006b50     ArpDxe:ArpImpl.obj
 0005:00000050       $unwind$ArpFlush           0000000000006b50     ArpDxe:ArpMain.obj
 0005:00000050       $unwind$NetMapAllocItem    0000000000006b50     DxeNetLib:DxeNetLib.obj
 0005:0000005c       $unwind$ArpDriverBindingSupported 0000000000006b5c     ArpDxe:ArpDriver.obj
 0005:00000068       $unwind$ArpDriverBindingStart 0000000000006b68     ArpDxe:ArpDriver.obj
 0005:00000074       $unwind$ArpDriverBindingStop 0000000000006b74     ArpDxe:ArpDriver.obj
 0005:00000088       $unwind$ArpServiceBindingCreateChild 0000000000006b88     ArpDxe:ArpDriver.obj
 0005:000000a0       $unwind$ArpServiceBindingDestroyChild 0000000000006ba0     ArpDxe:ArpDriver.obj
 0005:000000b4       $unwind$ArpComponentNameGetDriverName 0000000000006bb4     ArpDxe:ComponentName.obj
 0005:000000bc       $unwind$ArpComponentNameGetControllerName 0000000000006bbc     ArpDxe:ComponentName.obj
 0005:000000d0       $unwind$ArpOnFrameRcvdDpc  0000000000006bd0     ArpDxe:ArpImpl.obj
 0005:000000f0       $unwind$ArpTimerHandler    0000000000006bf0     ArpDxe:ArpImpl.obj
 0005:00000108       $unwind$ArpFindNextCacheEntryInTable 0000000000006c08     ArpDxe:ArpImpl.obj
 0005:00000120       $unwind$ArpFindDeniedCacheEntry 0000000000006c20     ArpDxe:ArpImpl.obj
 0005:00000130       $unwind$AsciiStrnCmp       0000000000006c30     BaseLib:String.obj
 0005:00000130       $unwind$BasePrintLibValueToString 0000000000006c30     BasePrintLib:PrintLibInternal.obj
 0005:00000130       $unwind$IsLanguageSupported 0000000000006c30     UefiLib:UefiLib.obj
 0005:00000130       $unwind$ArpAllocCacheEntry 0000000000006c30     ArpDxe:ArpImpl.obj
 0005:00000130       $unwind$ArpConfigure       0000000000006c30     ArpDxe:ArpMain.obj
 0005:00000130       $unwind$NetMapInsertTail   0000000000006c30     DxeNetLib:DxeNetLib.obj
 0005:00000140       $unwind$ArpAddressResolved 0000000000006c40     ArpDxe:ArpImpl.obj
 0005:0000015c       $unwind$ArpFillAddressInCacheEntry 0000000000006c5c     ArpDxe:ArpImpl.obj
 0005:0000016c       $unwind$ArpConfigureInstance 0000000000006c6c     ArpDxe:ArpImpl.obj
 0005:0000017c       $unwind$ArpSendFrame       0000000000006c7c     ArpDxe:ArpImpl.obj
 0005:00000194       $unwind$ArpCancelRequest   0000000000006c94     ArpDxe:ArpImpl.obj
 0005:00000194       $unwind$ArpDeleteCacheEntryInTable 0000000000006c94     ArpDxe:ArpImpl.obj
 0005:000001b0       $unwind$ArpDeleteCacheEntry 0000000000006cb0     ArpDxe:ArpImpl.obj
 0005:000001c8       $unwind$ArpFindCacheEntry  0000000000006cc8     ArpDxe:ArpImpl.obj
 0005:000001e8       $unwind$ArpAdd             0000000000006ce8     ArpDxe:ArpMain.obj
 0005:00000208       $unwind$ArpFind            0000000000006d08     ArpDxe:ArpMain.obj
 0005:00000224       $unwind$CompareMem         0000000000006d24     BaseMemoryLibRepStr:CompareMemWrapper.obj
 0005:00000224       $unwind$CopyMem            0000000000006d24     BaseMemoryLibRepStr:CopyMemWrapper.obj
 0005:00000224       $unwind$ArpCancel          0000000000006d24     ArpDxe:ArpMain.obj
 0005:00000224       $unwind$ArpDelete          0000000000006d24     ArpDxe:ArpMain.obj
 0005:00000224       $unwind$NetDestroyLinkList 0000000000006d24     DxeNetLib:DxeNetLib.obj
 0005:00000238       $unwind$ArpRequest         0000000000006d38     ArpDxe:ArpMain.obj
 0005:00000258       $unwind$InternalBaseLibIsListValid 0000000000006d58     BaseLib:LinkedList.obj
 0005:00000258       $unwind$IsListEmpty        0000000000006d58     BaseLib:LinkedList.obj
 0005:00000258       $unwind$RemoveEntryList    0000000000006d58     BaseLib:LinkedList.obj
 0005:00000258       $unwind$StrnLenS           0000000000006d58     BaseLib:SafeString.obj
 0005:00000258       $unwind$AllocateZeroPool   0000000000006d58     UefiMemoryAllocationLib:MemoryAllocationLib.obj
 0005:00000260       $unwind$DebugPrint         0000000000006d60     BaseDebugLibSerialPort:DebugLib.obj
 0005:00000268       $unwind$DebugPrintMarker   0000000000006d68     BaseDebugLibSerialPort:DebugLib.obj
 0005:0000027c       $unwind$DebugAssert        0000000000006d7c     BaseDebugLibSerialPort:DebugLib.obj
 0005:00000284       $unwind$FreePool           0000000000006d84     UefiMemoryAllocationLib:MemoryAllocationLib.obj
 0005:00000284       $unwind$InternalAllocatePool 0000000000006d84     UefiMemoryAllocationLib:MemoryAllocationLib.obj
 0005:0000028c       $unwind$LookupUnicodeString2 0000000000006d8c     UefiLib:UefiLib.obj
 0005:000002a4       $unwind$AsciiSPrint        0000000000006da4     BasePrintLib:PrintLib.obj
 0005:000002ac       $unwind$BasePrintLibSPrintMarker 0000000000006dac     BasePrintLib:PrintLibInternal.obj
 0005:000002c8       $unwind$BasePrintLibSPrint 0000000000006dc8     BasePrintLib:PrintLibInternal.obj
