 SecurityStubDxe

 Timestamp is 62c3c338 (Tue Jul  5 12:51:04 2022)

 Preferred load address is 0000000000000000

 Start         Length     Name                   Class
 0001:00000000 00000384H .text                   CODE
 0001:00000384 0006c169H .text$mn                CODE
 0002:00000000 0003df24H .rdata                  DATA
 0002:0003df24 0000057cH .rdata$voltmd           DATA
 0002:0003e4a0 00000154H .rdata$zzzdbg           DATA
 0003:00000000 00000ee0H .data                   DATA
 0003:00000ee0 00000c08H .bss                    DATA
 0004:00000000 00003df8H .pdata                  DATA
 0005:00000000 000022e8H .xdata                  DATA

  Address         Publics by Value              Rva+Base               Lib:Object

 0000:00000000       __guard_longjmp_count      0000000000000000     <absolute>
 0000:00000000       __guard_iat_count          0000000000000000     <absolute>
 0000:00000000       __hybrid_auxiliary_iat     0000000000000000     <absolute>
 0000:00000000       __guard_iat_table          0000000000000000     <absolute>
 0000:00000000       __hybrid_auxiliary_iat_copy 0000000000000000     <absolute>
 0000:00000000       __arm64x_redirection_metadata 0000000000000000     <absolute>
 0000:00000000       __x64_code_ranges_to_entry_points_count 0000000000000000     <absolute>
 0000:00000000       __AbsoluteZero             0000000000000000     <absolute>
 0000:00000000       __guard_check_icall_a64n_fptr 0000000000000000     <absolute>
 0000:00000000       __dynamic_value_reloc_table 0000000000000000     <absolute>
 0000:00000000       __guard_longjmp_table      0000000000000000     <absolute>
 0000:00000000       __x64_code_ranges_to_entry_points 0000000000000000     <absolute>
 0000:00000000       __guard_fids_table         0000000000000000     <absolute>
 0000:00000000       __guard_fids_count         0000000000000000     <absolute>
 0000:00000000       __arm64x_extra_rfe_table   0000000000000000     <absolute>
 0000:00000000       __hybrid_code_map          0000000000000000     <absolute>
 0000:00000000       __arm64x_extra_rfe_table_size 0000000000000000     <absolute>
 0000:00000000       __arm64x_redirection_metadata_count 0000000000000000     <absolute>
 0000:00000000       __enclave_config           0000000000000000     <absolute>
 0000:00000000       __guard_eh_cont_table      0000000000000000     <absolute>
 0000:00000000       __arm64x_native_entrypoint 0000000000000000     <absolute>
 0000:00000000       __guard_flags              0000000000000000     <absolute>
 0000:00000000       __guard_eh_cont_count      0000000000000000     <absolute>
 0000:00000000       __hybrid_code_map_count    0000000000000000     <absolute>
 0000:00000000       __ImageBase                0000000000000000     <linker-defined>
 0001:00000000       InternalMemCopyMem         00000000000002c0     BaseMemoryLibRepStr:CopyMem.obj
 0001:00000040       InternalMemCompareMem      0000000000000300     BaseMemoryLibRepStr:CompareMem.obj
 0001:00000060       CpuPause                   0000000000000320     BaseLib:CpuPause.obj
 0001:00000070       InternalMemSetMem          0000000000000330     BaseMemoryLibRepStr:SetMem.obj
 0001:00000090       InternalMemZeroMem         0000000000000350     BaseMemoryLibRepStr:ZeroMem.obj
 0001:000000b0       InternalMemSetMem64        0000000000000370     BaseMemoryLibRepStr:SetMem64.obj
 0001:000000d0       InternalMemSetMem32        0000000000000390     BaseMemoryLibRepStr:SetMem32.obj
 0001:000000f0       TdVmCall                   00000000000003b0     BaseLib:TdVmcall.obj
 0001:00000180       EnableInterrupts           0000000000000440     BaseLib:EnableInterrupts.obj
 0001:00000190       DisableInterrupts          0000000000000450     BaseLib:DisableInterrupts.obj
 0001:000001a0       AsmReadEflags              0000000000000460     BaseLib:ReadEflags.obj
 0001:000001b0       AsmInterruptHandle         0000000000000470     PeCoffExtraActionLib:IntHandler.obj
 0001:000001c0       InternalMemScanMem8        0000000000000480     BaseMemoryLibRepStr:ScanMem8.obj
 0001:000001e0       InternalMemScanMem64       00000000000004a0     BaseMemoryLibRepStr:ScanMem64.obj
 0001:00000200       InternalMemScanMem32       00000000000004c0     BaseMemoryLibRepStr:ScanMem32.obj
 0001:00000220       TdCall                     00000000000004e0     BaseLib:TdCall.obj
 0001:00000280       AsmWriteDr2                0000000000000540     BaseLib:WriteDr2.obj
 0001:00000290       AsmWriteDr3                0000000000000550     BaseLib:WriteDr3.obj
 0001:000002a0       AsmCpuid                   0000000000000560     BaseLib:CpuId.obj
 0001:000002d0       AsmWriteCr4                0000000000000590     BaseLib:WriteCr4.obj
 0001:000002e0       AsmWriteDr1                00000000000005a0     BaseLib:WriteDr1.obj
 0001:000002f0       AsmReadDr2                 00000000000005b0     BaseLib:ReadDr2.obj
 0001:00000300       AsmWriteDr7                00000000000005c0     BaseLib:WriteDr7.obj
 0001:00000310       AsmReadDr0                 00000000000005d0     BaseLib:ReadDr0.obj
 0001:00000320       AsmWriteDr0                00000000000005e0     BaseLib:WriteDr0.obj
 0001:00000330       AsmReadDr7                 00000000000005f0     BaseLib:ReadDr7.obj
 0001:00000340       AsmReadDr1                 0000000000000600     BaseLib:ReadDr1.obj
 0001:00000350       AsmReadDr3                 0000000000000610     BaseLib:ReadDr3.obj
 0001:00000360       AsmReadCr4                 0000000000000620     BaseLib:ReadCr4.obj
 0001:00000370       AsmReadCs                  0000000000000630     BaseLib:ReadCs.obj
 0001:00000380       InternalX86ReadIdtr        0000000000000640     BaseLib:ReadIdtr.obj
 0001:00000384       _ModuleEntryPoint          0000000000000644 f   UefiDriverEntryPoint:DriverEntryPoint.obj
 0001:00000398       ProcessLibraryConstructorList 0000000000000658 f   SecurityStubDxe:AutoGen.obj
 0001:0000078c       SecurityStubAuthenticateState 0000000000000a4c f   SecurityStubDxe:SecurityStub.obj
 0001:000007cc       Security2StubAuthenticate  0000000000000a8c f   SecurityStubDxe:SecurityStub.obj
 0001:00000834       SecurityStubInitialize     0000000000000af4 f   SecurityStubDxe:SecurityStub.obj
 0001:00000a84       LookupImage                0000000000000d44 f   SecurityStubDxe:Defer3rdPartyImageLoad.obj
 0001:00000b3c       GetDefferedImageInfo       0000000000000dfc f   SecurityStubDxe:Defer3rdPartyImageLoad.obj
 0001:00000c60       EndOfDxe                   0000000000000f20 f   SecurityStubDxe:Defer3rdPartyImageLoad.obj
 0001:00000c68       DxeSmmReadyToLock          0000000000000f28 f   SecurityStubDxe:Defer3rdPartyImageLoad.obj
 0001:00000cf0       Defer3rdPartyImageLoad     0000000000000fb0 f   SecurityStubDxe:Defer3rdPartyImageLoad.obj
 0001:00000e80       CopyMem                    0000000000001140 f   BaseMemoryLibRepStr:CopyMemWrapper.obj
 0001:00000f1c       CompareMem                 00000000000011dc f   BaseMemoryLibRepStr:CompareMemWrapper.obj
 0001:00000ff4       DebugPrint                 00000000000012b4 f   BaseDebugLibSerialPort:DebugLib.obj
 0001:00001018       DebugPrintMarker           00000000000012d8 f   BaseDebugLibSerialPort:DebugLib.obj
 0001:000010c8       DebugAssert                0000000000001388 f   BaseDebugLibSerialPort:DebugLib.obj
 0001:00001140       AllocatePool               0000000000001400 f   UefiMemoryAllocationLib:MemoryAllocationLib.obj
 0001:00001174       InternalAllocateZeroPool   0000000000001434 f   UefiMemoryAllocationLib:MemoryAllocationLib.obj
 0001:000011c0       InternalReallocatePool     0000000000001480 f   UefiMemoryAllocationLib:MemoryAllocationLib.obj
 0001:00001228       FreePool                   00000000000014e8 f   UefiMemoryAllocationLib:MemoryAllocationLib.obj
 0001:0000126c       NextDevicePathNode         000000000000152c f   UefiDevicePathLibDevicePathProtocol:UefiDevicePathLib.obj
 0001:000012dc       UefiDevicePathLibLocateProtocol 000000000000159c f   UefiDevicePathLibDevicePathProtocol:UefiDevicePathLib.obj
 0001:00001318       EfiGetSystemConfigurationTable 00000000000015d8 f   UefiLib:UefiLib.obj
 0001:000013dc       GetEfiGlobalVariable2      000000000000169c f   UefiLib:UefiLib.obj
 0001:000014d4       GetHobList                 0000000000001794 f   DxeHobLib:HobLib.obj
 0001:00001558       ExecuteSecurityHandlers    0000000000001818 f   DxeSecurityManagementLib:DxeSecurityManagementLib.obj
 0001:000016d0       ExecuteSecurity2Handlers   0000000000001990 f   DxeSecurityManagementLib:DxeSecurityManagementLib.obj
 0001:00001798       InternalReportStatusCode   0000000000001a58 f   DxeReportStatusCodeLib:ReportStatusCodeLib.obj
 0001:00001824       DxeImageVerificationLibImageRead 0000000000001ae4 f   DxeImageVerificationLib:DxeImageVerificationLib.obj
 0001:00001918       GetImageType               0000000000001bd8 f   DxeImageVerificationLib:DxeImageVerificationLib.obj
 0001:00001b30       HashPeImage                0000000000001df0 f   DxeImageVerificationLib:DxeImageVerificationLib.obj
 0001:00001ee4       AddImageExeInfo            00000000000021a4 f   DxeImageVerificationLib:DxeImageVerificationLib.obj
 0001:00002148       IsCertHashFoundInDbx       0000000000002408 f   DxeImageVerificationLib:DxeImageVerificationLib.obj
 0001:00002438       IsSignatureFoundInDatabase 00000000000026f8 f   DxeImageVerificationLib:DxeImageVerificationLib.obj
 0001:0000260c       PassTimestampCheck         00000000000028cc f   DxeImageVerificationLib:DxeImageVerificationLib.obj
 0001:000027e4       IsForbiddenByDbx           0000000000002aa4 f   DxeImageVerificationLib:DxeImageVerificationLib.obj
 0001:00002ae4       IsAllowedByDb              0000000000002da4 f   DxeImageVerificationLib:DxeImageVerificationLib.obj
 0001:00002d88       DxeImageVerificationHandler 0000000000003048 f   DxeImageVerificationLib:DxeImageVerificationLib.obj
 0001:0000336c       OnReadyToBoot              000000000000362c f   DxeImageVerificationLib:DxeImageVerificationLib.obj
 0001:000033d4       AddDataMeasured            0000000000003694 f   DxeImageVerificationLib:Measurement.obj
 0001:00003588       IsDataMeasured             0000000000003848 f   DxeImageVerificationLib:Measurement.obj
 0001:00003648       MeasureVariable            0000000000003908 f   DxeImageVerificationLib:Measurement.obj
 0001:00003730       SecureBootHook             00000000000039f0 f   DxeImageVerificationLib:Measurement.obj
 0001:00003808       GetPcdProtocol             0000000000003ac8 f   DxePcdLib:DxePcdLib.obj
 0001:00003894       SetMem                     0000000000003b54 f   BaseMemoryLibRepStr:SetMemWrapper.obj
 0001:000038f8       ZeroMem                    0000000000003bb8 f   BaseMemoryLibRepStr:ZeroMemWrapper.obj
 0001:00003968       CompareGuid                0000000000003c28 f   BaseMemoryLibRepStr:MemLibGuid.obj
 0001:00003a2c       StrLen                     0000000000003cec f   BaseLib:String.obj
 0001:00003ab4       StrCmp                     0000000000003d74 f   BaseLib:String.obj
 0001:00003b5c       AsciiStrLen                0000000000003e1c f   BaseLib:String.obj
 0001:00003bc8       AsciiStrCmp                0000000000003e88 f   BaseLib:String.obj
 0001:00003c54       AsciiStriCmp               0000000000003f14 f   BaseLib:String.obj
 0001:00003d40       AsciiStrnCmp               0000000000004000 f   BaseLib:String.obj
 0001:00003e0c       StrnLenS                   00000000000040cc f   BaseLib:SafeString.obj
 0001:00003e64       AsciiStrnCpyS              0000000000004124 f   BaseLib:SafeString.obj
 0001:00003fb4       AsciiStrCatS               0000000000004274 f   BaseLib:SafeString.obj
 0001:00004128       AsciiStrDecimalToUintnS    00000000000043e8 f   BaseLib:SafeString.obj
 0001:00004240       IoRead32                   0000000000004500 f   BaseIoLibIntrinsicSev:IoLibMsc.obj
 0001:00004274       AsciiSPrint                0000000000004534 f   BasePrintLib:PrintLib.obj
 0001:000042a0       BasePrintLibFillBuffer     0000000000004560 f   BasePrintLib:PrintLibInternal.obj
 0001:000042d4       BasePrintLibValueToString  0000000000004594 f   BasePrintLib:PrintLibInternal.obj
 0001:00004324       BasePrintLibSPrintMarker   00000000000045e4 f   BasePrintLib:PrintLibInternal.obj
 0001:00005230       BasePrintLibSPrint         00000000000054f0 f   BasePrintLib:PrintLibInternal.obj
 0001:00005254       EfiCreateEventReadyToBootEx 0000000000005514 f   UefiLib:UefiNotTiano.obj
 0001:000052f8       PciExpressRead32           00000000000055b8 f   BasePciExpressLib:PciExpressLib.obj
 0001:00005348       PciCf8Read32               0000000000005608 f   BasePciCf8Lib:PciCf8Lib.obj
 0001:000053e8       GetFileBufferByFilePath    00000000000056a8 f   DxeServicesLib:DxeServicesLib.obj
 0001:000059ac       PeCoffLoaderGetPeHeader    0000000000005c6c f   BasePeCoffLib:BasePeCoff.obj
 0001:00005ea8       PeCoffLoaderGetImageInfo   0000000000006168 f   BasePeCoffLib:BasePeCoff.obj
 0001:00006218       Sha1GetContextSize         00000000000064d8 f   BaseCryptLib:CryptSha1.obj
 0001:00006220       Sha1Init                   00000000000064e0 f   BaseCryptLib:CryptSha1.obj
 0001:00006230       Sha1Update                 00000000000064f0 f   BaseCryptLib:CryptSha1.obj
 0001:00006248       Sha1Final                  0000000000006508 f   BaseCryptLib:CryptSha1.obj
 0001:00006264       Sha512GetContextSize       0000000000006524 f   BaseCryptLib:CryptSha512.obj
 0001:00006264       Sha384GetContextSize       0000000000006524 f   BaseCryptLib:CryptSha512.obj
 0001:0000626c       Sha384Init                 000000000000652c f   BaseCryptLib:CryptSha512.obj
 0001:0000627c       Sha384Update               000000000000653c f   BaseCryptLib:CryptSha512.obj
 0001:0000627c       Sha512Update               000000000000653c f   BaseCryptLib:CryptSha512.obj
 0001:00006294       Sha384Final                0000000000006554 f   BaseCryptLib:CryptSha512.obj
 0001:00006294       Sha512Final                0000000000006554 f   BaseCryptLib:CryptSha512.obj
 0001:000062b0       Sha512Init                 0000000000006570 f   BaseCryptLib:CryptSha512.obj
 0001:000062c0       WrapPkcs7Data              0000000000006580 f   BaseCryptLib:CryptPkcs7VerifyCommon.obj
 0001:000063cc       X509PopCertificate         000000000000668c f   BaseCryptLib:CryptPkcs7VerifyCommon.obj
 0001:000064dc       Pkcs7GetSigners            000000000000679c f   BaseCryptLib:CryptPkcs7VerifyCommon.obj
 0001:00006800       Pkcs7Verify                0000000000006ac0 f   BaseCryptLib:CryptPkcs7VerifyCommon.obj
 0001:00006a90       Sha256GetContextSize       0000000000006d50 f   BaseCryptLib:CryptSha256.obj
 0001:00006a98       Sha256Init                 0000000000006d58 f   BaseCryptLib:CryptSha256.obj
 0001:00006aa8       Sha256Update               0000000000006d68 f   BaseCryptLib:CryptSha256.obj
 0001:00006ac0       Sha256Final                0000000000006d80 f   BaseCryptLib:CryptSha256.obj
 0001:00006adc       AuthenticodeVerify         0000000000006d9c f   BaseCryptLib:CryptAuthenticode.obj
 0001:00006c7c       ConvertAsn1TimeToEfiTime   0000000000006f3c f   BaseCryptLib:CryptTs.obj
 0001:00006e88       CheckTSTInfo               0000000000007148 f   BaseCryptLib:CryptTs.obj
 0001:00006fe0       TimestampTokenVerify       00000000000072a0 f   BaseCryptLib:CryptTs.obj
 0001:000072e4       ImageTimestampVerify       00000000000075a4 f   BaseCryptLib:CryptTs.obj
 0001:000074d4       malloc                     0000000000007794 f   BaseCryptLib:BaseMemAllocation.obj
 0001:00007500       free                       00000000000077c0 f   BaseCryptLib:BaseMemAllocation.obj
 0001:0000753c       DivU64x32Remainder         00000000000077fc f   BaseLib:DivU64x32Remainder.obj
 0001:0000759c       SaveAndDisableInterrupts   000000000000785c f   BaseLib:Cpu.obj
 0001:000075c0       MmioRead32                 0000000000007880 f   BaseIoLibIntrinsicSev:IoLib.obj
 0001:000075f0       SHA1_Update                00000000000078b0 f   OpensslLib:sha1dgst.obj
 0001:00007704       SHA1_Final                 00000000000079c4 f   OpensslLib:sha1dgst.obj
 0001:00007850       SHA1_Init                  0000000000007b10 f   OpensslLib:sha1dgst.obj
 0001:00007b68       SHA384_Init                0000000000007e28 f   OpensslLib:sha512.obj
 0001:00007bf8       SHA512_Init                0000000000007eb8 f   OpensslLib:sha512.obj
 0001:00007c88       SHA512_Final               0000000000007f48 f   OpensslLib:sha512.obj
 0001:00007fc8       SHA512_Update              0000000000008288 f   OpensslLib:sha512.obj
 0001:000080cc       SHA512                     000000000000838c f   OpensslLib:sha512.obj
 0001:000085f0       X509_STORE_new             00000000000088b0 f   OpensslLib:x509_lu.obj
 0001:00008748       X509_STORE_free            0000000000008a08 f   OpensslLib:x509_lu.obj
 0001:0000886c       X509_STORE_CTX_get_by_subject 0000000000008b2c f   OpensslLib:x509_lu.obj
 0001:00008a68       X509_OBJECT_new            0000000000008d28 f   OpensslLib:x509_lu.obj
 0001:00008a98       X509_OBJECT_free           0000000000008d58 f   OpensslLib:x509_lu.obj
 0001:00008bcc       X509_STORE_CTX_get1_certs  0000000000008e8c f   OpensslLib:x509_lu.obj
 0001:00008e48       X509_STORE_CTX_get1_crls   0000000000009108 f   OpensslLib:x509_lu.obj
 0001:0000901c       X509_OBJECT_retrieve_match 00000000000092dc f   OpensslLib:x509_lu.obj
 0001:00009124       X509_STORE_CTX_get1_issuer 00000000000093e4 f   OpensslLib:x509_lu.obj
 0001:00009304       X509_cmp                   00000000000095c4 f   OpensslLib:x509_cmp.obj
 0001:0000939c       X509_NAME_cmp              000000000000965c f   OpensslLib:x509_cmp.obj
 0001:0000940c       X509_find_by_issuer_and_serial 00000000000096cc f   OpensslLib:x509_cmp.obj
 0001:00009550       X509_chain_check_suiteb    0000000000009810 f   OpensslLib:x509_cmp.obj
 0001:00009978       X509_verify_cert           0000000000009c38 f   OpensslLib:x509_vfy.obj
 0001:0000bc9c       x509_check_cert_time       000000000000bf5c f   OpensslLib:x509_vfy.obj
 0001:0000c044       X509_cmp_time              000000000000c304 f   OpensslLib:x509_vfy.obj
 0001:0000c140       X509_get_pubkey_parameters 000000000000c400 f   OpensslLib:x509_vfy.obj
 0001:0000c238       X509_STORE_CTX_init        000000000000c4f8 f   OpensslLib:x509_vfy.obj
 0001:0000c4f0       X509_STORE_CTX_cleanup     000000000000c7b0 f   OpensslLib:x509_vfy.obj
 0001:0000d75c       BIO_new_mem_buf            000000000000da1c f   OpensslLib:bss_mem.obj
 0001:0000e030       X509_free                  000000000000e2f0 f   OpensslLib:x_x509.obj
 0001:0000e320       OPENSSL_sk_dup             000000000000e5e0 f   OpensslLib:stack.obj
 0001:0000e4a0       OPENSSL_sk_new_reserve     000000000000e760 f   OpensslLib:stack.obj
 0001:0000e50c       OPENSSL_sk_insert          000000000000e7cc f   OpensslLib:stack.obj
 0001:0000e6b8       OPENSSL_sk_pop_free        000000000000e978 f   OpensslLib:stack.obj
 0001:0000e720       OPENSSL_sk_sort            000000000000e9e0 f   OpensslLib:stack.obj
 0001:0000e834       BIO_new                    000000000000eaf4 f   OpensslLib:bio_lib.obj
 0001:0000e940       BIO_free                   000000000000ec00 f   OpensslLib:bio_lib.obj
 0001:0000ec1c       BIO_puts                   000000000000eedc f   OpensslLib:bio_lib.obj
 0001:0000ed50       BIO_indent                 000000000000f010 f   OpensslLib:bio_lib.obj
 0001:0000ed9c       BIO_ctrl                   000000000000f05c f   OpensslLib:bio_lib.obj
 0001:0000ee84       BIO_callback_ctrl          000000000000f144 f   OpensslLib:bio_lib.obj
 0001:0000ef68       BIO_push                   000000000000f228 f   OpensslLib:bio_lib.obj
 0001:0000efb4       BIO_pop                    000000000000f274 f   OpensslLib:bio_lib.obj
 0001:0000f018       BIO_free_all               000000000000f2d8 f   OpensslLib:bio_lib.obj
 0001:0000f050       PKCS7_verify               000000000000f310 f   OpensslLib:pk7_smime.obj
 0001:0000f44c       PKCS7_get0_signers         000000000000f70c f   OpensslLib:pk7_smime.obj
 0001:0000f578       EVP_add_cipher             000000000000f838 f   OpensslLib:names.obj
 0001:0000f5c8       EVP_add_digest             000000000000f888 f   OpensslLib:names.obj
 0001:0000f65c       EVP_get_cipherbyname       000000000000f91c f   OpensslLib:names.obj
 0001:0000f690       EVP_get_digestbyname       000000000000f950 f   OpensslLib:names.obj
 0001:0000f6c4       CRYPTO_zalloc              000000000000f984 f   OpensslLib:mem.obj
 0001:0000f70c       CRYPTO_realloc             000000000000f9cc f   OpensslLib:mem.obj
 0001:0000f7d4       CRYPTO_clear_realloc       000000000000fa94 f   OpensslLib:mem.obj
 0001:0000f91c       PKCS7_free                 000000000000fbdc f   OpensslLib:pk7_asn1.obj
 0001:0000fab0       OBJ_NAME_get               000000000000fd70 f   OpensslLib:o_names.obj
 0001:0000fb68       OBJ_NAME_add               000000000000fe28 f   OpensslLib:o_names.obj
 0001:0000fc64       X509_verify                000000000000ff24 f   OpensslLib:x_all.obj
 0001:0000feec       OBJ_add_object             00000000000101ac f   OpensslLib:obj_dat.obj
 0001:00010064       OBJ_nid2obj                0000000000010324 f   OpensslLib:obj_dat.obj
 0001:000100f0       OBJ_nid2sn                 00000000000103b0 f   OpensslLib:obj_dat.obj
 0001:00010180       OBJ_nid2ln                 0000000000010440 f   OpensslLib:obj_dat.obj
 0001:0001024c       OBJ_obj2nid                000000000001050c f   OpensslLib:obj_dat.obj
 0001:000102e8       OBJ_txt2obj                00000000000105a8 f   OpensslLib:obj_dat.obj
 0001:000103ec       OBJ_obj2txt                00000000000106ac f   OpensslLib:obj_dat.obj
 0001:00010710       OBJ_ln2nid                 00000000000109d0 f   OpensslLib:obj_dat.obj
 0001:000107a4       OBJ_sn2nid                 0000000000010a64 f   OpensslLib:obj_dat.obj
 0001:00010838       OBJ_bsearch_ex_            0000000000010af8 f   OpensslLib:obj_dat.obj
 0001:00010910       OBJ_create                 0000000000010bd0 f   OpensslLib:obj_dat.obj
 0001:000109f4       EVP_PKEY_copy_parameters   0000000000010cb4 f   OpensslLib:p_lib.obj
 0001:00010ae0       EVP_PKEY_new               0000000000010da0 f   OpensslLib:p_lib.obj
 0001:00010c00       EVP_PKEY_assign            0000000000010ec0 f   OpensslLib:p_lib.obj
 0001:00010c48       EVP_PKEY_get0_EC_KEY       0000000000010f08 f   OpensslLib:p_lib.obj
 0001:00010c8c       EVP_PKEY_free              0000000000010f4c f   OpensslLib:p_lib.obj
 0001:00010cf0       X509_NAME_ENTRY_free       0000000000010fb0 f   OpensslLib:x_name.obj
 0001:00010d14       i2d_X509_NAME              0000000000010fd4 f   OpensslLib:x_name.obj
 0001:0001172c       X509_NAME_print            00000000000119ec f   OpensslLib:x_name.obj
 0001:0001185c       X509_NAME_get_index_by_NID 0000000000011b1c f   OpensslLib:x509name.obj
 0001:00011898       X509_NAME_get_index_by_OBJ 0000000000011b58 f   OpensslLib:x509name.obj
 0001:00011934       X509_NAME_get_entry        0000000000011bf4 f   OpensslLib:x509name.obj
 0001:0001196c       X509_NAME_delete_entry     0000000000011c2c f   OpensslLib:x509name.obj
 0001:00011a7c       X509_NAME_add_entry        0000000000011d3c f   OpensslLib:x509name.obj
 0001:00011be4       X509_NAME_ENTRY_create_by_OBJ 0000000000011ea4 f   OpensslLib:x509name.obj
 0001:00011c8c       ASN1_get_object            0000000000011f4c f   OpensslLib:asn1_lib.obj
 0001:00011e20       ASN1_put_object            00000000000120e0 f   OpensslLib:asn1_lib.obj
 0001:00011f18       ASN1_object_size           00000000000121d8 f   OpensslLib:asn1_lib.obj
 0001:00011f6c       ASN1_STRING_copy           000000000001222c f   OpensslLib:asn1_lib.obj
 0001:00011fbc       ASN1_STRING_dup            000000000001227c f   OpensslLib:asn1_lib.obj
 0001:0001200c       ASN1_STRING_set            00000000000122cc f   OpensslLib:asn1_lib.obj
 0001:00012104       ASN1_STRING_set0           00000000000123c4 f   OpensslLib:asn1_lib.obj
 0001:0001213c       ASN1_STRING_type_new       00000000000123fc f   OpensslLib:asn1_lib.obj
 0001:00012174       ASN1_STRING_free           0000000000012434 f   OpensslLib:asn1_lib.obj
 0001:000121b8       ASN1_STRING_clear_free     0000000000012478 f   OpensslLib:asn1_lib.obj
 0001:000121f0       ASN1_STRING_cmp            00000000000124b0 f   OpensslLib:asn1_lib.obj
 0001:00012dd8       ASN1_STRING_to_UTF8        0000000000013098 f   OpensslLib:a_strex.obj
 0001:00012ef4       SHA224_Init                00000000000131b4 f   OpensslLib:sha256.obj
 0001:00012f54       SHA256_Init                0000000000013214 f   OpensslLib:sha256.obj
 0001:00012fb4       SHA256_Update              0000000000013274 f   OpensslLib:sha256.obj
 0001:000130c8       SHA256_Final               0000000000013388 f   OpensslLib:sha256.obj
 0001:000135a0       PKCS7_ctrl                 0000000000013860 f   OpensslLib:pk7_lib.obj
 0001:000135f0       PKCS7_get_signer_info      00000000000138b0 f   OpensslLib:pk7_lib.obj
 0001:00013634       PKCS7_stream               00000000000138f4 f   OpensslLib:pk7_lib.obj
 0001:000136f0       ASN1_INTEGER_free          00000000000139b0 f   OpensslLib:tasn_typ.obj
 0001:000136f8       ASN1_TYPE_free             00000000000139b8 f   OpensslLib:tasn_typ.obj
 0001:0001371c       ASN1_item_d2i              00000000000139dc f   OpensslLib:tasn_dec.obj
 0001:0001376c       ASN1_item_ex_d2i           0000000000013a2c f   OpensslLib:tasn_dec.obj
 0001:00014d58       X509_ALGOR_free            0000000000015018 f   OpensslLib:x_algor.obj
 0001:00014d7c       X509_ALGOR_set0            000000000001503c f   OpensslLib:x_algor.obj
 0001:00014e14       ASN1_item_new              00000000000150d4 f   OpensslLib:tasn_new.obj
 0001:00015354       EVP_MD_CTX_reset           0000000000015614 f   OpensslLib:digest.obj
 0001:00015398       EVP_DigestInit_ex          0000000000015658 f   OpensslLib:digest.obj
 0001:00015450       EVP_DigestFinal_ex         0000000000015710 f   OpensslLib:digest.obj
 0001:000154bc       EVP_DigestFinalXOF         000000000001577c f   OpensslLib:digest.obj
 0001:00015554       EVP_MD_CTX_copy_ex         0000000000015814 f   OpensslLib:digest.obj
 0001:00015670       EVP_Digest                 0000000000015930 f   OpensslLib:digest.obj
 0001:00015714       ASN1_INTEGER_cmp           00000000000159d4 f   OpensslLib:a_int.obj
 0001:00015994       c2i_ASN1_INTEGER           0000000000015c54 f   OpensslLib:a_int.obj
 0001:00015ce8       ASN1_INTEGER_get           0000000000015fa8 f   OpensslLib:a_int.obj
 0001:00015d2c       ASN1_ENUMERATED_get        0000000000015fec f   OpensslLib:a_int.obj
 0001:00015d80       c2i_uint64_int             0000000000016040 f   OpensslLib:a_int.obj
 0001:00015e18       X509at_get_attr_by_OBJ     00000000000160d8 f   OpensslLib:x509_att.obj
 0001:00015e9c       asn1_item_embed_free       000000000001615c f   OpensslLib:tasn_fre.obj
 0001:000160e8       asn1_template_free         00000000000163a8 f   OpensslLib:tasn_fre.obj
 0001:000161a4       asn1_primitive_free        0000000000016464 f   OpensslLib:tasn_fre.obj
 0001:00016294       EVP_CIPHER_param_to_asn1   0000000000016554 f   OpensslLib:evp_lib.obj
 0001:00016344       EVP_CIPHER_get_asn1_iv     0000000000016604 f   OpensslLib:evp_lib.obj
 0001:000163e4       EVP_CIPHER_set_asn1_iv     00000000000166a4 f   OpensslLib:evp_lib.obj
 0001:00016474       EVP_CIPHER_type            0000000000016734 f   OpensslLib:evp_lib.obj
 0001:00016564       EVP_CIPHER_CTX_iv_length   0000000000016824 f   OpensslLib:evp_lib.obj
 0001:00016660       ASN1_item_ex_i2d           0000000000016920 f   OpensslLib:tasn_enc.obj
 0001:0001721c       GENERAL_NAME_free          00000000000174dc f   OpensslLib:v3_genn.obj
 0001:00017240       GENERAL_NAMES_free         0000000000017500 f   OpensslLib:v3_genn.obj
 0001:000172d4       ERR_put_error              0000000000017594 f   OpensslLib:err.obj
 0001:000173d8       ERR_clear_error            0000000000017698 f   OpensslLib:err.obj
 0001:00017628       ERR_get_state              00000000000178e8 f   OpensslLib:err.obj
 0001:00017784       ERR_add_error_data         0000000000017a44 f   OpensslLib:err.obj
 0001:0001788c       ERR_set_mark               0000000000017b4c f   OpensslLib:err.obj
 0001:000178bc       ERR_pop_to_mark            0000000000017b7c f   OpensslLib:err.obj
 0001:000179ac       err_clear_last_constant_time 0000000000017c6c f   OpensslLib:err.obj
 0001:00017b98       policy_node_free           0000000000017e58 f   OpensslLib:pcy_node.obj
 0001:00017ba0       X509_VERIFY_PARAM_free     0000000000017e60 f   OpensslLib:x509_vpm.obj
 0001:00017bf8       X509_VERIFY_PARAM_inherit  0000000000017eb8 f   OpensslLib:x509_vpm.obj
 0001:00017e80       X509_VERIFY_PARAM_set1_policies 0000000000018140 f   OpensslLib:x509_vpm.obj
 0001:00017fd8       X509_VERIFY_PARAM_lookup   0000000000018298 f   OpensslLib:x509_vpm.obj
 0001:0001877c       X509_CRL_free              0000000000018a3c f   OpensslLib:x_crl.obj
 0001:00018a3c       CRYPTO_new_ex_data         0000000000018cfc f   OpensslLib:ex_data.obj
 0001:00018b9c       CRYPTO_dup_ex_data         0000000000018e5c f   OpensslLib:ex_data.obj
 0001:00018d88       CRYPTO_free_ex_data        0000000000019048 f   OpensslLib:ex_data.obj
 0001:00018f0c       CRYPTO_set_ex_data         00000000000191cc f   OpensslLib:ex_data.obj
 0001:00018fb0       X509_check_purpose         0000000000019270 f   OpensslLib:v3_purp.obj
 0001:0001902c       X509_PURPOSE_get_by_id     00000000000192ec f   OpensslLib:v3_purp.obj
 0001:00019b9c       x509_likely_issued         0000000000019e5c f   OpensslLib:v3_purp.obj
 0001:00019c24       X509_check_akid            0000000000019ee4 f   OpensslLib:v3_purp.obj
 0001:00019cd4       X509_NAME_oneline          0000000000019f94 f   OpensslLib:x509_obj.obj
 0001:0001a038       EC_KEY_free                000000000001a2f8 f   OpensslLib:ec_key.obj
 0001:0001a0e4       EC_KEY_copy                000000000001a3a4 f   OpensslLib:ec_key.obj
 0001:0001a288       EC_KEY_dup                 000000000001a548 f   OpensslLib:ec_key.obj
 0001:0001a2d0       ossl_ec_key_gen            000000000001a590 f   OpensslLib:ec_key.obj
 0001:0001a2e0       ec_key_simple_generate_key 000000000001a5a0 f   OpensslLib:ec_key.obj
 0001:0001a3d0       ec_key_simple_generate_public_key 000000000001a690 f   OpensslLib:ec_key.obj
 0001:0001a3fc       EC_KEY_check_key           000000000001a6bc f   OpensslLib:ec_key.obj
 0001:0001a450       ec_key_simple_check_key    000000000001a710 f   OpensslLib:ec_key.obj
 0001:0001a5f4       EC_KEY_set_group           000000000001a8b4 f   OpensslLib:ec_key.obj
 0001:0001a64c       EC_KEY_oct2key             000000000001a90c f   OpensslLib:ec_key.obj
 0001:0001a6d0       ec_key_simple_priv2oct     000000000001a990 f   OpensslLib:ec_key.obj
 0001:0001a75c       ec_key_simple_oct2priv     000000000001aa1c f   OpensslLib:ec_key.obj
 0001:0001a7dc       EC_KEY_priv2buf            000000000001aa9c f   OpensslLib:ec_key.obj
 0001:0001a8c8       EC_GROUP_new               000000000001ab88 f   OpensslLib:ec_lib.obj
 0001:0001a988       EC_GROUP_free              000000000001ac48 f   OpensslLib:ec_lib.obj
 0001:0001aa00       EC_GROUP_clear_free        000000000001acc0 f   OpensslLib:ec_lib.obj
 0001:0001aac0       EC_GROUP_copy              000000000001ad80 f   OpensslLib:ec_lib.obj
 0001:0001acc4       EC_GROUP_dup               000000000001af84 f   OpensslLib:ec_lib.obj
 0001:0001aef8       EC_GROUP_set_generator     000000000001b1b8 f   OpensslLib:ec_lib.obj
 0001:0001b084       EC_GROUP_set_seed          000000000001b344 f   OpensslLib:ec_lib.obj
 0001:0001b114       EC_GROUP_cmp               000000000001b3d4 f   OpensslLib:ec_lib.obj
 0001:0001b2cc       EC_POINT_new               000000000001b58c f   OpensslLib:ec_lib.obj
 0001:0001b34c       EC_POINT_free              000000000001b60c f   OpensslLib:ec_lib.obj
 0001:0001b378       EC_POINT_clear_free        000000000001b638 f   OpensslLib:ec_lib.obj
 0001:0001b3c0       EC_POINT_copy              000000000001b680 f   OpensslLib:ec_lib.obj
 0001:0001b41c       EC_POINT_set_to_infinity   000000000001b6dc f   OpensslLib:ec_lib.obj
 0001:0001b45c       EC_POINT_set_affine_coordinates 000000000001b71c f   OpensslLib:ec_lib.obj
 0001:0001b4f8       EC_POINT_get_affine_coordinates 000000000001b7b8 f   OpensslLib:ec_lib.obj
 0001:0001b5a4       EC_POINT_add               000000000001b864 f   OpensslLib:ec_lib.obj
 0001:0001b624       EC_POINT_dbl               000000000001b8e4 f   OpensslLib:ec_lib.obj
 0001:0001b68c       EC_POINT_invert            000000000001b94c f   OpensslLib:ec_lib.obj
 0001:0001b6e0       EC_POINT_is_at_infinity    000000000001b9a0 f   OpensslLib:ec_lib.obj
 0001:0001b734       EC_POINT_is_on_curve       000000000001b9f4 f   OpensslLib:ec_lib.obj
 0001:0001b788       EC_POINT_cmp               000000000001ba48 f   OpensslLib:ec_lib.obj
 0001:0001b7f0       EC_POINTs_make_affine      000000000001bab0 f   OpensslLib:ec_lib.obj
 0001:0001b870       EC_POINT_mul               000000000001bb30 f   OpensslLib:ec_lib.obj
 0001:0001bab0       ec_group_simple_order_bits 000000000001bd70 f   OpensslLib:ec_lib.obj
 0001:0001bcd4       X509_PUBKEY_get0           000000000001bf94 f   OpensslLib:x_pubkey.obj
 0001:0001bda8       X509_PUBKEY_set0_param     000000000001c068 f   OpensslLib:x_pubkey.obj
 0001:0001bf60       asn1_time_to_tm            000000000001c220 f   OpensslLib:a_time.obj
 0001:0001c320       asn1_time_from_tm          000000000001c5e0 f   OpensslLib:a_time.obj
 0001:0001c438       ASN1_TIME_adj              000000000001c6f8 f   OpensslLib:a_time.obj
 0001:0001c48c       ASN1_TIME_diff             000000000001c74c f   OpensslLib:a_time.obj
 0001:0001c580       ASN1_TIME_print            000000000001c840 f   OpensslLib:a_time.obj
 0001:0001c874       X509V3_add_value           000000000001cb34 f   OpensslLib:v3_utl.obj
 0001:0001c8a4       X509V3_conf_free           000000000001cb64 f   OpensslLib:v3_utl.obj
 0001:0001c9ec       i2s_ASN1_INTEGER           000000000001ccac f   OpensslLib:v3_utl.obj
 0001:0001ca50       s2i_ASN1_INTEGER           000000000001cd10 f   OpensslLib:v3_utl.obj
 0001:0001cb54       X509V3_add_value_int       000000000001ce14 f   OpensslLib:v3_utl.obj
 0001:0001cbac       X509V3_get_value_bool      000000000001ce6c f   OpensslLib:v3_utl.obj
 0001:0001cd3c       X509V3_get_value_int       000000000001cffc f   OpensslLib:v3_utl.obj
 0001:0001cdac       X509V3_parse_list          000000000001d06c f   OpensslLib:v3_utl.obj
 0001:0001d030       name_cmp                   000000000001d2f0 f   OpensslLib:v3_utl.obj
 0001:0001d8a0       a2i_IPADDRESS_NC           000000000001db60 f   OpensslLib:v3_utl.obj
 0001:0001d988       a2i_ipadd                  000000000001dc48 f   OpensslLib:v3_utl.obj
 0001:0001dc24       X509V3_NAME_from_section   000000000001dee4 f   OpensslLib:v3_utl.obj
 0001:0001dd68       X509v3_get_ext_by_NID      000000000001e028 f   OpensslLib:x509_v3.obj
 0001:0001dda4       X509v3_get_ext_by_OBJ      000000000001e064 f   OpensslLib:x509_v3.obj
 0001:0001eafc       X509_policy_tree_free      000000000001edbc f   OpensslLib:pcy_tree.obj
 0001:0001eba8       X509_policy_check          000000000001ee68 f   OpensslLib:pcy_tree.obj
 0001:0001ef20       X509_check_trust           000000000001f1e0 f   OpensslLib:x509_trs.obj
 0001:0001efa4       X509_TRUST_get_by_id       000000000001f264 f   OpensslLib:x509_trs.obj
 0001:0001f4d0       NAME_CONSTRAINTS_check     000000000001f790 f   OpensslLib:v3_ncons.obj
 0001:0001f698       NAME_CONSTRAINTS_check_CN  000000000001f958 f   OpensslLib:v3_ncons.obj
 0001:0001fd5c       ossl_tolower               000000000002001c f   OpensslLib:ctype.obj
 0001:0001fd88       bwrite_conv                0000000000020048 f   OpensslLib:bio_meth.obj
 0001:0001fdc4       bread_conv                 0000000000020084 f   OpensslLib:bio_meth.obj
 0001:0001fe00       BUF_MEM_new                00000000000200c0 f   OpensslLib:buffer.obj
 0001:0001fe2c       BUF_MEM_free               00000000000200ec f   OpensslLib:buffer.obj
 0001:0001ff00       BUF_MEM_grow               00000000000201c0 f   OpensslLib:buffer.obj
 0001:0001ffe8       BUF_MEM_grow_clean         00000000000202a8 f   OpensslLib:buffer.obj
 0001:000200dc       ASN1_item_dup              000000000002039c f   OpensslLib:a_dup.obj
 0001:000208cc       DIST_POINT_free            0000000000020b8c f   OpensslLib:v3_crld.obj
 0001:00020c90       DIST_POINT_set_dpname      0000000000020f50 f   OpensslLib:v3_crld.obj
 0001:000210e4       PKCS7_add1_attrib_digest   00000000000213a4 f   OpensslLib:pk7_attr.obj
 0001:00021680       PKCS7_dataInit             0000000000021940 f   OpensslLib:pk7_doit.obj
 0001:00021bf8       PKCS7_dataFinal            0000000000021eb8 f   OpensslLib:pk7_doit.obj
 0001:00022044       PKCS7_SIGNER_INFO_sign     0000000000022304 f   OpensslLib:pk7_doit.obj
 0001:0002232c       PKCS7_signatureVerify      00000000000225ec f   OpensslLib:pk7_doit.obj
 0001:00022770       X509_verify_cert_error_string 0000000000022a30 f   OpensslLib:x509_txt.obj
 0001:00022bac       OBJ_dup                    0000000000022e6c f   OpensslLib:obj_lib.obj
 0001:00022f74       ossl_init_thread_start     0000000000023234 f   OpensslLib:init.obj
 0001:00022fbc       OPENSSL_init_crypto        000000000002327c f   OpensslLib:init.obj
 0001:00023250       OBJ_find_sigid_algs        0000000000023510 f   OpensslLib:obj_xref.obj
 0001:000232f8       OBJ_find_sigid_by_algs     00000000000235b8 f   OpensslLib:obj_xref.obj
 0001:000234ec       EVP_PKEY_CTX_dup           00000000000237ac f   OpensslLib:pmeth_lib.obj
 0001:000235bc       EVP_PKEY_CTX_free          000000000002387c f   OpensslLib:pmeth_lib.obj
 0001:000235fc       EVP_PKEY_CTX_ctrl          00000000000238bc f   OpensslLib:pmeth_lib.obj
 0001:000236bc       EVP_PKEY_CTX_str2ctrl      000000000002397c f   OpensslLib:pmeth_lib.obj
 0001:000236fc       EVP_PKEY_CTX_hex2ctrl      00000000000239bc f   OpensslLib:pmeth_lib.obj
 0001:00023758       EVP_PKEY_CTX_md            0000000000023a18 f   OpensslLib:pmeth_lib.obj
 0001:000237c4       X509_ATTRIBUTE_free        0000000000023a84 f   OpensslLib:x_attrib.obj
 0001:000237e8       X509_ATTRIBUTE_create      0000000000023aa8 f   OpensslLib:x_attrib.obj
 0001:0002388c       OPENSSL_LH_new             0000000000023b4c f   OpensslLib:lhash.obj
 0001:00023934       OPENSSL_LH_insert          0000000000023bf4 f   OpensslLib:lhash.obj
 0001:000239e4       OPENSSL_LH_retrieve        0000000000023ca4 f   OpensslLib:lhash.obj
 0001:00023bb4       OPENSSL_LH_strhash         0000000000023e74 f   OpensslLib:lhash.obj
 0001:00023c2c       openssl_lh_strcasehash     0000000000023eec f   OpensslLib:lhash.obj
 0001:00023cac       PKCS8_pkey_set0            0000000000023f6c f   OpensslLib:p8_pkey.obj
 0001:00024104       EC_GROUP_get_ecparameters  00000000000243c4 f   OpensslLib:ec_asn1.obj
 0001:0002429c       EC_GROUP_get_ecpkparameters 000000000002455c f   OpensslLib:ec_asn1.obj
 0001:00024398       EC_GROUP_new_from_ecparameters 0000000000024658 f   OpensslLib:ec_asn1.obj
 0001:000247a0       EC_GROUP_new_from_ecpkparameters 0000000000024a60 f   OpensslLib:ec_asn1.obj
 0001:0002481c       d2i_ECPKParameters         0000000000024adc f   OpensslLib:ec_asn1.obj
 0001:000248f8       d2i_ECPrivateKey           0000000000024bb8 f   OpensslLib:ec_asn1.obj
 0001:00024adc       i2d_ECPrivateKey           0000000000024d9c f   OpensslLib:ec_asn1.obj
 0001:00024d44       i2d_ECParameters           0000000000025004 f   OpensslLib:ec_asn1.obj
 0001:00024e10       d2i_ECParameters           00000000000250d0 f   OpensslLib:ec_asn1.obj
 0001:00024e9c       i2o_ECPublicKey            000000000002515c f   OpensslLib:ec_asn1.obj
 0001:00024f9c       ECDSA_SIG_new              000000000002525c f   OpensslLib:ec_asn1.obj
 0001:00024fd0       ECDSA_size                 0000000000025290 f   OpensslLib:ec_asn1.obj
 0001:00025058       ASN1_item_digest           0000000000025318 f   OpensslLib:a_digest.obj
 0001:00025120       ASN1_item_verify           00000000000253e0 f   OpensslLib:a_verify.obj
 0001:000253dc       ASN1_item_i2d_bio          000000000002569c f   OpensslLib:a_i2d_fp.obj
 0001:000254b4       RSA_new_method             0000000000025774 f   OpensslLib:rsa_lib.obj
 0001:00025678       RSA_free                   0000000000025938 f   OpensslLib:rsa_lib.obj
 0001:00025778       RSA_pkey_ctx_ctrl          0000000000025a38 f   OpensslLib:rsa_lib.obj
 0001:000257c0       MD5_Update                 0000000000025a80 f   OpensslLib:md5_dgst.obj
 0001:000258d4       MD5_Final                  0000000000025b94 f   OpensslLib:md5_dgst.obj
 0001:00025a60       md5_block_data_order       0000000000025d20 f   OpensslLib:md5_dgst.obj
 0001:00026508       BN_bn2hex                  00000000000267c8 f   OpensslLib:bn_print.obj
 0001:000265e4       BN_bn2dec                  00000000000268a4 f   OpensslLib:bn_print.obj
 0001:00026800       BN_hex2bn                  0000000000026ac0 f   OpensslLib:bn_print.obj
 0001:000269b4       BN_dec2bn                  0000000000026c74 f   OpensslLib:bn_print.obj
 0001:00026c28       CRYPTO_strdup              0000000000026ee8 f   OpensslLib:o_str.obj
 0001:00026c90       CRYPTO_strndup             0000000000026f50 f   OpensslLib:o_str.obj
 0001:00026d0c       CRYPTO_memdup              0000000000026fcc f   OpensslLib:o_str.obj
 0001:00026d78       OPENSSL_strlcpy            0000000000027038 f   OpensslLib:o_str.obj
 0001:00026dcc       OPENSSL_hexchar2int        000000000002708c f   OpensslLib:o_str.obj
 0001:00026e8c       OPENSSL_hexstr2buf         000000000002714c f   OpensslLib:o_str.obj
 0001:00026f90       OPENSSL_buf2hexstr         0000000000027250 f   OpensslLib:o_str.obj
 0001:00027030       BN_mod_word                00000000000272f0 f   OpensslLib:bn_word.obj
 0001:000270d4       BN_div_word                0000000000027394 f   OpensslLib:bn_word.obj
 0001:000271c0       BN_add_word                0000000000027480 f   OpensslLib:bn_word.obj
 0001:00027294       BN_sub_word                0000000000027554 f   OpensslLib:bn_word.obj
 0001:00027364       BN_mul_word                0000000000027624 f   OpensslLib:bn_word.obj
 0001:00027470       BN_num_bits_word           0000000000027730 f   OpensslLib:bn_lib.obj
 0001:00027548       BN_num_bits                0000000000027808 f   OpensslLib:bn_lib.obj
 0001:0002765c       BN_clear_free              000000000002791c f   OpensslLib:bn_lib.obj
 0001:000276a8       BN_free                    0000000000027968 f   OpensslLib:bn_lib.obj
 0001:00027708       BN_new                     00000000000279c8 f   OpensslLib:bn_lib.obj
 0001:00027744       bn_expand2                 0000000000027a04 f   OpensslLib:bn_lib.obj
 0001:000277f8       BN_dup                     0000000000027ab8 f   OpensslLib:bn_lib.obj
 0001:0002785c       BN_copy                    0000000000027b1c f   OpensslLib:bn_lib.obj
 0001:000278d4       BN_set_word                0000000000027b94 f   OpensslLib:bn_lib.obj
 0001:00027920       BN_bin2bn                  0000000000027be0 f   OpensslLib:bn_lib.obj
 0001:00027b48       BN_ucmp                    0000000000027e08 f   OpensslLib:bn_lib.obj
 0001:00027b90       BN_cmp                     0000000000027e50 f   OpensslLib:bn_lib.obj
 0001:00027c14       BN_set_bit                 0000000000027ed4 f   OpensslLib:bn_lib.obj
 0001:00027ca4       BN_is_bit_set              0000000000027f64 f   OpensslLib:bn_lib.obj
 0001:00027cd4       BN_consttime_swap          0000000000027f94 f   OpensslLib:bn_lib.obj
 0001:00027d78       BN_security_bits           0000000000028038 f   OpensslLib:bn_lib.obj
 0001:00027de0       BN_is_word                 00000000000280a0 f   OpensslLib:bn_lib.obj
 0001:00027e10       bn_correct_top             00000000000280d0 f   OpensslLib:bn_lib.obj
 0001:00027e40       a2d_ASN1_OBJECT            0000000000028100 f   OpensslLib:a_object.obj
 0001:0002819c       i2a_ASN1_OBJECT            000000000002845c f   OpensslLib:a_object.obj
 0001:000282d8       d2i_ASN1_OBJECT            0000000000028598 f   OpensslLib:a_object.obj
 0001:00028360       c2i_ASN1_OBJECT            0000000000028620 f   OpensslLib:a_object.obj
 0001:00028540       ASN1_OBJECT_free           0000000000028800 f   OpensslLib:a_object.obj
 0001:0002859c       BN_lshift1                 000000000002885c f   OpensslLib:bn_shift.obj
 0001:00028644       BN_rshift1                 0000000000028904 f   OpensslLib:bn_shift.obj
 0001:00028718       BN_lshift                  00000000000289d8 f   OpensslLib:bn_shift.obj
 0001:0002875c       bn_lshift_fixed_top        0000000000028a1c f   OpensslLib:bn_shift.obj
 0001:00028894       BN_rshift                  0000000000028b54 f   OpensslLib:bn_shift.obj
 0001:000288d0       bn_rshift_fixed_top        0000000000028b90 f   OpensslLib:bn_shift.obj
 0001:000289d8       DH_new                     0000000000028c98 f   OpensslLib:dh_lib.obj
 0001:00028b50       DH_free                    0000000000028e10 f   OpensslLib:dh_lib.obj
 0001:00028c00       EVP_PKEY_asn1_find         0000000000028ec0 f   OpensslLib:ameth_lib.obj
 0001:00028d18       CMAC_CTX_new               0000000000028fd8 f   OpensslLib:cmac.obj
 0001:00028d78       CMAC_CTX_free              0000000000029038 f   OpensslLib:cmac.obj
 0001:00028e10       CMAC_CTX_copy              00000000000290d0 f   OpensslLib:cmac.obj
 0001:00028eac       CMAC_Init                  000000000002916c f   OpensslLib:cmac.obj
 0001:00029050       ASN1_STRING_set_by_NID     0000000000029310 f   OpensslLib:a_strnid.obj
 0001:000290e0       ASN1_STRING_TABLE_get      00000000000293a0 f   OpensslLib:a_strnid.obj
 0001:0002916c       ASN1_STRING_print          000000000002942c f   OpensslLib:a_print.obj
 0001:00029248       ASN1_tag2str               0000000000029508 f   OpensslLib:asn1_par.obj
 0001:00029278       UTF8_getc                  0000000000029538 f   OpensslLib:a_utf8.obj
 0001:00029568       UTF8_putc                  0000000000029828 f   OpensslLib:a_utf8.obj
 0001:00029728       ASN1_mbstring_ncopy        00000000000299e8 f   OpensslLib:a_mbstr.obj
 0001:00029ce8       rsa_multip_info_free       0000000000029fa8 f   OpensslLib:rsa_mp.obj
 0001:00029d24       rsa_multip_info_new        0000000000029fe4 f   OpensslLib:rsa_mp.obj
 0001:00029de4       rsa_multip_calc_product    000000000002a0a4 f   OpensslLib:rsa_mp.obj
 0001:0002a430       i2c_ASN1_BIT_STRING        000000000002a6f0 f   OpensslLib:a_bitstr.obj
 0001:0002a548       c2i_ASN1_BIT_STRING        000000000002a808 f   OpensslLib:a_bitstr.obj
 0001:0002a698       ASN1_BIT_STRING_set_bit    000000000002a958 f   OpensslLib:a_bitstr.obj
 0001:0002a7a0       asn1_do_lock               000000000002aa60 f   OpensslLib:tasn_utl.obj
 0001:0002a840       asn1_do_adb                000000000002ab00 f   OpensslLib:tasn_utl.obj
 0001:0002a8f4       ASN1_TYPE_set              000000000002abb4 f   OpensslLib:a_type.obj
 0001:0002a958       ASN1_TYPE_cmp              000000000002ac18 f   OpensslLib:a_type.obj
 0001:0002a9cc       ASN1_TYPE_unpack_sequence  000000000002ac8c f   OpensslLib:a_type.obj
 0001:0002aa28       EVP_CIPHER_CTX_reset       000000000002ace8 f   OpensslLib:evp_enc.obj
 0001:0002aa94       EVP_CipherInit_ex          000000000002ad54 f   OpensslLib:evp_enc.obj
 0001:0002af34       EVP_EncryptFinal_ex        000000000002b1f4 f   OpensslLib:evp_enc.obj
 0001:0002b000       EVP_DecryptUpdate          000000000002b2c0 f   OpensslLib:evp_enc.obj
 0001:0002b23c       EVP_DecryptFinal_ex        000000000002b4fc f   OpensslLib:evp_enc.obj
 0001:0002b34c       EVP_CIPHER_CTX_set_key_length 000000000002b60c f   OpensslLib:evp_enc.obj
 0001:0002b3a4       EVP_CIPHER_CTX_ctrl        000000000002b664 f   OpensslLib:evp_enc.obj
 0001:0002b3ec       EVP_CIPHER_CTX_copy        000000000002b6ac f   OpensslLib:evp_enc.obj
 0001:0002b680       BN_CTX_new                 000000000002b940 f   OpensslLib:bn_ctx.obj
 0001:0002b6c4       BN_CTX_free                000000000002b984 f   OpensslLib:bn_ctx.obj
 0001:0002b744       BN_CTX_start               000000000002ba04 f   OpensslLib:bn_ctx.obj
 0001:0002b78c       BN_CTX_end                 000000000002ba4c f   OpensslLib:bn_ctx.obj
 0001:0002b804       BN_CTX_get                 000000000002bac4 f   OpensslLib:bn_ctx.obj
 0001:0002bdc8       EC_GROUP_new_by_curve_name 000000000002c088 f   OpensslLib:ec_curve.obj
 0001:0002be34       EC_curve_nist2nid          000000000002c0f4 f   OpensslLib:ec_curve.obj
 0001:0002be94       ec_curve_nid_from_params   000000000002c154 f   OpensslLib:ec_curve.obj
 0001:0002c14c       bn_compute_wNAF            000000000002c40c f   OpensslLib:bn_intern.obj
 0001:0002c2f4       EC_POINT_set_compressed_coordinates 000000000002c5b4 f   OpensslLib:ec_oct.obj
 0001:0002c378       EC_POINT_point2oct         000000000002c638 f   OpensslLib:ec_oct.obj
 0001:0002c3f8       EC_POINT_oct2point         000000000002c6b8 f   OpensslLib:ec_oct.obj
 0001:0002c480       EC_POINT_point2buf         000000000002c740 f   OpensslLib:ec_oct.obj
 0001:0002c538       EC_KEY_new_method          000000000002c7f8 f   OpensslLib:ec_kmeth.obj
 0001:0002c6a0       ECDH_compute_key           000000000002c960 f   OpensslLib:ec_kmeth.obj
 0001:0002ca90       BN_generate_dsa_nonce      000000000002cd50 f   OpensslLib:bn_rand.obj
 0001:0002cc70       bn_mul_mont_fixed_top      000000000002cf30 f   OpensslLib:bn_mont.obj
 0001:0002cec4       bn_from_mont_fixed_top     000000000002d184 f   OpensslLib:bn_mont.obj
 0001:0002cf48       BN_MONT_CTX_new            000000000002d208 f   OpensslLib:bn_mont.obj
 0001:0002cfbc       BN_MONT_CTX_free           000000000002d27c f   OpensslLib:bn_mont.obj
 0001:0002cff8       BN_MONT_CTX_set            000000000002d2b8 f   OpensslLib:bn_mont.obj
 0001:0002d2bc       BN_MONT_CTX_copy           000000000002d57c f   OpensslLib:bn_mont.obj
 0001:0002d33c       BN_MONT_CTX_set_locked     000000000002d5fc f   OpensslLib:bn_mont.obj
 0001:0002d3bc       BN_add                     000000000002d67c f   OpensslLib:bn_add.obj
 0001:0002d42c       BN_sub                     000000000002d6ec f   OpensslLib:bn_add.obj
 0001:0002d4a4       BN_uadd                    000000000002d764 f   OpensslLib:bn_add.obj
 0001:0002d570       BN_usub                    000000000002d830 f   OpensslLib:bn_add.obj
 0001:0002d660       EC_ec_pre_comp_free        000000000002d920 f   OpensslLib:ec_mult.obj
 0001:0002d6d0       ec_scalar_mul_ladder       000000000002d990 f   OpensslLib:ec_mult.obj
 0001:0002dcd4       ec_wNAF_mul                000000000002df94 f   OpensslLib:ec_mult.obj
 0001:0002e860       BN_div                     000000000002eb20 f   OpensslLib:bn_div.obj
 0001:0002e8e8       bn_div_fixed_top           000000000002eba8 f   OpensslLib:bn_div.obj
 0001:0002ece8       BN_mod_exp                 000000000002efa8 f   OpensslLib:bn_exp.obj
 0001:0002ed58       BN_mod_exp_recp            000000000002f018 f   OpensslLib:bn_exp.obj
 0001:0002f12c       BN_mod_exp_mont            000000000002f3ec f   OpensslLib:bn_exp.obj
 0001:0002f910       BN_mod_exp_mont_consttime  000000000002fbd0 f   OpensslLib:bn_exp.obj
 0001:0002fe18       BN_mod_exp_mont_word       00000000000300d8 f   OpensslLib:bn_exp.obj
 0001:00030250       OPENSSL_gmtime_adj         0000000000030510 f   OpensslLib:o_time.obj
 0001:00030324       OPENSSL_gmtime_diff        00000000000305e4 f   OpensslLib:o_time.obj
 0001:000305f4       ACCESS_DESCRIPTION_free    00000000000308b4 f   OpensslLib:v3_info.obj
 0001:00030a60       CONF_parse_list            0000000000030d20 f   OpensslLib:conf_mod.obj
 0001:00030b60       X509V3_EXT_get_nid         0000000000030e20 f   OpensslLib:v3_lib.obj
 0001:00030bf4       X509V3_EXT_d2i             0000000000030eb4 f   OpensslLib:v3_lib.obj
 0001:00030c58       X509V3_get_d2i             0000000000030f18 f   OpensslLib:v3_lib.obj
 0001:00030d5c       level_add_node             000000000003101c f   OpensslLib:pcy_node.obj
 0001:00030e80       policy_data_free           0000000000031140 f   OpensslLib:pcy_data.obj
 0001:00030ecc       policy_data_new            000000000003118c f   OpensslLib:pcy_data.obj
 0001:00030fc0       i2v_GENERAL_NAMES          0000000000031280 f   OpensslLib:v3_alt.obj
 0001:00031070       i2v_GENERAL_NAME           0000000000031330 f   OpensslLib:v3_alt.obj
 0001:000312dc       GENERAL_NAME_print         000000000003159c f   OpensslLib:v3_alt.obj
 0001:0003188c       v2i_GENERAL_NAMES          0000000000031b4c f   OpensslLib:v3_alt.obj
 0001:00031958       a2i_GENERAL_NAME           0000000000031c18 f   OpensslLib:v3_alt.obj
 0001:00031b8c       v2i_GENERAL_NAME_ex        0000000000031e4c f   OpensslLib:v3_alt.obj
 0001:00031e78       X509V3_get_section         0000000000032138 f   OpensslLib:v3_conf.obj
 0001:00032054       POLICYINFO_free            0000000000032314 f   OpensslLib:v3_cpols.obj
 0001:00032078       POLICYQUALINFO_free        0000000000032338 f   OpensslLib:v3_cpols.obj
 0001:00032d1c       policy_cache_set_mapping   0000000000032fdc f   OpensslLib:pcy_map.obj
 0001:00032eac       rand_drbg_get_entropy      000000000003316c f   OpensslLib:rand_lib.obj
 0001:00033010       rand_drbg_cleanup_entropy  00000000000332d0 f   OpensslLib:rand_lib.obj
 0001:0003304c       rand_drbg_get_nonce        000000000003330c f   OpensslLib:rand_lib.obj
 0001:00033110       rand_drbg_cleanup_nonce    00000000000333d0 f   OpensslLib:rand_lib.obj
 0001:000331ac       rand_pool_new              000000000003346c f   OpensslLib:rand_lib.obj
 0001:000332a4       rand_pool_free             0000000000033564 f   OpensslLib:rand_lib.obj
 0001:00033400       rand_pool_bytes_needed     00000000000336c0 f   OpensslLib:rand_lib.obj
 0001:00033488       rand_pool_add              0000000000033748 f   OpensslLib:rand_lib.obj
 0001:0003351c       rand_pool_add_begin        00000000000337dc f   OpensslLib:rand_lib.obj
 0001:00033574       rand_pool_add_end          0000000000033834 f   OpensslLib:rand_lib.obj
 0001:000335b8       RAND_get_rand_method       0000000000033878 f   OpensslLib:rand_lib.obj
 0001:00033604       RAND_priv_bytes            00000000000338c4 f   OpensslLib:rand_lib.obj
 0001:0003365c       RAND_bytes                 000000000003391c f   OpensslLib:rand_lib.obj
 0001:00033fec       EVP_DigestSignFinal        00000000000342ac f   OpensslLib:m_sigver.obj
 0001:000341cc       EVP_DigestVerifyFinal      000000000003448c f   OpensslLib:m_sigver.obj
 0001:00034610       EVP_SignFinal              00000000000348d0 f   OpensslLib:p_sign.obj
 0001:000347e8       EVP_PKEY_sign_init         0000000000034aa8 f   OpensslLib:pmeth_fn.obj
 0001:00034844       EVP_PKEY_sign              0000000000034b04 f   OpensslLib:pmeth_fn.obj
 0001:00034954       EVP_PKEY_verify_init       0000000000034c14 f   OpensslLib:pmeth_fn.obj
 0001:000349b0       EVP_PKEY_verify            0000000000034c70 f   OpensslLib:pmeth_fn.obj
 0001:00034a0c       EVP_VerifyFinal            0000000000034ccc f   OpensslLib:p_verify.obj
 0001:00034b48       openssl_add_all_ciphers_int 0000000000034e08 f   OpensslLib:c_allc.obj
 0001:00034fe4       RAND_DRBG_set              00000000000352a4 f   OpensslLib:drbg_lib.obj
 0001:000351b8       RAND_DRBG_free             0000000000035478 f   OpensslLib:drbg_lib.obj
 0001:00035228       RAND_DRBG_instantiate      00000000000354e8 f   OpensslLib:drbg_lib.obj
 0001:00035454       RAND_DRBG_reseed           0000000000035714 f   OpensslLib:drbg_lib.obj
 0001:000355c0       rand_drbg_restart          0000000000035880 f   OpensslLib:drbg_lib.obj
 0001:00035908       RAND_DRBG_generate         0000000000035bc8 f   OpensslLib:drbg_lib.obj
 0001:00035a7c       RAND_DRBG_bytes            0000000000035d3c f   OpensslLib:drbg_lib.obj
 0001:00035f88       RAND_DRBG_get0_master      0000000000036248 f   OpensslLib:drbg_lib.obj
 0001:00035fbc       RAND_DRBG_get0_private     000000000003627c f   OpensslLib:drbg_lib.obj
 0001:0003bc60       BIO_dump_indent_cb         000000000003bf20 f   OpensslLib:b_dump.obj
 0001:0003be24       EC_GROUP_new_curve_GFp     000000000003c0e4 f   OpensslLib:ec_cvt.obj
 0001:0003d9c4       BN_BLINDING_new            000000000003dc84 f   OpensslLib:bn_blind.obj
 0001:0003da68       BN_BLINDING_free           000000000003dd28 f   OpensslLib:bn_blind.obj
 0001:0003dab8       BN_BLINDING_update         000000000003dd78 f   OpensslLib:bn_blind.obj
 0001:0003dbc4       BN_BLINDING_convert_ex     000000000003de84 f   OpensslLib:bn_blind.obj
 0001:0003dc84       BN_BLINDING_invert_ex      000000000003df44 f   OpensslLib:bn_blind.obj
 0001:0003dd6c       BN_BLINDING_create_param   000000000003e02c f   OpensslLib:bn_blind.obj
 0001:0003df28       bn_mul_add_words           000000000003e1e8 f   OpensslLib:bn_asm.obj
 0001:0003dff8       bn_mul_words               000000000003e2b8 f   OpensslLib:bn_asm.obj
 0001:0003e0b8       bn_div_words               000000000003e378 f   OpensslLib:bn_asm.obj
 0001:0003e21c       bn_add_words               000000000003e4dc f   OpensslLib:bn_asm.obj
 0001:0003e274       bn_sub_words               000000000003e534 f   OpensslLib:bn_asm.obj
 0001:00040644       rsa_pss_params_create      0000000000040904 f   OpensslLib:rsa_ameth.obj
 0001:00040b5c       rsa_pss_get_param          0000000000040e1c f   OpensslLib:rsa_ameth.obj
 0001:00041d64       bn_mul_fixed_top           0000000000042024 f   OpensslLib:bn_mul.obj
 0001:00041e68       bn_mul_normal              0000000000042128 f   OpensslLib:bn_mul.obj
 0001:00041f88       ASN1_item_pack             0000000000042248 f   OpensslLib:asn_pack.obj
 0001:00042068       ec_GFp_simple_set_compressed_coordinates 0000000000042328 f   OpensslLib:ecp_oct.obj
 0001:000423f8       ec_GFp_simple_point2oct    00000000000426b8 f   OpensslLib:ecp_oct.obj
 0001:00042688       ec_GFp_simple_oct2point    0000000000042948 f   OpensslLib:ecp_oct.obj
 0001:00042884       ossl_ecdsa_sign            0000000000042b44 f   OpensslLib:ecdsa_ossl.obj
 0001:00042be0       ossl_ecdsa_sign_setup      0000000000042ea0 f   OpensslLib:ecdsa_ossl.obj
 0001:00042bfc       ossl_ecdsa_sign_sig        0000000000042ebc f   OpensslLib:ecdsa_ossl.obj
 0001:00042f9c       ossl_ecdsa_verify          000000000004325c f   OpensslLib:ecdsa_ossl.obj
 0001:000430d0       ossl_ecdsa_verify_sig      0000000000043390 f   OpensslLib:ecdsa_ossl.obj
 0001:00043404       ossl_ecdh_compute_key      00000000000436c4 f   OpensslLib:ecdh_ossl.obj
 0001:0004343c       ecdh_simple_compute_key    00000000000436fc f   OpensslLib:ecdh_ossl.obj
 0001:00043a0c       int_bn_mod_inverse         0000000000043ccc f   OpensslLib:bn_gcd.obj
 0001:000440bc       BN_mod_inverse             000000000004437c f   OpensslLib:bn_gcd.obj
 0001:0004415c       BN_gcd                     000000000004441c f   OpensslLib:bn_gcd.obj
 0001:00044420       bn_sqr_fixed_top           00000000000446e0 f   OpensslLib:bn_sqr.obj
 0001:0004454c       bn_sqr_normal              000000000004480c f   OpensslLib:bn_sqr.obj
 0001:00044684       BN_nnmod                   0000000000044944 f   OpensslLib:bn_mod.obj
 0001:000446e8       bn_mod_add_fixed_top       00000000000449a8 f   OpensslLib:bn_mod.obj
 0001:00044890       bn_mod_sub_fixed_top       0000000000044b50 f   OpensslLib:bn_mod.obj
 0001:00044a10       BN_mod_sub_quick           0000000000044cd0 f   OpensslLib:bn_mod.obj
 0001:00044a50       BN_mod_mul                 0000000000044d10 f   OpensslLib:bn_mod.obj
 0001:00044b08       BN_mod_sqr                 0000000000044dc8 f   OpensslLib:bn_mod.obj
 0001:00044b60       BN_mod_lshift1_quick       0000000000044e20 f   OpensslLib:bn_mod.obj
 0001:00044ba8       BN_mod_lshift_quick        0000000000044e68 f   OpensslLib:bn_mod.obj
 0001:00044c68       BN_mod_mul_reciprocal      0000000000044f28 f   OpensslLib:bn_recp.obj
 0001:00044d28       BN_div_recp                0000000000044fe8 f   OpensslLib:bn_recp.obj
 0001:0004534c       i2v_ASN1_BIT_STRING        000000000004560c f   OpensslLib:v3_bitst.obj
 0001:000453e0       v2i_ASN1_BIT_STRING        00000000000456a0 f   OpensslLib:v3_bitst.obj
 0001:00045ddc       i2s_ASN1_IA5STRING         000000000004609c f   OpensslLib:v3_ia5.obj
 0001:00045e4c       s2i_ASN1_IA5STRING         000000000004610c f   OpensslLib:v3_ia5.obj
 0001:000464b8       i2s_ASN1_OCTET_STRING      0000000000046778 f   OpensslLib:v3_skey.obj
 0001:00046614       i2s_ASN1_ENUMERATED_TABLE  00000000000468d4 f   OpensslLib:v3_enum.obj
 0001:00046758       POLICY_MAPPING_free        0000000000046a18 f   OpensslLib:v3_pmaps.obj
 0001:00046b84       SXNET_add_id_INTEGER       0000000000046e44 f   OpensslLib:v3_sxnet.obj
 0001:00046d4c       SXNET_get_id_INTEGER       000000000004700c f   OpensslLib:v3_sxnet.obj
 0001:0004791c       ASN1_generate_v3           0000000000047bdc f   OpensslLib:asn1_gen.obj
 0001:000487ac       rand_pool_acquire_entropy  0000000000048a6c f   OpensslLib:rand_pool.obj
 0001:0004882c       HMAC_Init_ex               0000000000048aec f   OpensslLib:hmac.obj
 0001:00048a4c       HMAC_Final                 0000000000048d0c f   OpensslLib:hmac.obj
 0001:00048adc       HMAC_CTX_new               0000000000048d9c f   OpensslLib:hmac.obj
 0001:00048b58       HMAC_CTX_free              0000000000048e18 f   OpensslLib:hmac.obj
 0001:00048c34       HMAC_CTX_copy              0000000000048ef4 f   OpensslLib:hmac.obj
 0001:0004c670       drbg_ctr_init              000000000004c930 f   OpensslLib:drbg_ctr.obj
 0001:0004ceec       DH_new_by_nid              000000000004d1ac f   OpensslLib:dh_rfc7919.obj
 0001:0004d260       c448_ed448_sign            000000000004d520 f   OpensslLib:eddsa.obj
 0001:0004d5c8       c448_ed448_verify          000000000004d888 f   OpensslLib:eddsa.obj
 0001:0004d7dc       ED448_public_from_private  000000000004da9c f   OpensslLib:eddsa.obj
 0001:000538e4       ED25519_sign               0000000000053ba4 f   OpensslLib:curve25519.obj
 0001:00053a80       ED25519_verify             0000000000053d40 f   OpensslLib:curve25519.obj
 0001:00053cac       X25519_public_from_private 0000000000053f6c f   OpensslLib:curve25519.obj
 0001:00053d70       ASN1_buf_print             0000000000054030 f   OpensslLib:t_pkey.obj
 0001:00053e58       ASN1_bn_print              0000000000054118 f   OpensslLib:t_pkey.obj
 0001:000548e0       curve448_precomputed_scalarmul 0000000000054ba0 f   OpensslLib:curve448.obj
 0001:00054af0       curve448_point_mul_by_ratio_and_encode_like_eddsa 0000000000054db0 f   OpensslLib:curve448.obj
 0001:00054d7c       curve448_point_decode_like_eddsa_and_mul_by_ratio 000000000005503c f   OpensslLib:curve448.obj
 0001:0005504c       x448_int                   000000000005530c f   OpensslLib:curve448.obj
 0001:00055688       curve448_base_double_scalarmul_non_secret 0000000000055948 f   OpensslLib:curve448.obj
 0001:00055a54       X448_public_from_private   0000000000055d14 f   OpensslLib:curve448.obj
 0001:00055bb0       RSA_sign_ASN1_OCTET_STRING 0000000000055e70 f   OpensslLib:rsa_saos.obj
 0001:00055dec       RSA_setup_blinding         00000000000560ac f   OpensslLib:rsa_crpt.obj
 0001:00055f4c       RSA_padding_add_PKCS1_OAEP_mgf1 000000000005620c f   OpensslLib:rsa_oaep.obj
 0001:000561fc       RSA_padding_check_PKCS1_OAEP_mgf1 00000000000564bc f   OpensslLib:rsa_oaep.obj
 0001:00056748       PKCS1_MGF1                 0000000000056a08 f   OpensslLib:rsa_oaep.obj
 0001:00057350       RSA_sign                   0000000000057610 f   OpensslLib:rsa_sign.obj
 0001:000574b8       int_rsa_verify             0000000000057778 f   OpensslLib:rsa_sign.obj
 0001:00057874       RSA_verify_PKCS1_PSS_mgf1  0000000000057b34 f   OpensslLib:rsa_pss.obj
 0001:00057b98       RSA_padding_add_PKCS1_PSS_mgf1 0000000000057e58 f   OpensslLib:rsa_pss.obj
 0001:00057ea8       RSA_X931_hash_id           0000000000058168 f   OpensslLib:rsa_x931.obj
 0001:00057edc       sm2_compute_z_digest       000000000005819c f   OpensslLib:sm2_sign.obj
 0001:00058894       sm2_sign                   0000000000058b54 f   OpensslLib:sm2_sign.obj
 0001:00058a20       sm2_encrypt                0000000000058ce0 f   OpensslLib:sm2_crypt.obj
 0001:00058ed8       sm2_decrypt                0000000000059198 f   OpensslLib:sm2_crypt.obj
 0001:000593e4       SipHash_Init               00000000000596a4 f   OpensslLib:siphash.obj
 0001:00059520       SipHash_Update             00000000000597e0 f   OpensslLib:siphash.obj
 0001:0005973c       SipHash_Final              00000000000599fc f   OpensslLib:siphash.obj
 0001:00059980       ecdh_KDF_X9_63             0000000000059c40 f   OpensslLib:ecdh_kdf.obj
 0001:00059b64       ec_GFp_nist_group_copy     0000000000059e24 f   OpensslLib:ecp_nist.obj
 0001:00059b78       ec_GFp_nist_group_set_curve 0000000000059e38 f   OpensslLib:ecp_nist.obj
 0001:00059cbc       ec_GFp_nist_field_mul      0000000000059f7c f   OpensslLib:ecp_nist.obj
 0001:00059d90       ec_GFp_nist_field_sqr      000000000005a050 f   OpensslLib:ecp_nist.obj
 0001:00059e9c       BN_nist_mod_192            000000000005a15c f   OpensslLib:bn_nist.obj
 0001:0005a0e8       BN_nist_mod_224            000000000005a3a8 f   OpensslLib:bn_nist.obj
 0001:0005a43c       BN_nist_mod_256            000000000005a6fc f   OpensslLib:bn_nist.obj
 0001:0005a78c       BN_nist_mod_384            000000000005aa4c f   OpensslLib:bn_nist.obj
 0001:0005ab50       BN_nist_mod_521            000000000005ae10 f   OpensslLib:bn_nist.obj
 0001:0005ad24       ec_GFp_mont_group_init     000000000005afe4 f   OpensslLib:ecp_mont.obj
 0001:0005ad48       ec_GFp_mont_group_finish   000000000005b008 f   OpensslLib:ecp_mont.obj
 0001:0005ad80       ec_GFp_mont_group_clear_finish 000000000005b040 f   OpensslLib:ecp_mont.obj
 0001:0005adb8       ec_GFp_mont_group_copy     000000000005b078 f   OpensslLib:ecp_mont.obj
 0001:0005aeb4       ec_GFp_mont_group_set_curve 000000000005b174 f   OpensslLib:ecp_mont.obj
 0001:0005b0d8       ec_GFp_mont_field_mul      000000000005b398 f   OpensslLib:ecp_mont.obj
 0001:0005b130       ec_GFp_mont_field_sqr      000000000005b3f0 f   OpensslLib:ecp_mont.obj
 0001:0005b17c       ec_GFp_mont_field_inv      000000000005b43c f   OpensslLib:ecp_mont.obj
 0001:0005b28c       ec_GFp_mont_field_encode   000000000005b54c f   OpensslLib:ecp_mont.obj
 0001:0005b2e0       ec_GFp_mont_field_decode   000000000005b5a0 f   OpensslLib:ecp_mont.obj
 0001:0005b328       ec_GFp_mont_field_set_to_one 000000000005b5e8 f   OpensslLib:ecp_mont.obj
 0001:0005b36c       RSA_padding_check_PKCS1_type_1 000000000005b62c f   OpensslLib:rsa_pk1.obj
 0001:0005b43c       RSA_padding_add_PKCS1_type_2 000000000005b6fc f   OpensslLib:rsa_pk1.obj
 0001:0005b4f4       RSA_padding_check_PKCS1_type_2 000000000005b7b4 f   OpensslLib:rsa_pk1.obj
 0001:0005b804       RSA_padding_add_SSLv23     000000000005bac4 f   OpensslLib:rsa_ssl.obj
 0001:0005b8d0       RSA_padding_check_SSLv23   000000000005bb90 f   OpensslLib:rsa_ssl.obj
 0001:0005bcbc       DH_check_params            000000000005bf7c f   OpensslLib:dh_check.obj
 0001:0005bda0       DH_check                   000000000005c060 f   OpensslLib:dh_check.obj
 0001:0005bf64       DH_check_pub_key           000000000005c224 f   OpensslLib:dh_check.obj
 0001:0005c080       ECPKParameters_print       000000000005c340 f   OpensslLib:eck_prn.obj
 0001:0005c9c8       EC_GROUP_check             000000000005cc88 f   OpensslLib:ec_check.obj
 0001:0005cb00       RSA_check_key_ex           000000000005cdc0 f   OpensslLib:rsa_chk.obj
 0001:0005d248       X509_signature_dump        000000000005d508 f   OpensslLib:t_x509.obj
 0001:0005d354       i2a_ASN1_INTEGER           000000000005d614 f   OpensslLib:f_int.obj
 0001:0005d4f0       d2i_DHxparams              000000000005d7b0 f   OpensslLib:dh_asn1.obj
 0001:0005d5cc       BN_mod_sqrt                000000000005d88c f   OpensslLib:bn_sqrt.obj
 0001:0005dd08       BN_kronecker               000000000005dfc8 f   OpensslLib:bn_kron.obj
 0001:0005df90       i2a_ASN1_STRING            000000000005e250 f   OpensslLib:f_string.obj
 0001:0005e120       SM4_set_key                000000000005e3e0 f   OpensslLib:sm4.obj
 0001:0005e2dc       SM4_encrypt                000000000005e59c f   OpensslLib:sm4.obj
 0001:0005eb8c       SM4_decrypt                000000000005ee4c f   OpensslLib:sm4.obj
 0001:0005f43c       CRYPTO_cbc128_encrypt      000000000005f6fc f   OpensslLib:cbc128.obj
 0001:0005f510       CRYPTO_cbc128_decrypt      000000000005f7d0 f   OpensslLib:cbc128.obj
 0001:0005f5d0       CRYPTO_ofb128_encrypt      000000000005f890 f   OpensslLib:ofb128.obj
 0001:0005f658       CRYPTO_ctr128_encrypt      000000000005f918 f   OpensslLib:ctr128.obj
 0001:0005f708       CRYPTO_ctr128_encrypt_ctr32 000000000005f9c8 f   OpensslLib:ctr128.obj
 0001:0005f900       CRYPTO_cfb128_encrypt      000000000005fbc0 f   OpensslLib:cfb128.obj
 0001:0005fb00       CRYPTO_cfb128_1_encrypt    000000000005fdc0 f   OpensslLib:cfb128.obj
 0001:0005fbf4       CRYPTO_cfb128_8_encrypt    000000000005feb4 f   OpensslLib:cfb128.obj
 0001:0005fdf8       CRYPTO_gcm128_init         00000000000600b8 f   OpensslLib:gcm128.obj
 0001:0005ffd4       CRYPTO_gcm128_setiv        0000000000060294 f   OpensslLib:gcm128.obj
 0001:00060198       CRYPTO_gcm128_aad          0000000000060458 f   OpensslLib:gcm128.obj
 0001:000602d4       CRYPTO_gcm128_encrypt      0000000000060594 f   OpensslLib:gcm128.obj
 0001:0006041c       CRYPTO_gcm128_decrypt      00000000000606dc f   OpensslLib:gcm128.obj
 0001:00060564       CRYPTO_gcm128_finish       0000000000060824 f   OpensslLib:gcm128.obj
 0001:000606ec       CRYPTO_gcm128_tag          00000000000609ac f   OpensslLib:gcm128.obj
 0001:00060724       CRYPTO_ccm128_init         00000000000609e4 f   OpensslLib:ccm128.obj
 0001:0006078c       CRYPTO_ccm128_setiv        0000000000060a4c f   OpensslLib:ccm128.obj
 0001:00060820       CRYPTO_ccm128_aad          0000000000060ae0 f   OpensslLib:ccm128.obj
 0001:0006099c       CRYPTO_ccm128_encrypt      0000000000060c5c f   OpensslLib:ccm128.obj
 0001:00060c50       CRYPTO_ccm128_decrypt      0000000000060f10 f   OpensslLib:ccm128.obj
 0001:00060e4c       CRYPTO_ccm128_encrypt_ccm64 000000000006110c f   OpensslLib:ccm128.obj
 0001:00061094       CRYPTO_ccm128_decrypt_ccm64 0000000000061354 f   OpensslLib:ccm128.obj
 0001:0006128c       CRYPTO_ccm128_tag          000000000006154c f   OpensslLib:ccm128.obj
 0001:00061624       aria_encrypt               00000000000618e4 f   OpensslLib:aria.obj
 0001:00061718       aria_set_encrypt_key       00000000000619d8 f   OpensslLib:aria.obj
 0001:00061a44       aria_set_decrypt_key       0000000000061d04 f   OpensslLib:aria.obj
 0001:00061af8       CRYPTO_xts128_encrypt      0000000000061db8 f   OpensslLib:xts128.obj
 0001:00061d98       AES_set_encrypt_key        0000000000062058 f   OpensslLib:aes_core.obj
 0001:00062380       AES_set_decrypt_key        0000000000062640 f   OpensslLib:aes_core.obj
 0001:000625bc       AES_encrypt                000000000006287c f   OpensslLib:aes_core.obj
 0001:00062c00       AES_decrypt                0000000000062ec0 f   OpensslLib:aes_core.obj
 0001:00063230       CRYPTO_128_wrap            00000000000634f0 f   OpensslLib:wrap128.obj
 0001:000634b0       CRYPTO_128_wrap_pad        0000000000063770 f   OpensslLib:wrap128.obj
 0001:000635dc       CRYPTO_128_unwrap_pad      000000000006389c f   OpensslLib:wrap128.obj
 0001:00063780       AES_cbc_encrypt            0000000000063a40 f   OpensslLib:aes_cbc.obj
 0001:00064790       SHA3_absorb                0000000000064a50 f   OpensslLib:keccak1600.obj
 0001:00064858       SHA3_squeeze               0000000000064b18 f   OpensslLib:keccak1600.obj
 0001:00064934       sm3_final                  0000000000064bf4 f   OpensslLib:sm3.obj
 0001:00064b64       sm3_block_data_order       0000000000064e24 f   OpensslLib:sm3.obj
 0001:0006723c       BN_GENCB_call              00000000000674fc f   OpensslLib:bn_prime.obj
 0001:00067290       BN_generate_prime_ex       0000000000067550 f   OpensslLib:bn_prime.obj
 0001:000674f8       BN_is_prime_fasttest_ex    00000000000677b8 f   OpensslLib:bn_prime.obj
 0001:00067efc       curve448_scalar_add        00000000000681bc f   OpensslLib:scalar.obj
 0001:00067f50       curve448_scalar_decode_long 0000000000068210 f   OpensslLib:scalar.obj
 0001:00068114       curve448_scalar_halve      00000000000683d4 f   OpensslLib:scalar.obj
 0001:00068228       gf_serialize               00000000000684e8 f   OpensslLib:f_generic.obj
 0001:000682b8       gf_deserialize             0000000000068578 f   OpensslLib:f_generic.obj
 0001:00068384       gf_strong_reduce           0000000000068644 f   OpensslLib:f_generic.obj
 0001:00068408       gf_sub                     00000000000686c8 f   OpensslLib:f_generic.obj
 0001:00068458       gf_add                     0000000000068718 f   OpensslLib:f_generic.obj
 0001:00068484       gf_eq                      0000000000068744 f   OpensslLib:f_generic.obj
 0001:000684f4       gf_isr                     00000000000687b4 f   OpensslLib:f_generic.obj
 0001:00068718       gf_mul                     00000000000689d8 f   OpensslLib:f_impl.obj
 0001:00068930       gf_mulw_unsigned           0000000000068bf0 f   OpensslLib:f_impl.obj
 0001:000689d4       ec_GFp_simple_group_init   0000000000068c94 f   OpensslLib:ecp_smpl.obj
 0001:00068a38       ec_GFp_simple_group_finish 0000000000068cf8 f   OpensslLib:ecp_smpl.obj
 0001:00068a64       ec_GFp_simple_group_clear_finish 0000000000068d24 f   OpensslLib:ecp_smpl.obj
 0001:00068a90       ec_GFp_simple_group_copy   0000000000068d50 f   OpensslLib:ecp_smpl.obj
 0001:00068af0       ec_GFp_simple_group_set_curve 0000000000068db0 f   OpensslLib:ecp_smpl.obj
 0001:00068c94       ec_GFp_simple_group_get_curve 0000000000068f54 f   OpensslLib:ecp_smpl.obj
 0001:00068da0       ec_GFp_simple_group_get_degree 0000000000069060 f   OpensslLib:ecp_smpl.obj
 0001:00068dac       ec_GFp_simple_group_check_discriminant 000000000006906c f   OpensslLib:ecp_smpl.obj
 0001:00068fb4       ec_GFp_simple_point_init   0000000000069274 f   OpensslLib:ecp_smpl.obj
 0001:00069018       ec_GFp_simple_point_finish 00000000000692d8 f   OpensslLib:ecp_smpl.obj
 0001:00069044       ec_GFp_simple_point_clear_finish 0000000000069304 f   OpensslLib:ecp_smpl.obj
 0001:00069074       ec_GFp_simple_point_copy   0000000000069334 f   OpensslLib:ecp_smpl.obj
 0001:000690dc       ec_GFp_simple_point_set_to_infinity 000000000006939c f   OpensslLib:ecp_smpl.obj
 0001:000690f0       ec_GFp_simple_set_Jprojective_coordinates_GFp 00000000000693b0 f   OpensslLib:ecp_smpl.obj
 0001:00069274       ec_GFp_simple_get_Jprojective_coordinates_GFp 0000000000069534 f   OpensslLib:ecp_smpl.obj
 0001:000693a8       ec_GFp_simple_point_set_affine_coordinates 0000000000069668 f   OpensslLib:ecp_smpl.obj
 0001:00069434       ec_GFp_simple_point_get_affine_coordinates 00000000000696f4 f   OpensslLib:ecp_smpl.obj
 0001:000696ec       ec_GFp_simple_add          00000000000699ac f   OpensslLib:ecp_smpl.obj
 0001:00069c60       ec_GFp_simple_dbl          0000000000069f20 f   OpensslLib:ecp_smpl.obj
 0001:0006a094       ec_GFp_simple_invert       000000000006a354 f   OpensslLib:ecp_smpl.obj
 0001:0006a0d4       ec_GFp_simple_is_at_infinity 000000000006a394 f   OpensslLib:ecp_smpl.obj
 0001:0006a0e4       ec_GFp_simple_is_on_curve  000000000006a3a4 f   OpensslLib:ecp_smpl.obj
 0001:0006a3b8       ec_GFp_simple_cmp          000000000006a678 f   OpensslLib:ecp_smpl.obj
 0001:0006a64c       ec_GFp_simple_make_affine  000000000006a90c f   OpensslLib:ecp_smpl.obj
 0001:0006a754       ec_GFp_simple_points_make_affine 000000000006aa14 f   OpensslLib:ecp_smpl.obj
 0001:0006aba4       ec_GFp_simple_field_inv    000000000006ae64 f   OpensslLib:ecp_smpl.obj
 0001:0006acc8       ec_GFp_simple_blind_coordinates 000000000006af88 f   OpensslLib:ecp_smpl.obj
 0001:0006ae30       ec_GFp_simple_ladder_pre   000000000006b0f0 f   OpensslLib:ecp_smpl.obj
 0001:0006b0d4       ec_GFp_simple_ladder_step  000000000006b394 f   OpensslLib:ecp_smpl.obj
 0001:0006b660       ec_GFp_simple_ladder_post  000000000006b920 f   OpensslLib:ecp_smpl.obj
 0001:0006bb50       time                       000000000006be10 f   BaseCryptLib:TimerWrapper.obj
 0001:0006bcac       gmtime                     000000000006bf6c f   BaseCryptLib:TimerWrapper.obj
 0001:0006c0e4       strncasecmp                000000000006c3a4 f   BaseCryptLib:CrtWrapper.obj
 0001:0006c18c       sscanf                     000000000006c44c f   BaseCryptLib:CrtWrapper.obj
 0001:0006c18c       BIO_printf                 000000000006c44c f   BaseCryptLib:CrtWrapper.obj
 0001:0006c19c       strcpy                     000000000006c45c f   BaseCryptLib:CrtWrapper.obj
 0001:0006c2c0       qsort                      000000000006c580 f   BaseCryptLib:CrtWrapper.obj
 0001:0006c380       BIO_snprintf               000000000006c640 f   BaseCryptLib:CrtWrapper.obj
 0001:0006c388       ScanMem8                   000000000006c648 f   BaseMemoryLibRepStr:ScanMem8Wrapper.obj
 0001:0006c40c       GetRandomNumber64          000000000006c6cc f   BaseRngLibTimerLib:RngLibTimer.obj
 0001:0006c46c       InternalAcpiDelay          000000000006c72c f   DxeAcpiTimerLib:AcpiTimerLib.obj
 0001:0006c4d0       memset                     000000000006c790 f   BaseIntrinsicLib:MemoryIntrinsics.obj
 0001:0006c4e8       strcmp                     000000000006c7a8 f   BaseIntrinsicLib:MemoryIntrinsics.obj
 0002:00000000       ??_C@_0CB@DMEJJJHA@?6ASSERT_EFI_ERROR?5?$CIStatus?5?$DN?5?$CFr?$CJ@ 000000000006c7c0     UefiDriverEntryPoint:DriverEntryPoint.obj
 0002:00000028       ??_C@_0CH@BBNBJKHK@?$CB?$CI?$CI?$CIINTN?$CJ?$CIRETURN_STATUS?$CJ?$CIStatus@ 000000000006c7e8     UefiDriverEntryPoint:DriverEntryPoint.obj
 0002:00000050       ??_C@_0BA@LJMMGAKJ@SecurityStubDxe@ 000000000006c810     SecurityStubDxe:AutoGen.obj
 0002:00000060       ??_C@_0CE@IBFOBMLB@?6ASSERT_RETURN_ERROR?5?$CIStatus?5?$DN?5@ 000000000006c820     SecurityStubDxe:AutoGen.obj
 0002:00000090       ??_C@_0HF@JPPMPBHE@d?3?2myedk2?2edk2?2Build?2OvmfX64?2DE@ 000000000006c850     SecurityStubDxe:AutoGen.obj
 0002:00000108       gEfiCertSha1Guid           000000000006c8c8     SecurityStubDxe:AutoGen.obj
 0002:00000118       gEfiCertSha512Guid         000000000006c8d8     SecurityStubDxe:AutoGen.obj
 0002:00000128       gEfiCertSha256Guid         000000000006c8e8     SecurityStubDxe:AutoGen.obj
 0002:00000138       gEfiCertSha384Guid         000000000006c8f8     SecurityStubDxe:AutoGen.obj
 0002:00000150       ??_C@_0EF@MJHNHPCB@d?3?2myedk2?2edk2?2MdeModulePkg?2Uni@ 000000000006c910     SecurityStubDxe:SecurityStub.obj
 0002:00000198       ??_C@_0DN@IMCCOJCP@?$CGgEfiSecurity2ArchProtocolGuid?5@ 000000000006c958     SecurityStubDxe:SecurityStub.obj
 0002:000001d8       ??_C@_0DM@NIBNIPIJ@?$CGgEfiSecurityArchProtocolGuid?5a@ 000000000006c998     SecurityStubDxe:SecurityStub.obj
 0002:00000220       ??_C@_0EB@BCIIIHHL@mDeferred3rdPartyImage?4ImageInf@ 000000000006c9e0     SecurityStubDxe:Defer3rdPartyImageLoad.obj
 0002:00000270       ??_C@_0EP@NICPCIME@d?3?2myedk2?2edk2?2MdeModulePkg?2Uni@ 000000000006ca30     SecurityStubDxe:Defer3rdPartyImageLoad.obj
 0002:000002c0       ??_C@_0FP@DHGKCBJI@?$FLSecurity?$FN?53rd?5party?5images?5mus@ 000000000006ca80     SecurityStubDxe:Defer3rdPartyImageLoad.obj
 0002:00000320       ??_C@_0BC@FEDIJHFF@?$CI?$CIBOOLEAN?$CJ?$CI0?$DN?$DN1?$CJ?$CJ@ 000000000006cae0     SecurityStubDxe:Defer3rdPartyImageLoad.obj
 0002:00000338       ??_C@_1CI@IGGGDBOL@?$AAc?$AAa?$AAn?$AA?5?$AAb?$AAe?$AA?5?$AAl?$AAo?$AAa?$AAd?$AAe?$AAd?$AA?5?$AAa@ 000000000006caf8     SecurityStubDxe:Defer3rdPartyImageLoad.obj
 0002:00000360       ??_C@_1DG@HBDOOEMM@?$AAi?$AAs?$AA?5?$AAd?$AAe?$AAf?$AAe?$AAr?$AAr?$AAe?$AAd?$AA?5?$AAt?$AAo?$AA?5@ 000000000006cb20     SecurityStubDxe:Defer3rdPartyImageLoad.obj
 0002:00000398       ??_C@_0DB@JKBMKBKE@?$FLSecurity?$FN?53rd?5party?5image?$FL?$CFp?$FN?5@ 000000000006cb58     SecurityStubDxe:Defer3rdPartyImageLoad.obj
 0002:000003d0       ??_C@_0ED@MKGCMJG@?$CILength?5?9?51?$CJ?5?$DM?$DN?5?$CI0xFFFFFFFFFFFF@ 000000000006cb90     BaseMemoryLibRepStr:CopyMemWrapper.obj
 0002:00000420       ??_C@_0ED@JAIIHABO@d?3?2myedk2?2edk2?2MdePkg?2Library?2B@ 000000000006cbe0     BaseMemoryLibRepStr:CopyMemWrapper.obj
 0002:00000468       ??_C@_0DO@MAOBOFEG@?$CILength?5?9?51?$CJ?5?$DM?$DN?5?$CI0xFFFFFFFFFFFF@ 000000000006cc28     BaseMemoryLibRepStr:CopyMemWrapper.obj
 0002:000004a8       ??_C@_0CC@JOEHDGKB@DestinationBuffer?5?$CB?$DN?5?$CI?$CIvoid?5?$CK?$CJ?5@ 000000000006cc68     BaseMemoryLibRepStr:CompareMemWrapper.obj
 0002:000004d0       ??_C@_0EG@FCOMBDPM@d?3?2myedk2?2edk2?2MdePkg?2Library?2B@ 000000000006cc90     BaseMemoryLibRepStr:CompareMemWrapper.obj
 0002:00000518       ??_C@_0BN@MDMCNBCC@SourceBuffer?5?$CB?$DN?5?$CI?$CIvoid?5?$CK?$CJ?50?$CJ@ 000000000006ccd8     BaseMemoryLibRepStr:CompareMemWrapper.obj
 0002:00000538       ??_C@_0BH@LKMBFCBF@Format?5?$CB?$DN?5?$CI?$CIvoid?5?$CK?$CJ?50?$CJ@ 000000000006ccf8     BaseDebugLibSerialPort:DebugLib.obj
 0002:00000550       ??_C@_0EA@MCEJFCHO@d?3?2myedk2?2edk2?2MdePkg?2Library?2B@ 000000000006cd10     BaseDebugLibSerialPort:DebugLib.obj
 0002:00000590       ??_C@_0BI@NOCKJDBJ@ASSERT?5?$FL?$CFa?$FN?5?$CFa?$CI?$CFd?$CJ?3?5?$CFa?6@ 000000000006cd50     BaseDebugLibSerialPort:DebugLib.obj
 0002:000005a8       ??_C@_0BH@IACGKAP@Buffer?5?$CB?$DN?5?$CI?$CIvoid?5?$CK?$CJ?50?$CJ@ 000000000006cd68     BaseDebugLibSerialPort:DebugLib.obj
 0002:000005c0       ??_C@_0BN@COECPDCC@gImageHandle?5?$CB?$DN?5?$CI?$CIvoid?5?$CK?$CJ?50?$CJ@ 000000000006cd80     UefiBootServicesTableLib:UefiBootServicesTableLib.obj
 0002:000005e0       ??_C@_0FC@HJEJKBBP@d?3?2myedk2?2edk2?2MdePkg?2Library?2U@ 000000000006cda0     UefiBootServicesTableLib:UefiBootServicesTableLib.obj
 0002:00000638       ??_C@_0BE@DGNHAHIL@gST?5?$CB?$DN?5?$CI?$CIvoid?5?$CK?$CJ?50?$CJ@ 000000000006cdf8     UefiBootServicesTableLib:UefiBootServicesTableLib.obj
 0002:00000650       ??_C@_0BE@BDFJLGLN@gBS?5?$CB?$DN?5?$CI?$CIvoid?5?$CK?$CJ?50?$CJ@ 000000000006ce10     UefiBootServicesTableLib:UefiBootServicesTableLib.obj
 0002:00000670       ??_C@_0EM@BLKCBDHP@d?3?2myedk2?2edk2?2MdePkg?2Library?2U@ 000000000006ce30     UefiMemoryAllocationLib:MemoryAllocationLib.obj
 0002:000006c0       ??_C@_0FG@PKIHNGDJ@d?3?2myedk2?2edk2?2MdePkg?2Library?2U@ 000000000006ce80     UefiDevicePathLibDevicePathProtocol:UefiDevicePathLib.obj
 0002:00000718       ??_C@_0DC@CNNBPJA@mDevicePathLibDevicePathUtiliti@ 000000000006ced8     UefiDevicePathLibDevicePathProtocol:UefiDevicePathLib.obj
 0002:00000750       ??_C@_0BF@CBLMFKOC@Node?5?$CB?$DN?5?$CI?$CIvoid?5?$CK?$CJ?50?$CJ@ 000000000006cf10     UefiDevicePathLibDevicePathProtocol:UefiDevicePathLib.obj
 0002:00000768       ??_C@_0BE@OBDFIHND@gRT?5?$CB?$DN?5?$CI?$CIvoid?5?$CK?$CJ?50?$CJ@ 000000000006cf28     UefiRuntimeServicesTableLib:UefiRuntimeServicesTableLib.obj
 0002:00000780       ??_C@_0FI@ELFALICJ@d?3?2myedk2?2edk2?2MdePkg?2Library?2U@ 000000000006cf40     UefiRuntimeServicesTableLib:UefiRuntimeServicesTableLib.obj
 0002:000007d8       ??_C@_0BK@PPOBBAMB@TableGuid?5?$CB?$DN?5?$CI?$CIvoid?5?$CK?$CJ?50?$CJ@ 000000000006cf98     UefiLib:UefiLib.obj
 0002:000007f8       ??_C@_0DA@MHLDPJPP@d?3?2myedk2?2edk2?2MdePkg?2Library?2U@ 000000000006cfb8     UefiLib:UefiLib.obj
 0002:00000828       ??_C@_0BG@JDKEGFNB@Table?5?$CB?$DN?5?$CI?$CIvoid?5?$CK?$CJ?50?$CJ@ 000000000006cfe8     UefiLib:UefiLib.obj
 0002:00000840       ??_C@_0EG@GOBFPEEP@Name?5?$CB?$DN?5?$CI?$CIvoid?5?$CK?$CJ?50?$CJ?5?$CG?$CG?5Guid?5?$CB?$DN@ 000000000006d000     UefiLib:UefiLib.obj
 0002:00000888       ??_C@_0BH@FMEOEIBC@?$CKValue?5?$CB?$DN?5?$CI?$CIvoid?5?$CK?$CJ?50?$CJ@ 000000000006d048     UefiLib:UefiLib.obj
 0002:000008a0       ??_C@_0CG@CADOKAGM@?$CI?$CI?$CIINTN?$CJ?$CIRETURN_STATUS?$CJ?$CIStatus?$CJ@ 000000000006d060     UefiLib:UefiLib.obj
 0002:000008c8       ??_C@_0DB@IMLKCNBK@d?3?2myedk2?2edk2?2MdePkg?2Library?2D@ 000000000006d088     DxeHobLib:HobLib.obj
 0002:00000900       ??_C@_0BJ@OBFMLLDO@mHobList?5?$CB?$DN?5?$CI?$CIvoid?5?$CK?$CJ?50?$CJ@ 000000000006d0c0     DxeHobLib:HobLib.obj
 0002:00000920       ??_C@_0BJ@NOLLDKJB@HobStart?5?$CB?$DN?5?$CI?$CIvoid?5?$CK?$CJ?50?$CJ@ 000000000006d0e0     DxeHobLib:HobLib.obj
 0002:00000940       ??_C@_0BP@LHBKJBMC@PlatformInfoHob?5is?5not?5found?4?6@ 000000000006d100     DxeAcpiTimerLib:DxeAcpiTimerLib.obj
 0002:00000960       ??_C@_0DO@DECBCOF@d?3?2myedk2?2edk2?2OvmfPkg?2Library?2@ 000000000006d120     DxeAcpiTimerLib:DxeAcpiTimerLib.obj
 0002:000009a0       ??_C@_0BI@HAGPDMHJ@AcpiTimerLibConstructor@ 000000000006d160     DxeAcpiTimerLib:DxeAcpiTimerLib.obj
 0002:000009b8       ??_C@_0CL@DGCOIACG@?$CFa?3?5Unknown?5Host?5Bridge?5Device?5@ 000000000006d178     DxeAcpiTimerLib:DxeAcpiTimerLib.obj
 0002:000009f0       ??_C@_0FI@FEOOCHC@d?3?2myedk2?2edk2?2MdeModulePkg?2Lib@ 000000000006d1b0     DxeSecurityManagementLib:DxeSecurityManagementLib.obj
 0002:00000a50       ??_C@_0FA@IHNNLLKH@CheckAuthentication2Operation?5?$CI@ 000000000006d210     DxeSecurityManagementLib:DxeSecurityManagementLib.obj
 0002:00000aa0       ??_C@_19DILNDFJH@?$AAS?$AAH?$AAA?$AA1@ 000000000006d260     DxeImageVerificationLib:DxeImageVerificationLib.obj
 0002:00000ab0       ??_C@_1O@MDCKFILO@?$AAS?$AAH?$AAA?$AA2?$AA2?$AA4@ 000000000006d270     DxeImageVerificationLib:DxeImageVerificationLib.obj
 0002:00000ac0       ??_C@_1O@HECGKAIN@?$AAS?$AAH?$AAA?$AA2?$AA5?$AA6@ 000000000006d280     DxeImageVerificationLib:DxeImageVerificationLib.obj
 0002:00000ad0       ??_C@_1O@KOBLHLEG@?$AAS?$AAH?$AAA?$AA3?$AA8?$AA4@ 000000000006d290     DxeImageVerificationLib:DxeImageVerificationLib.obj
 0002:00000ae0       ??_C@_1O@GKBAHMNF@?$AAS?$AAH?$AAA?$AA5?$AA1?$AA2@ 000000000006d2a0     DxeImageVerificationLib:DxeImageVerificationLib.obj
 0002:00000af0       ??_C@_0DA@LGPFMGPP@Signature?5?$CB?$DN?5?$CI?$CIvoid?5?$CK?$CJ?50?$CJ?5?$HM?$HM?5Si@ 000000000006d2b0     DxeImageVerificationLib:DxeImageVerificationLib.obj
 0002:00000b20       ??_C@_0FF@EFKEDEK@d?3?2myedk2?2edk2?2SecurityPkg?2Libr@ 000000000006d2e0     DxeImageVerificationLib:DxeImageVerificationLib.obj
 0002:00000b78       ??_C@_15EMHHCMJI@?$AAd?$AAb@ 000000000006d338     DxeImageVerificationLib:DxeImageVerificationLib.obj
 0002:00000b80       ??_C@_17GPBNBHEN@?$AAd?$AAb?$AAt@ 000000000006d340     DxeImageVerificationLib:DxeImageVerificationLib.obj
 0002:00000b88       ??_C@_17CFMLKIPF@?$AAd?$AAb?$AAx@ 000000000006d348     DxeImageVerificationLib:DxeImageVerificationLib.obj
 0002:00000b90       ??_C@_0EN@OAEDNNJH@DxeImageVerificationLib?3?5Image?5@ 000000000006d350     DxeImageVerificationLib:DxeImageVerificationLib.obj
 0002:00000be0       ??_C@_0FE@LHLCOCMG@DxeImageVerificationLib?3?5Image?5@ 000000000006d3a0     DxeImageVerificationLib:DxeImageVerificationLib.obj
 0002:00000c40       ??_C@_0HJ@IPFIIPJ@DxeImageVerificationLib?3?5Image?5@ 000000000006d400     DxeImageVerificationLib:DxeImageVerificationLib.obj
 0002:00000cc0       ??_C@_0CN@HGLOCNBM@Policy?5?$CB?$DN?50x00000005?5?$CG?$CG?5Policy?5@ 000000000006d480     DxeImageVerificationLib:DxeImageVerificationLib.obj
 0002:00000cf0       ??_C@_1BG@JEGAFCNI@?$AAS?$AAe?$AAc?$AAu?$AAr?$AAe?$AAB?$AAo?$AAo?$AAt@ 000000000006d4b0     DxeImageVerificationLib:DxeImageVerificationLib.obj
 0002:00000d10       ??_C@_0EO@LKMMOIME@DxeImageVerificationLib?3?5PeImag@ 000000000006d4d0     DxeImageVerificationLib:DxeImageVerificationLib.obj
 0002:00000d60       ??_C@_0DF@IIJEJIIE@DxeImageVerificationLib?3?5Not?5a?5@ 000000000006d520     DxeImageVerificationLib:DxeImageVerificationLib.obj
 0002:00000d98       ??_C@_0DO@COJGMEME@DxeImageVerificationLib?3?5Failed@ 000000000006d558     DxeImageVerificationLib:DxeImageVerificationLib.obj
 0002:00000de0       ??_C@_0FI@ELMNEFPH@DxeImageVerificationLib?3?5Image?5@ 000000000006d5a0     DxeImageVerificationLib:DxeImageVerificationLib.obj
 0002:00000e40       ??_C@_0FL@DAMFCDN@DxeImageVerificationLib?3?5Image?5@ 000000000006d600     DxeImageVerificationLib:DxeImageVerificationLib.obj
 0002:00000ea0       ??_C@_0FA@GHKOMGOH@DxeImageVerificationLib?3?5Image?5@ 000000000006d660     DxeImageVerificationLib:DxeImageVerificationLib.obj
 0002:00000ef0       ??_C@_0HK@LACJFNFH@DxeImageVerificationLib?3?5Image?5@ 000000000006d6b0     DxeImageVerificationLib:DxeImageVerificationLib.obj
 0002:00000f70       ??_C@_0CJ@BJMGFOEB@The?5image?5doesn?8t?5pass?5verifica@ 000000000006d730     DxeImageVerificationLib:DxeImageVerificationLib.obj
 0002:00000fa0       ??_C@_0DG@IKHBLEIC@mMeasuredAuthorityCount?5?$DM?$DN?5mMea@ 000000000006d760     DxeImageVerificationLib:Measurement.obj
 0002:00000fe0       ??_C@_0EJ@OLNODEPC@d?3?2myedk2?2edk2?2SecurityPkg?2Libr@ 000000000006d7a0     DxeImageVerificationLib:Measurement.obj
 0002:00001030       ??_C@_0EC@EMHNPDHL@DxeImageVerification?3?5MeasureVa@ 000000000006d7f0     DxeImageVerificationLib:Measurement.obj
 0002:00001078       ??_C@_0CF@EJGGIPIO@VariableName?5?9?5?$CFs?0?5VendorGuid?5?9@ 000000000006d838     DxeImageVerificationLib:Measurement.obj
 0002:000010a0       ??_C@_0DB@IMCIBOIB@MeasureSecureAuthorityVariable?5@ 000000000006d860     DxeImageVerificationLib:Measurement.obj
 0002:000010d8       ??_C@_0CA@GAMOOMNI@MeasureBootPolicyVariable?5?9?5?$CFr?6@ 000000000006d898     DxeImageVerificationLib:Measurement.obj
 0002:000010f8       ??_C@_0DE@IBFOALAL@d?3?2myedk2?2edk2?2MdePkg?2Library?2D@ 000000000006d8b8     DxePcdLib:DxePcdLib.obj
 0002:00001130       ??_C@_0BF@OOKDELHM@mPcd?5?$CB?$DN?5?$CI?$CIvoid?5?$CK?$CJ?50?$CJ@ 000000000006d8f0     DxePcdLib:DxePcdLib.obj
 0002:00001148       ??_C@_0DI@DAGDPLPG@?$CILength?5?9?51?$CJ?5?$DM?$DN?5?$CI0xFFFFFFFFFFFF@ 000000000006d908     BaseMemoryLibRepStr:SetMemWrapper.obj
 0002:00001180       ??_C@_0EC@NJPJFNGD@d?3?2myedk2?2edk2?2MdePkg?2Library?2B@ 000000000006d940     BaseMemoryLibRepStr:SetMemWrapper.obj
 0002:000011d0       ??_C@_0ED@CECKBBNJ@d?3?2myedk2?2edk2?2MdePkg?2Library?2B@ 000000000006d990     BaseMemoryLibRepStr:ZeroMemWrapper.obj
 0002:00001218       ??_C@_0DG@EEENIGGL@Length?5?$DM?$DN?5?$CI0xFFFFFFFFFFFFFFFFUL@ 000000000006d9d8     BaseMemoryLibRepStr:ZeroMemWrapper.obj
 0002:00001250       ??_C@_0BH@MAAHKCPC@String?5?$CB?$DN?5?$CI?$CIvoid?5?$CK?$CJ?50?$CJ@ 000000000006da10     BaseLib:String.obj
 0002:00001268       ??_C@_0CP@DJBLNMJI@d?3?2myedk2?2edk2?2MdePkg?2Library?2B@ 000000000006da28     BaseLib:String.obj
 0002:00001298       ??_C@_0CC@GFNLNIOC@?$CI?$CIUINTN?$CJString?5?$CG?50x00000001?$CJ?5?$DN?$DN@ 000000000006da58     BaseLib:String.obj
 0002:000012c0       ??_C@_0DK@EOJCOAME@Length?5?$DM?5_gPcd_FixedAtBuild_Pcd@ 000000000006da80     BaseLib:String.obj
 0002:00001300       ??_C@_0BL@JAAMOCAJ@StrSize?5?$CIFirstString?$CJ?5?$CB?$DN?50@ 000000000006dac0     BaseLib:String.obj
 0002:00001320       ??_C@_0BM@DALBOILC@StrSize?5?$CISecondString?$CJ?5?$CB?$DN?50@ 000000000006dae0     BaseLib:String.obj
 0002:00001340       ??_C@_0DI@MDIKFADO@Length?5?$DM?5_gPcd_FixedAtBuild_Pcd@ 000000000006db00     BaseLib:String.obj
 0002:00001378       ??_C@_0BL@IKFBNFIL@AsciiStrSize?5?$CIFirstString?$CJ@ 000000000006db38     BaseLib:String.obj
 0002:00001398       ??_C@_0BM@EDNOKLLE@AsciiStrSize?5?$CISecondString?$CJ@ 000000000006db58     BaseLib:String.obj
 0002:000013b8       ??_C@_0DJ@JJHGIFMP@Length?5?$DM?$DN?5_gPcd_FixedAtBuild_Pc@ 000000000006db78     BaseLib:String.obj
 0002:000013f8       ??_C@_0DC@DDBICJIK@d?3?2myedk2?2edk2?2MdePkg?2Library?2B@ 000000000006dbb8     BaseLib:Unaligned.obj
 0002:00001430       ??_C@_0DD@OKIGPFG@d?3?2myedk2?2edk2?2MdePkg?2Library?2B@ 000000000006dbf0     BaseLib:SafeString.obj
 0002:00001468       ??_C@_0BO@ECNIOIHG@?$CIDestination?5?$CB?$DN?5?$CI?$CIvoid?5?$CK?$CJ?50?$CJ?$CJ@ 000000000006dc28     BaseLib:SafeString.obj
 0002:00001490       ??_C@_0EA@PDPDJJNN@?$CFa?$CI?$CFd?$CJ?5?$CFa?3?5SAFE_STRING_CONSTRAI@ 000000000006dc50     BaseLib:SafeString.obj
 0002:000014d0       ??_C@_0BJ@EAEEJIP@?$CISource?5?$CB?$DN?5?$CI?$CIvoid?5?$CK?$CJ?50?$CJ?$CJ@ 000000000006dc90     BaseLib:SafeString.obj
 0002:000014f0       ??_C@_0BG@EEGIIOKH@?$CIDestMax?5?$DO?5SourceLen?$CJ@ 000000000006dcb0     BaseLib:SafeString.obj
 0002:00001508       ??_C@_0P@BHOOOJPD@?$CICopyLen?5?$CB?$DN?50?$CJ@ 000000000006dcc8     BaseLib:SafeString.obj
 0002:00001518       ??_C@_0BG@BPGICNPK@?$CICopyLen?5?$DO?5SourceLen?$CJ@ 000000000006dcd8     BaseLib:SafeString.obj
 0002:00001530       ??_C@_0BJ@MBBOBCLN@?$CIString?5?$CB?$DN?5?$CI?$CIvoid?5?$CK?$CJ?50?$CJ?$CJ@ 000000000006dcf0     BaseLib:SafeString.obj
 0002:00001550       ??_C@_0BH@JPMEDPAI@?$CIData?5?$CB?$DN?5?$CI?$CIvoid?5?$CK?$CJ?50?$CJ?$CJ@ 000000000006dd10     BaseLib:SafeString.obj
 0002:00001568       ??_C@_0BJ@CNKJJNE@?$CIBuffer?5?$CB?$DN?5?$CI?$CIvoid?5?$CK?$CJ?50?$CJ?$CJ@ 000000000006dd28     BaseLib:SafeString.obj
 0002:00001588       ??_C@_0N@OMPODJLB@AsciiStrCpyS@ 000000000006dd48     BaseLib:SafeString.obj
 0002:000015a0       ??_C@_0FL@CDANCHFO@InternalSafeStringNoAsciiStrOve@ 000000000006dd60     BaseLib:SafeString.obj
 0002:00001600       ??_C@_0O@DIHNCLLG@AsciiStrnCpyS@ 000000000006ddc0     BaseLib:SafeString.obj
 0002:00001610       ??_C@_0DN@DLAADCJE@?$CILength?5?$DM?$DN?5?$CI_gPcd_FixedAtBuild_@ 000000000006ddd0     BaseLib:SafeString.obj
 0002:00001650       ??_C@_0N@MIDJKBI@AsciiStrCatS@ 000000000006de10     BaseLib:SafeString.obj
 0002:00001660       ??_C@_0BI@GIIHIIN@AsciiStrDecimalToUintnS@ 000000000006de20     BaseLib:SafeString.obj
 0002:00001680       ??_C@_0ID@JMCCGBLD@?$CIAsciiStrnLenS?5?$CIString?0?5?$CI_gPcd_@ 000000000006de40     BaseLib:SafeString.obj
 0002:00001708       ??_C@_0N@KGHEHMDL@Divisor?5?$CB?$DN?50@ 000000000006dec8     BaseLib:DivU64x32.obj
 0002:00001718       ??_C@_0DM@HGIGHENF@d?3?2myedk2?2edk2?2MdePkg?2Library?2B@ 000000000006ded8     BaseIoLibIntrinsicSev:IoLibMsc.obj
 0002:00001758       ??_C@_0BA@HCECIDGN@?$CIPort?5?$CG?53?$CJ?5?$DN?$DN?50@ 000000000006df18     BaseIoLibIntrinsicSev:IoLibMsc.obj
 0002:00001768       ??_C@_0BD@OMMAJMCK@?$CIAddress?5?$CG?53?$CJ?5?$DN?$DN?50@ 000000000006df28     BaseIoLibIntrinsicSev:IoLibInternalTdx.obj
 0002:00001780       ??_C@_0DO@DLJLNPNA@d?3?2myedk2?2edk2?2MdePkg?2Library?2B@ 000000000006df40     BasePrintLib:PrintLibInternal.obj
 0002:000017c0       ??_C@_0EB@HDGIDCIO@?$CIBufferSize?5?$DM?$DN?5?$CI_gPcd_FixedAtBu@ 000000000006df80     BasePrintLib:PrintLibInternal.obj
 0002:00001808       ??_C@_0BJ@PPAKKDJG@?$CIFormat?5?$CB?$DN?5?$CI?$CIvoid?5?$CK?$CJ?50?$CJ?$CJ@ 000000000006dfc8     BasePrintLib:PrintLibInternal.obj
 0002:00001830       ??_C@_0ED@LPDDCECB@?$CIBufferSize?5?$DM?$DN?5?$CI_gPcd_FixedAtBu@ 000000000006dff0     BasePrintLib:PrintLibInternal.obj
 0002:00001880       ??_C@_0IM@BFJJFLGB@?$CIStrnLenS?5?$CI?$CICHAR16?5?$CK?$CJFormat?0?5?$CI_@ 000000000006e040     BasePrintLib:PrintLibInternal.obj
 0002:00001910       ??_C@_0ID@PLGJGION@?$CIAsciiStrnLenS?5?$CIFormat?0?5?$CI_gPcd_@ 000000000006e0d0     BasePrintLib:PrintLibInternal.obj
 0002:00001998       ??_C@_0O@MLOLIMFM@?$DMnull?5string?$DO@ 000000000006e158     BasePrintLib:PrintLibInternal.obj
 0002:000019a8       ??_C@_0M@BJJDNPHK@?$DMnull?5guid?$DO@ 000000000006e168     BasePrintLib:PrintLibInternal.obj
 0002:000019b8       ??_C@_0DB@PMLHLBMO@?$CF08x?9?$CF04x?9?$CF04x?9?$CF02x?$CF02x?9?$CF02x?$CF02@ 000000000006e178     BasePrintLib:PrintLibInternal.obj
 0002:000019f0       ??_C@_0M@LHGBCIKM@?$DMnull?5time?$DO@ 000000000006e1b0     BasePrintLib:PrintLibInternal.obj
 0002:00001a00       ??_C@_0BK@FCPKCIDD@?$CF02d?1?$CF02d?1?$CF04d?5?5?$CF02d?3?$CF02d@ 000000000006e1c0     BasePrintLib:PrintLibInternal.obj
 0002:00001a1c       ??_C@_04JIMNDDED@?$CF08X@  000000000006e1dc     BasePrintLib:PrintLibInternal.obj
 0002:00001a24       ??_C@_02PCIJFNDE@?$AN?6@   000000000006e1e4     BasePrintLib:PrintLibInternal.obj
 0002:00001a28       ??_C@_01LIIJDEN@?$AN@      000000000006e1e8     BasePrintLib:PrintLibInternal.obj
 0002:00001a30       mWarningString             000000000006e1f0     BasePrintLib:PrintLibInternal.obj
 0002:00001ad0       mErrorString               000000000006e290     BasePrintLib:PrintLibInternal.obj
 0002:00001d90       mHexStr                    000000000006e550     BasePrintLib:PrintLibInternal.obj
 0002:00001da0       ??_C@_0DF@JLANBOAC@d?3?2myedk2?2edk2?2MdePkg?2Library?2U@ 000000000006e560     UefiLib:UefiNotTiano.obj
 0002:00001dd8       ??_C@_0CB@LNNMJOKK@ReadyToBootEvent?5?$CB?$DN?5?$CI?$CIvoid?5?$CK?$CJ?50@ 000000000006e598     UefiLib:UefiNotTiano.obj
 0002:00001e00       ??_C@_0CH@LOBIJKLE@EFI1?41?5can?8t?5support?5ReadyToBoo@ 000000000006e5c0     UefiLib:UefiNotTiano.obj
 0002:00001e28       ??_C@_0CB@OKGFGBHJ@FvDevicePathNode?5?$CB?$DN?5?$CI?$CIvoid?5?$CK?$CJ?50@ 000000000006e5e8     UefiLib:UefiNotTiano.obj
 0002:00001e50       ??_C@_0BO@BAKALPJK@?$CI?$CIAddress?$CJ?5?$CG?5?$HO0xfffffff?$CJ?5?$DN?$DN?50@ 000000000006e610     BasePciExpressLib:PciExpressLib.obj
 0002:00001e70       ??_C@_0EA@GAFEKIHN@d?3?2myedk2?2edk2?2MdePkg?2Library?2B@ 000000000006e630     BasePciExpressLib:PciExpressLib.obj
 0002:00001eb0       ??_C@_0DI@EGELJHOH@d?3?2myedk2?2edk2?2MdePkg?2Library?2B@ 000000000006e670     BasePciCf8Lib:PciCf8Lib.obj
 0002:00001ee8       ??_C@_0CG@EDKLCMBO@?$CI?$CIAddress?$CJ?5?$CG?5?$CI?$HO0xffff0ff?5?$HM?5?$CI3?$CJ?$CJ@ 000000000006e6a8     BasePciCf8Lib:PciCf8Lib.obj
 0002:00001f10       ??_C@_08FBKDDLCN@RSA?9SHA1@ 000000000006e6d0     BaseCryptLib:CryptPkcs7VerifyCommon.obj
 0002:00001f20       ??_C@_0L@EMMEGDKK@RSA?9SHA1?92@ 000000000006e6e0     BaseCryptLib:CryptPkcs7VerifyCommon.obj
 0002:00001f2b       ??_C@_00CNPNBAHC@@         000000000006e6eb     BaseCryptLib:CryptPkcs7VerifyCommon.obj
 0002:00001f30       ??_C@_0O@PKPPMCJC@HashAlgorithm@ 000000000006e6f0     BaseCryptLib:CryptTs.obj
 0002:00001f40       ??_C@_0O@IOBJNEOO@HashedMessage@ 000000000006e700     BaseCryptLib:CryptTs.obj
 0002:00001f50       ??_C@_0BD@MPNLNFAE@TS_MESSAGE_IMPRINT@ 000000000006e710     BaseCryptLib:CryptTs.obj
 0002:00001f68       ??_C@_07JNMNODGA@Seconds@  000000000006e728     BaseCryptLib:CryptTs.obj
 0002:00001f70       ??_C@_06GJCGCMH@Millis@    000000000006e730     BaseCryptLib:CryptTs.obj
 0002:00001f78       ??_C@_06DAIJKJAI@Micros@   000000000006e738     BaseCryptLib:CryptTs.obj
 0002:00001f80       ??_C@_0M@CNJBGMJO@TS_ACCURACY@ 000000000006e740     BaseCryptLib:CryptTs.obj
 0002:00001f90       ??_C@_07NGFJPNPN@Version@  000000000006e750     BaseCryptLib:CryptTs.obj
 0002:00001f98       ??_C@_06BGGEOBLK@Policy@   000000000006e758     BaseCryptLib:CryptTs.obj
 0002:00001fa0       ??_C@_0P@ONGPGNKF@MessageImprint@ 000000000006e760     BaseCryptLib:CryptTs.obj
 0002:00001fb0       ??_C@_0N@FPJJBBNM@SerialNumber@ 000000000006e770     BaseCryptLib:CryptTs.obj
 0002:00001fc0       ??_C@_07IBMNPABJ@GenTime@  000000000006e780     BaseCryptLib:CryptTs.obj
 0002:00001fc8       ??_C@_08NLCOAFEI@Accuracy@ 000000000006e788     BaseCryptLib:CryptTs.obj
 0002:00001fd8       ??_C@_08HMKBFHBJ@Ordering@ 000000000006e798     BaseCryptLib:CryptTs.obj
 0002:00001fe4       ??_C@_05OJOPLPHH@Nonce@    000000000006e7a4     BaseCryptLib:CryptTs.obj
 0002:00001fec       ??_C@_03LAIFDEPJ@Tsa@      000000000006e7ac     BaseCryptLib:CryptTs.obj
 0002:00001ff0       ??_C@_0L@ELOHEHF@Extensions@ 000000000006e7b0     BaseCryptLib:CryptTs.obj
 0002:00002000       ??_C@_0M@OBJPBKFE@TS_TST_INFO@ 000000000006e7c0     BaseCryptLib:CryptTs.obj
 0002:00002010       TS_MESSAGE_IMPRINT_it      000000000006e7d0     BaseCryptLib:CryptTs.obj
 0002:00002040       TS_TST_INFO_it             000000000006e800     BaseCryptLib:CryptTs.obj
 0002:000021b0       TS_ACCURACY_it             000000000006e970     BaseCryptLib:CryptTs.obj
 0002:00002280       ??_C@_0EP@JFHHNCHN@OldPoolHdr?9?$DOSignature?5?$DN?$DN?5?$CI?$CI?$CI?8c?8@ 000000000006ea40     BaseCryptLib:BaseMemAllocation.obj
 0002:000022d0       ??_C@_0EK@BIJBLFNJ@d?3?2myedk2?2edk2?2CryptoPkg?2Librar@ 000000000006ea90     BaseCryptLib:BaseMemAllocation.obj
 0002:00002320       ??_C@_0EM@DCOKKDEG@PoolHdr?9?$DOSignature?5?$DN?$DN?5?$CI?$CI?$CI?8c?8?$CJ?5?$HM@ 000000000006eae0     BaseCryptLib:BaseMemAllocation.obj
 0002:00002370       ??_C@_0DL@JEBMKBEC@d?3?2myedk2?2edk2?2MdePkg?2Library?2B@ 000000000006eb30     BaseLib:DivU64x32Remainder.obj
 0002:000023b0       ??_C@_0DJ@PLEMCDAL@d?3?2myedk2?2edk2?2MdePkg?2Library?2B@ 000000000006eb70     BaseIoLibIntrinsicSev:IoLib.obj
 0002:00002670       ??_C@_07DLHCIBDH@default@  000000000006ee30     OpensslLib:x509_vfy.obj
 0002:00002690       ??_C@_0O@DIEIKEFB@memory?5buffer@ 000000000006ee50     OpensslLib:bss_mem.obj
 0002:00002700       ??_C@_07CPCPJPKL@version@  000000000006eec0     OpensslLib:x_x509.obj
 0002:00002708       ??_C@_0N@OMOHFKCJ@serialNumber@ 000000000006eec8     OpensslLib:x_x509.obj
 0002:00002718       ??_C@_09CMIIOJHF@signature@ 000000000006eed8     OpensslLib:x_x509.obj
 0002:00002724       ??_C@_06EAINIONG@issuer@   000000000006eee4     OpensslLib:x_x509.obj
 0002:00002730       ??_C@_08GCHKOCBP@validity@ 000000000006eef0     OpensslLib:x_x509.obj
 0002:00002740       ??_C@_07JNNGEGGO@subject@  000000000006ef00     OpensslLib:x_x509.obj
 0002:00002748       ??_C@_03ICHNJLJF@key@      000000000006ef08     OpensslLib:x_x509.obj
 0002:00002750       ??_C@_09KIIAMAEE@issuerUID@ 000000000006ef10     OpensslLib:x_x509.obj
 0002:00002760       ??_C@_0L@JMFHLKAL@subjectUID@ 000000000006ef20     OpensslLib:x_x509.obj
 0002:00002770       ??_C@_0L@ICCCPLKC@extensions@ 000000000006ef30     OpensslLib:x_x509.obj
 0002:00002780       ??_C@_09LCJGKABB@X509_CINF@ 000000000006ef40     OpensslLib:x_x509.obj
 0002:00002790       ??_C@_09NKDPGBBA@cert_info@ 000000000006ef50     OpensslLib:x_x509.obj
 0002:000027a0       ??_C@_07OBHFIHGJ@sig_alg@  000000000006ef60     OpensslLib:x_x509.obj
 0002:000027a8       ??_C@_04NMKEOMFB@X509@     000000000006ef68     OpensslLib:x_x509.obj
 0002:00002950       X509_it                    000000000006f110     OpensslLib:x_x509.obj
 0002:000029d0       X509_CINF_it               000000000006f190     OpensslLib:x_x509.obj
 0002:00002c28       ??_C@_01CLKCMJKC@?5@       000000000006f3e8     OpensslLib:bio_lib.obj
 0002:00002c30       ??_C@_0L@GGDBHMO@smime_sign@ 000000000006f3f0     OpensslLib:pk7_smime.obj
 0002:00002c40       ??_C@_0O@HFNJECFC@Verify?5error?3@ 000000000006f400     OpensslLib:pk7_smime.obj
 0002:00002c50       ??_C@_07JIJPKMF@d?4other@  000000000006f410     OpensslLib:pk7_asn1.obj
 0002:00002c58       ??_C@_06OAPKPHLA@d?4data@  000000000006f418     OpensslLib:pk7_asn1.obj
 0002:00002c60       ??_C@_06GOHGJFCL@d?4sign@  000000000006f420     OpensslLib:pk7_asn1.obj
 0002:00002c68       ??_C@_0M@CLKMIMCI@d?4enveloped@ 000000000006f428     OpensslLib:pk7_asn1.obj
 0002:00002c78       ??_C@_0BH@FHPJHCLF@d?4signed_and_enveloped@ 000000000006f438     OpensslLib:pk7_asn1.obj
 0002:00002c90       ??_C@_08JOIJLLGO@d?4digest@ 000000000006f450     OpensslLib:pk7_asn1.obj
 0002:00002ca0       ??_C@_0M@IDEHBFAL@d?4encrypted@ 000000000006f460     OpensslLib:pk7_asn1.obj
 0002:00002cac       ??_C@_04GPMDFGEJ@type@     000000000006f46c     OpensslLib:pk7_asn1.obj
 0002:00002cb4       ??_C@_05BKMMPIPN@PKCS7@    000000000006f474     OpensslLib:pk7_asn1.obj
 0002:00002cc0       ??_C@_07MPDKKGPO@md_algs@  000000000006f480     OpensslLib:pk7_asn1.obj
 0002:00002cc8       ??_C@_08ODCIAOPM@contents@ 000000000006f488     OpensslLib:pk7_asn1.obj
 0002:00002cd4       ??_C@_04PHJBACIC@cert@     000000000006f494     OpensslLib:pk7_asn1.obj
 0002:00002cdc       ??_C@_03GJBFOAJL@crl@      000000000006f49c     OpensslLib:pk7_asn1.obj
 0002:00002ce0       ??_C@_0M@KEDNAHBP@signer_info@ 000000000006f4a0     OpensslLib:pk7_asn1.obj
 0002:00002cf0       ??_C@_0N@CKBJFFNF@PKCS7_SIGNED@ 000000000006f4b0     OpensslLib:pk7_asn1.obj
 0002:00002d00       ??_C@_0BC@PMGLGNPO@issuer_and_serial@ 000000000006f4c0     OpensslLib:pk7_asn1.obj
 0002:00002d18       ??_C@_0L@OGBFEEJI@digest_alg@ 000000000006f4d8     OpensslLib:pk7_asn1.obj
 0002:00002d28       ??_C@_09PLABOLFJ@auth_attr@ 000000000006f4e8     OpensslLib:pk7_asn1.obj
 0002:00002d38       ??_C@_0P@KLFHBHJD@digest_enc_alg@ 000000000006f4f8     OpensslLib:pk7_asn1.obj
 0002:00002d48       ??_C@_0L@PJDBOMFC@enc_digest@ 000000000006f508     OpensslLib:pk7_asn1.obj
 0002:00002d58       ??_C@_0M@NNBFAOJK@unauth_attr@ 000000000006f518     OpensslLib:pk7_asn1.obj
 0002:00002d68       ??_C@_0BC@BFFCPPDG@PKCS7_SIGNER_INFO@ 000000000006f528     OpensslLib:pk7_asn1.obj
 0002:00002d7c       ??_C@_06KCELPKEE@serial@   000000000006f53c     OpensslLib:pk7_asn1.obj
 0002:00002d88       ??_C@_0BI@POAIONGK@PKCS7_ISSUER_AND_SERIAL@ 000000000006f548     OpensslLib:pk7_asn1.obj
 0002:00002da0       ??_C@_0O@HGJALPPJ@recipientinfo@ 000000000006f560     OpensslLib:pk7_asn1.obj
 0002:00002db0       ??_C@_08ENNDKKOI@enc_data@ 000000000006f570     OpensslLib:pk7_asn1.obj
 0002:00002dc0       ??_C@_0P@KCJMJLOD@PKCS7_ENVELOPE@ 000000000006f580     OpensslLib:pk7_asn1.obj
 0002:00002dd0       ??_C@_0O@ODFHHMFC@key_enc_algor@ 000000000006f590     OpensslLib:pk7_asn1.obj
 0002:00002de0       ??_C@_07LBLKCHGJ@enc_key@  000000000006f5a0     OpensslLib:pk7_asn1.obj
 0002:00002de8       ??_C@_0BB@MGPEFENK@PKCS7_RECIP_INFO@ 000000000006f5a8     OpensslLib:pk7_asn1.obj
 0002:00002e00       ??_C@_0N@IEAAACJL@content_type@ 000000000006f5c0     OpensslLib:pk7_asn1.obj
 0002:00002e10       ??_C@_09JPNFBOJG@algorithm@ 000000000006f5d0     OpensslLib:pk7_asn1.obj
 0002:00002e20       ??_C@_0BC@INKEDPEG@PKCS7_ENC_CONTENT@ 000000000006f5e0     OpensslLib:pk7_asn1.obj
 0002:00002e38       ??_C@_0BE@LMHBPFDD@PKCS7_SIGN_ENVELOPE@ 000000000006f5f8     OpensslLib:pk7_asn1.obj
 0002:00002e50       ??_C@_0O@GIFGHKGC@PKCS7_ENCRYPT@ 000000000006f610     OpensslLib:pk7_asn1.obj
 0002:00002e60       ??_C@_02EBCANADN@md@       000000000006f620     OpensslLib:pk7_asn1.obj
 0002:00002e64       ??_C@_06IJPNAHC@digest@    000000000006f624     OpensslLib:pk7_asn1.obj
 0002:00002e70       ??_C@_0N@NAILNAH@PKCS7_DIGEST@ 000000000006f630     OpensslLib:pk7_asn1.obj
 0002:00002e80       ??_C@_0BB@ODHHPICH@PKCS7_ATTRIBUTES@ 000000000006f640     OpensslLib:pk7_asn1.obj
 0002:00002e98       ??_C@_0BA@IJMFEGLH@PKCS7_ATTR_SIGN@ 000000000006f658     OpensslLib:pk7_asn1.obj
 0002:00002ea8       ??_C@_0BC@DLHIINOH@PKCS7_ATTR_VERIFY@ 000000000006f668     OpensslLib:pk7_asn1.obj
 0002:00002f20       PKCS7_ENCRYPT_it           000000000006f6e0     OpensslLib:pk7_asn1.obj
 0002:00002f50       PKCS7_RECIP_INFO_it        000000000006f710     OpensslLib:pk7_asn1.obj
 0002:00002f80       PKCS7_SIGNED_it            000000000006f740     OpensslLib:pk7_asn1.obj
 0002:000030f0       PKCS7_DIGEST_it            000000000006f8b0     OpensslLib:pk7_asn1.obj
 0002:00003120       PKCS7_ENC_CONTENT_it       000000000006f8e0     OpensslLib:pk7_asn1.obj
 0002:000031b0       PKCS7_it                   000000000006f970     OpensslLib:pk7_asn1.obj
 0002:000031e0       PKCS7_SIGNER_INFO_it       000000000006f9a0     OpensslLib:pk7_asn1.obj
 0002:00003300       PKCS7_ATTR_VERIFY_it       000000000006fac0     OpensslLib:pk7_asn1.obj
 0002:00003358       PKCS7_ISSUER_AND_SERIAL_it 000000000006fb18     OpensslLib:pk7_asn1.obj
 0002:00003550       PKCS7_SIGN_ENVELOPE_it     000000000006fd10     OpensslLib:pk7_asn1.obj
 0002:000035a8       PKCS7_ATTR_SIGN_it         000000000006fd68     OpensslLib:pk7_asn1.obj
 0002:00003740       PKCS7_ENVELOPE_it          000000000006ff00     OpensslLib:pk7_asn1.obj
 0002:00003858       ??_C@_05DBLJEJPC@UNDEF@    0000000000070018     OpensslLib:obj_dat.obj
 0002:00003860       ??_C@_09MLGAJAED@undefined@ 0000000000070020     OpensslLib:obj_dat.obj
 0002:0000386c       ??_C@_06GGEMKGKC@rsadsi@   000000000007002c     OpensslLib:obj_dat.obj
 0002:00003878       ??_C@_0BI@MPBNCOIB@RSA?5Data?5Security?0?5Inc?4@ 0000000000070038     OpensslLib:obj_dat.obj
 0002:00003890       ??_C@_04GCKLMHGD@pkcs@     0000000000070050     OpensslLib:obj_dat.obj
 0002:00003898       ??_C@_0BN@EBHJCEC@RSA?5Data?5Security?0?5Inc?4?5PKCS@ 0000000000070058     OpensslLib:obj_dat.obj
 0002:000038b8       ??_C@_03CNCGNBGO@MD2@      0000000000070078     OpensslLib:obj_dat.obj
 0002:000038bc       ??_C@_03LFFJDILA@md2@      000000000007007c     OpensslLib:obj_dat.obj
 0002:000038c0       ??_C@_03GCGHEHKJ@MD5@      0000000000070080     OpensslLib:obj_dat.obj
 0002:000038c4       ??_C@_03PKBIKOHH@md5@      0000000000070084     OpensslLib:obj_dat.obj
 0002:000038c8       ??_C@_03HGEJCHKE@RC4@      0000000000070088     OpensslLib:obj_dat.obj
 0002:000038cc       ??_C@_03OODGMOHK@rc4@      000000000007008c     OpensslLib:obj_dat.obj
 0002:000038d0       ??_C@_0O@PCHNMHJE@rsaEncryption@ 0000000000070090     OpensslLib:obj_dat.obj
 0002:000038e0       ??_C@_07JBCLOEPG@RSA?9MD2@ 00000000000700a0     OpensslLib:obj_dat.obj
 0002:000038e8       ??_C@_0BF@ODJKGOJ@md2WithRSAEncryption@ 00000000000700a8     OpensslLib:obj_dat.obj
 0002:00003900       ??_C@_07NOGKHCDB@RSA?9MD5@ 00000000000700c0     OpensslLib:obj_dat.obj
 0002:00003908       ??_C@_0BF@EEAHCNKC@md5WithRSAEncryption@ 00000000000700c8     OpensslLib:obj_dat.obj
 0002:00003920       ??_C@_0M@LMNGCPDB@PBE?9MD2?9DES@ 00000000000700e0     OpensslLib:obj_dat.obj
 0002:00003930       ??_C@_0BF@EEAPBBEF@pbeWithMD2AndDES?9CBC@ 00000000000700f0     OpensslLib:obj_dat.obj
 0002:00003948       ??_C@_0M@KBNDBPIJ@PBE?9MD5?9DES@ 0000000000070108     OpensslLib:obj_dat.obj
 0002:00003958       ??_C@_0BF@DAJHPIMK@pbeWithMD5AndDES?9CBC@ 0000000000070118     OpensslLib:obj_dat.obj
 0002:00003970       ??_C@_04NGGFHBI@X500@      0000000000070130     OpensslLib:obj_dat.obj
 0002:00003978       ??_C@_0BL@NJHHPHOL@directory?5services?5?$CIX?4500?$CJ@ 0000000000070138     OpensslLib:obj_dat.obj
 0002:00003994       ??_C@_02BMJIHHPP@CN@       0000000000070154     OpensslLib:obj_dat.obj
 0002:00003998       ??_C@_0L@OILMNBLH@commonName@ 0000000000070158     OpensslLib:obj_dat.obj
 0002:000039a4       ??_C@_01GFHCPBMG@C@        0000000000070164     OpensslLib:obj_dat.obj
 0002:000039a8       ??_C@_0M@NPBHECMC@countryName@ 0000000000070168     OpensslLib:obj_dat.obj
 0002:000039b4       ??_C@_01OCOKONAJ@L@        0000000000070174     OpensslLib:obj_dat.obj
 0002:000039b8       ??_C@_0N@LEDCGGBI@localityName@ 0000000000070178     OpensslLib:obj_dat.obj
 0002:000039c8       ??_C@_02LAJDCOFE@ST@       0000000000070188     OpensslLib:obj_dat.obj
 0002:000039d0       ??_C@_0BE@NKDCJFMD@stateOrProvinceName@ 0000000000070190     OpensslLib:obj_dat.obj
 0002:000039e4       ??_C@_01MJMHLOMK@O@        00000000000701a4     OpensslLib:obj_dat.obj
 0002:000039e8       ??_C@_0BB@GBCNPHLL@organizationName@ 00000000000701a8     OpensslLib:obj_dat.obj
 0002:000039fc       ??_C@_02LMLEEFAB@OU@       00000000000701bc     OpensslLib:obj_dat.obj
 0002:00003a00       ??_C@_0BH@LAMMAAM@organizationalUnitName@ 00000000000701c0     OpensslLib:obj_dat.obj
 0002:00003a18       ??_C@_03DICHAJGH@RSA@      00000000000701d8     OpensslLib:obj_dat.obj
 0002:00003a1c       ??_C@_03DFNMMEBL@rsa@      00000000000701dc     OpensslLib:obj_dat.obj
 0002:00003a20       ??_C@_05EENODLBB@pkcs7@    00000000000701e0     OpensslLib:obj_dat.obj
 0002:00003a28       ??_C@_0L@BCKMJOMA@pkcs7?9data@ 00000000000701e8     OpensslLib:obj_dat.obj
 0002:00003a38       ??_C@_0BB@PEKKHBEJ@pkcs7?9signedData@ 00000000000701f8     OpensslLib:obj_dat.obj
 0002:00003a50       ??_C@_0BE@FAIIHMP@pkcs7?9envelopedData@ 0000000000070210     OpensslLib:obj_dat.obj
 0002:00003a68       ??_C@_0BN@LMEEMCPG@pkcs7?9signedAndEnvelopedData@ 0000000000070228     OpensslLib:obj_dat.obj
 0002:00003a88       ??_C@_0BB@CJNFBHDI@pkcs7?9digestData@ 0000000000070248     OpensslLib:obj_dat.obj
 0002:00003aa0       ??_C@_0BE@CAMKAFJN@pkcs7?9encryptedData@ 0000000000070260     OpensslLib:obj_dat.obj
 0002:00003ab4       ??_C@_05CALCPOBF@pkcs3@    0000000000070274     OpensslLib:obj_dat.obj
 0002:00003ac0       ??_C@_0P@HCMIBBEB@dhKeyAgreement@ 0000000000070280     OpensslLib:obj_dat.obj
 0002:00003ad0       ??_C@_07IOCLJBKC@DES?9ECB@ 0000000000070290     OpensslLib:obj_dat.obj
 0002:00003ad8       ??_C@_07LCLHACCC@des?9ecb@ 0000000000070298     OpensslLib:obj_dat.obj
 0002:00003ae0       ??_C@_07KNILAMJF@DES?9CFB@ 00000000000702a0     OpensslLib:obj_dat.obj
 0002:00003ae8       ??_C@_07JBBHJPBF@des?9cfb@ 00000000000702a8     OpensslLib:obj_dat.obj
 0002:00003af0       ??_C@_07LDJJJFAI@DES?9CBC@ 00000000000702b0     OpensslLib:obj_dat.obj
 0002:00003af8       ??_C@_07IPAFAGII@des?9cbc@ 00000000000702b8     OpensslLib:obj_dat.obj
 0002:00003b00       ??_C@_07MECFBBOA@DES?9EDE@ 00000000000702c0     OpensslLib:obj_dat.obj
 0002:00003b08       ??_C@_07PILJICGA@des?9ede@ 00000000000702c8     OpensslLib:obj_dat.obj
 0002:00003b10       ??_C@_08FEKFKCFJ@DES?9EDE3@ 00000000000702d0     OpensslLib:obj_dat.obj
 0002:00003b20       ??_C@_08LJCBLNOK@des?9ede3@ 00000000000702e0     OpensslLib:obj_dat.obj
 0002:00003b30       ??_C@_08MJNEIAD@IDEA?9CBC@ 00000000000702f0     OpensslLib:obj_dat.obj
 0002:00003b40       ??_C@_08LCPAFJCA@idea?9cbc@ 0000000000070300     OpensslLib:obj_dat.obj
 0002:00003b50       ??_C@_08BCIPNBJO@IDEA?9CFB@ 0000000000070310     OpensslLib:obj_dat.obj
 0002:00003b60       ??_C@_08KMOCMALN@idea?9cfb@ 0000000000070320     OpensslLib:obj_dat.obj
 0002:00003b70       ??_C@_08DBCPEMKJ@IDEA?9ECB@ 0000000000070330     OpensslLib:obj_dat.obj
 0002:00003b80       ??_C@_08IPECFNIK@idea?9ecb@ 0000000000070340     OpensslLib:obj_dat.obj
 0002:00003b90       ??_C@_07KJDFEEGB@RC2?9CBC@ 0000000000070350     OpensslLib:obj_dat.obj
 0002:00003b98       ??_C@_07JCAFNCNH@rc2?9cbc@ 0000000000070358     OpensslLib:obj_dat.obj
 0002:00003ba0       ??_C@_07JEIHEAML@RC2?9ECB@ 0000000000070360     OpensslLib:obj_dat.obj
 0002:00003ba8       ??_C@_07KPLHNGHN@rc2?9ecb@ 0000000000070368     OpensslLib:obj_dat.obj
 0002:00003bb0       ??_C@_07LHCHNNPM@RC2?9CFB@ 0000000000070370     OpensslLib:obj_dat.obj
 0002:00003bb8       ??_C@_07IMBHELEK@rc2?9cfb@ 0000000000070378     OpensslLib:obj_dat.obj
 0002:00003bc0       ??_C@_07PNPBGCEE@RC2?9OFB@ 0000000000070380     OpensslLib:obj_dat.obj
 0002:00003bc8       ??_C@_07MGMBPEPC@rc2?9ofb@ 0000000000070388     OpensslLib:obj_dat.obj
 0002:00003bd0       ??_C@_03JAOICCJD@SHA@      0000000000070390     OpensslLib:obj_dat.obj
 0002:00003bd4       ??_C@_03JNBDOPOP@sha@      0000000000070394     OpensslLib:obj_dat.obj
 0002:00003bd8       ??_C@_07CMOFBHAL@RSA?9SHA@ 0000000000070398     OpensslLib:obj_dat.obj
 0002:00003be0       ??_C@_0BF@LIDINENF@shaWithRSAEncryption@ 00000000000703a0     OpensslLib:obj_dat.obj
 0002:00003bf8       ??_C@_0M@KHNLAHDP@DES?9EDE?9CBC@ 00000000000703b8     OpensslLib:obj_dat.obj
 0002:00003c08       ??_C@_0M@EKLHMDEA@des?9ede?9cbc@ 00000000000703c8     OpensslLib:obj_dat.obj
 0002:00003c18       ??_C@_0N@MLDFENGJ@DES?9EDE3?9CBC@ 00000000000703d8     OpensslLib:obj_dat.obj
 0002:00003c28       ??_C@_0N@FPCHEGKG@des?9ede3?9cbc@ 00000000000703e8     OpensslLib:obj_dat.obj
 0002:00003c38       ??_C@_07OHFNLDCN@DES?9OFB@ 00000000000703f8     OpensslLib:obj_dat.obj
 0002:00003c40       ??_C@_07NLMBCAKN@des?9ofb@ 0000000000070400     OpensslLib:obj_dat.obj
 0002:00003c48       ??_C@_08FIFJGOCG@IDEA?9OFB@ 0000000000070408     OpensslLib:obj_dat.obj
 0002:00003c58       ??_C@_08OGDEHPAF@idea?9ofb@ 0000000000070418     OpensslLib:obj_dat.obj
 0002:00003c64       ??_C@_05NKFNBGJP@pkcs9@    0000000000070424     OpensslLib:obj_dat.obj
 0002:00003c70       ??_C@_0N@IHLBAGEP@emailAddress@ 0000000000070430     OpensslLib:obj_dat.obj
 0002:00003c80       ??_C@_0BB@CJIILOEM@unstructuredName@ 0000000000070440     OpensslLib:obj_dat.obj
 0002:00003c98       ??_C@_0M@DOEFOEJD@contentType@ 0000000000070458     OpensslLib:obj_dat.obj
 0002:00003ca8       ??_C@_0O@JDGJDGC@messageDigest@ 0000000000070468     OpensslLib:obj_dat.obj
 0002:00003cb8       ??_C@_0M@IJBJCCMP@signingTime@ 0000000000070478     OpensslLib:obj_dat.obj
 0002:00003cc8       ??_C@_0BB@IPFGMODP@countersignature@ 0000000000070488     OpensslLib:obj_dat.obj
 0002:00003ce0       ??_C@_0BC@OKHONEEM@challengePassword@ 00000000000704a0     OpensslLib:obj_dat.obj
 0002:00003cf8       ??_C@_0BE@MACPCAPF@unstructuredAddress@ 00000000000704b8     OpensslLib:obj_dat.obj
 0002:00003d10       ??_C@_0BO@LDCCNBPE@extendedCertificateAttributes@ 00000000000704d0     OpensslLib:obj_dat.obj
 0002:00003d30       ??_C@_08BDEPHMAF@Netscape@ 00000000000704f0     OpensslLib:obj_dat.obj
 0002:00003d40       ??_C@_0BO@IAIBEBGO@Netscape?5Communications?5Corp?4@ 0000000000070500     OpensslLib:obj_dat.obj
 0002:00003d60       ??_C@_09JDCKDNMG@nsCertExt@ 0000000000070520     OpensslLib:obj_dat.obj
 0002:00003d70       ??_C@_0BP@LHPGKGFM@Netscape?5Certificate?5Extension@ 0000000000070530     OpensslLib:obj_dat.obj
 0002:00003d90       ??_C@_0L@FIMLGGPA@nsDataType@ 0000000000070550     OpensslLib:obj_dat.obj
 0002:00003da0       ??_C@_0BD@JJEILMNP@Netscape?5Data?5Type@ 0000000000070560     OpensslLib:obj_dat.obj
 0002:00003db8       ??_C@_0M@LJMJJOKC@DES?9EDE?9CFB@ 0000000000070578     OpensslLib:obj_dat.obj
 0002:00003dc8       ??_C@_0M@FEKFFKNN@des?9ede?9cfb@ 0000000000070588     OpensslLib:obj_dat.obj
 0002:00003dd8       ??_C@_0N@NFCHNEPE@DES?9EDE3?9CFB@ 0000000000070598     OpensslLib:obj_dat.obj
 0002:00003de8       ??_C@_0N@EBDFNPDL@des?9ede3?9cfb@ 00000000000705a8     OpensslLib:obj_dat.obj
 0002:00003df8       ??_C@_0M@PDBPCBBK@DES?9EDE?9OFB@ 00000000000705b8     OpensslLib:obj_dat.obj
 0002:00003e08       ??_C@_0M@BOHDOFGF@des?9ede?9ofb@ 00000000000705c8     OpensslLib:obj_dat.obj
 0002:00003e18       ??_C@_0N@JPPBGLEM@DES?9EDE3?9OFB@ 00000000000705d8     OpensslLib:obj_dat.obj
 0002:00003e28       ??_C@_0N@LODGAID@des?9ede3?9ofb@ 00000000000705e8     OpensslLib:obj_dat.obj
 0002:00003e38       ??_C@_04KPMLCNGO@SHA1@     00000000000705f8     OpensslLib:obj_dat.obj
 0002:00003e40       ??_C@_04PGHFOLLE@sha1@     0000000000070600     OpensslLib:obj_dat.obj
 0002:00003e48       ??_C@_0BG@DALFFFBE@sha1WithRSAEncryption@ 0000000000070608     OpensslLib:obj_dat.obj
 0002:00003e60       ??_C@_07JGDBCPKH@DSA?9SHA@ 0000000000070620     OpensslLib:obj_dat.obj
 0002:00003e68       ??_C@_0L@BEHMICBH@dsaWithSHA@ 0000000000070628     OpensslLib:obj_dat.obj
 0002:00003e78       ??_C@_07PLHLFGGF@DSA?9old@ 0000000000070638     OpensslLib:obj_dat.obj
 0002:00003e80       ??_C@_0BC@FFHHBCCH@dsaEncryption?9old@ 0000000000070640     OpensslLib:obj_dat.obj
 0002:00003e98       ??_C@_0BA@KKPEMNGH@PBE?9SHA1?9RC2?964@ 0000000000070658     OpensslLib:obj_dat.obj
 0002:00003ea8       ??_C@_0BG@IBNNJING@pbeWithSHA1AndRC2?9CBC@ 0000000000070668     OpensslLib:obj_dat.obj
 0002:00003ec0       ??_C@_06KBOEGBGA@PBKDF2@   0000000000070680     OpensslLib:obj_dat.obj
 0002:00003ec8       ??_C@_0N@ONIKBKNK@DSA?9SHA1?9old@ 0000000000070688     OpensslLib:obj_dat.obj
 0002:00003ed8       ??_C@_0BA@DDLLDHEM@dsaWithSHA1?9old@ 0000000000070698     OpensslLib:obj_dat.obj
 0002:00003ee8       ??_C@_0L@IICLKDNB@nsCertType@ 00000000000706a8     OpensslLib:obj_dat.obj
 0002:00003ef8       ??_C@_0BD@NFPBEMEE@Netscape?5Cert?5Type@ 00000000000706b8     OpensslLib:obj_dat.obj
 0002:00003f10       ??_C@_09OCIGDOMM@nsBaseUrl@ 00000000000706d0     OpensslLib:obj_dat.obj
 0002:00003f20       ??_C@_0BC@DIHCABP@Netscape?5Base?5Url@ 00000000000706e0     OpensslLib:obj_dat.obj
 0002:00003f38       ??_C@_0BA@DKPGPAKK@nsRevocationUrl@ 00000000000706f8     OpensslLib:obj_dat.obj
 0002:00003f48       ??_C@_0BI@BCDINENC@Netscape?5Revocation?5Url@ 0000000000070708     OpensslLib:obj_dat.obj
 0002:00003f60       ??_C@_0BC@IKAPCMGG@nsCaRevocationUrl@ 0000000000070720     OpensslLib:obj_dat.obj
 0002:00003f78       ??_C@_0BL@EMOMOFDB@Netscape?5CA?5Revocation?5Url@ 0000000000070738     OpensslLib:obj_dat.obj
 0002:00003f98       ??_C@_0N@JILHKMLM@nsRenewalUrl@ 0000000000070758     OpensslLib:obj_dat.obj
 0002:00003fa8       ??_C@_0BF@FKENIIHB@Netscape?5Renewal?5Url@ 0000000000070768     OpensslLib:obj_dat.obj
 0002:00003fc0       ??_C@_0O@DHDIMJD@nsCaPolicyUrl@ 0000000000070780     OpensslLib:obj_dat.obj
 0002:00003fd0       ??_C@_0BH@EMEFHLC@Netscape?5CA?5Policy?5Url@ 0000000000070790     OpensslLib:obj_dat.obj
 0002:00003fe8       ??_C@_0BA@KNOKNJNE@nsSslServerName@ 00000000000707a8     OpensslLib:obj_dat.obj
 0002:00003ff8       ??_C@_0BJ@GMBLEMAL@Netscape?5SSL?5Server?5Name@ 00000000000707b8     OpensslLib:obj_dat.obj
 0002:00004018       ??_C@_09BALDFHMJ@nsComment@ 00000000000707d8     OpensslLib:obj_dat.obj
 0002:00004028       ??_C@_0BB@DCFBGIOA@Netscape?5Comment@ 00000000000707e8     OpensslLib:obj_dat.obj
 0002:00004040       ??_C@_0P@OCCBBJKK@nsCertSequence@ 0000000000070800     OpensslLib:obj_dat.obj
 0002:00004050       ??_C@_0BO@KKKBMKBD@Netscape?5Certificate?5Sequence@ 0000000000070810     OpensslLib:obj_dat.obj
 0002:00004070       ??_C@_08BBKPFFGN@DESX?9CBC@ 0000000000070830     OpensslLib:obj_dat.obj
 0002:00004080       ??_C@_08KPMCEEEO@desx?9cbc@ 0000000000070840     OpensslLib:obj_dat.obj
 0002:0000408c       ??_C@_05NDHEMDL@id?9ce@    000000000007084c     OpensslLib:obj_dat.obj
 0002:00004098       ??_C@_0BF@MOEDIMBI@subjectKeyIdentifier@ 0000000000070858     OpensslLib:obj_dat.obj
 0002:000040b0       ??_C@_0BO@ILPNOINJ@X509v3?5Subject?5Key?5Identifier@ 0000000000070870     OpensslLib:obj_dat.obj
 0002:000040d0       ??_C@_08BCICBOHF@keyUsage@ 0000000000070890     OpensslLib:obj_dat.obj
 0002:000040e0       ??_C@_0BB@BPPOKNBO@X509v3?5Key?5Usage@ 00000000000708a0     OpensslLib:obj_dat.obj
 0002:000040f8       ??_C@_0BG@JOIAJOMN@privateKeyUsagePeriod@ 00000000000708b8     OpensslLib:obj_dat.obj
 0002:00004110       ??_C@_0CA@CLGHAMIP@X509v3?5Private?5Key?5Usage?5Period@ 00000000000708d0     OpensslLib:obj_dat.obj
 0002:00004130       ??_C@_0P@EOFJHHKD@subjectAltName@ 00000000000708f0     OpensslLib:obj_dat.obj
 0002:00004140       ??_C@_0CA@OPCJJLNF@X509v3?5Subject?5Alternative?5Name@ 0000000000070900     OpensslLib:obj_dat.obj
 0002:00004160       ??_C@_0O@DLIFHFCD@issuerAltName@ 0000000000070920     OpensslLib:obj_dat.obj
 0002:00004170       ??_C@_0BP@FMJCGPCG@X509v3?5Issuer?5Alternative?5Name@ 0000000000070930     OpensslLib:obj_dat.obj
 0002:00004190       ??_C@_0BB@IKNGJCLO@basicConstraints@ 0000000000070950     OpensslLib:obj_dat.obj
 0002:000041a8       ??_C@_0BJ@FBHDAJML@X509v3?5Basic?5Constraints@ 0000000000070968     OpensslLib:obj_dat.obj
 0002:000041c8       ??_C@_09JDPHHKMA@crlNumber@ 0000000000070988     OpensslLib:obj_dat.obj
 0002:000041d8       ??_C@_0BC@PCPNBDDJ@X509v3?5CRL?5Number@ 0000000000070998     OpensslLib:obj_dat.obj
 0002:000041f0       ??_C@_0BE@OLMJNPEP@certificatePolicies@ 00000000000709b0     OpensslLib:obj_dat.obj
 0002:00004208       ??_C@_0BM@OOFGKLPK@X509v3?5Certificate?5Policies@ 00000000000709c8     OpensslLib:obj_dat.obj
 0002:00004228       ??_C@_0BH@ICHFALGD@authorityKeyIdentifier@ 00000000000709e8     OpensslLib:obj_dat.obj
 0002:00004240       ??_C@_0CA@GODCHEHD@X509v3?5Authority?5Key?5Identifier@ 0000000000070a00     OpensslLib:obj_dat.obj
 0002:00004260       ??_C@_06HALMPEKO@BF?9CBC@  0000000000070a20     OpensslLib:obj_dat.obj
 0002:00004268       ??_C@_06LFFGAFHI@bf?9cbc@  0000000000070a28     OpensslLib:obj_dat.obj
 0002:00004270       ??_C@_06ENAOPAAE@BF?9ECB@  0000000000070a30     OpensslLib:obj_dat.obj
 0002:00004278       ??_C@_06IIOEABNC@bf?9ecb@  0000000000070a38     OpensslLib:obj_dat.obj
 0002:00004280       ??_C@_06GOKOGNDD@BF?9CFB@  0000000000070a40     OpensslLib:obj_dat.obj
 0002:00004288       ??_C@_06KLEEJMOF@bf?9cfb@  0000000000070a48     OpensslLib:obj_dat.obj
 0002:00004290       ??_C@_06CEHINCIL@BF?9OFB@  0000000000070a50     OpensslLib:obj_dat.obj
 0002:00004298       ??_C@_06OBJCCDFN@bf?9ofb@  0000000000070a58     OpensslLib:obj_dat.obj
 0002:000042a0       ??_C@_04BCGEDMJI@MDC2@     0000000000070a60     OpensslLib:obj_dat.obj
 0002:000042a8       ??_C@_04ELNKPKEC@mdc2@     0000000000070a68     OpensslLib:obj_dat.obj
 0002:000042b0       ??_C@_08OMAMCKNL@RSA?9MDC2@ 0000000000070a70     OpensslLib:obj_dat.obj
 0002:000042c0       ??_C@_0M@HGGNEPNN@mdc2WithRSA@ 0000000000070a80     OpensslLib:obj_dat.obj
 0002:000042cc       ??_C@_06KFMILCMH@RC4?940@  0000000000070a8c     OpensslLib:obj_dat.obj
 0002:000042d4       ??_C@_06GNNJIOGN@rc4?940@  0000000000070a94     OpensslLib:obj_dat.obj
 0002:000042e0       ??_C@_0L@ODHPNGGE@RC2?940?9CBC@ 0000000000070aa0     OpensslLib:obj_dat.obj
 0002:000042f0       ??_C@_0L@CHEFJHBP@rc2?940?9cbc@ 0000000000070ab0     OpensslLib:obj_dat.obj
 0002:000042fc       ??_C@_02BLJBNPCD@GN@       0000000000070abc     OpensslLib:obj_dat.obj
 0002:00004300       ??_C@_09GCBNJLNP@givenName@ 0000000000070ac0     OpensslLib:obj_dat.obj
 0002:0000430c       ??_C@_02LONEIP@SN@         0000000000070acc     OpensslLib:obj_dat.obj
 0002:00004310       ??_C@_07LNKFHLHI@surname@  0000000000070ad0     OpensslLib:obj_dat.obj
 0002:00004318       ??_C@_08PAKNLFON@initials@ 0000000000070ad8     OpensslLib:obj_dat.obj
 0002:00004324       ??_C@_03MEMNCOEB@uid@      0000000000070ae4     OpensslLib:obj_dat.obj
 0002:00004328       ??_C@_0BB@HJMGPENC@uniqueIdentifier@ 0000000000070ae8     OpensslLib:obj_dat.obj
 0002:00004340       ??_C@_0BG@CCHGOEBE@crlDistributionPoints@ 0000000000070b00     OpensslLib:obj_dat.obj
 0002:00004358       ??_C@_0BP@EGHJGANM@X509v3?5CRL?5Distribution?5Points@ 0000000000070b18     OpensslLib:obj_dat.obj
 0002:00004378       ??_C@_0L@NACEPNFC@RSA?9NP?9MD5@ 0000000000070b38     OpensslLib:obj_dat.obj
 0002:00004388       ??_C@_0L@CNDCBNIN@md5WithRSA@ 0000000000070b48     OpensslLib:obj_dat.obj
 0002:00004394       ??_C@_05PHLGJONK@title@    0000000000070b54     OpensslLib:obj_dat.obj
 0002:000043a0       ??_C@_0M@PPJNHBMP@description@ 0000000000070b60     OpensslLib:obj_dat.obj
 0002:000043b0       ??_C@_09OACPMKPP@CAST5?9CBC@ 0000000000070b70     OpensslLib:obj_dat.obj
 0002:000043c0       ??_C@_09BGLDNNDK@cast5?9cbc@ 0000000000070b80     OpensslLib:obj_dat.obj
 0002:000043d0       ??_C@_09NNJNMOFF@CAST5?9ECB@ 0000000000070b90     OpensslLib:obj_dat.obj
 0002:000043e0       ??_C@_09CLABNJJA@cast5?9ecb@ 0000000000070ba0     OpensslLib:obj_dat.obj
 0002:000043f0       ??_C@_09PODNFDGC@CAST5?9CFB@ 0000000000070bb0     OpensslLib:obj_dat.obj
 0002:00004400       ??_C@_09IKBEEKH@cast5?9cfb@ 0000000000070bc0     OpensslLib:obj_dat.obj
 0002:00004410       ??_C@_09LEOLOMNK@CAST5?9OFB@ 0000000000070bd0     OpensslLib:obj_dat.obj
 0002:00004420       ??_C@_09ECHHPLBP@cast5?9ofb@ 0000000000070be0     OpensslLib:obj_dat.obj
 0002:00004430       ??_C@_0BG@JCFINJGL@pbeWithMD5AndCast5CBC@ 0000000000070bf0     OpensslLib:obj_dat.obj
 0002:00004448       ??_C@_08IOHJAANG@DSA?9SHA1@ 0000000000070c08     OpensslLib:obj_dat.obj
 0002:00004458       ??_C@_0M@EFJKPOPH@dsaWithSHA1@ 0000000000070c18     OpensslLib:obj_dat.obj
 0002:00004468       ??_C@_08EMIDHKIH@MD5?9SHA1@ 0000000000070c28     OpensslLib:obj_dat.obj
 0002:00004478       ??_C@_08GOLKFMKI@md5?9sha1@ 0000000000070c38     OpensslLib:obj_dat.obj
 0002:00004488       ??_C@_0M@KECGAPAA@sha1WithRSA@ 0000000000070c48     OpensslLib:obj_dat.obj
 0002:00004494       ??_C@_03ENFFABCE@DSA@      0000000000070c54     OpensslLib:obj_dat.obj
 0002:00004498       ??_C@_0O@GMANLAEO@dsaEncryption@ 0000000000070c58     OpensslLib:obj_dat.obj
 0002:000044a8       ??_C@_09DJDCAKJG@RIPEMD160@ 0000000000070c68     OpensslLib:obj_dat.obj
 0002:000044b8       ??_C@_09EDIPKBN@ripemd160@ 0000000000070c78     OpensslLib:obj_dat.obj
 0002:000044c8       ??_C@_0O@JPOIHGOH@RSA?9RIPEMD160@ 0000000000070c88     OpensslLib:obj_dat.obj
 0002:000044d8       ??_C@_0BB@DCJDAKFH@ripemd160WithRSA@ 0000000000070c98     OpensslLib:obj_dat.obj
 0002:000044f0       ??_C@_07LEDAHENJ@RC5?9CBC@ 0000000000070cb0     OpensslLib:obj_dat.obj
 0002:000044f8       ??_C@_07IPAAOCGP@rc5?9cbc@ 0000000000070cb8     OpensslLib:obj_dat.obj
 0002:00004500       ??_C@_07IJICHAHD@RC5?9ECB@ 0000000000070cc0     OpensslLib:obj_dat.obj
 0002:00004508       ??_C@_07LCLCOGMF@rc5?9ecb@ 0000000000070cc8     OpensslLib:obj_dat.obj
 0002:00004510       ??_C@_07KKCCONEE@RC5?9CFB@ 0000000000070cd0     OpensslLib:obj_dat.obj
 0002:00004518       ??_C@_07JBBCHLPC@rc5?9cfb@ 0000000000070cd8     OpensslLib:obj_dat.obj
 0002:00004520       ??_C@_07OAPEFCPM@RC5?9OFB@ 0000000000070ce0     OpensslLib:obj_dat.obj
 0002:00004528       ??_C@_07NLMEMEEK@rc5?9ofb@ 0000000000070ce8     OpensslLib:obj_dat.obj
 0002:00004530       ??_C@_04CHLIKDMF@ZLIB@     0000000000070cf0     OpensslLib:obj_dat.obj
 0002:00004538       ??_C@_0BB@KGNEOBKL@zlib?5compression@ 0000000000070cf8     OpensslLib:obj_dat.obj
 0002:00004550       ??_C@_0BB@DGDLKPHD@extendedKeyUsage@ 0000000000070d10     OpensslLib:obj_dat.obj
 0002:00004568       ??_C@_0BK@KFMGFBEG@X509v3?5Extended?5Key?5Usage@ 0000000000070d28     OpensslLib:obj_dat.obj
 0002:00004584       ??_C@_04EAPCHJAG@PKIX@     0000000000070d44     OpensslLib:obj_dat.obj
 0002:0000458c       ??_C@_05DEJBPLJH@id?9kp@   0000000000070d4c     OpensslLib:obj_dat.obj
 0002:00004598       ??_C@_0L@CINGAJGN@serverAuth@ 0000000000070d58     OpensslLib:obj_dat.obj
 0002:000045a8       ??_C@_0BO@HPFOJNNE@TLS?5Web?5Server?5Authentication@ 0000000000070d68     OpensslLib:obj_dat.obj
 0002:000045c8       ??_C@_0L@HCMKLLOP@clientAuth@ 0000000000070d88     OpensslLib:obj_dat.obj
 0002:000045d8       ??_C@_0BO@FEMCBEOF@TLS?5Web?5Client?5Authentication@ 0000000000070d98     OpensslLib:obj_dat.obj
 0002:000045f8       ??_C@_0M@OJNCNGJ@codeSigning@ 0000000000070db8     OpensslLib:obj_dat.obj
 0002:00004608       ??_C@_0N@CHJHLHFC@Code?5Signing@ 0000000000070dc8     OpensslLib:obj_dat.obj
 0002:00004618       ??_C@_0BA@NPCFDPCO@emailProtection@ 0000000000070dd8     OpensslLib:obj_dat.obj
 0002:00004628       ??_C@_0BC@BLBGFKKG@E?9mail?5Protection@ 0000000000070de8     OpensslLib:obj_dat.obj
 0002:00004640       ??_C@_0N@LONEBHPN@timeStamping@ 0000000000070e00     OpensslLib:obj_dat.obj
 0002:00004650       ??_C@_0O@GMMBLMEE@Time?5Stamping@ 0000000000070e10     OpensslLib:obj_dat.obj
 0002:00004660       ??_C@_09EMNNPEBE@msCodeInd@ 0000000000070e20     OpensslLib:obj_dat.obj
 0002:00004670       ??_C@_0CC@NDDHKAMP@Microsoft?5Individual?5Code?5Signi@ 0000000000070e30     OpensslLib:obj_dat.obj
 0002:00004698       ??_C@_09PDGAMFAO@msCodeCom@ 0000000000070e58     OpensslLib:obj_dat.obj
 0002:000046a8       ??_C@_0CC@GKFNEBFA@Microsoft?5Commercial?5Code?5Signi@ 0000000000070e68     OpensslLib:obj_dat.obj
 0002:000046d0       ??_C@_09HGCLLDPK@msCTLSign@ 0000000000070e90     OpensslLib:obj_dat.obj
 0002:000046e0       ??_C@_0BN@GNMCHNOI@Microsoft?5Trust?5List?5Signing@ 0000000000070ea0     OpensslLib:obj_dat.obj
 0002:00004700       ??_C@_05DDBMPPAI@msSGC@    0000000000070ec0     OpensslLib:obj_dat.obj
 0002:00004708       ??_C@_0BO@FBDDCLK@Microsoft?5Server?5Gated?5Crypto@ 0000000000070ec8     OpensslLib:obj_dat.obj
 0002:00004728       ??_C@_05NGOIPCN@msEFS@     0000000000070ee8     OpensslLib:obj_dat.obj
 0002:00004730       ??_C@_0CA@IJODBCMB@Microsoft?5Encrypted?5File?5System@ 0000000000070ef0     OpensslLib:obj_dat.obj
 0002:00004750       ??_C@_05LFIIINKG@nsSGC@    0000000000070f10     OpensslLib:obj_dat.obj
 0002:00004758       ??_C@_0BN@MDNLHLBL@Netscape?5Server?5Gated?5Crypto@ 0000000000070f18     OpensslLib:obj_dat.obj
 0002:00004778       ??_C@_08ECNAKPJJ@deltaCRL@ 0000000000070f38     OpensslLib:obj_dat.obj
 0002:00004788       ??_C@_0BL@HLNLPBHP@X509v3?5Delta?5CRL?5Indicator@ 0000000000070f48     OpensslLib:obj_dat.obj
 0002:000047a8       ??_C@_09MCDAGILE@CRLReason@ 0000000000070f68     OpensslLib:obj_dat.obj
 0002:000047b8       ??_C@_0BH@GODIEFKG@X509v3?5CRL?5Reason?5Code@ 0000000000070f78     OpensslLib:obj_dat.obj
 0002:000047d0       ??_C@_0P@BKEGCOMO@invalidityDate@ 0000000000070f90     OpensslLib:obj_dat.obj
 0002:000047e0       ??_C@_0BA@JDBEMONE@Invalidity?5Date@ 0000000000070fa0     OpensslLib:obj_dat.obj
 0002:000047f0       ??_C@_07DKMNOLMH@SXNetID@  0000000000070fb0     OpensslLib:obj_dat.obj
 0002:000047f8       ??_C@_0BD@PNDCMCDK@Strong?5Extranet?5ID@ 0000000000070fb8     OpensslLib:obj_dat.obj
 0002:00004810       ??_C@_0BB@ILOABLNL@PBE?9SHA1?9RC4?9128@ 0000000000070fd0     OpensslLib:obj_dat.obj
 0002:00004828       ??_C@_0BI@LBIFCLPB@pbeWithSHA1And128BitRC4@ 0000000000070fe8     OpensslLib:obj_dat.obj
 0002:00004840       ??_C@_0BA@ECFMCJKN@PBE?9SHA1?9RC4?940@ 0000000000071000     OpensslLib:obj_dat.obj
 0002:00004850       ??_C@_0BH@OCAEJMIL@pbeWithSHA1And40BitRC4@ 0000000000071010     OpensslLib:obj_dat.obj
 0002:00004868       ??_C@_0O@EDBOMBNM@PBE?9SHA1?93DES@ 0000000000071028     OpensslLib:obj_dat.obj
 0002:00004878       ??_C@_0CB@FCNCEDP@pbeWithSHA1And3?9KeyTripleDES?9CB@ 0000000000071038     OpensslLib:obj_dat.obj
 0002:000048a0       ??_C@_0O@HOHOOIGM@PBE?9SHA1?92DES@ 0000000000071060     OpensslLib:obj_dat.obj
 0002:000048b0       ??_C@_0CB@NCMPKEGH@pbeWithSHA1And2?9KeyTripleDES?9CB@ 0000000000071070     OpensslLib:obj_dat.obj
 0002:000048d8       ??_C@_0BB@FNLJPIMG@PBE?9SHA1?9RC2?9128@ 0000000000071098     OpensslLib:obj_dat.obj
 0002:000048f0       ??_C@_0BM@DOLDINME@pbeWithSHA1And128BitRC2?9CBC@ 00000000000710b0     OpensslLib:obj_dat.obj
 0002:00004910       ??_C@_0BA@MNBMNMAN@PBE?9SHA1?9RC2?940@ 00000000000710d0     OpensslLib:obj_dat.obj
 0002:00004920       ??_C@_0BL@CKNKIMON@pbeWithSHA1And40BitRC2?9CBC@ 00000000000710e0     OpensslLib:obj_dat.obj
 0002:0000493c       ??_C@_06BFGNOIAI@keyBag@   00000000000710fc     OpensslLib:obj_dat.obj
 0002:00004948       ??_C@_0BE@ELJKIANF@pkcs8ShroudedKeyBag@ 0000000000071108     OpensslLib:obj_dat.obj
 0002:00004960       ??_C@_07FDLMCII@certBag@   0000000000071120     OpensslLib:obj_dat.obj
 0002:00004968       ??_C@_06JAFBIMLO@crlBag@   0000000000071128     OpensslLib:obj_dat.obj
 0002:00004970       ??_C@_09DELDBPIE@secretBag@ 0000000000071130     OpensslLib:obj_dat.obj
 0002:00004980       ??_C@_0BA@KAKLKBBC@safeContentsBag@ 0000000000071140     OpensslLib:obj_dat.obj
 0002:00004990       ??_C@_0N@BGFMPLCM@friendlyName@ 0000000000071150     OpensslLib:obj_dat.obj
 0002:000049a0       ??_C@_0L@BCMHPPAO@localKeyID@ 0000000000071160     OpensslLib:obj_dat.obj
 0002:000049b0       ??_C@_0BA@EMOFOCJL@x509Certificate@ 0000000000071170     OpensslLib:obj_dat.obj
 0002:000049c0       ??_C@_0BA@BFAOBDKH@sdsiCertificate@ 0000000000071180     OpensslLib:obj_dat.obj
 0002:000049d0       ??_C@_07KAOEJCFK@x509Crl@  0000000000071190     OpensslLib:obj_dat.obj
 0002:000049d8       ??_C@_05EPMADBBF@PBES2@    0000000000071198     OpensslLib:obj_dat.obj
 0002:000049e0       ??_C@_06DEJMPFNK@PBMAC1@   00000000000711a0     OpensslLib:obj_dat.obj
 0002:000049e8       ??_C@_0N@KANOAIP@hmacWithSHA1@ 00000000000711a8     OpensslLib:obj_dat.obj
 0002:000049f8       ??_C@_09MIPGHKGJ@id?9qt?9cps@ 00000000000711b8     OpensslLib:obj_dat.obj
 0002:00004a08       ??_C@_0BF@HPKIKKPI@Policy?5Qualifier?5CPS@ 00000000000711c8     OpensslLib:obj_dat.obj
 0002:00004a20       ??_C@_0O@CJFHFAHE@id?9qt?9unotice@ 00000000000711e0     OpensslLib:obj_dat.obj
 0002:00004a30       ??_C@_0BN@KPMBKEE@Policy?5Qualifier?5User?5Notice@ 00000000000711f0     OpensslLib:obj_dat.obj
 0002:00004a50       ??_C@_0L@OPHBIFFL@RC2?964?9CBC@ 0000000000071210     OpensslLib:obj_dat.obj
 0002:00004a60       ??_C@_0L@CLELMECA@rc2?964?9cbc@ 0000000000071220     OpensslLib:obj_dat.obj
 0002:00004a70       ??_C@_0L@LCBJGKJG@SMIME?9CAPS@ 0000000000071230     OpensslLib:obj_dat.obj
 0002:00004a80       ??_C@_0BE@CEEFMCAI@S?1MIME?5Capabilities@ 0000000000071240     OpensslLib:obj_dat.obj
 0002:00004a98       ??_C@_0P@OHJEMJLF@PBE?9MD2?9RC2?964@ 0000000000071258     OpensslLib:obj_dat.obj
 0002:00004aa8       ??_C@_0BF@FOKDMACM@pbeWithMD2AndRC2?9CBC@ 0000000000071268     OpensslLib:obj_dat.obj
 0002:00004ac0       ??_C@_0P@IDPFKEHM@PBE?9MD5?9RC2?964@ 0000000000071280     OpensslLib:obj_dat.obj
 0002:00004ad0       ??_C@_0BF@CKDLCJKD@pbeWithMD5AndRC2?9CBC@ 0000000000071290     OpensslLib:obj_dat.obj
 0002:00004ae8       ??_C@_0N@GOPIPBOD@PBE?9SHA1?9DES@ 00000000000712a8     OpensslLib:obj_dat.obj
 0002:00004af8       ??_C@_0BG@JLHBEJLP@pbeWithSHA1AndDES?9CBC@ 00000000000712b8     OpensslLib:obj_dat.obj
 0002:00004b10       ??_C@_08HCCJAOPJ@msExtReq@ 00000000000712d0     OpensslLib:obj_dat.obj
 0002:00004b20       ??_C@_0BM@MEJAMAEO@Microsoft?5Extension?5Request@ 00000000000712e0     OpensslLib:obj_dat.obj
 0002:00004b3c       ??_C@_06EJACAMDF@extReq@   00000000000712fc     OpensslLib:obj_dat.obj
 0002:00004b48       ??_C@_0BC@GLHEKHCC@Extension?5Request@ 0000000000071308     OpensslLib:obj_dat.obj
 0002:00004b5c       ??_C@_04MEMAJGDJ@name@     000000000007131c     OpensslLib:obj_dat.obj
 0002:00004b68       ??_C@_0M@DNNLEIMI@dnQualifier@ 0000000000071328     OpensslLib:obj_dat.obj
 0002:00004b74       ??_C@_05BDFHFBBC@id?9pe@   0000000000071334     OpensslLib:obj_dat.obj
 0002:00004b7c       ??_C@_05BHKIKJBE@id?9ad@   000000000007133c     OpensslLib:obj_dat.obj
 0002:00004b88       ??_C@_0BE@PLCGCINM@authorityInfoAccess@ 0000000000071348     OpensslLib:obj_dat.obj
 0002:00004ba0       ??_C@_0BN@EILCOJAN@Authority?5Information?5Access@ 0000000000071360     OpensslLib:obj_dat.obj
 0002:00004bc0       ??_C@_04LOJOPNBE@OCSP@     0000000000071380     OpensslLib:obj_dat.obj
 0002:00004bc8       ??_C@_09GFPECPIH@caIssuers@ 0000000000071388     OpensslLib:obj_dat.obj
 0002:00004bd8       ??_C@_0L@CABCENFK@CA?5Issuers@ 0000000000071398     OpensslLib:obj_dat.obj
 0002:00004be8       ??_C@_0M@HBKJLKNM@OCSPSigning@ 00000000000713a8     OpensslLib:obj_dat.obj
 0002:00004bf8       ??_C@_0N@CPJNIPDD@OCSP?5Signing@ 00000000000713b8     OpensslLib:obj_dat.obj
 0002:00004c08       ??_C@_03CBLMPEHH@ISO@      00000000000713c8     OpensslLib:obj_dat.obj
 0002:00004c0c       ??_C@_03CMEHDJAL@iso@      00000000000713cc     OpensslLib:obj_dat.obj
 0002:00004c10       ??_C@_0M@CMICFDOA@member?9body@ 00000000000713d0     OpensslLib:obj_dat.obj
 0002:00004c20       ??_C@_0BA@BGDAEHGF@ISO?5Member?5Body@ 00000000000713e0     OpensslLib:obj_dat.obj
 0002:00004c30       ??_C@_06EKAADAMF@ISO?9US@  00000000000713f0     OpensslLib:obj_dat.obj
 0002:00004c38       ??_C@_0BD@NMCDOJHL@ISO?5US?5Member?5Body@ 00000000000713f8     OpensslLib:obj_dat.obj
 0002:00004c4c       ??_C@_05OCCOPOJN@X9?957@   000000000007140c     OpensslLib:obj_dat.obj
 0002:00004c54       ??_C@_05PAJLFBHD@X9?457@   0000000000071414     OpensslLib:obj_dat.obj
 0002:00004c5c       ??_C@_04CGFPFLFA@X9cm@     000000000007141c     OpensslLib:obj_dat.obj
 0002:00004c68       ??_C@_0L@DJCLIPOH@X9?457?5CM?5?$DP@ 0000000000071428     OpensslLib:obj_dat.obj
 0002:00004c74       ??_C@_05BCIEJMJH@pkcs1@    0000000000071434     OpensslLib:obj_dat.obj
 0002:00004c7c       ??_C@_05HGOIFJJD@pkcs5@    000000000007143c     OpensslLib:obj_dat.obj
 0002:00004c84       ??_C@_05HHBEAKJJ@SMIME@    0000000000071444     OpensslLib:obj_dat.obj
 0002:00004c8c       ??_C@_06DFGHEKNE@S?1MIME@  000000000007144c     OpensslLib:obj_dat.obj
 0002:00004c98       ??_C@_0N@GABIEKIN@id?9smime?9mod@ 0000000000071458     OpensslLib:obj_dat.obj
 0002:00004ca8       ??_C@_0M@EBLDBLEO@id?9smime?9ct@ 0000000000071468     OpensslLib:obj_dat.obj
 0002:00004cb8       ??_C@_0M@HFICCJDE@id?9smime?9aa@ 0000000000071478     OpensslLib:obj_dat.obj
 0002:00004cc8       ??_C@_0N@DKFBIKP@id?9smime?9alg@ 0000000000071488     OpensslLib:obj_dat.obj
 0002:00004cd8       ??_C@_0M@LHBAJBP@id?9smime?9cd@ 0000000000071498     OpensslLib:obj_dat.obj
 0002:00004ce8       ??_C@_0N@PABBGIHI@id?9smime?9spq@ 00000000000714a8     OpensslLib:obj_dat.obj
 0002:00004cf8       ??_C@_0N@CFBKAPGC@id?9smime?9cti@ 00000000000714b8     OpensslLib:obj_dat.obj
 0002:00004d08       ??_C@_0BB@PJEIFOOP@id?9smime?9mod?9cms@ 00000000000714c8     OpensslLib:obj_dat.obj
 0002:00004d20       ??_C@_0BB@MKJLIPEJ@id?9smime?9mod?9ess@ 00000000000714e0     OpensslLib:obj_dat.obj
 0002:00004d38       ??_C@_0BB@LBBEMNBN@id?9smime?9mod?9oid@ 00000000000714f8     OpensslLib:obj_dat.obj
 0002:00004d50       ??_C@_0BE@PEENABNJ@id?9smime?9mod?9msg?9v3@ 0000000000071510     OpensslLib:obj_dat.obj
 0002:00004d68       ??_C@_0BP@HIDGBPHA@id?9smime?9mod?9ets?9eSignature?988@ 0000000000071528     OpensslLib:obj_dat.obj
 0002:00004d88       ??_C@_0BP@POGMGJII@id?9smime?9mod?9ets?9eSignature?997@ 0000000000071548     OpensslLib:obj_dat.obj
 0002:00004da8       ??_C@_0BP@KEHEABPA@id?9smime?9mod?9ets?9eSigPolicy?988@ 0000000000071568     OpensslLib:obj_dat.obj
 0002:00004dc8       ??_C@_0BP@CCCOHHAI@id?9smime?9mod?9ets?9eSigPolicy?997@ 0000000000071588     OpensslLib:obj_dat.obj
 0002:00004de8       ??_C@_0BE@GCHIHBHA@id?9smime?9ct?9receipt@ 00000000000715a8     OpensslLib:obj_dat.obj
 0002:00004e00       ??_C@_0BF@KGEHGOF@id?9smime?9ct?9authData@ 00000000000715c0     OpensslLib:obj_dat.obj
 0002:00004e18       ??_C@_0BI@DBILCLFJ@id?9smime?9ct?9publishCert@ 00000000000715d8     OpensslLib:obj_dat.obj
 0002:00004e30       ??_C@_0BE@KHNGFDDI@id?9smime?9ct?9TSTInfo@ 00000000000715f0     OpensslLib:obj_dat.obj
 0002:00004e48       ??_C@_0BE@FKPPBHI@id?9smime?9ct?9TDTInfo@ 0000000000071608     OpensslLib:obj_dat.obj
 0002:00004e60       ??_C@_0BI@BGKPNMK@id?9smime?9ct?9contentInfo@ 0000000000071620     OpensslLib:obj_dat.obj
 0002:00004e78       ??_C@_0BM@MFKPCEGN@id?9smime?9ct?9DVCSRequestData@ 0000000000071638     OpensslLib:obj_dat.obj
 0002:00004e98       ??_C@_0BN@POKJLKJJ@id?9smime?9ct?9DVCSResponseData@ 0000000000071658     OpensslLib:obj_dat.obj
 0002:00004eb8       ??_C@_0BL@LMGNMPFD@id?9smime?9aa?9receiptRequest@ 0000000000071678     OpensslLib:obj_dat.obj
 0002:00004ed8       ??_C@_0BK@DNJNJILO@id?9smime?9aa?9securityLabel@ 0000000000071698     OpensslLib:obj_dat.obj
 0002:00004ef8       ??_C@_0BM@OEKGBMLE@id?9smime?9aa?9mlExpandHistory@ 00000000000716b8     OpensslLib:obj_dat.obj
 0002:00004f18       ??_C@_0BI@EMGPJFHB@id?9smime?9aa?9contentHint@ 00000000000716d8     OpensslLib:obj_dat.obj
 0002:00004f30       ??_C@_0BJ@LJLDKMDH@id?9smime?9aa?9msgSigDigest@ 00000000000716f0     OpensslLib:obj_dat.obj
 0002:00004f50       ??_C@_0BN@GCCNOJCG@id?9smime?9aa?9encapContentType@ 0000000000071710     OpensslLib:obj_dat.obj
 0002:00004f70       ??_C@_0BO@KMJGIAMK@id?9smime?9aa?9contentIdentifier@ 0000000000071730     OpensslLib:obj_dat.obj
 0002:00004f90       ??_C@_0BF@CFNHFPDB@id?9smime?9aa?9macValue@ 0000000000071750     OpensslLib:obj_dat.obj
 0002:00004fa8       ??_C@_0BN@NFAAOKEA@id?9smime?9aa?9equivalentLabels@ 0000000000071768     OpensslLib:obj_dat.obj
 0002:00004fc8       ??_C@_0BN@LEFAEFL@id?9smime?9aa?9contentReference@ 0000000000071788     OpensslLib:obj_dat.obj
 0002:00004fe8       ??_C@_0BK@LAPEFMP@id?9smime?9aa?9encrypKeyPref@ 00000000000717a8     OpensslLib:obj_dat.obj
 0002:00005008       ??_C@_0BP@LHGJLGIB@id?9smime?9aa?9signingCertificate@ 00000000000717c8     OpensslLib:obj_dat.obj
 0002:00005028       ??_C@_0BO@CEEOANBD@id?9smime?9aa?9smimeEncryptCerts@ 00000000000717e8     OpensslLib:obj_dat.obj
 0002:00005048       ??_C@_0BL@DHJOIJNE@id?9smime?9aa?9timeStampToken@ 0000000000071808     OpensslLib:obj_dat.obj
 0002:00005068       ??_C@_0BM@GKFMJCFL@id?9smime?9aa?9ets?9sigPolicyId@ 0000000000071828     OpensslLib:obj_dat.obj
 0002:00005088       ??_C@_0BP@OLIFPEIM@id?9smime?9aa?9ets?9commitmentType@ 0000000000071848     OpensslLib:obj_dat.obj
 0002:000050a8       ??_C@_0BP@EODAELPO@id?9smime?9aa?9ets?9signerLocation@ 0000000000071868     OpensslLib:obj_dat.obj
 0002:000050c8       ??_C@_0BL@KDJDAGDC@id?9smime?9aa?9ets?9signerAttr@ 0000000000071888     OpensslLib:obj_dat.obj
 0002:000050e8       ??_C@_0BN@JFIFOPBH@id?9smime?9aa?9ets?9otherSigCert@ 00000000000718a8     OpensslLib:obj_dat.obj
 0002:00005108       ??_C@_0CB@GHKINGOH@id?9smime?9aa?9ets?9contentTimestam@ 00000000000718c8     OpensslLib:obj_dat.obj
 0002:00005130       ??_C@_0CA@NKIOCHLG@id?9smime?9aa?9ets?9CertificateRefs@ 00000000000718f0     OpensslLib:obj_dat.obj
 0002:00005150       ??_C@_0BP@BCHJHNFO@id?9smime?9aa?9ets?9RevocationRefs@ 0000000000071910     OpensslLib:obj_dat.obj
 0002:00005170       ??_C@_0BL@IFKOLDIG@id?9smime?9aa?9ets?9certValues@ 0000000000071930     OpensslLib:obj_dat.obj
 0002:00005190       ??_C@_0CB@GOCEFPFO@id?9smime?9aa?9ets?9revocationValue@ 0000000000071950     OpensslLib:obj_dat.obj
 0002:000051b8       ??_C@_0BN@HGLOGOFI@id?9smime?9aa?9ets?9escTimeStamp@ 0000000000071978     OpensslLib:obj_dat.obj
 0002:000051d8       ??_C@_0CB@CJNBPJE@id?9smime?9aa?9ets?9certCRLTimestam@ 0000000000071998     OpensslLib:obj_dat.obj
 0002:00005200       ??_C@_0CB@BEMKNJGO@id?9smime?9aa?9ets?9archiveTimeStam@ 00000000000719c0     OpensslLib:obj_dat.obj
 0002:00005228       ??_C@_0BK@HDBIPLFI@id?9smime?9aa?9signatureType@ 00000000000719e8     OpensslLib:obj_dat.obj
 0002:00005248       ??_C@_0BF@KEMAMBKF@id?9smime?9aa?9dvcs?9dvc@ 0000000000071a08     OpensslLib:obj_dat.obj
 0002:00005260       ??_C@_0BK@JNJOCCCB@id?9smime?9alg?9ESDHwith3DES@ 0000000000071a20     OpensslLib:obj_dat.obj
 0002:00005280       ??_C@_0BJ@FIJMOHBJ@id?9smime?9alg?9ESDHwithRC2@ 0000000000071a40     OpensslLib:obj_dat.obj
 0002:000052a0       ??_C@_0BG@HHELPNAK@id?9smime?9alg?93DESwrap@ 0000000000071a60     OpensslLib:obj_dat.obj
 0002:000052b8       ??_C@_0BF@JNCPAJCA@id?9smime?9alg?9RC2wrap@ 0000000000071a78     OpensslLib:obj_dat.obj
 0002:000052d0       ??_C@_0BC@COOODKPD@id?9smime?9alg?9ESDH@ 0000000000071a90     OpensslLib:obj_dat.obj
 0002:000052e8       ??_C@_0BJ@FOFHEIDB@id?9smime?9alg?9CMS3DESwrap@ 0000000000071aa8     OpensslLib:obj_dat.obj
 0002:00005308       ??_C@_0BI@FIFDKKFJ@id?9smime?9alg?9CMSRC2wrap@ 0000000000071ac8     OpensslLib:obj_dat.obj
 0002:00005320       ??_C@_0BB@BMOBKAGE@id?9smime?9cd?9ldap@ 0000000000071ae0     OpensslLib:obj_dat.obj
 0002:00005338       ??_C@_0BJ@IMNKDGEG@id?9smime?9spq?9ets?9sqt?9uri@ 0000000000071af8     OpensslLib:obj_dat.obj
 0002:00005358       ??_C@_0BN@GPAAHNOH@id?9smime?9spq?9ets?9sqt?9unotice@ 0000000000071b18     OpensslLib:obj_dat.obj
 0002:00005378       ??_C@_0BP@BCHFEGHC@id?9smime?9cti?9ets?9proofOfOrigin@ 0000000000071b38     OpensslLib:obj_dat.obj
 0002:00005398       ??_C@_0CA@HNGOKBGC@id?9smime?9cti?9ets?9proofOfReceipt@ 0000000000071b58     OpensslLib:obj_dat.obj
 0002:000053b8       ??_C@_0CB@ICJGPMEP@id?9smime?9cti?9ets?9proofOfDeliver@ 0000000000071b78     OpensslLib:obj_dat.obj
 0002:000053e0       ??_C@_0BP@ODCAFFCM@id?9smime?9cti?9ets?9proofOfSender@ 0000000000071ba0     OpensslLib:obj_dat.obj
 0002:00005400       ??_C@_0CB@DDLMHEBC@id?9smime?9cti?9ets?9proofOfApprova@ 0000000000071bc0     OpensslLib:obj_dat.obj
 0002:00005428       ??_C@_0CB@MICJDGGH@id?9smime?9cti?9ets?9proofOfCreatio@ 0000000000071be8     OpensslLib:obj_dat.obj
 0002:0000544c       ??_C@_03HLHMHGOI@MD4@      0000000000071c0c     OpensslLib:obj_dat.obj
 0002:00005450       ??_C@_03ODADJPDG@md4@      0000000000071c10     OpensslLib:obj_dat.obj
 0002:00005458       ??_C@_0M@FNAFBNKE@id?9pkix?9mod@ 0000000000071c18     OpensslLib:obj_dat.obj
 0002:00005464       ??_C@_05EBEMBIDF@id?9qt@   0000000000071c24     OpensslLib:obj_dat.obj
 0002:0000546c       ??_C@_05FDHJOKPN@id?9it@   0000000000071c2c     OpensslLib:obj_dat.obj
 0002:00005478       ??_C@_07OMHOPMIM@id?9pkip@ 0000000000071c38     OpensslLib:obj_dat.obj
 0002:00005480       ??_C@_06DOGCNAAM@id?9alg@  0000000000071c40     OpensslLib:obj_dat.obj
 0002:00005488       ??_C@_06PBMFLHLE@id?9cmc@  0000000000071c48     OpensslLib:obj_dat.obj
 0002:00005490       ??_C@_05OHNJGMJE@id?9on@   0000000000071c50     OpensslLib:obj_dat.obj
 0002:00005498       ??_C@_06IOIOBGMI@id?9pda@  0000000000071c58     OpensslLib:obj_dat.obj
 0002:000054a0       ??_C@_06GDGEDALH@id?9aca@  0000000000071c60     OpensslLib:obj_dat.obj
 0002:000054a8       ??_C@_06ELIJBHPL@id?9qcs@  0000000000071c68     OpensslLib:obj_dat.obj
 0002:000054b0       ??_C@_06PONIBOCI@id?9cct@  0000000000071c70     OpensslLib:obj_dat.obj
 0002:000054b8       ??_C@_0BF@HGDNDMHO@id?9pkix1?9explicit?988@ 0000000000071c78     OpensslLib:obj_dat.obj
 0002:000054d0       ??_C@_0BF@KMJGBJHG@id?9pkix1?9implicit?988@ 0000000000071c90     OpensslLib:obj_dat.obj
 0002:000054e8       ??_C@_0BF@JEALIPIC@id?9pkix1?9explicit?993@ 0000000000071ca8     OpensslLib:obj_dat.obj
 0002:00005500       ??_C@_0BF@EOKAKKIK@id?9pkix1?9implicit?993@ 0000000000071cc0     OpensslLib:obj_dat.obj
 0002:00005518       ??_C@_0M@GHFPFJPB@id?9mod?9crmf@ 0000000000071cd8     OpensslLib:obj_dat.obj
 0002:00005528       ??_C@_0L@KPDLDADF@id?9mod?9cmc@ 0000000000071ce8     OpensslLib:obj_dat.obj
 0002:00005538       ??_C@_0BG@DCGANCKA@id?9mod?9kea?9profile?988@ 0000000000071cf8     OpensslLib:obj_dat.obj
 0002:00005550       ??_C@_0BG@NAFGGBFM@id?9mod?9kea?9profile?993@ 0000000000071d10     OpensslLib:obj_dat.obj
 0002:00005568       ??_C@_0L@MONEHBKH@id?9mod?9cmp@ 0000000000071d28     OpensslLib:obj_dat.obj
 0002:00005578       ??_C@_0BJ@GENFLKHG@id?9mod?9qualified?9cert?988@ 0000000000071d38     OpensslLib:obj_dat.obj
 0002:00005598       ??_C@_0BJ@IGODAJIK@id?9mod?9qualified?9cert?993@ 0000000000071d58     OpensslLib:obj_dat.obj
 0002:000055b8       ??_C@_0BG@EPPFBJNH@id?9mod?9attribute?9cert@ 0000000000071d78     OpensslLib:obj_dat.obj
 0002:000055d0       ??_C@_0BK@GAJOODEK@id?9mod?9timestamp?9protocol@ 0000000000071d90     OpensslLib:obj_dat.obj
 0002:000055f0       ??_C@_0M@EACKLPKH@id?9mod?9ocsp@ 0000000000071db0     OpensslLib:obj_dat.obj
 0002:00005600       ??_C@_0M@GHDGNJKI@id?9mod?9dvcs@ 0000000000071dc0     OpensslLib:obj_dat.obj
 0002:00005610       ??_C@_0P@MMOAAMFD@id?9mod?9cmp2000@ 0000000000071dd0     OpensslLib:obj_dat.obj
 0002:00005620       ??_C@_0O@MPIIPAHM@biometricInfo@ 0000000000071de0     OpensslLib:obj_dat.obj
 0002:00005630       ??_C@_0P@KFKDECPH@Biometric?5Info@ 0000000000071df0     OpensslLib:obj_dat.obj
 0002:00005640       ??_C@_0N@FPMNLLM@qcStatements@ 0000000000071e00     OpensslLib:obj_dat.obj
 0002:00005650       ??_C@_0P@CIOHPJGC@ac?9auditEntity@ 0000000000071e10     OpensslLib:obj_dat.obj
 0002:00005660       ??_C@_0N@FPEEOJCI@ac?9targeting@ 0000000000071e20     OpensslLib:obj_dat.obj
 0002:00005670       ??_C@_0L@DLGBNBJE@aaControls@ 0000000000071e30     OpensslLib:obj_dat.obj
 0002:00005680       ??_C@_0BB@NNCKCHBC@sbgp?9ipAddrBlock@ 0000000000071e40     OpensslLib:obj_dat.obj
 0002:00005698       ??_C@_0BG@OJEHJDKA@sbgp?9autonomousSysNum@ 0000000000071e58     OpensslLib:obj_dat.obj
 0002:000056b0       ??_C@_0BG@JCJJBMAI@sbgp?9routerIdentifier@ 0000000000071e70     OpensslLib:obj_dat.obj
 0002:000056c8       ??_C@_0L@HLNNPJEH@textNotice@ 0000000000071e88     OpensslLib:obj_dat.obj
 0002:000056d8       ??_C@_0P@MKBFMAPP@ipsecEndSystem@ 0000000000071e98     OpensslLib:obj_dat.obj
 0002:000056e8       ??_C@_0BB@JEJDAICO@IPSec?5End?5System@ 0000000000071ea8     OpensslLib:obj_dat.obj
 0002:00005700       ??_C@_0M@GMMHFFHI@ipsecTunnel@ 0000000000071ec0     OpensslLib:obj_dat.obj
 0002:00005710       ??_C@_0N@EKDIOGLO@IPSec?5Tunnel@ 0000000000071ed0     OpensslLib:obj_dat.obj
 0002:00005720       ??_C@_09GOHJKOFF@ipsecUser@ 0000000000071ee0     OpensslLib:obj_dat.obj
 0002:00005730       ??_C@_0L@DECDDCGF@IPSec?5User@ 0000000000071ef0     OpensslLib:obj_dat.obj
 0002:0000573c       ??_C@_04JJICJLBL@DVCS@     0000000000071efc     OpensslLib:obj_dat.obj
 0002:00005744       ??_C@_04FFLIHJGD@dvcs@     0000000000071f04     OpensslLib:obj_dat.obj
 0002:00005750       ??_C@_0BE@GJACIPND@id?9it?9caProtEncCert@ 0000000000071f10     OpensslLib:obj_dat.obj
 0002:00005768       ??_C@_0BH@POCENFBA@id?9it?9signKeyPairTypes@ 0000000000071f28     OpensslLib:obj_dat.obj
 0002:00005780       ??_C@_0BG@FKIDIODL@id?9it?9encKeyPairTypes@ 0000000000071f40     OpensslLib:obj_dat.obj
 0002:00005798       ??_C@_0BH@JFBOPDCH@id?9it?9preferredSymmAlg@ 0000000000071f58     OpensslLib:obj_dat.obj
 0002:000057b0       ??_C@_0BG@OAKEHPLC@id?9it?9caKeyUpdateInfo@ 0000000000071f70     OpensslLib:obj_dat.obj
 0002:000057c8       ??_C@_0BB@NHKBGJFG@id?9it?9currentCRL@ 0000000000071f88     OpensslLib:obj_dat.obj
 0002:000057e0       ??_C@_0BG@BPLKDJPD@id?9it?9unsupportedOIDs@ 0000000000071fa0     OpensslLib:obj_dat.obj
 0002:000057f8       ??_C@_0BK@MKGCMKGI@id?9it?9subscriptionRequest@ 0000000000071fb8     OpensslLib:obj_dat.obj
 0002:00005818       ??_C@_0BL@HBPHBFLO@id?9it?9subscriptionResponse@ 0000000000071fd8     OpensslLib:obj_dat.obj
 0002:00005838       ??_C@_0BG@LGJDGAPG@id?9it?9keyPairParamReq@ 0000000000071ff8     OpensslLib:obj_dat.obj
 0002:00005850       ??_C@_0BG@KPIIFBLH@id?9it?9keyPairParamRep@ 0000000000072010     OpensslLib:obj_dat.obj
 0002:00005868       ??_C@_0BE@FOOOCPMH@id?9it?9revPassphrase@ 0000000000072028     OpensslLib:obj_dat.obj
 0002:00005880       ??_C@_0BG@MKDHCJKF@id?9it?9implicitConfirm@ 0000000000072040     OpensslLib:obj_dat.obj
 0002:00005898       ??_C@_0BG@KCBHNMIK@id?9it?9confirmWaitTime@ 0000000000072058     OpensslLib:obj_dat.obj
 0002:000058b0       ??_C@_0BF@CLCJJGFI@id?9it?9origPKIMessage@ 0000000000072070     OpensslLib:obj_dat.obj
 0002:000058c8       ??_C@_0L@FDGKGANK@id?9regCtrl@ 0000000000072088     OpensslLib:obj_dat.obj
 0002:000058d8       ??_C@_0L@BGHMJHOP@id?9regInfo@ 0000000000072098     OpensslLib:obj_dat.obj
 0002:000058e8       ??_C@_0BE@JDMKCIPE@id?9regCtrl?9regToken@ 00000000000720a8     OpensslLib:obj_dat.obj
 0002:00005900       ??_C@_0BJ@FBKKLLKP@id?9regCtrl?9authenticator@ 00000000000720c0     OpensslLib:obj_dat.obj
 0002:00005920       ??_C@_0BO@GJKPPLPL@id?9regCtrl?9pkiPublicationInfo@ 00000000000720e0     OpensslLib:obj_dat.obj
 0002:00005940       ??_C@_0BN@ONKHMAOP@id?9regCtrl?9pkiArchiveOptions@ 0000000000072100     OpensslLib:obj_dat.obj
 0002:00005960       ??_C@_0BF@GFJPNJIG@id?9regCtrl?9oldCertID@ 0000000000072120     OpensslLib:obj_dat.obj
 0002:00005978       ??_C@_0BL@GHBPLPHM@id?9regCtrl?9protocolEncrKey@ 0000000000072138     OpensslLib:obj_dat.obj
 0002:00005998       ??_C@_0BF@FHFGHAHE@id?9regInfo?9utf8Pairs@ 0000000000072158     OpensslLib:obj_dat.obj
 0002:000059b0       ??_C@_0BD@EEAPBNJJ@id?9regInfo?9certReq@ 0000000000072170     OpensslLib:obj_dat.obj
 0002:000059c8       ??_C@_0N@KIJONBNA@id?9alg?9des40@ 0000000000072188     OpensslLib:obj_dat.obj
 0002:000059d8       ??_C@_0BD@LAAJOBHI@id?9alg?9noSignature@ 0000000000072198     OpensslLib:obj_dat.obj
 0002:000059f0       ??_C@_0BI@KIODNBCM@id?9alg?9dh?9sig?9hmac?9sha1@ 00000000000721b0     OpensslLib:obj_dat.obj
 0002:00005a08       ??_C@_0O@OBGPPBGA@id?9alg?9dh?9pop@ 00000000000721c8     OpensslLib:obj_dat.obj
 0002:00005a18       ??_C@_0BC@CMNEPEAI@id?9cmc?9statusInfo@ 00000000000721d8     OpensslLib:obj_dat.obj
 0002:00005a30       ??_C@_0BG@PPIINOMK@id?9cmc?9identification@ 00000000000721f0     OpensslLib:obj_dat.obj
 0002:00005a48       ??_C@_0BF@IDAHNDCK@id?9cmc?9identityProof@ 0000000000072208     OpensslLib:obj_dat.obj
 0002:00005a60       ??_C@_0BC@LLJKCHEN@id?9cmc?9dataReturn@ 0000000000072220     OpensslLib:obj_dat.obj
 0002:00005a78       ??_C@_0BF@GEJAHBF@id?9cmc?9transactionId@ 0000000000072238     OpensslLib:obj_dat.obj
 0002:00005a90       ??_C@_0BD@BCMJDDMP@id?9cmc?9senderNonce@ 0000000000072250     OpensslLib:obj_dat.obj
 0002:00005aa8       ??_C@_0BG@JLHHNNCH@id?9cmc?9recipientNonce@ 0000000000072268     OpensslLib:obj_dat.obj
 0002:00005ac0       ??_C@_0BF@HLOCACJF@id?9cmc?9addExtensions@ 0000000000072280     OpensslLib:obj_dat.obj
 0002:00005ad8       ??_C@_0BE@NILMJFN@id?9cmc?9encryptedPOP@ 0000000000072298     OpensslLib:obj_dat.obj
 0002:00005af0       ??_C@_0BE@KBIPLENG@id?9cmc?9decryptedPOP@ 00000000000722b0     OpensslLib:obj_dat.obj
 0002:00005b08       ??_C@_0BF@BMODAINP@id?9cmc?9lraPOPWitness@ 00000000000722c8     OpensslLib:obj_dat.obj
 0002:00005b20       ??_C@_0P@GMDPJKDO@id?9cmc?9getCert@ 00000000000722e0     OpensslLib:obj_dat.obj
 0002:00005b30       ??_C@_0O@OIGIOBJ@id?9cmc?9getCRL@ 00000000000722f0     OpensslLib:obj_dat.obj
 0002:00005b40       ??_C@_0BF@BOEAJJNI@id?9cmc?9revokeRequest@ 0000000000072300     OpensslLib:obj_dat.obj
 0002:00005b58       ??_C@_0P@PCIOIKNC@id?9cmc?9regInfo@ 0000000000072318     OpensslLib:obj_dat.obj
 0002:00005b68       ??_C@_0BE@CKMFMMDP@id?9cmc?9responseInfo@ 0000000000072328     OpensslLib:obj_dat.obj
 0002:00005b80       ??_C@_0BE@JKLJLIIH@id?9cmc?9queryPending@ 0000000000072340     OpensslLib:obj_dat.obj
 0002:00005b98       ??_C@_0BF@GGLCNKGO@id?9cmc?9popLinkRandom@ 0000000000072358     OpensslLib:obj_dat.obj
 0002:00005bb0       ??_C@_0BG@EEIJMDPB@id?9cmc?9popLinkWitness@ 0000000000072370     OpensslLib:obj_dat.obj
 0002:00005bc8       ??_C@_0BN@MIGHDJON@id?9cmc?9confirmCertAcceptance@ 0000000000072388     OpensslLib:obj_dat.obj
 0002:00005be8       ??_C@_0BD@IGLADCFL@id?9on?9personalData@ 00000000000723a8     OpensslLib:obj_dat.obj
 0002:00005c00       ??_C@_0BD@BADJMIPF@id?9pda?9dateOfBirth@ 00000000000723c0     OpensslLib:obj_dat.obj
 0002:00005c18       ??_C@_0BE@NIFFDBPJ@id?9pda?9placeOfBirth@ 00000000000723d8     OpensslLib:obj_dat.obj
 0002:00005c30       ??_C@_0O@JMCFNPFD@id?9pda?9gender@ 00000000000723f0     OpensslLib:obj_dat.obj
 0002:00005c40       ??_C@_0BM@KMGEGNAB@id?9pda?9countryOfCitizenship@ 0000000000072400     OpensslLib:obj_dat.obj
 0002:00005c60       ??_C@_0BK@BJMNIGCJ@id?9pda?9countryOfResidence@ 0000000000072420     OpensslLib:obj_dat.obj
 0002:00005c80       ??_C@_0BK@OFEDAOCA@id?9aca?9authenticationInfo@ 0000000000072440     OpensslLib:obj_dat.obj
 0002:00005ca0       ??_C@_0BG@GFJCFEAI@id?9aca?9accessIdentity@ 0000000000072460     OpensslLib:obj_dat.obj
 0002:00005cb8       ??_C@_0BI@IDHFJBKH@id?9aca?9chargingIdentity@ 0000000000072478     OpensslLib:obj_dat.obj
 0002:00005cd0       ??_C@_0N@HOPCGOGP@id?9aca?9group@ 0000000000072490     OpensslLib:obj_dat.obj
 0002:00005ce0       ??_C@_0M@FBOAJIIJ@id?9aca?9role@ 00000000000724a0     OpensslLib:obj_dat.obj
 0002:00005cf0       ??_C@_0BH@DJONLBHI@id?9qcs?9pkixQCSyntax?9v1@ 00000000000724b0     OpensslLib:obj_dat.obj
 0002:00005d08       ??_C@_0L@CDHPLMPE@id?9cct?9crs@ 00000000000724c8     OpensslLib:obj_dat.obj
 0002:00005d18       ??_C@_0P@FNCPPGJO@id?9cct?9PKIData@ 00000000000724d8     OpensslLib:obj_dat.obj
 0002:00005d28       ??_C@_0BD@DDALHPCH@id?9cct?9PKIResponse@ 00000000000724e8     OpensslLib:obj_dat.obj
 0002:00005d40       ??_C@_0BA@PBBONLHE@ad_timestamping@ 0000000000072500     OpensslLib:obj_dat.obj
 0002:00005d50       ??_C@_0BB@NMPPBOGK@AD?5Time?5Stamping@ 0000000000072510     OpensslLib:obj_dat.obj
 0002:00005d68       ??_C@_07JCCJJKFE@AD_DVCS@  0000000000072528     OpensslLib:obj_dat.obj
 0002:00005d70       ??_C@_07JCKMJMPC@ad?5dvcs@ 0000000000072530     OpensslLib:obj_dat.obj
 0002:00005d78       ??_C@_0BC@KFAFMFFF@basicOCSPResponse@ 0000000000072538     OpensslLib:obj_dat.obj
 0002:00005d90       ??_C@_0BE@ONEEPEOL@Basic?5OCSP?5Response@ 0000000000072550     OpensslLib:obj_dat.obj
 0002:00005da8       ??_C@_0L@NCNDEJFL@OCSP?5Nonce@ 0000000000072568     OpensslLib:obj_dat.obj
 0002:00005db4       ??_C@_05NOENOBME@CrlID@    0000000000072574     OpensslLib:obj_dat.obj
 0002:00005dc0       ??_C@_0M@LCLKJALE@OCSP?5CRL?5ID@ 0000000000072580     OpensslLib:obj_dat.obj
 0002:00005dd0       ??_C@_0BE@FBPDIHIK@acceptableResponses@ 0000000000072590     OpensslLib:obj_dat.obj
 0002:00005de8       ??_C@_0BK@JKKLNLEI@Acceptable?5OCSP?5Responses@ 00000000000725a8     OpensslLib:obj_dat.obj
 0002:00005e08       ??_C@_07MCKMCKHJ@noCheck@  00000000000725c8     OpensslLib:obj_dat.obj
 0002:00005e10       ??_C@_0O@HFOALJCG@OCSP?5No?5Check@ 00000000000725d0     OpensslLib:obj_dat.obj
 0002:00005e20       ??_C@_0O@FIEDPKGI@archiveCutoff@ 00000000000725e0     OpensslLib:obj_dat.obj
 0002:00005e30       ??_C@_0BE@JAFPABJB@OCSP?5Archive?5Cutoff@ 00000000000725f0     OpensslLib:obj_dat.obj
 0002:00005e48       ??_C@_0P@LCDAPLHC@serviceLocator@ 0000000000072608     OpensslLib:obj_dat.obj
 0002:00005e58       ??_C@_0BF@CEIKAD@OCSP?5Service?5Locator@ 0000000000072618     OpensslLib:obj_dat.obj
 0002:00005e70       ??_C@_0P@EGENIBNC@extendedStatus@ 0000000000072630     OpensslLib:obj_dat.obj
 0002:00005e80       ??_C@_0BF@MPEDLKDP@Extended?5OCSP?5Status@ 0000000000072640     OpensslLib:obj_dat.obj
 0002:00005e98       ??_C@_05HDPIMK@valid@      0000000000072658     OpensslLib:obj_dat.obj
 0002:00005ea0       ??_C@_04LNEJFJGI@path@     0000000000072660     OpensslLib:obj_dat.obj
 0002:00005ea8       ??_C@_09LNEPAILM@trustRoot@ 0000000000072668     OpensslLib:obj_dat.obj
 0002:00005eb8       ??_C@_0L@INBPOG@Trust?5Root@ 0000000000072678     OpensslLib:obj_dat.obj
 0002:00005ec8       ??_C@_0N@JHANBHGC@rsaSignature@ 0000000000072688     OpensslLib:obj_dat.obj
 0002:00005ed8       ??_C@_0P@NMIAKCBG@X500algorithms@ 0000000000072698     OpensslLib:obj_dat.obj
 0002:00005ee8       ??_C@_0CA@FIOIBJEO@directory?5services?5?9?5algorithms@ 00000000000726a8     OpensslLib:obj_dat.obj
 0002:00005f08       ??_C@_03MNMMELJE@ORG@      00000000000726c8     OpensslLib:obj_dat.obj
 0002:00005f0c       ??_C@_03MADHIGOI@org@      00000000000726cc     OpensslLib:obj_dat.obj
 0002:00005f10       ??_C@_03CFBOKPHF@DOD@      00000000000726d0     OpensslLib:obj_dat.obj
 0002:00005f14       ??_C@_03CIOFGCAJ@dod@      00000000000726d4     OpensslLib:obj_dat.obj
 0002:00005f18       ??_C@_04NMPANDAM@IANA@     00000000000726d8     OpensslLib:obj_dat.obj
 0002:00005f20       ??_C@_04BAMKDBHE@iana@     00000000000726e0     OpensslLib:obj_dat.obj
 0002:00005f28       ??_C@_09ELLNFDPM@directory@ 00000000000726e8     OpensslLib:obj_dat.obj
 0002:00005f38       ??_C@_09EOAFACM@Directory@ 00000000000726f8     OpensslLib:obj_dat.obj
 0002:00005f44       ??_C@_04PFNCJACF@mgmt@     0000000000072704     OpensslLib:obj_dat.obj
 0002:00005f50       ??_C@_0L@ENAJINDB@Management@ 0000000000072710     OpensslLib:obj_dat.obj
 0002:00005f60       ??_C@_0N@OJFGCCKJ@experimental@ 0000000000072720     OpensslLib:obj_dat.obj
 0002:00005f70       ??_C@_0N@FKCIGJFM@Experimental@ 0000000000072730     OpensslLib:obj_dat.obj
 0002:00005f80       ??_C@_07NMPLPEPB@private@  0000000000072740     OpensslLib:obj_dat.obj
 0002:00005f88       ??_C@_07CFINJGKH@Private@  0000000000072748     OpensslLib:obj_dat.obj
 0002:00005f90       ??_C@_08MBFLHJIB@security@ 0000000000072750     OpensslLib:obj_dat.obj
 0002:00005fa0       ??_C@_08EDKKPLCC@Security@ 0000000000072760     OpensslLib:obj_dat.obj
 0002:00005fac       ??_C@_06DKHMNHOO@snmpv2@   000000000007276c     OpensslLib:obj_dat.obj
 0002:00005fb4       ??_C@_06JDJOGLHO@SNMPv2@   0000000000072774     OpensslLib:obj_dat.obj
 0002:00005fbc       ??_C@_04JEGKNAHI@Mail@     000000000007277c     OpensslLib:obj_dat.obj
 0002:00005fc8       ??_C@_0M@DMHOKNAD@enterprises@ 0000000000072788     OpensslLib:obj_dat.obj
 0002:00005fd8       ??_C@_0M@CEEPHGPL@Enterprises@ 0000000000072798     OpensslLib:obj_dat.obj
 0002:00005fe8       ??_C@_08KAGHKPKK@dcobject@ 00000000000727a8     OpensslLib:obj_dat.obj
 0002:00005ff8       ??_C@_08GPNKJGDG@dcObject@ 00000000000727b8     OpensslLib:obj_dat.obj
 0002:00006004       ??_C@_02KMHJBPDH@DC@       00000000000727c4     OpensslLib:obj_dat.obj
 0002:00006008       ??_C@_0BA@DMAKFKAH@domainComponent@ 00000000000727c8     OpensslLib:obj_dat.obj
 0002:00006018       ??_C@_06LKIIGAOE@domain@   00000000000727d8     OpensslLib:obj_dat.obj
 0002:00006020       ??_C@_06HFDFFJHI@Domain@   00000000000727e0     OpensslLib:obj_dat.obj
 0002:00006028       ??_C@_04HIBGFPH@NULL@      00000000000727e8     OpensslLib:obj_dat.obj
 0002:00006030       ??_C@_0BJ@BDDNHDDA@selected?9attribute?9types@ 00000000000727f0     OpensslLib:obj_dat.obj
 0002:00006050       ??_C@_0BJ@MAOJIBHF@Selected?5Attribute?5Types@ 0000000000072810     OpensslLib:obj_dat.obj
 0002:00006070       ??_C@_09ECGCCLFI@clearance@ 0000000000072830     OpensslLib:obj_dat.obj
 0002:00006080       ??_C@_07MHHBEDHA@RSA?9MD4@ 0000000000072840     OpensslLib:obj_dat.obj
 0002:00006088       ??_C@_0BF@JDOFKNPK@md4WithRSAEncryption@ 0000000000072848     OpensslLib:obj_dat.obj
 0002:000060a0       ??_C@_0M@BKAIKGEL@ac?9proxying@ 0000000000072860     OpensslLib:obj_dat.obj
 0002:000060b0       ??_C@_0BC@IEIBIKBA@subjectInfoAccess@ 0000000000072870     OpensslLib:obj_dat.obj
 0002:000060c8       ??_C@_0BL@OMFIOBLF@Subject?5Information?5Access@ 0000000000072888     OpensslLib:obj_dat.obj
 0002:000060e8       ??_C@_0BA@PEFFHNFH@id?9aca?9encAttrs@ 00000000000728a8     OpensslLib:obj_dat.obj
 0002:000060f8       ??_C@_04IAMNPBLO@role@     00000000000728b8     OpensslLib:obj_dat.obj
 0002:00006100       ??_C@_0BC@IJLMCBHD@policyConstraints@ 00000000000728c0     OpensslLib:obj_dat.obj
 0002:00006118       ??_C@_0BK@DNMBLGM@X509v3?5Policy?5Constraints@ 00000000000728d8     OpensslLib:obj_dat.obj
 0002:00006138       ??_C@_0BC@JINDJNPM@targetInformation@ 00000000000728f8     OpensslLib:obj_dat.obj
 0002:00006150       ??_C@_0BE@IECCFFCH@X509v3?5AC?5Targeting@ 0000000000072910     OpensslLib:obj_dat.obj
 0002:00006168       ??_C@_0L@ECGDAGCK@noRevAvail@ 0000000000072928     OpensslLib:obj_dat.obj
 0002:00006178       ??_C@_0BP@DEKFNCEH@X509v3?5No?5Revocation?5Available@ 0000000000072938     OpensslLib:obj_dat.obj
 0002:00006198       ??_C@_0L@LBMOMFCJ@ansi?9X9?962@ 0000000000072958     OpensslLib:obj_dat.obj
 0002:000061a8       ??_C@_0L@HAOKGHPF@ANSI?5X9?462@ 0000000000072968     OpensslLib:obj_dat.obj
 0002:000061b8       ??_C@_0M@LGLKIODB@prime?9field@ 0000000000072978     OpensslLib:obj_dat.obj
 0002:000061c8       ??_C@_0BJ@HECCMKCN@characteristic?9two?9field@ 0000000000072988     OpensslLib:obj_dat.obj
 0002:000061e8       ??_C@_0P@NEOBKIMO@id?9ecPublicKey@ 00000000000729a8     OpensslLib:obj_dat.obj
 0002:000061f8       ??_C@_0L@FFFCIFBH@prime192v1@ 00000000000729b8     OpensslLib:obj_dat.obj
 0002:00006208       ??_C@_0L@HOHPNGNE@prime192v2@ 00000000000729c8     OpensslLib:obj_dat.obj
 0002:00006218       ??_C@_0L@GHGEOHJF@prime192v3@ 00000000000729d8     OpensslLib:obj_dat.obj
 0002:00006228       ??_C@_0L@EOHHGIBJ@prime239v1@ 00000000000729e8     OpensslLib:obj_dat.obj
 0002:00006238       ??_C@_0L@GFFKDLNK@prime239v2@ 00000000000729f8     OpensslLib:obj_dat.obj
 0002:00006248       ??_C@_0L@HMEBAKJL@prime239v3@ 0000000000072a08     OpensslLib:obj_dat.obj
 0002:00006258       ??_C@_0L@JJFEINOP@prime256v1@ 0000000000072a18     OpensslLib:obj_dat.obj
 0002:00006268       ??_C@_0BA@DGJNDOPM@ecdsa?9with?9SHA1@ 0000000000072a28     OpensslLib:obj_dat.obj
 0002:00006278       ??_C@_07BPKAKPJK@CSPName@  0000000000072a38     OpensslLib:obj_dat.obj
 0002:00006280       ??_C@_0BD@HDEEGCLB@Microsoft?5CSP?5Name@ 0000000000072a40     OpensslLib:obj_dat.obj
 0002:00006298       ??_C@_0M@BCNEBAOB@AES?9128?9ECB@ 0000000000072a58     OpensslLib:obj_dat.obj
 0002:000062a8       ??_C@_0M@MONPIKGC@aes?9128?9ecb@ 0000000000072a68     OpensslLib:obj_dat.obj
 0002:000062b8       ??_C@_0M@CPGGBEEL@AES?9128?9CBC@ 0000000000072a78     OpensslLib:obj_dat.obj
 0002:000062c8       ??_C@_0M@PDGNIOMI@aes?9128?9cbc@ 0000000000072a88     OpensslLib:obj_dat.obj
 0002:000062d8       ??_C@_0M@HLKCDCGO@AES?9128?9OFB@ 0000000000072a98     OpensslLib:obj_dat.obj
 0002:000062e8       ??_C@_0M@KHKJKION@aes?9128?9ofb@ 0000000000072aa8     OpensslLib:obj_dat.obj
 0002:000062f8       ??_C@_0M@DBHEINNG@AES?9128?9CFB@ 0000000000072ab8     OpensslLib:obj_dat.obj
 0002:00006308       ??_C@_0M@ONHPBHFF@aes?9128?9cfb@ 0000000000072ac8     OpensslLib:obj_dat.obj
 0002:00006318       ??_C@_0M@LBEIGHHN@AES?9192?9ECB@ 0000000000072ad8     OpensslLib:obj_dat.obj
 0002:00006328       ??_C@_0M@GNEDPNPO@aes?9192?9ecb@ 0000000000072ae8     OpensslLib:obj_dat.obj
 0002:00006338       ??_C@_0M@IMPKGDNH@AES?9192?9CBC@ 0000000000072af8     OpensslLib:obj_dat.obj
 0002:00006348       ??_C@_0M@FAPBPJFE@aes?9192?9cbc@ 0000000000072b08     OpensslLib:obj_dat.obj
 0002:00006358       ??_C@_0M@NIDOEFPC@AES?9192?9OFB@ 0000000000072b18     OpensslLib:obj_dat.obj
 0002:00006368       ??_C@_0M@EDFNPHB@aes?9192?9ofb@ 0000000000072b28     OpensslLib:obj_dat.obj
 0002:00006378       ??_C@_0M@JCOIPKEK@AES?9192?9CFB@ 0000000000072b38     OpensslLib:obj_dat.obj
 0002:00006388       ??_C@_0M@EOODGAMJ@aes?9192?9cfb@ 0000000000072b48     OpensslLib:obj_dat.obj
 0002:00006398       ??_C@_0M@GDPGEIPM@AES?9256?9ECB@ 0000000000072b58     OpensslLib:obj_dat.obj
 0002:000063a8       ??_C@_0M@LPPNNCHP@aes?9256?9ecb@ 0000000000072b68     OpensslLib:obj_dat.obj
 0002:000063b8       ??_C@_0M@FOEEEMFG@AES?9256?9CBC@ 0000000000072b78     OpensslLib:obj_dat.obj
 0002:000063c8       ??_C@_0M@ICEPNGNF@aes?9256?9cbc@ 0000000000072b88     OpensslLib:obj_dat.obj
 0002:000063d8       ??_C@_0M@KIAGKHD@AES?9256?9OFB@ 0000000000072b98     OpensslLib:obj_dat.obj
 0002:000063e8       ??_C@_0M@NGILPAPA@aes?9256?9ofb@ 0000000000072ba8     OpensslLib:obj_dat.obj
 0002:000063f8       ??_C@_0M@EAFGNFML@AES?9256?9CFB@ 0000000000072bb8     OpensslLib:obj_dat.obj
 0002:00006408       ??_C@_0M@JMFNEPEI@aes?9256?9cfb@ 0000000000072bc8     OpensslLib:obj_dat.obj
 0002:00006418       ??_C@_0BE@FKEPLGJO@holdInstructionCode@ 0000000000072bd8     OpensslLib:obj_dat.obj
 0002:00006430       ??_C@_0BG@LHBPDMAN@Hold?5Instruction?5Code@ 0000000000072bf0     OpensslLib:obj_dat.obj
 0002:00006448       ??_C@_0BE@KPEIPHPJ@holdInstructionNone@ 0000000000072c08     OpensslLib:obj_dat.obj
 0002:00006460       ??_C@_0BG@ECBIHNGK@Hold?5Instruction?5None@ 0000000000072c20     OpensslLib:obj_dat.obj
 0002:00006478       ??_C@_0BK@ENEKHHMB@holdInstructionCallIssuer@ 0000000000072c38     OpensslLib:obj_dat.obj
 0002:00006498       ??_C@_0BN@IJKNPIFC@Hold?5Instruction?5Call?5Issuer@ 0000000000072c58     OpensslLib:obj_dat.obj
 0002:000064b8       ??_C@_0BG@BDAACIJE@holdInstructionReject@ 0000000000072c78     OpensslLib:obj_dat.obj
 0002:000064d0       ??_C@_0BI@EEABHGCD@Hold?5Instruction?5Reject@ 0000000000072c90     OpensslLib:obj_dat.obj
 0002:000064e8       ??_C@_04PJOLNDGD@data@     0000000000072ca8     OpensslLib:obj_dat.obj
 0002:000064f0       ??_C@_03OHCBHMED@pss@      0000000000072cb0     OpensslLib:obj_dat.obj
 0002:000064f4       ??_C@_03BIDCBJP@ucl@       0000000000072cb4     OpensslLib:obj_dat.obj
 0002:000064f8       ??_C@_05KIBFDOPF@pilot@    0000000000072cb8     OpensslLib:obj_dat.obj
 0002:00006500       ??_C@_0BD@NEGIHOAI@pilotAttributeType@ 0000000000072cc0     OpensslLib:obj_dat.obj
 0002:00006518       ??_C@_0BF@CDEFHHCF@pilotAttributeSyntax@ 0000000000072cd8     OpensslLib:obj_dat.obj
 0002:00006530       ??_C@_0BB@MJFNAIDM@pilotObjectClass@ 0000000000072cf0     OpensslLib:obj_dat.obj
 0002:00006548       ??_C@_0M@DLMEDAFC@pilotGroups@ 0000000000072d08     OpensslLib:obj_dat.obj
 0002:00006558       ??_C@_0BA@KPIIGILK@iA5StringSyntax@ 0000000000072d18     OpensslLib:obj_dat.obj
 0002:00006568       ??_C@_0BK@LELMGJGD@caseIgnoreIA5StringSyntax@ 0000000000072d28     OpensslLib:obj_dat.obj
 0002:00006588       ??_C@_0M@MCCFCPKP@pilotObject@ 0000000000072d48     OpensslLib:obj_dat.obj
 0002:00006598       ??_C@_0M@NCGDCEIP@pilotPerson@ 0000000000072d58     OpensslLib:obj_dat.obj
 0002:000065a8       ??_C@_07PMDLEBNF@account@  0000000000072d68     OpensslLib:obj_dat.obj
 0002:000065b0       ??_C@_08JEEDKNPB@document@ 0000000000072d70     OpensslLib:obj_dat.obj
 0002:000065bc       ??_C@_04EKFCMFOP@room@     0000000000072d7c     OpensslLib:obj_dat.obj
 0002:000065c8       ??_C@_0P@OAPEDDHP@documentSeries@ 0000000000072d88     OpensslLib:obj_dat.obj
 0002:000065d8       ??_C@_0BA@KIAIOBLD@rFC822localPart@ 0000000000072d98     OpensslLib:obj_dat.obj
 0002:000065e8       ??_C@_09BOCGGGMK@dNSDomain@ 0000000000072da8     OpensslLib:obj_dat.obj
 0002:000065f8       ??_C@_0BE@OPAPHNCO@domainRelatedObject@ 0000000000072db8     OpensslLib:obj_dat.obj
 0002:00006610       ??_C@_0BA@LKHIAMBK@friendlyCountry@ 0000000000072dd0     OpensslLib:obj_dat.obj
 0002:00006620       ??_C@_0BF@CONLNHDI@simpleSecurityObject@ 0000000000072de0     OpensslLib:obj_dat.obj
 0002:00006638       ??_C@_0BC@PLDKCMI@pilotOrganization@ 0000000000072df8     OpensslLib:obj_dat.obj
 0002:00006650       ??_C@_08MPJGPMC@pilotDSA@  0000000000072e10     OpensslLib:obj_dat.obj
 0002:00006660       ??_C@_0BE@DDFOMMI@qualityLabelledData@ 0000000000072e20     OpensslLib:obj_dat.obj
 0002:00006674       ??_C@_03MJDGODDN@UID@      0000000000072e34     OpensslLib:obj_dat.obj
 0002:00006678       ??_C@_06LPELCIKE@userId@   0000000000072e38     OpensslLib:obj_dat.obj
 0002:00006680       ??_C@_0BF@HDIIKJDI@textEncodedORAddress@ 0000000000072e40     OpensslLib:obj_dat.obj
 0002:00006698       ??_C@_04FFKLPPHM@mail@     0000000000072e58     OpensslLib:obj_dat.obj
 0002:000066a0       ??_C@_0O@PDNFEOHL@rfc822Mailbox@ 0000000000072e60     OpensslLib:obj_dat.obj
 0002:000066b0       ??_C@_04NIDJFNBE@info@     0000000000072e70     OpensslLib:obj_dat.obj
 0002:000066b8       ??_C@_0P@PAMFCEKP@favouriteDrink@ 0000000000072e78     OpensslLib:obj_dat.obj
 0002:000066c8       ??_C@_0L@DGKNANFO@roomNumber@ 0000000000072e88     OpensslLib:obj_dat.obj
 0002:000066d4       ??_C@_05DOIFDPKA@photo@    0000000000072e94     OpensslLib:obj_dat.obj
 0002:000066e0       ??_C@_09CCPGMHEM@userClass@ 0000000000072ea0     OpensslLib:obj_dat.obj
 0002:000066ec       ??_C@_04OODOLJMA@host@     0000000000072eac     OpensslLib:obj_dat.obj
 0002:000066f8       ??_C@_07JPLKDPHP@manager@  0000000000072eb8     OpensslLib:obj_dat.obj
 0002:00006700       ??_C@_0BD@MEPJGCEO@documentIdentifier@ 0000000000072ec0     OpensslLib:obj_dat.obj
 0002:00006718       ??_C@_0O@BDIDABAC@documentTitle@ 0000000000072ed8     OpensslLib:obj_dat.obj
 0002:00006728       ??_C@_0BA@GHOLKFM@documentVersion@ 0000000000072ee8     OpensslLib:obj_dat.obj
 0002:00006738       ??_C@_0P@DABDJKFB@documentAuthor@ 0000000000072ef8     OpensslLib:obj_dat.obj
 0002:00006748       ??_C@_0BB@COFKDFJ@documentLocation@ 0000000000072f08     OpensslLib:obj_dat.obj
 0002:00006760       ??_C@_0BE@CPLAKLNE@homeTelephoneNumber@ 0000000000072f20     OpensslLib:obj_dat.obj
 0002:00006778       ??_C@_09EMBFDNKC@secretary@ 0000000000072f38     OpensslLib:obj_dat.obj
 0002:00006788       ??_C@_0N@CEOKELFP@otherMailbox@ 0000000000072f48     OpensslLib:obj_dat.obj
 0002:00006798       ??_C@_0BB@LHLABCIP@lastModifiedTime@ 0000000000072f58     OpensslLib:obj_dat.obj
 0002:000067b0       ??_C@_0P@ECLEJAJJ@lastModifiedBy@ 0000000000072f70     OpensslLib:obj_dat.obj
 0002:000067c0       ??_C@_07IBNMBOJB@aRecord@  0000000000072f80     OpensslLib:obj_dat.obj
 0002:000067c8       ??_C@_0BF@MIIMJDJB@pilotAttributeType27@ 0000000000072f88     OpensslLib:obj_dat.obj
 0002:000067e0       ??_C@_08DFFJPLPD@mXRecord@ 0000000000072fa0     OpensslLib:obj_dat.obj
 0002:000067f0       ??_C@_08FBLONLGA@nSRecord@ 0000000000072fb0     OpensslLib:obj_dat.obj
 0002:00006800       ??_C@_09OCFHDJJF@sOARecord@ 0000000000072fc0     OpensslLib:obj_dat.obj
 0002:00006810       ??_C@_0M@GHEAGPOE@cNAMERecord@ 0000000000072fd0     OpensslLib:obj_dat.obj
 0002:00006820       ??_C@_0BB@MEFMIBKO@associatedDomain@ 0000000000072fe0     OpensslLib:obj_dat.obj
 0002:00006838       ??_C@_0P@OJOOFNGB@associatedName@ 0000000000072ff8     OpensslLib:obj_dat.obj
 0002:00006848       ??_C@_0BC@NPJKACJF@homePostalAddress@ 0000000000073008     OpensslLib:obj_dat.obj
 0002:00006860       ??_C@_0O@CCHLDBGG@personalTitle@ 0000000000073020     OpensslLib:obj_dat.obj
 0002:00006870       ??_C@_0BG@DCPABLLG@mobileTelephoneNumber@ 0000000000073030     OpensslLib:obj_dat.obj
 0002:00006888       ??_C@_0BF@JICDDEFM@pagerTelephoneNumber@ 0000000000073048     OpensslLib:obj_dat.obj
 0002:000068a0       ??_C@_0BE@MGDAFGCM@friendlyCountryName@ 0000000000073060     OpensslLib:obj_dat.obj
 0002:000068b8       ??_C@_0BF@IANLBJMF@organizationalStatus@ 0000000000073078     OpensslLib:obj_dat.obj
 0002:000068d0       ??_C@_0N@DGNBNBGJ@janetMailbox@ 0000000000073090     OpensslLib:obj_dat.obj
 0002:000068e0       ??_C@_0BF@OFOHKDCI@mailPreferenceOption@ 00000000000730a0     OpensslLib:obj_dat.obj
 0002:000068f8       ??_C@_0N@POAALOHC@buildingName@ 00000000000730b8     OpensslLib:obj_dat.obj
 0002:00006908       ??_C@_0L@LMCCHBHL@dSAQuality@ 00000000000730c8     OpensslLib:obj_dat.obj
 0002:00006918       ??_C@_0BD@EHDOPADK@singleLevelQuality@ 00000000000730d8     OpensslLib:obj_dat.obj
 0002:00006930       ??_C@_0BG@HMOECBMF@subtreeMinimumQuality@ 00000000000730f0     OpensslLib:obj_dat.obj
 0002:00006948       ??_C@_0BG@FLFPEGPE@subtreeMaximumQuality@ 0000000000073108     OpensslLib:obj_dat.obj
 0002:00006960       ??_C@_0BC@CBOFINFC@personalSignature@ 0000000000073120     OpensslLib:obj_dat.obj
 0002:00006978       ??_C@_0M@KIABODOB@dITRedirect@ 0000000000073138     OpensslLib:obj_dat.obj
 0002:00006984       ??_C@_05KNIAAKIP@audio@    0000000000073144     OpensslLib:obj_dat.obj
 0002:00006990       ??_C@_0BC@KCCHJGGO@documentPublisher@ 0000000000073150     OpensslLib:obj_dat.obj
 0002:000069a8       ??_C@_0BF@EFCCADKK@x500UniqueIdentifier@ 0000000000073168     OpensslLib:obj_dat.obj
 0002:000069c0       ??_C@_08HLONPBDI@mime?9mhs@ 0000000000073180     OpensslLib:obj_dat.obj
 0002:000069d0       ??_C@_08DNBACEKK@MIME?5MHS@ 0000000000073190     OpensslLib:obj_dat.obj
 0002:000069e0       ??_C@_0BC@NIFMCBEJ@mime?9mhs?9headings@ 00000000000731a0     OpensslLib:obj_dat.obj
 0002:000069f8       ??_C@_0BA@MOFCNIEE@mime?9mhs?9bodies@ 00000000000731b8     OpensslLib:obj_dat.obj
 0002:00006a08       ??_C@_0BH@ILCJEHBB@id?9hex?9partial?9message@ 00000000000731c8     OpensslLib:obj_dat.obj
 0002:00006a20       ??_C@_0BJ@KCNAIDP@id?9hex?9multipart?9message@ 00000000000731e0     OpensslLib:obj_dat.obj
 0002:00006a40       ??_C@_0BE@DAEHFOO@generationQualifier@ 0000000000073200     OpensslLib:obj_dat.obj
 0002:00006a58       ??_C@_09NNMENHIH@pseudonym@ 0000000000073218     OpensslLib:obj_dat.obj
 0002:00006a64       ??_C@_06KKEMDFAF@id?9set@  0000000000073224     OpensslLib:obj_dat.obj
 0002:00006a70       ??_C@_0BP@KEIHJPNF@Secure?5Electronic?5Transactions@ 0000000000073230     OpensslLib:obj_dat.obj
 0002:00006a90       ??_C@_09EJPBIJJA@set?9ctype@ 0000000000073250     OpensslLib:obj_dat.obj
 0002:00006aa0       ??_C@_0O@HJGLMADJ@content?5types@ 0000000000073260     OpensslLib:obj_dat.obj
 0002:00006ab0       ??_C@_0L@PKPEIEIJ@set?9msgExt@ 0000000000073270     OpensslLib:obj_dat.obj
 0002:00006ac0       ??_C@_0BD@LEIDLLNO@message?5extensions@ 0000000000073280     OpensslLib:obj_dat.obj
 0002:00006ad8       ??_C@_08OFDIOKIA@set?9attr@ 0000000000073298     OpensslLib:obj_dat.obj
 0002:00006ae8       ??_C@_0L@LAAAKICM@set?9policy@ 00000000000732a8     OpensslLib:obj_dat.obj
 0002:00006af8       ??_C@_0M@KEIBDDC@set?9certExt@ 00000000000732b8     OpensslLib:obj_dat.obj
 0002:00006b08       ??_C@_0BH@PDPIEGPA@certificate?5extensions@ 00000000000732c8     OpensslLib:obj_dat.obj
 0002:00006b20       ??_C@_09JHODGPNO@set?9brand@ 00000000000732e0     OpensslLib:obj_dat.obj
 0002:00006b30       ??_C@_0O@EKAPGBNN@setct?9PANData@ 00000000000732f0     OpensslLib:obj_dat.obj
 0002:00006b40       ??_C@_0P@LAMDLEMO@setct?9PANToken@ 0000000000073300     OpensslLib:obj_dat.obj
 0002:00006b50       ??_C@_0O@PFJCCKAL@setct?9PANOnly@ 0000000000073310     OpensslLib:obj_dat.obj
 0002:00006b60       ??_C@_0N@GHLAGDMC@setct?9OIData@ 0000000000073320     OpensslLib:obj_dat.obj
 0002:00006b70       ??_C@_08MNJJNIEC@setct?9PI@ 0000000000073330     OpensslLib:obj_dat.obj
 0002:00006b80       ??_C@_0N@PGCGIPOF@setct?9PIData@ 0000000000073340     OpensslLib:obj_dat.obj
 0002:00006b90       ??_C@_0BF@BDFGFMFJ@setct?9PIDataUnsigned@ 0000000000073350     OpensslLib:obj_dat.obj
 0002:00006ba8       ??_C@_0P@LPBKKIBL@setct?9HODInput@ 0000000000073368     OpensslLib:obj_dat.obj
 0002:00006bb8       ??_C@_0BF@EFHLGKOJ@setct?9AuthResBaggage@ 0000000000073378     OpensslLib:obj_dat.obj
 0002:00006bd0       ??_C@_0BI@DEMAFNK@setct?9AuthRevReqBaggage@ 0000000000073390     OpensslLib:obj_dat.obj
 0002:00006be8       ??_C@_0BI@CNLKCNFM@setct?9AuthRevResBaggage@ 00000000000733a8     OpensslLib:obj_dat.obj
 0002:00006c00       ??_C@_0BC@DDFFKACM@setct?9CapTokenSeq@ 00000000000733c0     OpensslLib:obj_dat.obj
 0002:00006c18       ??_C@_0BD@GIEGHJGD@setct?9PInitResData@ 00000000000733d8     OpensslLib:obj_dat.obj
 0002:00006c30       ??_C@_0N@GIGHFPBJ@setct?9PI?9TBS@ 00000000000733f0     OpensslLib:obj_dat.obj
 0002:00006c40       ??_C@_0P@NGDEPBBH@setct?9PResData@ 0000000000073400     OpensslLib:obj_dat.obj
 0002:00006c50       ??_C@_0BB@OFKINDPN@setct?9AuthReqTBS@ 0000000000073410     OpensslLib:obj_dat.obj
 0002:00006c68       ??_C@_0BB@JPGIIAJN@setct?9AuthResTBS@ 0000000000073428     OpensslLib:obj_dat.obj
 0002:00006c80       ??_C@_0BC@PMEDFACF@setct?9AuthResTBSX@ 0000000000073440     OpensslLib:obj_dat.obj
 0002:00006c98       ??_C@_0BD@CLPECGHJ@setct?9AuthTokenTBS@ 0000000000073458     OpensslLib:obj_dat.obj
 0002:00006cb0       ??_C@_0BD@BFGEHNIL@setct?9CapTokenData@ 0000000000073470     OpensslLib:obj_dat.obj
 0002:00006cc8       ??_C@_0BC@DEDCIONA@setct?9CapTokenTBS@ 0000000000073488     OpensslLib:obj_dat.obj
 0002:00006ce0       ??_C@_0BF@LAOAGKEH@setct?9AcqCardCodeMsg@ 00000000000734a0     OpensslLib:obj_dat.obj
 0002:00006cf8       ??_C@_0BE@KBFOOHGF@setct?9AuthRevReqTBS@ 00000000000734b8     OpensslLib:obj_dat.obj
 0002:00006d10       ??_C@_0BF@ODDCPHOK@setct?9AuthRevResData@ 00000000000734d0     OpensslLib:obj_dat.obj
 0002:00006d28       ??_C@_0BE@NLJOLEAF@setct?9AuthRevResTBS@ 00000000000734e8     OpensslLib:obj_dat.obj
 0002:00006d40       ??_C@_0BA@KCAOGCKM@setct?9CapReqTBS@ 0000000000073500     OpensslLib:obj_dat.obj
 0002:00006d50       ??_C@_0BB@KNKADGPN@setct?9CapReqTBSX@ 0000000000073510     OpensslLib:obj_dat.obj
 0002:00006d68       ??_C@_0BB@BIJNNHL@setct?9CapResData@ 0000000000073528     OpensslLib:obj_dat.obj
 0002:00006d80       ??_C@_0BD@OELDKIB@setct?9CapRevReqTBS@ 0000000000073540     OpensslLib:obj_dat.obj
 0002:00006d98       ??_C@_0BE@OINDCPNA@setct?9CapRevReqTBSX@ 0000000000073558     OpensslLib:obj_dat.obj
 0002:00006db0       ??_C@_0BE@EEPKMEFG@setct?9CapRevResData@ 0000000000073570     OpensslLib:obj_dat.obj
 0002:00006dc8       ??_C@_0BB@LDAMDCDI@setct?9CredReqTBS@ 0000000000073588     OpensslLib:obj_dat.obj
 0002:00006de0       ??_C@_0BC@FKNDGDPA@setct?9CredReqTBSX@ 00000000000735a0     OpensslLib:obj_dat.obj
 0002:00006df8       ??_C@_0BC@PGPKIIHG@setct?9CredResData@ 00000000000735b8     OpensslLib:obj_dat.obj
 0002:00006e10       ??_C@_0BE@KAOEBGME@setct?9CredRevReqTBS@ 00000000000735d0     OpensslLib:obj_dat.obj
 0002:00006e28       ??_C@_0BF@OOMLDFOD@setct?9CredRevReqTBSX@ 00000000000735e8     OpensslLib:obj_dat.obj
 0002:00006e40       ??_C@_0BF@ECOCNOGF@setct?9CredRevResData@ 0000000000073600     OpensslLib:obj_dat.obj
 0002:00006e58       ??_C@_0BD@DDNGMNFC@setct?9PCertReqData@ 0000000000073618     OpensslLib:obj_dat.obj
 0002:00006e70       ??_C@_0BC@CFHCKIIA@setct?9PCertResTBS@ 0000000000073630     OpensslLib:obj_dat.obj
 0002:00006e88       ??_C@_0BI@MKKDKHGI@setct?9BatchAdminReqData@ 0000000000073648     OpensslLib:obj_dat.obj
 0002:00006ea0       ??_C@_0BI@IHGLAGGD@setct?9BatchAdminResData@ 0000000000073660     OpensslLib:obj_dat.obj
 0002:00006eb8       ??_C@_0BG@OMHIHPPP@setct?9CardCInitResTBS@ 0000000000073678     OpensslLib:obj_dat.obj
 0002:00006ed0       ??_C@_0BG@DIBJJIJB@setct?9MeAqCInitResTBS@ 0000000000073690     OpensslLib:obj_dat.obj
 0002:00006ee8       ??_C@_0BE@KOFLJLPI@setct?9RegFormResTBS@ 00000000000736a8     OpensslLib:obj_dat.obj
 0002:00006f00       ??_C@_0BC@FFENCANF@setct?9CertReqData@ 00000000000736c0     OpensslLib:obj_dat.obj
 0002:00006f18       ??_C@_0BB@MCGELGDK@setct?9CertReqTBS@ 00000000000736d8     OpensslLib:obj_dat.obj
 0002:00006f30       ??_C@_0BC@BIIFIBNO@setct?9CertResData@ 00000000000736f0     OpensslLib:obj_dat.obj
 0002:00006f48       ??_C@_0BE@OIDIJLCF@setct?9CertInqReqTBS@ 0000000000073708     OpensslLib:obj_dat.obj
 0002:00006f60       ??_C@_0P@DLHKHMDJ@setct?9ErrorTBS@ 0000000000073720     OpensslLib:obj_dat.obj
 0002:00006f70       ??_C@_0BG@JDDNBPAG@setct?9PIDualSignedTBE@ 0000000000073730     OpensslLib:obj_dat.obj
 0002:00006f88       ??_C@_0BE@IBOAPLDD@setct?9PIUnsignedTBE@ 0000000000073748     OpensslLib:obj_dat.obj
 0002:00006fa0       ??_C@_0BB@PJDAGGCK@setct?9AuthReqTBE@ 0000000000073760     OpensslLib:obj_dat.obj
 0002:00006fb8       ??_C@_0BB@IDPADFEK@setct?9AuthResTBE@ 0000000000073778     OpensslLib:obj_dat.obj
 0002:00006fd0       ??_C@_0BC@OEOIIPOH@setct?9AuthResTBEX@ 0000000000073790     OpensslLib:obj_dat.obj
 0002:00006fe8       ??_C@_0BD@DHGMJDKO@setct?9AuthTokenTBE@ 00000000000737a8     OpensslLib:obj_dat.obj
 0002:00007000       ??_C@_0BC@CIKKDLAH@setct?9CapTokenTBE@ 00000000000737c0     OpensslLib:obj_dat.obj
 0002:00007018       ??_C@_0BD@OMCOOIME@setct?9CapTokenTBEX@ 00000000000737d8     OpensslLib:obj_dat.obj
 0002:00007030       ??_C@_0BI@PALCIALL@setct?9AcqCardCodeMsgTBE@ 00000000000737f0     OpensslLib:obj_dat.obj
 0002:00007048       ??_C@_0BE@LNMGFCLC@setct?9AuthRevReqTBE@ 0000000000073808     OpensslLib:obj_dat.obj
 0002:00007060       ??_C@_0BE@MHAGABNC@setct?9AuthRevResTBE@ 0000000000073820     OpensslLib:obj_dat.obj
 0002:00007078       ??_C@_0BF@KKFFJIHO@setct?9AuthRevResTBEB@ 0000000000073838     OpensslLib:obj_dat.obj
 0002:00007090       ??_C@_0BA@LOJGNHHL@setct?9CapReqTBE@ 0000000000073850     OpensslLib:obj_dat.obj
 0002:000070a0       ??_C@_0BB@LFALOJDP@setct?9CapReqTBEX@ 0000000000073860     OpensslLib:obj_dat.obj
 0002:000070b8       ??_C@_0BA@MEFGIEBL@setct?9CapResTBE@ 0000000000073878     OpensslLib:obj_dat.obj
 0002:000070c8       ??_C@_0BD@BCNDIPFG@setct?9CapRevReqTBE@ 0000000000073888     OpensslLib:obj_dat.obj
 0002:000070e0       ??_C@_0BE@PAHIPABC@setct?9CapRevReqTBEX@ 00000000000738a0     OpensslLib:obj_dat.obj
 0002:000070f8       ??_C@_0BD@GIBDNMDG@setct?9CapRevResTBE@ 00000000000738b8     OpensslLib:obj_dat.obj
 0002:00007110       ??_C@_0BB@KPJEIHOP@setct?9CredReqTBE@ 00000000000738d0     OpensslLib:obj_dat.obj
 0002:00007128       ??_C@_0BC@ECHILMDC@setct?9CredReqTBEX@ 00000000000738e8     OpensslLib:obj_dat.obj
 0002:00007140       ??_C@_0BB@NFFENEIP@setct?9CredResTBE@ 0000000000073900     OpensslLib:obj_dat.obj
 0002:00007158       ??_C@_0BE@LMHMKDBD@setct?9CredRevReqTBE@ 0000000000073918     OpensslLib:obj_dat.obj
 0002:00007170       ??_C@_0BF@PGGAOKCB@setct?9CredRevReqTBEX@ 0000000000073930     OpensslLib:obj_dat.obj
 0002:00007188       ??_C@_0BE@MGLMPAHD@setct?9CredRevResTBE@ 0000000000073948     OpensslLib:obj_dat.obj
 0002:000071a0       ??_C@_0BH@IPJPBLKL@setct?9BatchAdminReqTBE@ 0000000000073960     OpensslLib:obj_dat.obj
 0002:000071b8       ??_C@_0BH@PFFPEIML@setct?9BatchAdminResTBE@ 0000000000073978     OpensslLib:obj_dat.obj
 0002:000071d0       ??_C@_0BE@MIADHNEP@setct?9RegFormReqTBE@ 0000000000073990     OpensslLib:obj_dat.obj
 0002:000071e8       ??_C@_0BB@NOPMADON@setct?9CertReqTBE@ 00000000000739a8     OpensslLib:obj_dat.obj
 0002:00007200       ??_C@_0BC@KMAHLFJK@setct?9CertReqTBEX@ 00000000000739c0     OpensslLib:obj_dat.obj
 0002:00007218       ??_C@_0BB@KEDMFAIN@setct?9CertResTBE@ 00000000000739d8     OpensslLib:obj_dat.obj
 0002:00007230       ??_C@_0BJ@KMIJGANO@setct?9CRLNotificationTBS@ 00000000000739f0     OpensslLib:obj_dat.obj
 0002:00007250       ??_C@_0BM@GINBKIMJ@setct?9CRLNotificationResTBS@ 0000000000073a10     OpensslLib:obj_dat.obj
 0002:00007270       ??_C@_0BJ@BPGLEKIJ@setct?9BCIDistributionTBS@ 0000000000073a30     OpensslLib:obj_dat.obj
 0002:00007290       ??_C@_0BA@NKJJMGPC@setext?9genCrypt@ 0000000000073a50     OpensslLib:obj_dat.obj
 0002:000072a0       ??_C@_0BD@IMJHIOH@generic?5cryptogram@ 0000000000073a60     OpensslLib:obj_dat.obj
 0002:000072b8       ??_C@_0O@IFMPKKOL@setext?9miAuth@ 0000000000073a78     OpensslLib:obj_dat.obj
 0002:000072c8       ??_C@_0BI@IMGNFPLI@merchant?5initiated?5auth@ 0000000000073a88     OpensslLib:obj_dat.obj
 0002:000072e0       ??_C@_0BB@IKLFBNP@setext?9pinSecure@ 0000000000073aa0     OpensslLib:obj_dat.obj
 0002:000072f8       ??_C@_0O@PNHGIFHA@setext?9pinAny@ 0000000000073ab8     OpensslLib:obj_dat.obj
 0002:00007308       ??_C@_0O@PNAFPHHK@setext?9track2@ 0000000000073ac8     OpensslLib:obj_dat.obj
 0002:00007318       ??_C@_09GMOEIEJI@setext?9cv@ 0000000000073ad8     OpensslLib:obj_dat.obj
 0002:00007328       ??_C@_0BI@MFPOFNGC@additional?5verification@ 0000000000073ae8     OpensslLib:obj_dat.obj
 0002:00007340       ??_C@_0BA@DLJGCPKK@set?9policy?9root@ 0000000000073b00     OpensslLib:obj_dat.obj
 0002:00007350       ??_C@_0BD@MELPLACB@setCext?9hashedRoot@ 0000000000073b10     OpensslLib:obj_dat.obj
 0002:00007368       ??_C@_0BB@LHGCHNFD@setCext?9certType@ 0000000000073b28     OpensslLib:obj_dat.obj
 0002:00007380       ??_C@_0BC@ONMLOIHK@setCext?9merchData@ 0000000000073b40     OpensslLib:obj_dat.obj
 0002:00007398       ??_C@_0BG@CMNKGOHO@setCext?9cCertRequired@ 0000000000073b58     OpensslLib:obj_dat.obj
 0002:000073b0       ??_C@_0BC@BPADJLFJ@setCext?9tunneling@ 0000000000073b70     OpensslLib:obj_dat.obj
 0002:000073c8       ??_C@_0P@DFHCPLJG@setCext?9setExt@ 0000000000073b88     OpensslLib:obj_dat.obj
 0002:000073d8       ??_C@_0BB@HIAOOOIO@setCext?9setQualf@ 0000000000073b98     OpensslLib:obj_dat.obj
 0002:000073f0       ??_C@_0BJ@CNLNHONG@setCext?9PGWYcapabilities@ 0000000000073bb0     OpensslLib:obj_dat.obj
 0002:00007410       ??_C@_0BI@FIIEHNL@setCext?9TokenIdentifier@ 0000000000073bd0     OpensslLib:obj_dat.obj
 0002:00007428       ??_C@_0BD@FHFLAKJD@setCext?9Track2Data@ 0000000000073be8     OpensslLib:obj_dat.obj
 0002:00007440       ??_C@_0BC@KMFGLCBL@setCext?9TokenType@ 0000000000073c00     OpensslLib:obj_dat.obj
 0002:00007458       ??_C@_0BL@OLCLGJDA@setCext?9IssuerCapabilities@ 0000000000073c18     OpensslLib:obj_dat.obj
 0002:00007478       ??_C@_0N@DCNKAAPN@setAttr?9Cert@ 0000000000073c38     OpensslLib:obj_dat.obj
 0002:00007488       ??_C@_0BA@FAIFDKDK@setAttr?9PGWYcap@ 0000000000073c48     OpensslLib:obj_dat.obj
 0002:00007498       ??_C@_0BN@HEFBDPEB@payment?5gateway?5capabilities@ 0000000000073c58     OpensslLib:obj_dat.obj
 0002:000074b8       ??_C@_0BC@IKOKMCIL@setAttr?9TokenType@ 0000000000073c78     OpensslLib:obj_dat.obj
 0002:000074d0       ??_C@_0P@OGFLCCKL@setAttr?9IssCap@ 0000000000073c90     OpensslLib:obj_dat.obj
 0002:000074e0       ??_C@_0BE@HBDPGKCG@issuer?5capabilities@ 0000000000073ca0     OpensslLib:obj_dat.obj
 0002:000074f8       ??_C@_0BB@MADMNAKK@set?9rootKeyThumb@ 0000000000073cb8     OpensslLib:obj_dat.obj
 0002:00007510       ??_C@_0O@NOCONBCM@set?9addPolicy@ 0000000000073cd0     OpensslLib:obj_dat.obj
 0002:00007520       ??_C@_0BC@BMANBENP@setAttr?9Token?9EMV@ 0000000000073ce0     OpensslLib:obj_dat.obj
 0002:00007538       ??_C@_0BG@ICNBHDJ@setAttr?9Token?9B0Prime@ 0000000000073cf8     OpensslLib:obj_dat.obj
 0002:00007550       ??_C@_0BD@CMJDLAHE@setAttr?9IssCap?9CVM@ 0000000000073d10     OpensslLib:obj_dat.obj
 0002:00007568       ??_C@_0BC@FKLLNJMF@setAttr?9IssCap?9T2@ 0000000000073d28     OpensslLib:obj_dat.obj
 0002:00007580       ??_C@_0BD@DMNGIJGO@setAttr?9IssCap?9Sig@ 0000000000073d40     OpensslLib:obj_dat.obj
 0002:00007598       ??_C@_0BE@FJCINFHM@setAttr?9GenCryptgrm@ 0000000000073d58     OpensslLib:obj_dat.obj
 0002:000075b0       ??_C@_0BE@BANBLNDJ@generate?5cryptogram@ 0000000000073d70     OpensslLib:obj_dat.obj
 0002:000075c8       ??_C@_0O@GFEDKLID@setAttr?9T2Enc@ 0000000000073d88     OpensslLib:obj_dat.obj
 0002:000075d8       ??_C@_0BC@MCHFBPJF@encrypted?5track?52@ 0000000000073d98     OpensslLib:obj_dat.obj
 0002:000075f0       ??_C@_0BD@GDDCOMNC@setAttr?9T2cleartxt@ 0000000000073db0     OpensslLib:obj_dat.obj
 0002:00007608       ??_C@_0BC@EEELFHMJ@cleartext?5track?52@ 0000000000073dc8     OpensslLib:obj_dat.obj
 0002:00007620       ??_C@_0BC@KFHJNGAA@setAttr?9TokICCsig@ 0000000000073de0     OpensslLib:obj_dat.obj
 0002:00007638       ??_C@_0BH@FLMFBHA@ICC?5or?5token?5signature@ 0000000000073df8     OpensslLib:obj_dat.obj
 0002:00007650       ??_C@_0BC@HILPEDHB@setAttr?9SecDevSig@ 0000000000073e10     OpensslLib:obj_dat.obj
 0002:00007668       ??_C@_0BI@BMDLNIII@secure?5device?5signature@ 0000000000073e28     OpensslLib:obj_dat.obj
 0002:00007680       ??_C@_0BD@EBDAHFCK@set?9brand?9IATA?9ATA@ 0000000000073e40     OpensslLib:obj_dat.obj
 0002:00007698       ??_C@_0BB@MJOMIBOM@set?9brand?9Diners@ 0000000000073e58     OpensslLib:obj_dat.obj
 0002:000076b0       ??_C@_0BK@NGHCPIFJ@set?9brand?9AmericanExpress@ 0000000000073e70     OpensslLib:obj_dat.obj
 0002:000076d0       ??_C@_0O@ODFDKJIN@set?9brand?9JCB@ 0000000000073e90     OpensslLib:obj_dat.obj
 0002:000076e0       ??_C@_0P@KADKEMKM@set?9brand?9Visa@ 0000000000073ea0     OpensslLib:obj_dat.obj
 0002:000076f0       ??_C@_0BF@EKCBHCKG@set?9brand?9MasterCard@ 0000000000073eb0     OpensslLib:obj_dat.obj
 0002:00007708       ??_C@_0BA@JHOGHBHC@set?9brand?9Novus@ 0000000000073ec8     OpensslLib:obj_dat.obj
 0002:00007718       ??_C@_08IHLOILPC@DES?9CDMF@ 0000000000073ed8     OpensslLib:obj_dat.obj
 0002:00007728       ??_C@_08PPLOLAOD@des?9cdmf@ 0000000000073ee8     OpensslLib:obj_dat.obj
 0002:00007738       ??_C@_0BF@EIIDBKMM@rsaOAEPEncryptionSET@ 0000000000073ef8     OpensslLib:obj_dat.obj
 0002:00007750       ??_C@_05LJGINOIA@ITU?9T@   0000000000073f10     OpensslLib:obj_dat.obj
 0002:00007758       ??_C@_05EKLDHPCO@itu?9t@   0000000000073f18     OpensslLib:obj_dat.obj
 0002:00007760       ??_C@_0BA@NPJCPIN@JOINT?9ISO?9ITU?9T@ 0000000000073f20     OpensslLib:obj_dat.obj
 0002:00007770       ??_C@_0BA@DDCJMADA@joint?9iso?9itu?9t@ 0000000000073f30     OpensslLib:obj_dat.obj
 0002:00007780       ??_C@_0BM@PBBEOBAP@international?9organizations@ 0000000000073f40     OpensslLib:obj_dat.obj
 0002:000077a0       ??_C@_0BM@PGMBEIHL@International?5Organizations@ 0000000000073f60     OpensslLib:obj_dat.obj
 0002:000077c0       ??_C@_0BB@MJPMDGHF@msSmartcardLogin@ 0000000000073f80     OpensslLib:obj_dat.obj
 0002:000077d8       ??_C@_0BK@BJLJNHIE@Microsoft?5Smartcard?5Login@ 0000000000073f98     OpensslLib:obj_dat.obj
 0002:000077f4       ??_C@_05LKLAGLGM@msUPN@    0000000000073fb4     OpensslLib:obj_dat.obj
 0002:00007800       ??_C@_0BO@NJMDLJHK@Microsoft?5User?5Principal?5Name@ 0000000000073fc0     OpensslLib:obj_dat.obj
 0002:00007820       ??_C@_0N@KJNMAENO@AES?9128?9CFB1@ 0000000000073fe0     OpensslLib:obj_dat.obj
 0002:00007830       ??_C@_0N@NNLBNNNO@aes?9128?9cfb1@ 0000000000073ff0     OpensslLib:obj_dat.obj
 0002:00007840       ??_C@_0N@FAMGEHMG@AES?9192?9CFB1@ 0000000000074000     OpensslLib:obj_dat.obj
 0002:00007850       ??_C@_0N@CEKLJOMG@aes?9192?9cfb1@ 0000000000074010     OpensslLib:obj_dat.obj
 0002:00007860       ??_C@_0N@MKKLEKFP@AES?9256?9CFB1@ 0000000000074020     OpensslLib:obj_dat.obj
 0002:00007870       ??_C@_0N@LOMGJDFP@aes?9256?9cfb1@ 0000000000074030     OpensslLib:obj_dat.obj
 0002:00007880       ??_C@_0N@HIBOLPJH@AES?9128?9CFB8@ 0000000000074040     OpensslLib:obj_dat.obj
 0002:00007890       ??_C@_0N@MHDGGJH@aes?9128?9cfb8@ 0000000000074050     OpensslLib:obj_dat.obj
 0002:000078a0       ??_C@_0N@IBAEPMIP@AES?9192?9CFB8@ 0000000000074060     OpensslLib:obj_dat.obj
 0002:000078b0       ??_C@_0N@PFGJCFIP@aes?9192?9cfb8@ 0000000000074070     OpensslLib:obj_dat.obj
 0002:000078c0       ??_C@_0N@BLGJPBBG@AES?9256?9CFB8@ 0000000000074080     OpensslLib:obj_dat.obj
 0002:000078d0       ??_C@_0N@GPAECIBG@aes?9256?9cfb8@ 0000000000074090     OpensslLib:obj_dat.obj
 0002:000078e0       ??_C@_08EGJFOLHF@DES?9CFB1@ 00000000000740a0     OpensslLib:obj_dat.obj
 0002:000078f0       ??_C@_08KLBBPEMG@des?9cfb1@ 00000000000740b0     OpensslLib:obj_dat.obj
 0002:00007900       ??_C@_08JHFHFADM@DES?9CFB8@ 00000000000740c0     OpensslLib:obj_dat.obj
 0002:00007910       ??_C@_08HKNDEPIP@des?9cfb8@ 00000000000740d0     OpensslLib:obj_dat.obj
 0002:00007920       ??_C@_0O@HMFIBGGD@DES?9EDE3?9CFB1@ 00000000000740e0     OpensslLib:obj_dat.obj
 0002:00007930       ??_C@_0O@HHBHNLEJ@des?9ede3?9cfb1@ 00000000000740f0     OpensslLib:obj_dat.obj
 0002:00007940       ??_C@_0O@KNJKKNCK@DES?9EDE3?9CFB8@ 0000000000074100     OpensslLib:obj_dat.obj
 0002:00007950       ??_C@_0O@KGNFGAAA@des?9ede3?9cfb8@ 0000000000074110     OpensslLib:obj_dat.obj
 0002:00007960       ??_C@_06KFAFKEEH@street@   0000000000074120     OpensslLib:obj_dat.obj
 0002:00007968       ??_C@_0O@GFJANBCD@streetAddress@ 0000000000074128     OpensslLib:obj_dat.obj
 0002:00007978       ??_C@_0L@NCDHJCMF@postalCode@ 0000000000074138     OpensslLib:obj_dat.obj
 0002:00007984       ??_C@_06CAAPGDCJ@id?9ppl@  0000000000074144     OpensslLib:obj_dat.obj
 0002:00007990       ??_C@_0O@LOINHHBF@proxyCertInfo@ 0000000000074150     OpensslLib:obj_dat.obj
 0002:000079a0       ??_C@_0BO@CCHFGBDO@Proxy?5Certificate?5Information@ 0000000000074160     OpensslLib:obj_dat.obj
 0002:000079c0       ??_C@_0BD@HNCKDFAM@id?9ppl?9anyLanguage@ 0000000000074180     OpensslLib:obj_dat.obj
 0002:000079d8       ??_C@_0N@BEBFEGLC@Any?5language@ 0000000000074198     OpensslLib:obj_dat.obj
 0002:000079e8       ??_C@_0BC@PCEJIIF@id?9ppl?9inheritAll@ 00000000000741a8     OpensslLib:obj_dat.obj
 0002:00007a00       ??_C@_0M@FFLAPACB@Inherit?5all@ 00000000000741c0     OpensslLib:obj_dat.obj
 0002:00007a10       ??_C@_0BA@NDBMPGLN@nameConstraints@ 00000000000741d0     OpensslLib:obj_dat.obj
 0002:00007a20       ??_C@_0BI@MLJLAGL@X509v3?5Name?5Constraints@ 00000000000741e0     OpensslLib:obj_dat.obj
 0002:00007a38       ??_C@_0BD@JMNHHICP@id?9ppl?9independent@ 00000000000741f8     OpensslLib:obj_dat.obj
 0002:00007a50       ??_C@_0M@MLMKHJLC@Independent@ 0000000000074210     OpensslLib:obj_dat.obj
 0002:00007a60       ??_C@_0L@CICIPLII@RSA?9SHA256@ 0000000000074220     OpensslLib:obj_dat.obj
 0002:00007a70       ??_C@_0BI@OLMNBFHG@sha256WithRSAEncryption@ 0000000000074230     OpensslLib:obj_dat.obj
 0002:00007a88       ??_C@_0L@KKHKGNDM@RSA?9SHA384@ 0000000000074248     OpensslLib:obj_dat.obj
 0002:00007a98       ??_C@_0BI@LGPCJGLE@sha384WithRSAEncryption@ 0000000000074258     OpensslLib:obj_dat.obj
 0002:00007ab0       ??_C@_0L@NGJKKOOJ@RSA?9SHA512@ 0000000000074270     OpensslLib:obj_dat.obj
 0002:00007ac0       ??_C@_0BI@CFKPHFJF@sha512WithRSAEncryption@ 0000000000074280     OpensslLib:obj_dat.obj
 0002:00007ad8       ??_C@_0L@BPFBIPIP@RSA?9SHA224@ 0000000000074298     OpensslLib:obj_dat.obj
 0002:00007ae8       ??_C@_0BI@HODNLFBE@sha224WithRSAEncryption@ 00000000000742a8     OpensslLib:obj_dat.obj
 0002:00007b00       ??_C@_06HKIKMHH@SHA256@    00000000000742c0     OpensslLib:obj_dat.obj
 0002:00007b08       ??_C@_06OHILPNJ@sha256@    00000000000742c8     OpensslLib:obj_dat.obj
 0002:00007b10       ??_C@_06IFPKDKMD@SHA384@   00000000000742d0     OpensslLib:obj_dat.obj
 0002:00007b18       ??_C@_06IMCKCJGN@sha384@   00000000000742d8     OpensslLib:obj_dat.obj
 0002:00007b20       ??_C@_06PJBKPJBG@SHA512@   00000000000742e0     OpensslLib:obj_dat.obj
 0002:00007b28       ??_C@_06PAMKOKLI@sha512@   00000000000742e8     OpensslLib:obj_dat.obj
 0002:00007b30       ??_C@_06DANBNIHA@SHA224@   00000000000742f0     OpensslLib:obj_dat.obj
 0002:00007b38       ??_C@_06DJABMLNO@sha224@   00000000000742f8     OpensslLib:obj_dat.obj
 0002:00007b40       ??_C@_0BI@NDBFOMIA@identified?9organization@ 0000000000074300     OpensslLib:obj_dat.obj
 0002:00007b58       ??_C@_0N@GOPBJFID@certicom?9arc@ 0000000000074318     OpensslLib:obj_dat.obj
 0002:00007b68       ??_C@_03EOHJGACH@wap@      0000000000074328     OpensslLib:obj_dat.obj
 0002:00007b70       ??_C@_07KJBJKKHG@wap?9wsg@ 0000000000074330     OpensslLib:obj_dat.obj
 0002:00007b78       ??_C@_0BM@PPOCDOAJ@id?9characteristic?9two?9basis@ 0000000000074338     OpensslLib:obj_dat.obj
 0002:00007b98       ??_C@_07JEMDIFEL@onBasis@  0000000000074358     OpensslLib:obj_dat.obj
 0002:00007ba0       ??_C@_07ICPDEPKF@tpBasis@  0000000000074360     OpensslLib:obj_dat.obj
 0002:00007ba8       ??_C@_07GLJEBFP@ppBasis@   0000000000074368     OpensslLib:obj_dat.obj
 0002:00007bb0       ??_C@_0L@INFLBNIO@c2pnb163v1@ 0000000000074370     OpensslLib:obj_dat.obj
 0002:00007bc0       ??_C@_0L@KGHGEOEN@c2pnb163v2@ 0000000000074380     OpensslLib:obj_dat.obj
 0002:00007bd0       ??_C@_0L@LPGNHPAM@c2pnb163v3@ 0000000000074390     OpensslLib:obj_dat.obj
 0002:00007be0       ??_C@_0L@IHOFMEAM@c2pnb176v1@ 00000000000743a0     OpensslLib:obj_dat.obj
 0002:00007bf0       ??_C@_0L@PIOOBDNI@c2tnb191v1@ 00000000000743b0     OpensslLib:obj_dat.obj
 0002:00007c00       ??_C@_0L@NDMDEABL@c2tnb191v2@ 00000000000743c0     OpensslLib:obj_dat.obj
 0002:00007c10       ??_C@_0L@MKNIHBFK@c2tnb191v3@ 00000000000743d0     OpensslLib:obj_dat.obj
 0002:00007c20       ??_C@_0L@KLAMDLDB@c2onb191v4@ 00000000000743e0     OpensslLib:obj_dat.obj
 0002:00007c30       ??_C@_0L@LCBHAKHA@c2onb191v5@ 00000000000743f0     OpensslLib:obj_dat.obj
 0002:00007c40       ??_C@_0L@FCEMHHLG@c2pnb208w1@ 0000000000074400     OpensslLib:obj_dat.obj
 0002:00007c50       ??_C@_0L@PBHOFBDI@c2tnb239v1@ 0000000000074410     OpensslLib:obj_dat.obj
 0002:00007c60       ??_C@_0L@NKFDACPL@c2tnb239v2@ 0000000000074420     OpensslLib:obj_dat.obj
 0002:00007c70       ??_C@_0L@MDEIDDLK@c2tnb239v3@ 0000000000074430     OpensslLib:obj_dat.obj
 0002:00007c80       ??_C@_0L@KCJMHJNB@c2onb239v4@ 0000000000074440     OpensslLib:obj_dat.obj
 0002:00007c90       ??_C@_0L@LLIHEIJA@c2onb239v5@ 0000000000074450     OpensslLib:obj_dat.obj
 0002:00007ca0       ??_C@_0L@IPNBELMC@c2pnb272w1@ 0000000000074460     OpensslLib:obj_dat.obj
 0002:00007cb0       ??_C@_0L@NDMGBLKL@c2pnb304w1@ 0000000000074470     OpensslLib:obj_dat.obj
 0002:00007cc0       ??_C@_0L@LFGCHHDN@c2tnb359v1@ 0000000000074480     OpensslLib:obj_dat.obj
 0002:00007cd0       ??_C@_0L@BGFAFBLD@c2pnb368w1@ 0000000000074490     OpensslLib:obj_dat.obj
 0002:00007ce0       ??_C@_0L@OFJKDCBG@c2tnb431r1@ 00000000000744a0     OpensslLib:obj_dat.obj
 0002:00007cf0       ??_C@_09DNJONEBC@secp112r1@ 00000000000744b0     OpensslLib:obj_dat.obj
 0002:00007d00       ??_C@_09BGLDIHNB@secp112r2@ 00000000000744c0     OpensslLib:obj_dat.obj
 0002:00007d10       ??_C@_09BFIDEOKG@secp128r1@ 00000000000744d0     OpensslLib:obj_dat.obj
 0002:00007d20       ??_C@_09DOKOBNGF@secp128r2@ 00000000000744e0     OpensslLib:obj_dat.obj
 0002:00007d30       ??_C@_09DGEAFIHG@secp160k1@ 00000000000744f0     OpensslLib:obj_dat.obj
 0002:00007d40       ??_C@_09CFLHMAIJ@secp160r1@ 0000000000074500     OpensslLib:obj_dat.obj
 0002:00007d50       ??_C@_09OJKJDEK@secp160r2@ 0000000000074510     OpensslLib:obj_dat.obj
 0002:00007d60       ??_C@_09BOBJAHCM@secp192k1@ 0000000000074520     OpensslLib:obj_dat.obj
 0002:00007d70       ??_C@_09MKDGBLEP@secp224k1@ 0000000000074530     OpensslLib:obj_dat.obj
 0002:00007d80       ??_C@_09NJMBIDLA@secp224r1@ 0000000000074540     OpensslLib:obj_dat.obj
 0002:00007d90       ??_C@_09NCBPAPNE@secp256k1@ 0000000000074550     OpensslLib:obj_dat.obj
 0002:00007da0       ??_C@_09FICNEILE@secp384r1@ 0000000000074560     OpensslLib:obj_dat.obj
 0002:00007db0       ??_C@_09PDBKEDDK@secp521r1@ 0000000000074570     OpensslLib:obj_dat.obj
 0002:00007dc0       ??_C@_09HBGNJHGE@sect113r1@ 0000000000074580     OpensslLib:obj_dat.obj
 0002:00007dd0       ??_C@_09FKEAMEKH@sect113r2@ 0000000000074590     OpensslLib:obj_dat.obj
 0002:00007de0       ??_C@_09KBKEAMIP@sect131r1@ 00000000000745a0     OpensslLib:obj_dat.obj
 0002:00007df0       ??_C@_09IKIJFPEM@sect131r2@ 00000000000745b0     OpensslLib:obj_dat.obj
 0002:00007e00       ??_C@_09NALKNDIL@sect163k1@ 00000000000745c0     OpensslLib:obj_dat.obj
 0002:00007e10       ??_C@_09MDENELHE@sect163r1@ 00000000000745d0     OpensslLib:obj_dat.obj
 0002:00007e20       ??_C@_09OIGABILH@sect163r2@ 00000000000745e0     OpensslLib:obj_dat.obj
 0002:00007e30       ??_C@_09EBBNNMKF@sect193r1@ 00000000000745f0     OpensslLib:obj_dat.obj
 0002:00007e40       ??_C@_09GKDAIPGG@sect193r2@ 0000000000074600     OpensslLib:obj_dat.obj
 0002:00007e50       ??_C@_09JOMOCOFF@sect233k1@ 0000000000074610     OpensslLib:obj_dat.obj
 0002:00007e60       ??_C@_09INDJLGKK@sect233r1@ 0000000000074620     OpensslLib:obj_dat.obj
 0002:00007e70       ??_C@_09PBHDMODB@sect239k1@ 0000000000074630     OpensslLib:obj_dat.obj
 0002:00007e80       ??_C@_09OJBOBPEE@sect283k1@ 0000000000074640     OpensslLib:obj_dat.obj
 0002:00007e90       ??_C@_09PKOJIHLL@sect283r1@ 0000000000074650     OpensslLib:obj_dat.obj
 0002:00007ea0       ??_C@_09GAIKFHPM@sect409k1@ 0000000000074660     OpensslLib:obj_dat.obj
 0002:00007eb0       ??_C@_09HDHNMPAD@sect409r1@ 0000000000074670     OpensslLib:obj_dat.obj
 0002:00007ec0       ??_C@_09NMECHAKG@sect571k1@ 0000000000074680     OpensslLib:obj_dat.obj
 0002:00007ed0       ??_C@_09MPLFOIFJ@sect571r1@ 0000000000074690     OpensslLib:obj_dat.obj
 0002:00007ee0       ??_C@_0BH@PEHFMMHF@wap?9wsg?9idm?9ecid?9wtls1@ 00000000000746a0     OpensslLib:obj_dat.obj
 0002:00007ef8       ??_C@_0BH@MGEDKOPH@wap?9wsg?9idm?9ecid?9wtls3@ 00000000000746b8     OpensslLib:obj_dat.obj
 0002:00007f10       ??_C@_0BH@IJACDIDA@wap?9wsg?9idm?9ecid?9wtls4@ 00000000000746d0     OpensslLib:obj_dat.obj
 0002:00007f28       ??_C@_0BH@JABJAJHB@wap?9wsg?9idm?9ecid?9wtls5@ 00000000000746e8     OpensslLib:obj_dat.obj
 0002:00007f40       ??_C@_0BH@LLDEFKLC@wap?9wsg?9idm?9ecid?9wtls6@ 0000000000074700     OpensslLib:obj_dat.obj
 0002:00007f58       ??_C@_0BH@KCCPGLPD@wap?9wsg?9idm?9ecid?9wtls7@ 0000000000074718     OpensslLib:obj_dat.obj
 0002:00007f70       ??_C@_0BH@CFLHHHDM@wap?9wsg?9idm?9ecid?9wtls8@ 0000000000074730     OpensslLib:obj_dat.obj
 0002:00007f88       ??_C@_0BH@DMKMEGHN@wap?9wsg?9idm?9ecid?9wtls9@ 0000000000074748     OpensslLib:obj_dat.obj
 0002:00007fa0       ??_C@_0BI@PPNNMGIM@wap?9wsg?9idm?9ecid?9wtls10@ 0000000000074760     OpensslLib:obj_dat.obj
 0002:00007fb8       ??_C@_0BI@OGMGPHMN@wap?9wsg?9idm?9ecid?9wtls11@ 0000000000074778     OpensslLib:obj_dat.obj
 0002:00007fd0       ??_C@_0BI@MNOLKEAO@wap?9wsg?9idm?9ecid?9wtls12@ 0000000000074790     OpensslLib:obj_dat.obj
 0002:00007fe8       ??_C@_09HBBJOJHB@anyPolicy@ 00000000000747a8     OpensslLib:obj_dat.obj
 0002:00007ff8       ??_C@_0BC@CEEMIAHF@X509v3?5Any?5Policy@ 00000000000747b8     OpensslLib:obj_dat.obj
 0002:00008010       ??_C@_0P@MEGGINDP@policyMappings@ 00000000000747d0     OpensslLib:obj_dat.obj
 0002:00008020       ??_C@_0BH@NJBPACCN@X509v3?5Policy?5Mappings@ 00000000000747e0     OpensslLib:obj_dat.obj
 0002:00008038       ??_C@_0BB@CFCCDKGF@inhibitAnyPolicy@ 00000000000747f8     OpensslLib:obj_dat.obj
 0002:00008050       ??_C@_0BK@FPAAFIAO@X509v3?5Inhibit?5Any?5Policy@ 0000000000074810     OpensslLib:obj_dat.obj
 0002:00008070       ??_C@_0O@BLJEJBFH@Oakley?9EC2N?93@ 0000000000074830     OpensslLib:obj_dat.obj
 0002:00008080       ??_C@_06HLOPKJBB@ipsec3@   0000000000074840     OpensslLib:obj_dat.obj
 0002:00008088       ??_C@_0O@FENFAHJA@Oakley?9EC2N?94@ 0000000000074848     OpensslLib:obj_dat.obj
 0002:00008098       ??_C@_06DEKODPNG@ipsec4@   0000000000074858     OpensslLib:obj_dat.obj
 0002:000080a0       ??_C@_0BB@HAKAAAMD@CAMELLIA?9128?9CBC@ 0000000000074860     OpensslLib:obj_dat.obj
 0002:000080b8       ??_C@_0BB@GDOINOHE@camellia?9128?9cbc@ 0000000000074878     OpensslLib:obj_dat.obj
 0002:000080d0       ??_C@_0BB@NDDMHHFP@CAMELLIA?9192?9CBC@ 0000000000074890     OpensslLib:obj_dat.obj
 0002:000080e8       ??_C@_0BB@MAHEKJOI@camellia?9192?9cbc@ 00000000000748a8     OpensslLib:obj_dat.obj
 0002:00008100       ??_C@_0BB@BICFINO@CAMELLIA?9256?9CBC@ 00000000000748c0     OpensslLib:obj_dat.obj
 0002:00008118       ??_C@_0BB@BCMKIGGJ@camellia?9256?9cbc@ 00000000000748d8     OpensslLib:obj_dat.obj
 0002:00008130       ??_C@_0BB@ENBCAEGJ@CAMELLIA?9128?9ECB@ 00000000000748f0     OpensslLib:obj_dat.obj
 0002:00008148       ??_C@_0BB@FOFKNKNO@camellia?9128?9ecb@ 0000000000074908     OpensslLib:obj_dat.obj
 0002:00008160       ??_C@_0BB@OOIOHDPF@CAMELLIA?9192?9ECB@ 0000000000074920     OpensslLib:obj_dat.obj
 0002:00008178       ??_C@_0BB@PNMGKNEC@camellia?9192?9ecb@ 0000000000074938     OpensslLib:obj_dat.obj
 0002:00008190       ??_C@_0BB@DMDAFMHE@CAMELLIA?9256?9ECB@ 0000000000074950     OpensslLib:obj_dat.obj
 0002:000081a8       ??_C@_0BB@CPHIICMD@camellia?9256?9ecb@ 0000000000074968     OpensslLib:obj_dat.obj
 0002:000081c0       ??_C@_0BB@GOLCJJFO@CAMELLIA?9128?9CFB@ 0000000000074980     OpensslLib:obj_dat.obj
 0002:000081d8       ??_C@_0BB@HNPKEHOJ@camellia?9128?9cfb@ 0000000000074998     OpensslLib:obj_dat.obj
 0002:000081f0       ??_C@_0BB@MNCOOOMC@CAMELLIA?9192?9CFB@ 00000000000749b0     OpensslLib:obj_dat.obj
 0002:00008208       ??_C@_0BB@NOGGDAHF@camellia?9192?9cfb@ 00000000000749c8     OpensslLib:obj_dat.obj
 0002:00008220       ??_C@_0BB@BPJAMBED@CAMELLIA?9256?9CFB@ 00000000000749e0     OpensslLib:obj_dat.obj
 0002:00008238       ??_C@_0BB@MNIBPPE@camellia?9256?9cfb@ 00000000000749f8     OpensslLib:obj_dat.obj
 0002:00008250       ??_C@_0BC@EKOAMJNI@CAMELLIA?9128?9CFB1@ 0000000000074a10     OpensslLib:obj_dat.obj
 0002:00008268       ??_C@_0BC@BPPGKHCJ@camellia?9128?9cfb1@ 0000000000074a28     OpensslLib:obj_dat.obj
 0002:00008280       ??_C@_0BC@LDPKIKMA@CAMELLIA?9192?9CFB1@ 0000000000074a40     OpensslLib:obj_dat.obj
 0002:00008298       ??_C@_0BC@OGOMOEDB@camellia?9192?9cfb1@ 0000000000074a58     OpensslLib:obj_dat.obj
 0002:000082b0       ??_C@_0BC@CJJHIHFJ@CAMELLIA?9256?9CFB1@ 0000000000074a70     OpensslLib:obj_dat.obj
 0002:000082c8       ??_C@_0BC@HMIBOJKI@camellia?9256?9cfb1@ 0000000000074a88     OpensslLib:obj_dat.obj
 0002:000082e0       ??_C@_0BC@JLCCHCJB@CAMELLIA?9128?9CFB8@ 0000000000074aa0     OpensslLib:obj_dat.obj
 0002:000082f8       ??_C@_0BC@MODEBMGA@camellia?9128?9cfb8@ 0000000000074ab8     OpensslLib:obj_dat.obj
 0002:00008310       ??_C@_0BC@GCDIDBIJ@CAMELLIA?9192?9CFB8@ 0000000000074ad0     OpensslLib:obj_dat.obj
 0002:00008328       ??_C@_0BC@DHCOFPHI@camellia?9192?9cfb8@ 0000000000074ae8     OpensslLib:obj_dat.obj
 0002:00008340       ??_C@_0BC@PIFFDMBA@CAMELLIA?9256?9CFB8@ 0000000000074b00     OpensslLib:obj_dat.obj
 0002:00008358       ??_C@_0BC@KNEDFCOB@camellia?9256?9cfb8@ 0000000000074b18     OpensslLib:obj_dat.obj
 0002:00008370       ??_C@_0BB@CEGECGOG@CAMELLIA?9128?9OFB@ 0000000000074b30     OpensslLib:obj_dat.obj
 0002:00008388       ??_C@_0BB@DHCMPIFB@camellia?9128?9ofb@ 0000000000074b48     OpensslLib:obj_dat.obj
 0002:000083a0       ??_C@_0BB@IHPIFBHK@CAMELLIA?9192?9OFB@ 0000000000074b60     OpensslLib:obj_dat.obj
 0002:000083b8       ??_C@_0BB@JELAIPMN@camellia?9192?9ofb@ 0000000000074b78     OpensslLib:obj_dat.obj
 0002:000083d0       ??_C@_0BB@FFEGHOPL@CAMELLIA?9256?9OFB@ 0000000000074b90     OpensslLib:obj_dat.obj
 0002:000083e8       ??_C@_0BB@EGAOKAEM@camellia?9256?9ofb@ 0000000000074ba8     OpensslLib:obj_dat.obj
 0002:00008400       ??_C@_0BL@GAJEKNCJ@subjectDirectoryAttributes@ 0000000000074bc0     OpensslLib:obj_dat.obj
 0002:00008420       ??_C@_0CE@OGGDDHCK@X509v3?5Subject?5Directory?5Attrib@ 0000000000074be0     OpensslLib:obj_dat.obj
 0002:00008448       ??_C@_0BJ@OAOPOBMH@issuingDistributionPoint@ 0000000000074c08     OpensslLib:obj_dat.obj
 0002:00008468       ??_C@_0CC@IAMHILJN@X509v3?5Issuing?5Distribution?5Poi@ 0000000000074c28     OpensslLib:obj_dat.obj
 0002:00008490       ??_C@_0BC@NAJGKAHO@certificateIssuer@ 0000000000074c50     OpensslLib:obj_dat.obj
 0002:000084a8       ??_C@_0BK@EMNEMCDI@X509v3?5Certificate?5Issuer@ 0000000000074c68     OpensslLib:obj_dat.obj
 0002:000084c4       ??_C@_04HHHKJIKA@KISA@     0000000000074c84     OpensslLib:obj_dat.obj
 0002:000084cc       ??_C@_04LLEAHKNI@kisa@     0000000000074c8c     OpensslLib:obj_dat.obj
 0002:000084d8       ??_C@_08JEKGBFGL@SEED?9ECB@ 0000000000074c98     OpensslLib:obj_dat.obj
 0002:000084e8       ??_C@_08CKMLAEEI@seed?9ecb@ 0000000000074ca8     OpensslLib:obj_dat.obj
 0002:000084f8       ??_C@_08KJBEBBMB@SEED?9CBC@ 0000000000074cb8     OpensslLib:obj_dat.obj
 0002:00008508       ??_C@_08BHHJAAOC@seed?9cbc@ 0000000000074cc8     OpensslLib:obj_dat.obj
 0002:00008518       ??_C@_08PNNADHOE@SEED?9OFB@ 0000000000074cd8     OpensslLib:obj_dat.obj
 0002:00008528       ??_C@_08EDLNCGMH@seed?9ofb@ 0000000000074ce8     OpensslLib:obj_dat.obj
 0002:00008538       ??_C@_08LHAGIIFM@SEED?9CFB@ 0000000000074cf8     OpensslLib:obj_dat.obj
 0002:00008548       ??_C@_08JGLJJHP@seed?9cfb@ 0000000000074d08     OpensslLib:obj_dat.obj
 0002:00008558       ??_C@_08CABJBHIC@HMAC?9MD5@ 0000000000074d18     OpensslLib:obj_dat.obj
 0002:00008568       ??_C@_08LPACCAD@hmac?9md5@ 0000000000074d28     OpensslLib:obj_dat.obj
 0002:00008578       ??_C@_09DDFKKHO@HMAC?9SHA1@ 0000000000074d38     OpensslLib:obj_dat.obj
 0002:00008588       ??_C@_09KBOMLGBN@hmac?9sha1@ 0000000000074d48     OpensslLib:obj_dat.obj
 0002:00008598       ??_C@_0BE@HCNFOMHA@id?9PasswordBasedMAC@ 0000000000074d58     OpensslLib:obj_dat.obj
 0002:000085b0       ??_C@_0BD@FANJCJAP@password?5based?5MAC@ 0000000000074d70     OpensslLib:obj_dat.obj
 0002:000085c8       ??_C@_0O@MEHCKGFD@id?9DHBasedMac@ 0000000000074d88     OpensslLib:obj_dat.obj
 0002:000085d8       ??_C@_0BJ@CDGIGDFG@Diffie?9Hellman?5based?5MAC@ 0000000000074d98     OpensslLib:obj_dat.obj
 0002:000085f8       ??_C@_0BD@MGCOMIO@id?9it?9suppLangTags@ 0000000000074db8     OpensslLib:obj_dat.obj
 0002:00008610       ??_C@_0N@CKNFLOGG@caRepository@ 0000000000074dd0     OpensslLib:obj_dat.obj
 0002:00008620       ??_C@_0O@LBCGFGCI@CA?5Repository@ 0000000000074de0     OpensslLib:obj_dat.obj
 0002:00008630       ??_C@_0BL@HEJKLKLL@id?9smime?9ct?9compressedData@ 0000000000074df0     OpensslLib:obj_dat.obj
 0002:00008650       ??_C@_0BI@FNBGJEPL@id?9ct?9asciiTextWithCRLF@ 0000000000074e10     OpensslLib:obj_dat.obj
 0002:00008668       ??_C@_0P@MALLFAMO@id?9aes128?9wrap@ 0000000000074e28     OpensslLib:obj_dat.obj
 0002:00008678       ??_C@_0P@DJKBBDNG@id?9aes192?9wrap@ 0000000000074e38     OpensslLib:obj_dat.obj
 0002:00008688       ??_C@_0P@KDMMBOEP@id?9aes256?9wrap@ 0000000000074e48     OpensslLib:obj_dat.obj
 0002:00008698       ??_C@_0BH@GCJALNKM@ecdsa?9with?9Recommended@ 0000000000074e58     OpensslLib:obj_dat.obj
 0002:000086b0       ??_C@_0BF@INFCLNHO@ecdsa?9with?9Specified@ 0000000000074e70     OpensslLib:obj_dat.obj
 0002:000086c8       ??_C@_0BC@PHBIOIGA@ecdsa?9with?9SHA224@ 0000000000074e88     OpensslLib:obj_dat.obj
 0002:000086e0       ??_C@_0BC@MAGBJMGH@ecdsa?9with?9SHA256@ 0000000000074ea0     OpensslLib:obj_dat.obj
 0002:000086f8       ??_C@_0BC@ECDDAKND@ecdsa?9with?9SHA384@ 0000000000074eb8     OpensslLib:obj_dat.obj
 0002:00008710       ??_C@_0BC@DONDMJAG@ecdsa?9with?9SHA512@ 0000000000074ed0     OpensslLib:obj_dat.obj
 0002:00008728       ??_C@_0M@KOBPMNIO@hmacWithMD5@ 0000000000074ee8     OpensslLib:obj_dat.obj
 0002:00008738       ??_C@_0P@JCGBABBG@hmacWithSHA224@ 0000000000074ef8     OpensslLib:obj_dat.obj
 0002:00008748       ??_C@_0P@KFBIHFBB@hmacWithSHA256@ 0000000000074f08     OpensslLib:obj_dat.obj
 0002:00008758       ??_C@_0P@CHEKODKF@hmacWithSHA384@ 0000000000074f18     OpensslLib:obj_dat.obj
 0002:00008768       ??_C@_0P@FLKKCAHA@hmacWithSHA512@ 0000000000074f28     OpensslLib:obj_dat.obj
 0002:00008778       ??_C@_0BA@GLCLJGGH@dsa_with_SHA224@ 0000000000074f38     OpensslLib:obj_dat.obj
 0002:00008788       ??_C@_0BA@FMFCOCGA@dsa_with_SHA256@ 0000000000074f48     OpensslLib:obj_dat.obj
 0002:00008798       ??_C@_09DEGKDAEL@whirlpool@ 0000000000074f58     OpensslLib:obj_dat.obj
 0002:000087a8       ??_C@_09PCHJFNLI@cryptopro@ 0000000000074f68     OpensslLib:obj_dat.obj
 0002:000087b8       ??_C@_09JGBNPHGI@cryptocom@ 0000000000074f78     OpensslLib:obj_dat.obj
 0002:000087c8       ??_C@_0CE@FCAOBIOC@id?9GostR3411?994?9with?9GostR3410?9@ 0000000000074f88     OpensslLib:obj_dat.obj
 0002:000087f0       ??_C@_0CH@MPKKPBGC@GOST?5R?534?411?994?5with?5GOST?5R?534?4@ 0000000000074fb0     OpensslLib:obj_dat.obj
 0002:00008818       ??_C@_0CC@LCAPGDKC@id?9GostR3411?994?9with?9GostR3410?9@ 0000000000074fd8     OpensslLib:obj_dat.obj
 0002:00008840       ??_C@_0CF@PAGBHGOC@GOST?5R?534?411?994?5with?5GOST?5R?534?4@ 0000000000075000     OpensslLib:obj_dat.obj
 0002:00008868       ??_C@_09MIOJGGFD@md_gost94@ 0000000000075028     OpensslLib:obj_dat.obj
 0002:00008878       ??_C@_0BA@KDEBPBMN@GOST?5R?534?411?994@ 0000000000075038     OpensslLib:obj_dat.obj
 0002:00008888       ??_C@_0BE@EBBOKDGI@id?9HMACGostR3411?994@ 0000000000075048     OpensslLib:obj_dat.obj
 0002:000088a0       ??_C@_0BD@BHKLGKNG@HMAC?5GOST?534?411?994@ 0000000000075060     OpensslLib:obj_dat.obj
 0002:000088b8       ??_C@_08KMPAMBCP@gost2001@ 0000000000075078     OpensslLib:obj_dat.obj
 0002:000088c8       ??_C@_0BC@IBNIHBI@GOST?5R?534?410?92001@ 0000000000075088     OpensslLib:obj_dat.obj
 0002:000088dc       ??_C@_06BPJPGPFJ@gost94@   000000000007509c     OpensslLib:obj_dat.obj
 0002:000088e8       ??_C@_0BA@JOCBNIHN@GOST?5R?534?410?994@ 00000000000750a8     OpensslLib:obj_dat.obj
 0002:000088f8       ??_C@_06KLPDHLCD@gost89@   00000000000750b8     OpensslLib:obj_dat.obj
 0002:00008900       ??_C@_0O@POKHNLDL@GOST?528147?989@ 00000000000750c0     OpensslLib:obj_dat.obj
 0002:00008910       ??_C@_0L@INGOKGPP@gost89?9cnt@ 00000000000750d0     OpensslLib:obj_dat.obj
 0002:00008920       ??_C@_08JCNEGNFC@gost?9mac@ 00000000000750e0     OpensslLib:obj_dat.obj
 0002:00008930       ??_C@_0BC@BPAGAEJB@GOST?528147?989?5MAC@ 00000000000750f0     OpensslLib:obj_dat.obj
 0002:00008948       ??_C@_0BB@LJIINAAP@prf?9gostr3411?994@ 0000000000075108     OpensslLib:obj_dat.obj
 0002:00008960       ??_C@_0BE@FFELJBNB@GOST?5R?534?411?994?5PRF@ 0000000000075120     OpensslLib:obj_dat.obj
 0002:00008978       ??_C@_0BE@OBKEJCJB@id?9GostR3410?92001DH@ 0000000000075138     OpensslLib:obj_dat.obj
 0002:00008990       ??_C@_0BF@OKPANPLK@GOST?5R?534?410?92001?5DH@ 0000000000075150     OpensslLib:obj_dat.obj
 0002:000089a8       ??_C@_0BC@CEMDDFNK@id?9GostR3410?994DH@ 0000000000075168     OpensslLib:obj_dat.obj
 0002:000089c0       ??_C@_0BD@LGKAOLPL@GOST?5R?534?410?994?5DH@ 0000000000075180     OpensslLib:obj_dat.obj
 0002:000089d8       ??_C@_0CF@MMKONEIK@id?9Gost28147?989?9CryptoPro?9KeyMe@ 0000000000075198     OpensslLib:obj_dat.obj
 0002:00008a00       ??_C@_0CA@BLJAEGEG@id?9Gost28147?989?9None?9KeyMeshing@ 00000000000751c0     OpensslLib:obj_dat.obj
 0002:00008a20       ??_C@_0BN@DPLCCDOE@id?9GostR3411?994?9TestParamSet@ 00000000000751e0     OpensslLib:obj_dat.obj
 0002:00008a40       ??_C@_0CC@DOHJLMBI@id?9GostR3411?994?9CryptoProParamS@ 0000000000075200     OpensslLib:obj_dat.obj
 0002:00008a68       ??_C@_0BN@GKJFBLMI@id?9Gost28147?989?9TestParamSet@ 0000000000075228     OpensslLib:obj_dat.obj
 0002:00008a88       ??_C@_0CF@PFEMLAKN@id?9Gost28147?989?9CryptoPro?9A?9Par@ 0000000000075248     OpensslLib:obj_dat.obj
 0002:00008ab0       ??_C@_0CF@GMKONGKM@id?9Gost28147?989?9CryptoPro?9B?9Par@ 0000000000075270     OpensslLib:obj_dat.obj
 0002:00008ad8       ??_C@_0CF@KNCAAJGM@id?9Gost28147?989?9CryptoPro?9C?9Par@ 0000000000075298     OpensslLib:obj_dat.obj
 0002:00008b00       ??_C@_0CF@IEBLBMOP@id?9Gost28147?989?9CryptoPro?9D?9Par@ 00000000000752c0     OpensslLib:obj_dat.obj
 0002:00008b28       ??_C@_0CN@EJBNJDBM@id?9Gost28147?989?9CryptoPro?9Oscar@ 00000000000752e8     OpensslLib:obj_dat.obj
 0002:00008b58       ??_C@_0CN@IIJDEMNM@id?9Gost28147?989?9CryptoPro?9Oscar@ 0000000000075318     OpensslLib:obj_dat.obj
 0002:00008b88       ??_C@_0CJ@IIADIAJH@id?9Gost28147?989?9CryptoPro?9RIC?91@ 0000000000075348     OpensslLib:obj_dat.obj
 0002:00008bb8       ??_C@_0BN@NAOAJFAF@id?9GostR3410?994?9TestParamSet@ 0000000000075378     OpensslLib:obj_dat.obj
 0002:00008bd8       ??_C@_0CF@MNFOPPCD@id?9GostR3410?994?9CryptoPro?9A?9Par@ 0000000000075398     OpensslLib:obj_dat.obj
 0002:00008c00       ??_C@_0CF@FELMJJCC@id?9GostR3410?994?9CryptoPro?9B?9Par@ 00000000000753c0     OpensslLib:obj_dat.obj
 0002:00008c28       ??_C@_0CF@JFDCEGOC@id?9GostR3410?994?9CryptoPro?9C?9Par@ 00000000000753e8     OpensslLib:obj_dat.obj
 0002:00008c50       ??_C@_0CF@LMAJFDGB@id?9GostR3410?994?9CryptoPro?9D?9Par@ 0000000000075410     OpensslLib:obj_dat.obj
 0002:00008c78       ??_C@_0CI@FLGMGEEM@id?9GostR3410?994?9CryptoPro?9XchA?9@ 0000000000075438     OpensslLib:obj_dat.obj
 0002:00008ca0       ??_C@_0CI@MCIOACEN@id?9GostR3410?994?9CryptoPro?9XchB?9@ 0000000000075460     OpensslLib:obj_dat.obj
 0002:00008cc8       ??_C@_0CI@DAANNIN@id?9GostR3410?994?9CryptoPro?9XchC?9@ 0000000000075488     OpensslLib:obj_dat.obj
 0002:00008cf0       ??_C@_0BP@GEEJLPDI@id?9GostR3410?92001?9TestParamSet@ 00000000000754b0     OpensslLib:obj_dat.obj
 0002:00008d10       ??_C@_0CH@GDAPDBKP@id?9GostR3410?92001?9CryptoPro?9A?9P@ 00000000000754d0     OpensslLib:obj_dat.obj
 0002:00008d38       ??_C@_0CH@PKONFHKO@id?9GostR3410?92001?9CryptoPro?9B?9P@ 00000000000754f8     OpensslLib:obj_dat.obj
 0002:00008d60       ??_C@_0CH@DLGDIIGO@id?9GostR3410?92001?9CryptoPro?9C?9P@ 0000000000075520     OpensslLib:obj_dat.obj
 0002:00008d88       ??_C@_0CK@PKFGBNKE@id?9GostR3410?92001?9CryptoPro?9Xch@ 0000000000075548     OpensslLib:obj_dat.obj
 0002:00008db8       ??_C@_0CK@GDLEHLKF@id?9GostR3410?92001?9CryptoPro?9Xch@ 0000000000075578     OpensslLib:obj_dat.obj
 0002:00008de8       ??_C@_0BC@CHIDFKJO@id?9GostR3410?994?9a@ 00000000000755a8     OpensslLib:obj_dat.obj
 0002:00008e00       ??_C@_0BF@LBGBLILF@id?9GostR3410?994?9aBis@ 00000000000755c0     OpensslLib:obj_dat.obj
 0002:00008e18       ??_C@_0BC@MKOAJFN@id?9GostR3410?994?9b@ 00000000000755d8     OpensslLib:obj_dat.obj
 0002:00008e30       ??_C@_0BF@PGMBMCGF@id?9GostR3410?994?9bBis@ 00000000000755f0     OpensslLib:obj_dat.obj
 0002:00008e48       ??_C@_0BD@MEAAKKFJ@id?9Gost28147?989?9cc@ 0000000000075608     OpensslLib:obj_dat.obj
 0002:00008e60       ??_C@_0CB@KNOPDNHN@GOST?528147?989?5Cryptocom?5ParamSe@ 0000000000075620     OpensslLib:obj_dat.obj
 0002:00008e88       ??_C@_08LCDFMIFG@gost94cc@ 0000000000075648     OpensslLib:obj_dat.obj
 0002:00008e98       ??_C@_0BI@GJIILMEB@GOST?534?410?994?5Cryptocom@ 0000000000075658     OpensslLib:obj_dat.obj
 0002:00008eb0       ??_C@_0L@PKDOCLKG@gost2001cc@ 0000000000075670     OpensslLib:obj_dat.obj
 0002:00008ec0       ??_C@_0BK@IGCJADLM@GOST?534?410?92001?5Cryptocom@ 0000000000075680     OpensslLib:obj_dat.obj
 0002:00008ee0       ??_C@_0CF@FCIKJGLH@id?9GostR3411?994?9with?9GostR3410?9@ 00000000000756a0     OpensslLib:obj_dat.obj
 0002:00008f08       ??_C@_0CP@ILDIBBAJ@GOST?5R?534?411?994?5with?5GOST?5R?534?4@ 00000000000756c8     OpensslLib:obj_dat.obj
 0002:00008f38       ??_C@_0CH@JJNMILDM@id?9GostR3411?994?9with?9GostR3410?9@ 00000000000756f8     OpensslLib:obj_dat.obj
 0002:00008f60       ??_C@_0DB@BGOOPLFE@GOST?5R?534?411?994?5with?5GOST?5R?534?4@ 0000000000075720     OpensslLib:obj_dat.obj
 0002:00008f98       ??_C@_0BO@LBPHKLOM@id?9GostR3410?92001?9ParamSet?9cc@ 0000000000075758     OpensslLib:obj_dat.obj
 0002:00008fb8       ??_C@_0CJ@NCCJHEBD@GOST?5R?53410?92001?5Parameter?5Set?5@ 0000000000075778     OpensslLib:obj_dat.obj
 0002:00008fe4       ??_C@_04JCCMGALL@HMAC@     00000000000757a4     OpensslLib:obj_dat.obj
 0002:00008fec       ??_C@_04FOBGICMD@hmac@     00000000000757ac     OpensslLib:obj_dat.obj
 0002:00008ff8       ??_C@_0M@LCODBGNO@LocalKeySet@ 00000000000757b8     OpensslLib:obj_dat.obj
 0002:00009008       ??_C@_0BI@FMFOLFMC@Microsoft?5Local?5Key?5set@ 00000000000757c8     OpensslLib:obj_dat.obj
 0002:00009020       ??_C@_0M@PKNKMHEG@freshestCRL@ 00000000000757e0     OpensslLib:obj_dat.obj
 0002:00009030       ??_C@_0BE@KEJIKEFG@X509v3?5Freshest?5CRL@ 00000000000757f0     OpensslLib:obj_dat.obj
 0002:00009048       ??_C@_0BK@BMFCOPIC@id?9on?9permanentIdentifier@ 0000000000075808     OpensslLib:obj_dat.obj
 0002:00009068       ??_C@_0BF@DGGAJJCO@Permanent?5Identifier@ 0000000000075828     OpensslLib:obj_dat.obj
 0002:00009080       ??_C@_0M@MCCFGANF@searchGuide@ 0000000000075840     OpensslLib:obj_dat.obj
 0002:00009090       ??_C@_0BB@GFJJGHBI@businessCategory@ 0000000000075850     OpensslLib:obj_dat.obj
 0002:000090a8       ??_C@_0O@KABBPKPG@postalAddress@ 0000000000075868     OpensslLib:obj_dat.obj
 0002:000090b8       ??_C@_0O@PCCHCGPG@postOfficeBox@ 0000000000075878     OpensslLib:obj_dat.obj
 0002:000090c8       ??_C@_0BL@DENBGONK@physicalDeliveryOfficeName@ 0000000000075888     OpensslLib:obj_dat.obj
 0002:000090e8       ??_C@_0BA@NCAGJGBF@telephoneNumber@ 00000000000758a8     OpensslLib:obj_dat.obj
 0002:000090f8       ??_C@_0M@MMDMBPMM@telexNumber@ 00000000000758b8     OpensslLib:obj_dat.obj
 0002:00009108       ??_C@_0BK@BBNEJJDC@teletexTerminalIdentifier@ 00000000000758c8     OpensslLib:obj_dat.obj
 0002:00009128       ??_C@_0BJ@NDMMBDAB@facsimileTelephoneNumber@ 00000000000758e8     OpensslLib:obj_dat.obj
 0002:00009148       ??_C@_0M@MOCAHDLJ@x121Address@ 0000000000075908     OpensslLib:obj_dat.obj
 0002:00009158       ??_C@_0BI@OAHCBLEE@internationaliSDNNumber@ 0000000000075918     OpensslLib:obj_dat.obj
 0002:00009170       ??_C@_0BC@DLLOJDNE@registeredAddress@ 0000000000075930     OpensslLib:obj_dat.obj
 0002:00009188       ??_C@_0BF@CMAFNEOO@destinationIndicator@ 0000000000075948     OpensslLib:obj_dat.obj
 0002:000091a0       ??_C@_0BI@MKMMOKIA@preferredDeliveryMethod@ 0000000000075960     OpensslLib:obj_dat.obj
 0002:000091b8       ??_C@_0BE@KHACCONJ@presentationAddress@ 0000000000075978     OpensslLib:obj_dat.obj
 0002:000091d0       ??_C@_0BM@NHJFOGBI@supportedApplicationContext@ 0000000000075990     OpensslLib:obj_dat.obj
 0002:000091ec       ??_C@_06HDFDANIG@member@   00000000000759ac     OpensslLib:obj_dat.obj
 0002:000091f4       ??_C@_05HEIBENID@owner@    00000000000759b4     OpensslLib:obj_dat.obj
 0002:00009200       ??_C@_0N@NAEJMDPF@roleOccupant@ 00000000000759c0     OpensslLib:obj_dat.obj
 0002:00009210       ??_C@_07JJAENDGN@seeAlso@  00000000000759d0     OpensslLib:obj_dat.obj
 0002:00009218       ??_C@_0N@JHMNNHKM@userPassword@ 00000000000759d8     OpensslLib:obj_dat.obj
 0002:00009228       ??_C@_0BA@FEECIELF@userCertificate@ 00000000000759e8     OpensslLib:obj_dat.obj
 0002:00009238       ??_C@_0O@JJCNKCKK@cACertificate@ 00000000000759f8     OpensslLib:obj_dat.obj
 0002:00009248       ??_C@_0BI@EODAEBFG@authorityRevocationList@ 0000000000075a08     OpensslLib:obj_dat.obj
 0002:00009260       ??_C@_0BK@IMFDMOND@certificateRevocationList@ 0000000000075a20     OpensslLib:obj_dat.obj
 0002:00009280       ??_C@_0BF@GAAPBDAE@crossCertificatePair@ 0000000000075a40     OpensslLib:obj_dat.obj
 0002:00009298       ??_C@_0BE@NNAGLFEM@enhancedSearchGuide@ 0000000000075a58     OpensslLib:obj_dat.obj
 0002:000092b0       ??_C@_0BE@FKAMNJMM@protocolInformation@ 0000000000075a70     OpensslLib:obj_dat.obj
 0002:000092c8       ??_C@_0BC@IIJOGNNH@distinguishedName@ 0000000000075a88     OpensslLib:obj_dat.obj
 0002:000092e0       ??_C@_0N@FIGDLDDJ@uniqueMember@ 0000000000075aa0     OpensslLib:obj_dat.obj
 0002:000092f0       ??_C@_0BA@EKKIBBF@houseIdentifier@ 0000000000075ab0     OpensslLib:obj_dat.obj
 0002:00009300       ??_C@_0BE@KGOGIPEN@supportedAlgorithms@ 0000000000075ac0     OpensslLib:obj_dat.obj
 0002:00009318       ??_C@_0BE@MNOFELKF@deltaRevocationList@ 0000000000075ad8     OpensslLib:obj_dat.obj
 0002:00009330       ??_C@_07ILKEFPGB@dmdName@  0000000000075af0     OpensslLib:obj_dat.obj
 0002:00009338       ??_C@_0BA@NJOHMDIG@id?9alg?9PWRI?9KEK@ 0000000000075af8     OpensslLib:obj_dat.obj
 0002:00009348       ??_C@_04OFPMFBKK@CMAC@     0000000000075b08     OpensslLib:obj_dat.obj
 0002:00009350       ??_C@_04CJMGLDNC@cmac@     0000000000075b10     OpensslLib:obj_dat.obj
 0002:00009358       ??_C@_0O@LNIKAOOL@id?9aes128?9GCM@ 0000000000075b18     OpensslLib:obj_dat.obj
 0002:00009368       ??_C@_0M@ODEOFOCG@aes?9128?9gcm@ 0000000000075b28     OpensslLib:obj_dat.obj
 0002:00009378       ??_C@_0O@DCOIJJLM@id?9aes128?9CCM@ 0000000000075b38     OpensslLib:obj_dat.obj
 0002:00009388       ??_C@_0M@GMCMMJHB@aes?9128?9ccm@ 0000000000075b48     OpensslLib:obj_dat.obj
 0002:00009398       ??_C@_0BD@HMJBEGNL@id?9aes128?9wrap?9pad@ 0000000000075b58     OpensslLib:obj_dat.obj
 0002:000093b0       ??_C@_0O@BOBGHJHH@id?9aes192?9GCM@ 0000000000075b70     OpensslLib:obj_dat.obj
 0002:000093c0       ??_C@_0M@EANCCJLK@aes?9192?9gcm@ 0000000000075b80     OpensslLib:obj_dat.obj
 0002:000093d0       ??_C@_0O@JBHEOOCA@id?9aes192?9CCM@ 0000000000075b90     OpensslLib:obj_dat.obj
 0002:000093e0       ??_C@_0M@MPLALOON@aes?9192?9ccm@ 0000000000075ba0     OpensslLib:obj_dat.obj
 0002:000093f0       ??_C@_0BD@OPKMLKFB@id?9aes192?9wrap?9pad@ 0000000000075bb0     OpensslLib:obj_dat.obj
 0002:00009408       ??_C@_0O@MMKIFGPG@id?9aes256?9GCM@ 0000000000075bc8     OpensslLib:obj_dat.obj
 0002:00009418       ??_C@_0M@JCGMAGDL@aes?9256?9gcm@ 0000000000075bd8     OpensslLib:obj_dat.obj
 0002:00009428       ??_C@_0O@EDMKMBKB@id?9aes256?9CCM@ 0000000000075be8     OpensslLib:obj_dat.obj
 0002:00009438       ??_C@_0M@BNAOJBGM@aes?9256?9ccm@ 0000000000075bf8     OpensslLib:obj_dat.obj
 0002:00009448       ??_C@_0BD@OHLFOIJM@id?9aes256?9wrap?9pad@ 0000000000075c08     OpensslLib:obj_dat.obj
 0002:00009460       ??_C@_0M@GEBEOIJJ@AES?9128?9CTR@ 0000000000075c20     OpensslLib:obj_dat.obj
 0002:00009470       ??_C@_0M@LIBPHCBK@aes?9128?9ctr@ 0000000000075c30     OpensslLib:obj_dat.obj
 0002:00009480       ??_C@_0M@MHIIJPAF@AES?9192?9CTR@ 0000000000075c40     OpensslLib:obj_dat.obj
 0002:00009490       ??_C@_0M@BLIDAFIG@aes?9192?9ctr@ 0000000000075c50     OpensslLib:obj_dat.obj
 0002:000094a0       ??_C@_0M@BFDGLAIE@AES?9256?9CTR@ 0000000000075c60     OpensslLib:obj_dat.obj
 0002:000094b0       ??_C@_0M@MJDNCKAH@aes?9256?9ctr@ 0000000000075c70     OpensslLib:obj_dat.obj
 0002:000094c0       ??_C@_0BE@JENMCLBD@id?9camellia128?9wrap@ 0000000000075c80     OpensslLib:obj_dat.obj
 0002:000094d8       ??_C@_0BE@GNMGGIAL@id?9camellia192?9wrap@ 0000000000075c98     OpensslLib:obj_dat.obj
 0002:000094f0       ??_C@_0BE@PHKLGFJC@id?9camellia256?9wrap@ 0000000000075cb0     OpensslLib:obj_dat.obj
 0002:00009508       ??_C@_0BE@FKFLDMON@anyExtendedKeyUsage@ 0000000000075cc8     OpensslLib:obj_dat.obj
 0002:00009520       ??_C@_0BH@FHBOBBKO@Any?5Extended?5Key?5Usage@ 0000000000075ce0     OpensslLib:obj_dat.obj
 0002:00009538       ??_C@_04CNDHACFO@MGF1@     0000000000075cf8     OpensslLib:obj_dat.obj
 0002:00009540       ??_C@_04HEIJMEIE@mgf1@     0000000000075d00     OpensslLib:obj_dat.obj
 0002:00009548       ??_C@_0L@CPMAKEFG@RSASSA?9PSS@ 0000000000075d08     OpensslLib:obj_dat.obj
 0002:00009558       ??_C@_09FGGKIFKD@rsassaPss@ 0000000000075d18     OpensslLib:obj_dat.obj
 0002:00009568       ??_C@_0M@PKBHAJEG@AES?9128?9XTS@ 0000000000075d28     OpensslLib:obj_dat.obj
 0002:00009578       ??_C@_0M@CGBMJDMF@aes?9128?9xts@ 0000000000075d38     OpensslLib:obj_dat.obj
 0002:00009588       ??_C@_0M@ILDFFBFL@AES?9256?9XTS@ 0000000000075d48     OpensslLib:obj_dat.obj
 0002:00009598       ??_C@_0M@FHDOMLNI@aes?9256?9xts@ 0000000000075d58     OpensslLib:obj_dat.obj
 0002:000095a8       ??_C@_0N@MFFPBCGK@RC4?9HMAC?9MD5@ 0000000000075d68     OpensslLib:obj_dat.obj
 0002:000095b8       ??_C@_0N@EFPJLHOG@rc4?9hmac?9md5@ 0000000000075d78     OpensslLib:obj_dat.obj
 0002:000095c8       ??_C@_0BG@OKEPPAEE@AES?9128?9CBC?9HMAC?9SHA1@ 0000000000075d88     OpensslLib:obj_dat.obj
 0002:000095e0       ??_C@_0BG@CLBGODOC@aes?9128?9cbc?9hmac?9sha1@ 0000000000075da0     OpensslLib:obj_dat.obj
 0002:000095f8       ??_C@_0BG@KLHGFOHC@AES?9192?9CBC?9HMAC?9SHA1@ 0000000000075db8     OpensslLib:obj_dat.obj
 0002:00009610       ??_C@_0BG@GKCPENNE@aes?9192?9cbc?9hmac?9sha1@ 0000000000075dd0     OpensslLib:obj_dat.obj
 0002:00009628       ??_C@_0BG@NJKHMG@AES?9256?9CBC?9HMAC?9SHA1@ 0000000000075de8     OpensslLib:obj_dat.obj
 0002:00009640       ??_C@_0BG@MBIALEGA@aes?9256?9cbc?9hmac?9sha1@ 0000000000075e00     OpensslLib:obj_dat.obj
 0002:00009658       ??_C@_0L@NCPDMLAN@RSAES?9OAEP@ 0000000000075e18     OpensslLib:obj_dat.obj
 0002:00009668       ??_C@_09FHIEKOPH@rsaesOaep@ 0000000000075e28     OpensslLib:obj_dat.obj
 0002:00009678       ??_C@_0P@BHMOKJEG@dhpublicnumber@ 0000000000075e38     OpensslLib:obj_dat.obj
 0002:00009688       ??_C@_08HOHHODNK@X9?442?5DH@ 0000000000075e48     OpensslLib:obj_dat.obj
 0002:00009698       ??_C@_0BA@CDGJLDLH@brainpoolP160r1@ 0000000000075e58     OpensslLib:obj_dat.obj
 0002:000096a8       ??_C@_0BA@CHOEMPAF@brainpoolP160t1@ 0000000000075e68     OpensslLib:obj_dat.obj
 0002:000096b8       ??_C@_0BA@LDAOMON@brainpoolP192r1@ 0000000000075e78     OpensslLib:obj_dat.obj
 0002:000096c8       ??_C@_0BA@PLNJAFP@brainpoolP192t1@ 0000000000075e88     OpensslLib:obj_dat.obj
 0002:000096d8       ??_C@_0BA@NPBPPAIO@brainpoolP224r1@ 0000000000075e98     OpensslLib:obj_dat.obj
 0002:000096e8       ??_C@_0BA@NLJCIMDM@brainpoolP224t1@ 0000000000075ea8     OpensslLib:obj_dat.obj
 0002:000096f8       ??_C@_0BA@MHDGOEBF@brainpoolP256r1@ 0000000000075eb8     OpensslLib:obj_dat.obj
 0002:00009708       ??_C@_0BA@MDLLJIKH@brainpoolP256t1@ 0000000000075ec8     OpensslLib:obj_dat.obj
 0002:00009718       ??_C@_0BA@JLCBLEHM@brainpoolP320r1@ 0000000000075ed8     OpensslLib:obj_dat.obj
 0002:00009728       ??_C@_0BA@JPKMMIMO@brainpoolP320t1@ 0000000000075ee8     OpensslLib:obj_dat.obj
 0002:00009738       ??_C@_0BA@FOPDDLIK@brainpoolP384r1@ 0000000000075ef8     OpensslLib:obj_dat.obj
 0002:00009748       ??_C@_0BA@FKHOEHDI@brainpoolP384t1@ 0000000000075f08     OpensslLib:obj_dat.obj
 0002:00009758       ??_C@_0BA@KANBOFDK@brainpoolP512r1@ 0000000000075f18     OpensslLib:obj_dat.obj
 0002:00009768       ??_C@_0BA@KEFMJJII@brainpoolP512t1@ 0000000000075f28     OpensslLib:obj_dat.obj
 0002:00009778       ??_C@_0L@CDJFGILH@PSPECIFIED@ 0000000000075f38     OpensslLib:obj_dat.obj
 0002:00009788       ??_C@_0L@NKKFNJEH@pSpecified@ 0000000000075f48     OpensslLib:obj_dat.obj
 0002:00009798       ??_C@_0CC@GCFJNDOJ@dhSinglePass?9stdDH?9sha1kdf?9sche@ 0000000000075f58     OpensslLib:obj_dat.obj
 0002:000097c0       ??_C@_0CE@OPNDOJI@dhSinglePass?9stdDH?9sha224kdf?9sc@ 0000000000075f80     OpensslLib:obj_dat.obj
 0002:000097e8       ??_C@_0CE@JPLFKGFP@dhSinglePass?9stdDH?9sha256kdf?9sc@ 0000000000075fa8     OpensslLib:obj_dat.obj
 0002:00009810       ??_C@_0CE@KJKNLJMI@dhSinglePass?9stdDH?9sha384kdf?9sc@ 0000000000075fd0     OpensslLib:obj_dat.obj
 0002:00009838       ??_C@_0CE@DJMHFNHG@dhSinglePass?9stdDH?9sha512kdf?9sc@ 0000000000075ff8     OpensslLib:obj_dat.obj
 0002:00009860       ??_C@_0CH@DHIHBIGF@dhSinglePass?9cofactorDH?9sha1kdf@ 0000000000076020     OpensslLib:obj_dat.obj
 0002:00009888       ??_C@_0CJ@JFHNKHDJ@dhSinglePass?9cofactorDH?9sha224k@ 0000000000076048     OpensslLib:obj_dat.obj
 0002:000098b8       ??_C@_0CJ@EDFDPPO@dhSinglePass?9cofactorDH?9sha256k@ 0000000000076078     OpensslLib:obj_dat.obj
 0002:000098e8       ??_C@_0CJ@DCCNCAGJ@dhSinglePass?9cofactorDH?9sha384k@ 00000000000760a8     OpensslLib:obj_dat.obj
 0002:00009918       ??_C@_0CJ@KCEHMENH@dhSinglePass?9cofactorDH?9sha512k@ 00000000000760d8     OpensslLib:obj_dat.obj
 0002:00009948       ??_C@_0L@MFGJJBLE@dh?9std?9kdf@ 0000000000076108     OpensslLib:obj_dat.obj
 0002:00009958       ??_C@_0BA@LJEJAEDG@dh?9cofactor?9kdf@ 0000000000076118     OpensslLib:obj_dat.obj
 0002:00009968       ??_C@_0BI@JAKBILLC@AES?9128?9CBC?9HMAC?9SHA256@ 0000000000076128     OpensslLib:obj_dat.obj
 0002:00009980       ??_C@_0BI@OMECBAFK@aes?9128?9cbc?9hmac?9sha256@ 0000000000076140     OpensslLib:obj_dat.obj
 0002:00009998       ??_C@_0BI@CINDNFBB@AES?9192?9CBC?9HMAC?9SHA256@ 0000000000076158     OpensslLib:obj_dat.obj
 0002:000099b0       ??_C@_0BI@FEDAEOPJ@aes?9192?9cbc?9hmac?9sha256@ 0000000000076170     OpensslLib:obj_dat.obj
 0002:000099c8       ??_C@_0BI@GMBLFPLK@AES?9256?9CBC?9HMAC?9SHA256@ 0000000000076188     OpensslLib:obj_dat.obj
 0002:000099e0       ??_C@_0BI@BAPIMEFC@aes?9256?9cbc?9hmac?9sha256@ 00000000000761a0     OpensslLib:obj_dat.obj
 0002:000099f8       ??_C@_0BA@EKNBJPMK@ct_precert_scts@ 00000000000761b8     OpensslLib:obj_dat.obj
 0002:00009a08       ??_C@_0BH@MJHOKGCL@CT?5Precertificate?5SCTs@ 00000000000761c8     OpensslLib:obj_dat.obj
 0002:00009a20       ??_C@_0BC@DHAKLICB@ct_precert_poison@ 00000000000761e0     OpensslLib:obj_dat.obj
 0002:00009a38       ??_C@_0BJ@OJAHFLBJ@CT?5Precertificate?5Poison@ 00000000000761f8     OpensslLib:obj_dat.obj
 0002:00009a58       ??_C@_0BC@CGBIKIAJ@ct_precert_signer@ 0000000000076218     OpensslLib:obj_dat.obj
 0002:00009a70       ??_C@_0BJ@PIBFELDB@CT?5Precertificate?5Signer@ 0000000000076230     OpensslLib:obj_dat.obj
 0002:00009a90       ??_C@_0N@GIBNBHKA@ct_cert_scts@ 0000000000076250     OpensslLib:obj_dat.obj
 0002:00009aa0       ??_C@_0BE@OLBHFOCE@CT?5Certificate?5SCTs@ 0000000000076260     OpensslLib:obj_dat.obj
 0002:00009ab8       ??_C@_0O@CEMHPDIN@jurisdictionL@ 0000000000076278     OpensslLib:obj_dat.obj
 0002:00009ac8       ??_C@_0BJ@DGGEPBOP@jurisdictionLocalityName@ 0000000000076288     OpensslLib:obj_dat.obj
 0002:00009ae8       ??_C@_0P@FKIAEEHD@jurisdictionST@ 00000000000762a8     OpensslLib:obj_dat.obj
 0002:00009af8       ??_C@_0CA@ILILPDLE@jurisdictionStateOrProvinceName@ 00000000000762b8     OpensslLib:obj_dat.obj
 0002:00009b18       ??_C@_0O@KDFPOPEC@jurisdictionC@ 00000000000762d8     OpensslLib:obj_dat.obj
 0002:00009b28       ??_C@_0BI@IBHEHEJE@jurisdictionCountryName@ 00000000000762e8     OpensslLib:obj_dat.obj
 0002:00009b40       ??_C@_0M@HNGJPAIF@AES?9128?9OCB@ 0000000000076300     OpensslLib:obj_dat.obj
 0002:00009b50       ??_C@_0M@KBGCGKAG@aes?9128?9ocb@ 0000000000076310     OpensslLib:obj_dat.obj
 0002:00009b60       ??_C@_0M@NOPFIHBJ@AES?9192?9OCB@ 0000000000076320     OpensslLib:obj_dat.obj
 0002:00009b70       ??_C@_0M@CPOBNJK@aes?9192?9ocb@ 0000000000076330     OpensslLib:obj_dat.obj
 0002:00009b80       ??_C@_0M@MELKIJI@AES?9256?9OCB@ 0000000000076340     OpensslLib:obj_dat.obj
 0002:00009b90       ??_C@_0M@NAEADCBL@aes?9256?9ocb@ 0000000000076350     OpensslLib:obj_dat.obj
 0002:00009ba0       ??_C@_0BB@GAIDNACN@CAMELLIA?9128?9GCM@ 0000000000076360     OpensslLib:obj_dat.obj
 0002:00009bb8       ??_C@_0BB@HDMLAOJK@camellia?9128?9gcm@ 0000000000076378     OpensslLib:obj_dat.obj
 0002:00009bd0       ??_C@_0BB@OPOBEHHK@CAMELLIA?9128?9CCM@ 0000000000076390     OpensslLib:obj_dat.obj
 0002:00009be8       ??_C@_0BB@PMKJJJMN@camellia?9128?9ccm@ 00000000000763a8     OpensslLib:obj_dat.obj
 0002:00009c00       ??_C@_0BB@DLNCPMBB@CAMELLIA?9128?9CTR@ 00000000000763c0     OpensslLib:obj_dat.obj
 0002:00009c18       ??_C@_0BB@CIJKCCKG@camellia?9128?9ctr@ 00000000000763d8     OpensslLib:obj_dat.obj
 0002:00009c30       ??_C@_0BC@ICKOOLPE@CAMELLIA?9128?9CMAC@ 00000000000763f0     OpensslLib:obj_dat.obj
 0002:00009c48       ??_C@_0BC@ECDMKBKH@camellia?9128?9cmac@ 0000000000076408     OpensslLib:obj_dat.obj
 0002:00009c60       ??_C@_0BB@MDBPKHLB@CAMELLIA?9192?9GCM@ 0000000000076420     OpensslLib:obj_dat.obj
 0002:00009c78       ??_C@_0BB@NAFHHJAG@camellia?9192?9gcm@ 0000000000076438     OpensslLib:obj_dat.obj
 0002:00009c90       ??_C@_0BB@EMHNDAOG@CAMELLIA?9192?9CCM@ 0000000000076450     OpensslLib:obj_dat.obj
 0002:00009ca8       ??_C@_0BB@FPDFOOFB@camellia?9192?9ccm@ 0000000000076468     OpensslLib:obj_dat.obj
 0002:00009cc0       ??_C@_0BB@JIEOILIN@CAMELLIA?9192?9CTR@ 0000000000076480     OpensslLib:obj_dat.obj
 0002:00009cd8       ??_C@_0BB@ILAGFFDK@camellia?9192?9ctr@ 0000000000076498     OpensslLib:obj_dat.obj
 0002:00009cf0       ??_C@_0BC@HLLEKIOM@CAMELLIA?9192?9CMAC@ 00000000000764b0     OpensslLib:obj_dat.obj
 0002:00009d08       ??_C@_0BC@LLCGOCLP@camellia?9192?9cmac@ 00000000000764c8     OpensslLib:obj_dat.obj
 0002:00009d20       ??_C@_0BB@BBKBIIDA@CAMELLIA?9256?9GCM@ 00000000000764e0     OpensslLib:obj_dat.obj
 0002:00009d38       ??_C@_0BB@COJFGIH@camellia?9256?9gcm@ 00000000000764f8     OpensslLib:obj_dat.obj
 0002:00009d50       ??_C@_0BB@JOMDBPGH@CAMELLIA?9256?9CCM@ 0000000000076510     OpensslLib:obj_dat.obj
 0002:00009d68       ??_C@_0BB@INILMBNA@camellia?9256?9ccm@ 0000000000076528     OpensslLib:obj_dat.obj
 0002:00009d80       ??_C@_0BB@EKPAKEAM@CAMELLIA?9256?9CTR@ 0000000000076540     OpensslLib:obj_dat.obj
 0002:00009d98       ??_C@_0BB@FJLIHKLL@camellia?9256?9ctr@ 0000000000076558     OpensslLib:obj_dat.obj
 0002:00009db0       ??_C@_0BC@OBNJKFHF@CAMELLIA?9256?9CMAC@ 0000000000076570     OpensslLib:obj_dat.obj
 0002:00009dc8       ??_C@_0BC@CBELOPCG@camellia?9256?9cmac@ 0000000000076588     OpensslLib:obj_dat.obj
 0002:00009de0       ??_C@_09ILBMCAEF@id?9scrypt@ 00000000000765a0     OpensslLib:obj_dat.obj
 0002:00009dec       ??_C@_06LLPEBPNI@scrypt@   00000000000765ac     OpensslLib:obj_dat.obj
 0002:00009df8       ??_C@_07BKIAFLHB@id?9tc26@ 00000000000765b8     OpensslLib:obj_dat.obj
 0002:00009e00       ??_C@_0O@HGEOMPGF@gost89?9cnt?912@ 00000000000765c0     OpensslLib:obj_dat.obj
 0002:00009e10       ??_C@_0M@KEFEFFFO@gost?9mac?912@ 00000000000765d0     OpensslLib:obj_dat.obj
 0002:00009e20       ??_C@_0BD@PKHBIAHP@id?9tc26?9algorithms@ 00000000000765e0     OpensslLib:obj_dat.obj
 0002:00009e38       ??_C@_0N@HMCOAPHF@id?9tc26?9sign@ 00000000000765f8     OpensslLib:obj_dat.obj
 0002:00009e48       ??_C@_0N@MINOOKEF@gost2012_256@ 0000000000076608     OpensslLib:obj_dat.obj
 0002:00009e58       ??_C@_0CH@DJAHIKCF@GOST?5R?534?410?92012?5with?5256?5bit?5@ 0000000000076618     OpensslLib:obj_dat.obj
 0002:00009e80       ??_C@_0N@DGGMLPCE@gost2012_512@ 0000000000076640     OpensslLib:obj_dat.obj
 0002:00009e90       ??_C@_0CH@FHCOJICI@GOST?5R?534?410?92012?5with?5512?5bit?5@ 0000000000076650     OpensslLib:obj_dat.obj
 0002:00009eb8       ??_C@_0P@KKGLKDLG@id?9tc26?9digest@ 0000000000076678     OpensslLib:obj_dat.obj
 0002:00009ec8       ??_C@_0O@CBIKGGLN@md_gost12_256@ 0000000000076688     OpensslLib:obj_dat.obj
 0002:00009ed8       ??_C@_0CE@FGDJHNGL@GOST?5R?534?411?92012?5with?5256?5bit?5@ 0000000000076698     OpensslLib:obj_dat.obj
 0002:00009f00       ??_C@_0O@NPDIDDNM@md_gost12_512@ 00000000000766c0     OpensslLib:obj_dat.obj
 0002:00009f10       ??_C@_0CE@JIJFDDMO@GOST?5R?534?411?92012?5with?5512?5bit?5@ 00000000000766d0     OpensslLib:obj_dat.obj
 0002:00009f38       ??_C@_0BH@DGELPKNI@id?9tc26?9signwithdigest@ 00000000000766f8     OpensslLib:obj_dat.obj
 0002:00009f50       ??_C@_0CJ@IEAKGPIK@id?9tc26?9signwithdigest?9gost3410@ 0000000000076710     OpensslLib:obj_dat.obj
 0002:00009f80       ??_C@_0DD@IIJACCAI@GOST?5R?534?410?92012?5with?5GOST?5R?53@ 0000000000076740     OpensslLib:obj_dat.obj
 0002:00009fb8       ??_C@_0CJ@HKLIDKOL@id?9tc26?9signwithdigest?9gost3410@ 0000000000076778     OpensslLib:obj_dat.obj
 0002:00009fe8       ??_C@_0DD@JMPEGFCI@GOST?5R?534?410?92012?5with?5GOST?5R?53@ 00000000000767a8     OpensslLib:obj_dat.obj
 0002:0000a020       ??_C@_0M@ICFDDKIB@id?9tc26?9mac@ 00000000000767e0     OpensslLib:obj_dat.obj
 0002:0000a030       ??_C@_0CA@JKDKOOFJ@id?9tc26?9hmac?9gost?93411?92012?9256@ 00000000000767f0     OpensslLib:obj_dat.obj
 0002:0000a050       ??_C@_0BN@JOOLALJM@HMAC?5GOST?534?411?92012?5256?5bit@ 0000000000076810     OpensslLib:obj_dat.obj
 0002:0000a070       ??_C@_0CA@GEIILLDI@id?9tc26?9hmac?9gost?93411?92012?9512@ 0000000000076830     OpensslLib:obj_dat.obj
 0002:0000a090       ??_C@_0BN@PLPAGEIA@HMAC?5GOST?534?411?92012?5512?5bit@ 0000000000076850     OpensslLib:obj_dat.obj
 0002:0000a0b0       ??_C@_0P@BJHHGDD@id?9tc26?9cipher@ 0000000000076870     OpensslLib:obj_dat.obj
 0002:0000a0c0       ??_C@_0BC@DJLELDPH@id?9tc26?9agreement@ 0000000000076880     OpensslLib:obj_dat.obj
 0002:0000a0d8       ??_C@_0CF@JALEKNFA@id?9tc26?9agreement?9gost?93410?9201@ 0000000000076898     OpensslLib:obj_dat.obj
 0002:0000a100       ??_C@_0CF@GOAGPIDB@id?9tc26?9agreement?9gost?93410?9201@ 00000000000768c0     OpensslLib:obj_dat.obj
 0002:0000a128       ??_C@_0BC@CNAIEHBN@id?9tc26?9constants@ 00000000000768e8     OpensslLib:obj_dat.obj
 0002:0000a140       ??_C@_0BH@FMPMHLHM@id?9tc26?9sign?9constants@ 0000000000076900     OpensslLib:obj_dat.obj
 0002:0000a158       ??_C@_0CF@ONCEGCLN@id?9tc26?9gost?93410?92012?9512?9cons@ 0000000000076918     OpensslLib:obj_dat.obj
 0002:0000a180       ??_C@_0CI@GGHEPEIH@id?9tc26?9gost?93410?92012?9512?9para@ 0000000000076940     OpensslLib:obj_dat.obj
 0002:0000a1a8       ??_C@_0DC@INCJCNBI@GOST?5R?534?410?92012?5?$CI512?5bit?$CJ?5tes@ 0000000000076968     OpensslLib:obj_dat.obj
 0002:0000a1e0       ??_C@_0CF@PHGDEBIC@id?9tc26?9gost?93410?92012?9512?9para@ 00000000000769a0     OpensslLib:obj_dat.obj
 0002:0000a208       ??_C@_0CH@KEBIEEKM@GOST?5R?534?410?92012?5?$CI512?5bit?$CJ?5Par@ 00000000000769c8     OpensslLib:obj_dat.obj
 0002:0000a230       ??_C@_0CF@NMEOBCEB@id?9tc26?9gost?93410?92012?9512?9para@ 00000000000769f0     OpensslLib:obj_dat.obj
 0002:0000a258       ??_C@_0CH@IPDFBHGP@GOST?5R?534?410?92012?5?$CI512?5bit?$CJ?5Par@ 0000000000076a18     OpensslLib:obj_dat.obj
 0002:0000a280       ??_C@_0BJ@GEIKEFNA@id?9tc26?9digest?9constants@ 0000000000076a40     OpensslLib:obj_dat.obj
 0002:0000a2a0       ??_C@_0BJ@NHFOAFHC@id?9tc26?9cipher?9constants@ 0000000000076a60     OpensslLib:obj_dat.obj
 0002:0000a2c0       ??_C@_0BN@EAAGDAMM@id?9tc26?9gost?928147?9constants@ 0000000000076a80     OpensslLib:obj_dat.obj
 0002:0000a2e0       ??_C@_0BL@JJBMFHGO@id?9tc26?9gost?928147?9param?9Z@ 0000000000076aa0     OpensslLib:obj_dat.obj
 0002:0000a300       ??_C@_0CB@CNOGCECB@GOST?528147?989?5TC26?5parameter?5se@ 0000000000076ac0     OpensslLib:obj_dat.obj
 0002:0000a324       ??_C@_03CMFJPFBF@INN@      0000000000076ae4     OpensslLib:obj_dat.obj
 0002:0000a328       ??_C@_04OEHPDPKL@OGRN@     0000000000076ae8     OpensslLib:obj_dat.obj
 0002:0000a330       ??_C@_05CNOOKPKJ@SNILS@    0000000000076af0     OpensslLib:obj_dat.obj
 0002:0000a338       ??_C@_0BA@NDMKBCND@subjectSignTool@ 0000000000076af8     OpensslLib:obj_dat.obj
 0002:0000a348       ??_C@_0BI@GJCFDOKO@Signing?5Tool?5of?5Subject@ 0000000000076b08     OpensslLib:obj_dat.obj
 0002:0000a360       ??_C@_0P@DOAHENPB@issuerSignTool@ 0000000000076b20     OpensslLib:obj_dat.obj
 0002:0000a370       ??_C@_0BH@GHEABPMA@Signing?5Tool?5of?5Issuer@ 0000000000076b30     OpensslLib:obj_dat.obj
 0002:0000a388       ??_C@_0L@IBPHNLAN@gost89?9cbc@ 0000000000076b48     OpensslLib:obj_dat.obj
 0002:0000a398       ??_C@_0L@LMEFNPKH@gost89?9ecb@ 0000000000076b58     OpensslLib:obj_dat.obj
 0002:0000a3a8       ??_C@_0L@MKIFCHNP@gost89?9ctr@ 0000000000076b68     OpensslLib:obj_dat.obj
 0002:0000a3b8       ??_C@_0BA@BNIBKCOB@grasshopper?9ecb@ 0000000000076b78     OpensslLib:obj_dat.obj
 0002:0000a3c8       ??_C@_0BA@GLEBFKJJ@grasshopper?9ctr@ 0000000000076b88     OpensslLib:obj_dat.obj
 0002:0000a3d8       ??_C@_0BA@HEPHIAGO@grasshopper?9ofb@ 0000000000076b98     OpensslLib:obj_dat.obj
 0002:0000a3e8       ??_C@_0BA@CADDKGEL@grasshopper?9cbc@ 0000000000076ba8     OpensslLib:obj_dat.obj
 0002:0000a3f8       ??_C@_0BA@DOCBDPNG@grasshopper?9cfb@ 0000000000076bb8     OpensslLib:obj_dat.obj
 0002:0000a408       ??_C@_0BA@MCKKGPCB@grasshopper?9mac@ 0000000000076bc8     OpensslLib:obj_dat.obj
 0002:0000a418       ??_C@_0BC@PEKIBJLH@ChaCha20?9Poly1305@ 0000000000076bd8     OpensslLib:obj_dat.obj
 0002:0000a430       ??_C@_0BC@KDNKBNLK@chacha20?9poly1305@ 0000000000076bf0     OpensslLib:obj_dat.obj
 0002:0000a448       ??_C@_08ILJLPLOJ@ChaCha20@ 0000000000076c08     OpensslLib:obj_dat.obj
 0002:0000a458       ??_C@_08OMGHMHM@chacha20@  0000000000076c18     OpensslLib:obj_dat.obj
 0002:0000a468       ??_C@_0L@MLJIFHHA@tlsfeature@ 0000000000076c28     OpensslLib:obj_dat.obj
 0002:0000a478       ??_C@_0M@FNEPCNIJ@TLS?5Feature@ 0000000000076c38     OpensslLib:obj_dat.obj
 0002:0000a488       ??_C@_08KOCGPNOB@TLS1?9PRF@ 0000000000076c48     OpensslLib:obj_dat.obj
 0002:0000a498       ??_C@_08BHOHOJPE@tls1?9prf@ 0000000000076c58     OpensslLib:obj_dat.obj
 0002:0000a4a8       ??_C@_08JJANKCK@ipsecIKE@  0000000000076c68     OpensslLib:obj_dat.obj
 0002:0000a4b8       ??_C@_0BM@OPBJFEOG@ipsec?5Internet?5Key?5Exchange@ 0000000000076c78     OpensslLib:obj_dat.obj
 0002:0000a4d8       ??_C@_08PPHHBOBH@capwapAC@ 0000000000076c98     OpensslLib:obj_dat.obj
 0002:0000a4e8       ??_C@_0BK@IALCAIEG@Ctrl?1provision?5WAP?5Access@ 0000000000076ca8     OpensslLib:obj_dat.obj
 0002:0000a508       ??_C@_09FFIMBCDL@capwapWTP@ 0000000000076cc8     OpensslLib:obj_dat.obj
 0002:0000a518       ??_C@_0BP@LFGCKHED@Ctrl?1Provision?5WAP?5Termination@ 0000000000076cd8     OpensslLib:obj_dat.obj
 0002:0000a538       ??_C@_0BC@DBPEJOAM@secureShellClient@ 0000000000076cf8     OpensslLib:obj_dat.obj
 0002:0000a550       ??_C@_0L@CACOODCE@SSH?5Client@ 0000000000076d10     OpensslLib:obj_dat.obj
 0002:0000a560       ??_C@_0BC@HOLGEFIP@secureShellServer@ 0000000000076d20     OpensslLib:obj_dat.obj
 0002:0000a578       ??_C@_0L@GPGMDIKH@SSH?5Server@ 0000000000076d38     OpensslLib:obj_dat.obj
 0002:0000a588       ??_C@_0L@MPOEEOHI@sendRouter@ 0000000000076d48     OpensslLib:obj_dat.obj
 0002:0000a598       ??_C@_0M@BCAJACPB@Send?5Router@ 0000000000076d58     OpensslLib:obj_dat.obj
 0002:0000a5a8       ??_C@_0BC@KKHBJBOB@sendProxiedRouter@ 0000000000076d68     OpensslLib:obj_dat.obj
 0002:0000a5c0       ??_C@_0BE@JHOOFFHO@Send?5Proxied?5Router@ 0000000000076d80     OpensslLib:obj_dat.obj
 0002:0000a5d8       ??_C@_09JAHHKBGP@sendOwner@ 0000000000076d98     OpensslLib:obj_dat.obj
 0002:0000a5e8       ??_C@_0L@HAEHOBAA@Send?5Owner@ 0000000000076da8     OpensslLib:obj_dat.obj
 0002:0000a5f8       ??_C@_0BB@LFHBPODH@sendProxiedOwner@ 0000000000076db8     OpensslLib:obj_dat.obj
 0002:0000a610       ??_C@_0BD@PCCALGFC@Send?5Proxied?5Owner@ 0000000000076dd0     OpensslLib:obj_dat.obj
 0002:0000a628       ??_C@_09JPKOOJPP@id?9pkinit@ 0000000000076de8     OpensslLib:obj_dat.obj
 0002:0000a638       ??_C@_0BB@EPFMAKG@pkInitClientAuth@ 0000000000076df8     OpensslLib:obj_dat.obj
 0002:0000a650       ??_C@_0BD@EMKKJPI@PKINIT?5Client?5Auth@ 0000000000076e10     OpensslLib:obj_dat.obj
 0002:0000a668       ??_C@_09BKCKBNGN@pkInitKDC@ 0000000000076e28     OpensslLib:obj_dat.obj
 0002:0000a678       ??_C@_0BF@JILKFMLF@Signing?5KDC?5Response@ 0000000000076e38     OpensslLib:obj_dat.obj
 0002:0000a690       ??_C@_06LOACBMIP@X25519@   0000000000076e50     OpensslLib:obj_dat.obj
 0002:0000a698       ??_C@_04HKAKBCKJ@X448@     0000000000076e58     OpensslLib:obj_dat.obj
 0002:0000a6a0       ??_C@_04MMPLAJMJ@HKDF@     0000000000076e60     OpensslLib:obj_dat.obj
 0002:0000a6a8       ??_C@_04MBOLLB@hkdf@       0000000000076e68     OpensslLib:obj_dat.obj
 0002:0000a6b0       ??_C@_05EJMCGHJ@KxRSA@     0000000000076e70     OpensslLib:obj_dat.obj
 0002:0000a6b8       ??_C@_06NOGFLIHP@kx?9rsa@  0000000000076e78     OpensslLib:obj_dat.obj
 0002:0000a6c0       ??_C@_07JGJKHBHF@KxECDHE@  0000000000076e80     OpensslLib:obj_dat.obj
 0002:0000a6c8       ??_C@_08HKLONAAL@kx?9ecdhe@ 0000000000076e88     OpensslLib:obj_dat.obj
 0002:0000a6d4       ??_C@_05FPBKHKP@KxDHE@     0000000000076e94     OpensslLib:obj_dat.obj
 0002:0000a6dc       ??_C@_06NPAIDJKJ@kx?9dhe@  0000000000076e9c     OpensslLib:obj_dat.obj
 0002:0000a6e8       ??_C@_0M@BEDLOEBI@KxECDHE?9PSK@ 0000000000076ea8     OpensslLib:obj_dat.obj
 0002:0000a6f8       ??_C@_0N@BCMOIGGJ@kx?9ecdhe?9psk@ 0000000000076eb8     OpensslLib:obj_dat.obj
 0002:0000a708       ??_C@_09DLNJIEPF@KxDHE?9PSK@ 0000000000076ec8     OpensslLib:obj_dat.obj
 0002:0000a718       ??_C@_0L@EHLMOCJB@kx?9dhe?9psk@ 0000000000076ed8     OpensslLib:obj_dat.obj
 0002:0000a728       ??_C@_09PMFHIFNE@KxRSA_PSK@ 0000000000076ee8     OpensslLib:obj_dat.obj
 0002:0000a738       ??_C@_0L@DCAFABP@kx?9rsa?9psk@ 0000000000076ef8     OpensslLib:obj_dat.obj
 0002:0000a744       ??_C@_05FEHKAGHI@KxPSK@    0000000000076f04     OpensslLib:obj_dat.obj
 0002:0000a74c       ??_C@_06IOIDJIHO@kx?9psk@  0000000000076f0c     OpensslLib:obj_dat.obj
 0002:0000a754       ??_C@_05OODLAIDL@KxSRP@    0000000000076f14     OpensslLib:obj_dat.obj
 0002:0000a75c       ??_C@_06DEMCJGDN@kx?9srp@  0000000000076f1c     OpensslLib:obj_dat.obj
 0002:0000a764       ??_C@_06FKGHEKCF@KxGOST@   0000000000076f24     OpensslLib:obj_dat.obj
 0002:0000a770       ??_C@_07CGFKDCCM@kx?9gost@ 0000000000076f30     OpensslLib:obj_dat.obj
 0002:0000a778       ??_C@_07BONHEHLG@AuthRSA@  0000000000076f38     OpensslLib:obj_dat.obj
 0002:0000a780       ??_C@_08JIOIJHAA@auth?9rsa@ 0000000000076f40     OpensslLib:obj_dat.obj
 0002:0000a790       ??_C@_09JEFCHIOE@AuthECDSA@ 0000000000076f50     OpensslLib:obj_dat.obj
 0002:0000a7a0       ??_C@_0L@NNHEHHD@auth?9ecdsa@ 0000000000076f60     OpensslLib:obj_dat.obj
 0002:0000a7b0       ??_C@_07EODBGHLH@AuthPSK@  0000000000076f70     OpensslLib:obj_dat.obj
 0002:0000a7b8       ??_C@_08MIAOLHAB@auth?9psk@ 0000000000076f78     OpensslLib:obj_dat.obj
 0002:0000a7c8       ??_C@_07BDFBDPCG@AuthDSS@  0000000000076f88     OpensslLib:obj_dat.obj
 0002:0000a7d0       ??_C@_08JFGOOPJA@auth?9dss@ 0000000000076f90     OpensslLib:obj_dat.obj
 0002:0000a7e0       ??_C@_0L@JLNHNDLF@AuthGOST01@ 0000000000076fa0     OpensslLib:obj_dat.obj
 0002:0000a7f0       ??_C@_0M@MNGIBGIN@auth?9gost01@ 0000000000076fb0     OpensslLib:obj_dat.obj
 0002:0000a800       ??_C@_0L@LBDIOKEB@AuthGOST12@ 0000000000076fc0     OpensslLib:obj_dat.obj
 0002:0000a810       ??_C@_0M@OHIHCPHJ@auth?9gost12@ 0000000000076fd0     OpensslLib:obj_dat.obj
 0002:0000a820       ??_C@_07PEHAGJPE@AuthSRP@  0000000000076fe0     OpensslLib:obj_dat.obj
 0002:0000a828       ??_C@_08HCEPLJEC@auth?9srp@ 0000000000076fe8     OpensslLib:obj_dat.obj
 0002:0000a838       ??_C@_08PGHDHHPL@AuthNULL@ 0000000000076ff8     OpensslLib:obj_dat.obj
 0002:0000a848       ??_C@_09EBHDHKDA@auth?9null@ 0000000000077008     OpensslLib:obj_dat.obj
 0002:0000a858       ??_C@_0L@JAJLMLPM@BLAKE2b512@ 0000000000077018     OpensslLib:obj_dat.obj
 0002:0000a868       ??_C@_0L@ONGAJOJC@blake2b512@ 0000000000077028     OpensslLib:obj_dat.obj
 0002:0000a878       ??_C@_0L@DDKJCAKP@BLAKE2s256@ 0000000000077038     OpensslLib:obj_dat.obj
 0002:0000a888       ??_C@_0L@EOFCHFMB@blake2s256@ 0000000000077048     OpensslLib:obj_dat.obj
 0002:0000a898       ??_C@_0BO@OGCFEAKN@id?9smime?9ct?9contentCollection@ 0000000000077058     OpensslLib:obj_dat.obj
 0002:0000a8b8       ??_C@_0BO@INCMCPON@id?9smime?9ct?9authEnvelopedData@ 0000000000077078     OpensslLib:obj_dat.obj
 0002:0000a8d8       ??_C@_09GGALBJKN@id?9ct?9xml@ 0000000000077098     OpensslLib:obj_dat.obj
 0002:0000a8e8       ??_C@_08PKNBIDPH@Poly1305@ 00000000000770a8     OpensslLib:obj_dat.obj
 0002:0000a8f8       ??_C@_08HICAABFE@poly1305@ 00000000000770b8     OpensslLib:obj_dat.obj
 0002:0000a908       ??_C@_07EEPCGEAM@SipHash@  00000000000770c8     OpensslLib:obj_dat.obj
 0002:0000a910       ??_C@_07HMEFCJFO@siphash@  00000000000770d0     OpensslLib:obj_dat.obj
 0002:0000a918       ??_C@_05NANFHGHC@KxANY@    00000000000770d8     OpensslLib:obj_dat.obj
 0002:0000a920       ??_C@_06KCMOIHE@kx?9any@   00000000000770e0     OpensslLib:obj_dat.obj
 0002:0000a928       ??_C@_07MKJOBHLN@AuthANY@  00000000000770e8     OpensslLib:obj_dat.obj
 0002:0000a930       ??_C@_08EMKBMHAL@auth?9any@ 00000000000770f0     OpensslLib:obj_dat.obj
 0002:0000a940       ??_C@_0N@FEKJCEDM@ARIA?9128?9ECB@ 0000000000077100     OpensslLib:obj_dat.obj
 0002:0000a950       ??_C@_0N@DLNMPFEK@aria?9128?9ecb@ 0000000000077110     OpensslLib:obj_dat.obj
 0002:0000a960       ??_C@_0N@GJBLCAJG@ARIA?9128?9CBC@ 0000000000077120     OpensslLib:obj_dat.obj
 0002:0000a970       ??_C@_0N@GGOPBOA@aria?9128?9cbc@ 0000000000077130     OpensslLib:obj_dat.obj
 0002:0000a980       ??_C@_0N@HHAJLJAL@ARIA?9128?9CFB@ 0000000000077140     OpensslLib:obj_dat.obj
 0002:0000a990       ??_C@_0N@BIHMGIHN@aria?9128?9cfb@ 0000000000077150     OpensslLib:obj_dat.obj
 0002:0000a9a0       ??_C@_0N@DNNPAGLD@ARIA?9128?9OFB@ 0000000000077160     OpensslLib:obj_dat.obj
 0002:0000a9b0       ??_C@_0N@FCKKNHMF@aria?9128?9ofb@ 0000000000077170     OpensslLib:obj_dat.obj
 0002:0000a9c0       ??_C@_0N@CCGJNMEE@ARIA?9128?9CTR@ 0000000000077180     OpensslLib:obj_dat.obj
 0002:0000a9d0       ??_C@_0N@ENBMANDC@aria?9128?9ctr@ 0000000000077190     OpensslLib:obj_dat.obj
 0002:0000a9e0       ??_C@_0N@PHDFFDKA@ARIA?9192?9ECB@ 00000000000771a0     OpensslLib:obj_dat.obj
 0002:0000a9f0       ??_C@_0N@JIEAICNG@aria?9192?9ecb@ 00000000000771b0     OpensslLib:obj_dat.obj
 0002:0000aa00       ??_C@_0N@MKIHFHAK@ARIA?9192?9CBC@ 00000000000771c0     OpensslLib:obj_dat.obj
 0002:0000aa10       ??_C@_0N@KFPCIGHM@aria?9192?9cbc@ 00000000000771d0     OpensslLib:obj_dat.obj
 0002:0000aa20       ??_C@_0N@NEJFMOJH@ARIA?9192?9CFB@ 00000000000771e0     OpensslLib:obj_dat.obj
 0002:0000aa30       ??_C@_0N@LLOABPOB@aria?9192?9cfb@ 00000000000771f0     OpensslLib:obj_dat.obj
 0002:0000aa40       ??_C@_0N@JOEDHBCP@ARIA?9192?9OFB@ 0000000000077200     OpensslLib:obj_dat.obj
 0002:0000aa50       ??_C@_0N@PBDGKAFJ@aria?9192?9ofb@ 0000000000077210     OpensslLib:obj_dat.obj
 0002:0000aa60       ??_C@_0N@IBPFKLNI@ARIA?9192?9CTR@ 0000000000077220     OpensslLib:obj_dat.obj
 0002:0000aa70       ??_C@_0N@OOIAHKKO@aria?9192?9ctr@ 0000000000077230     OpensslLib:obj_dat.obj
 0002:0000aa80       ??_C@_0N@CFILHMCB@ARIA?9256?9ECB@ 0000000000077240     OpensslLib:obj_dat.obj
 0002:0000aa90       ??_C@_0N@EKPOKNFH@aria?9256?9ecb@ 0000000000077250     OpensslLib:obj_dat.obj
 0002:0000aaa0       ??_C@_0N@BIDJHIIL@ARIA?9256?9CBC@ 0000000000077260     OpensslLib:obj_dat.obj
 0002:0000aab0       ??_C@_0N@HHEMKJPN@aria?9256?9cbc@ 0000000000077270     OpensslLib:obj_dat.obj
 0002:0000aac0       ??_C@_0N@GCLOBBG@ARIA?9256?9CFB@ 0000000000077280     OpensslLib:obj_dat.obj
 0002:0000aad0       ??_C@_0N@GJFODAGA@aria?9256?9cfb@ 0000000000077290     OpensslLib:obj_dat.obj
 0002:0000aae0       ??_C@_0N@EMPNFOKO@ARIA?9256?9OFB@ 00000000000772a0     OpensslLib:obj_dat.obj
 0002:0000aaf0       ??_C@_0N@CDIIIPNI@aria?9256?9ofb@ 00000000000772b0     OpensslLib:obj_dat.obj
 0002:0000ab00       ??_C@_0N@FDELIEFJ@ARIA?9256?9CTR@ 00000000000772c0     OpensslLib:obj_dat.obj
 0002:0000ab10       ??_C@_0N@DMDOFFCP@aria?9256?9ctr@ 00000000000772d0     OpensslLib:obj_dat.obj
 0002:0000ab20       ??_C@_0O@FBPINHID@ARIA?9128?9CFB1@ 00000000000772e0     OpensslLib:obj_dat.obj
 0002:0000ab30       ??_C@_0O@OIPBHGFL@aria?9128?9cfb1@ 00000000000772f0     OpensslLib:obj_dat.obj
 0002:0000ab40       ??_C@_0O@KIOCJEJL@ARIA?9192?9CFB1@ 0000000000077300     OpensslLib:obj_dat.obj
 0002:0000ab50       ??_C@_0O@BBOLDFED@aria?9192?9cfb1@ 0000000000077310     OpensslLib:obj_dat.obj
 0002:0000ab60       ??_C@_0O@DCIPJJAC@ARIA?9256?9CFB1@ 0000000000077320     OpensslLib:obj_dat.obj
 0002:0000ab70       ??_C@_0O@ILIGDINK@aria?9256?9cfb1@ 0000000000077330     OpensslLib:obj_dat.obj
 0002:0000ab80       ??_C@_0O@IADKGMMK@ARIA?9128?9CFB8@ 0000000000077340     OpensslLib:obj_dat.obj
 0002:0000ab90       ??_C@_0O@DJDDMNBC@aria?9128?9cfb8@ 0000000000077350     OpensslLib:obj_dat.obj
 0002:0000aba0       ??_C@_0O@HJCACPNC@ARIA?9192?9CFB8@ 0000000000077360     OpensslLib:obj_dat.obj
 0002:0000abb0       ??_C@_0O@MACJIOAK@aria?9192?9cfb8@ 0000000000077370     OpensslLib:obj_dat.obj
 0002:0000abc0       ??_C@_0O@ODENCCEL@ARIA?9256?9CFB8@ 0000000000077380     OpensslLib:obj_dat.obj
 0002:0000abd0       ??_C@_0O@FKEEIDJD@aria?9256?9cfb8@ 0000000000077390     OpensslLib:obj_dat.obj
 0002:0000abe0       ??_C@_0CB@IFNLAOKJ@id?9smime?9aa?9signingCertificateV@ 00000000000773a0     OpensslLib:obj_dat.obj
 0002:0000ac08       ??_C@_07IHEPCGKL@ED25519@  00000000000773c8     OpensslLib:obj_dat.obj
 0002:0000ac10       ??_C@_05PHGPKFEL@ED448@    00000000000773d0     OpensslLib:obj_dat.obj
 0002:0000ac18       ??_C@_0BH@IMGBFLPH@organizationIdentifier@ 00000000000773d8     OpensslLib:obj_dat.obj
 0002:0000ac30       ??_C@_02LOEEDGKE@c3@       00000000000773f0     OpensslLib:obj_dat.obj
 0002:0000ac38       ??_C@_0O@FPCOELAL@countryCode3c@ 00000000000773f8     OpensslLib:obj_dat.obj
 0002:0000ac48       ??_C@_02LGJMKFPH@n3@       0000000000077408     OpensslLib:obj_dat.obj
 0002:0000ac50       ??_C@_0O@OKIADFEG@countryCode3n@ 0000000000077410     OpensslLib:obj_dat.obj
 0002:0000ac60       ??_C@_07KEJPHHNP@dnsName@  0000000000077420     OpensslLib:obj_dat.obj
 0002:0000ac68       ??_C@_0BB@NCOFGOBL@x509ExtAdmission@ 0000000000077428     OpensslLib:obj_dat.obj
 0002:0000ac80       ??_C@_0DA@NCCMDEGO@Professional?5Information?5or?5bas@ 0000000000077440     OpensslLib:obj_dat.obj
 0002:0000acb0       ??_C@_0L@EEJNOJOJ@SHA512?9224@ 0000000000077470     OpensslLib:obj_dat.obj
 0002:0000acc0       ??_C@_0L@PKNOHEN@sha512?9224@ 0000000000077480     OpensslLib:obj_dat.obj
 0002:0000acd0       ??_C@_0L@HDOEJNOO@SHA512?9256@ 0000000000077490     OpensslLib:obj_dat.obj
 0002:0000ace0       ??_C@_0L@DINEJDEK@sha512?9256@ 00000000000774a0     OpensslLib:obj_dat.obj
 0002:0000acf0       ??_C@_08DHHFFNOC@SHA3?9224@ 00000000000774b0     OpensslLib:obj_dat.obj
 0002:0000ad00       ??_C@_08IDEPIEIL@sha3?9224@ 00000000000774c0     OpensslLib:obj_dat.obj
 0002:0000ad10       ??_C@_08MCJOF@SHA3?9256@   00000000000774d0     OpensslLib:obj_dat.obj
 0002:0000ad20       ??_C@_08LEDGPAIM@sha3?9256@ 00000000000774e0     OpensslLib:obj_dat.obj
 0002:0000ad30       ??_C@_08ICFOLPFB@SHA3?9384@ 00000000000774f0     OpensslLib:obj_dat.obj
 0002:0000ad40       ??_C@_08DGGEGGDI@sha3?9384@ 0000000000077500     OpensslLib:obj_dat.obj
 0002:0000ad50       ??_C@_08POLOHMIE@SHA3?9512@ 0000000000077510     OpensslLib:obj_dat.obj
 0002:0000ad60       ??_C@_08EKIEKFON@sha3?9512@ 0000000000077520     OpensslLib:obj_dat.obj
 0002:0000ad70       ??_C@_08MHEGAOCA@SHAKE128@ 0000000000077530     OpensslLib:obj_dat.obj
 0002:0000ad80       ??_C@_08LFBBPNHL@shake128@ 0000000000077540     OpensslLib:obj_dat.obj
 0002:0000ad90       ??_C@_08EODPJKMF@SHAKE256@ 0000000000077550     OpensslLib:obj_dat.obj
 0002:0000ada0       ??_C@_08DMGIGJJO@shake256@ 0000000000077560     OpensslLib:obj_dat.obj
 0002:0000adb0       ??_C@_0BE@MGFGMONP@id?9hmacWithSHA3?9224@ 0000000000077570     OpensslLib:obj_dat.obj
 0002:0000adc8       ??_C@_0O@ICMEJKOD@hmac?9sha3?9224@ 0000000000077588     OpensslLib:obj_dat.obj
 0002:0000add8       ??_C@_0BE@PBCPLKNI@id?9hmacWithSHA3?9256@ 0000000000077598     OpensslLib:obj_dat.obj
 0002:0000adf0       ??_C@_0O@LFLNOOOE@hmac?9sha3?9256@ 00000000000775b0     OpensslLib:obj_dat.obj
 0002:0000ae00       ??_C@_0BE@HDHNCMGM@id?9hmacWithSHA3?9384@ 00000000000775c0     OpensslLib:obj_dat.obj
 0002:0000ae18       ??_C@_0O@DHOPHIFA@hmac?9sha3?9384@ 00000000000775d8     OpensslLib:obj_dat.obj
 0002:0000ae28       ??_C@_0BE@PJNOPLJ@id?9hmacWithSHA3?9512@ 00000000000775e8     OpensslLib:obj_dat.obj
 0002:0000ae40       ??_C@_0O@ELAPLLIF@hmac?9sha3?9512@ 0000000000077600     OpensslLib:obj_dat.obj
 0002:0000ae50       ??_C@_0BD@LAAPDDDN@id?9dsa?9with?9sha384@ 0000000000077610     OpensslLib:obj_dat.obj
 0002:0000ae68       ??_C@_0BA@NOAAHENE@dsa_with_SHA384@ 0000000000077628     OpensslLib:obj_dat.obj
 0002:0000ae78       ??_C@_0BD@MMOPPAOI@id?9dsa?9with?9sha512@ 0000000000077638     OpensslLib:obj_dat.obj
 0002:0000ae90       ??_C@_0BA@KCOALHAB@dsa_with_SHA512@ 0000000000077650     OpensslLib:obj_dat.obj
 0002:0000aea0       ??_C@_0BF@MEJGBMIA@id?9dsa?9with?9sha3?9224@ 0000000000077660     OpensslLib:obj_dat.obj
 0002:0000aeb8       ??_C@_0BC@KDJCOOBJ@dsa_with_SHA3?9224@ 0000000000077678     OpensslLib:obj_dat.obj
 0002:0000aed0       ??_C@_0BF@PDOPGIIH@id?9dsa?9with?9sha3?9256@ 0000000000077690     OpensslLib:obj_dat.obj
 0002:0000aee8       ??_C@_0BC@JEOLJKBO@dsa_with_SHA3?9256@ 00000000000776a8     OpensslLib:obj_dat.obj
 0002:0000af00       ??_C@_0BF@HBLNPODD@id?9dsa?9with?9sha3?9384@ 00000000000776c0     OpensslLib:obj_dat.obj
 0002:0000af18       ??_C@_0BC@BGLJAMKK@dsa_with_SHA3?9384@ 00000000000776d8     OpensslLib:obj_dat.obj
 0002:0000af30       ??_C@_0BF@NFNDNOG@id?9dsa?9with?9sha3?9512@ 00000000000776f0     OpensslLib:obj_dat.obj
 0002:0000af48       ??_C@_0BC@GKFJMPHP@dsa_with_SHA3?9512@ 0000000000077708     OpensslLib:obj_dat.obj
 0002:0000af60       ??_C@_0BH@CPKNOLKD@id?9ecdsa?9with?9sha3?9224@ 0000000000077720     OpensslLib:obj_dat.obj
 0002:0000af78       ??_C@_0BE@HAIIGEO@ecdsa_with_SHA3?9224@ 0000000000077738     OpensslLib:obj_dat.obj
 0002:0000af90       ??_C@_0BH@BINEJPKE@id?9ecdsa?9with?9sha3?9256@ 0000000000077750     OpensslLib:obj_dat.obj
 0002:0000afa8       ??_C@_0BE@DAHBPCEJ@ecdsa_with_SHA3?9256@ 0000000000077768     OpensslLib:obj_dat.obj
 0002:0000afc0       ??_C@_0BH@JKIGAJBA@id?9ecdsa?9with?9sha3?9384@ 0000000000077780     OpensslLib:obj_dat.obj
 0002:0000afd8       ??_C@_0BE@LCCDGEPN@ecdsa_with_SHA3?9384@ 0000000000077798     OpensslLib:obj_dat.obj
 0002:0000aff0       ??_C@_0BH@OGGGMKMF@id?9ecdsa?9with?9sha3?9512@ 00000000000777b0     OpensslLib:obj_dat.obj
 0002:0000b008       ??_C@_0BE@MOMDKHCI@ecdsa_with_SHA3?9512@ 00000000000777c8     OpensslLib:obj_dat.obj
 0002:0000b020       ??_C@_0CD@HOFJHNFO@id?9rsassa?9pkcs1?9v1_5?9with?9sha3?9@ 00000000000777e0     OpensslLib:obj_dat.obj
 0002:0000b048       ??_C@_0N@FBFOELEH@RSA?9SHA3?9224@ 0000000000077808     OpensslLib:obj_dat.obj
 0002:0000b058       ??_C@_0CD@EJCAAJFJ@id?9rsassa?9pkcs1?9v1_5?9with?9sha3?9@ 0000000000077818     OpensslLib:obj_dat.obj
 0002:0000b080       ??_C@_0N@GGCHDPEA@RSA?9SHA3?9256@ 0000000000077840     OpensslLib:obj_dat.obj
 0002:0000b090       ??_C@_0CD@MLHCJPON@id?9rsassa?9pkcs1?9v1_5?9with?9sha3?9@ 0000000000077850     OpensslLib:obj_dat.obj
 0002:0000b0b8       ??_C@_0N@OEHFKJPE@RSA?9SHA3?9384@ 0000000000077878     OpensslLib:obj_dat.obj
 0002:0000b0c8       ??_C@_0CD@LHJCFMDI@id?9rsassa?9pkcs1?9v1_5?9with?9sha3?9@ 0000000000077888     OpensslLib:obj_dat.obj
 0002:0000b0f0       ??_C@_0N@JIJFGKCB@RSA?9SHA3?9512@ 00000000000778b0     OpensslLib:obj_dat.obj
 0002:0000b100       ??_C@_0N@PGFKGHCP@ARIA?9128?9CCM@ 00000000000778c0     OpensslLib:obj_dat.obj
 0002:0000b110       ??_C@_0N@JJCPLGFJ@aria?9128?9ccm@ 00000000000778d0     OpensslLib:obj_dat.obj
 0002:0000b120       ??_C@_0N@FFMGBALD@ARIA?9192?9CCM@ 00000000000778e0     OpensslLib:obj_dat.obj
 0002:0000b130       ??_C@_0N@DKLDMBMF@aria?9192?9ccm@ 00000000000778f0     OpensslLib:obj_dat.obj
 0002:0000b140       ??_C@_0N@IHHIDPDC@ARIA?9256?9CCM@ 0000000000077900     OpensslLib:obj_dat.obj
 0002:0000b150       ??_C@_0N@OIANOOEE@aria?9256?9ccm@ 0000000000077910     OpensslLib:obj_dat.obj
 0002:0000b160       ??_C@_0N@HJDIPAHI@ARIA?9128?9GCM@ 0000000000077920     OpensslLib:obj_dat.obj
 0002:0000b170       ??_C@_0N@BGENCBAO@aria?9128?9gcm@ 0000000000077930     OpensslLib:obj_dat.obj
 0002:0000b180       ??_C@_0N@NKKEIHOE@ARIA?9192?9GCM@ 0000000000077940     OpensslLib:obj_dat.obj
 0002:0000b190       ??_C@_0N@LFNBFGJC@aria?9192?9gcm@ 0000000000077950     OpensslLib:obj_dat.obj
 0002:0000b1a0       ??_C@_0N@IBKKIGF@ARIA?9256?9GCM@ 0000000000077960     OpensslLib:obj_dat.obj
 0002:0000b1b0       ??_C@_0N@GHGPHJBD@aria?9256?9gcm@ 0000000000077970     OpensslLib:obj_dat.obj
 0002:0000b1c0       ??_C@_09EEADMLEK@ffdhe2048@ 0000000000077980     OpensslLib:obj_dat.obj
 0002:0000b1d0       ??_C@_09IBMKLECJ@ffdhe3072@ 0000000000077990     OpensslLib:obj_dat.obj
 0002:0000b1e0       ??_C@_09FNBIIADH@ffdhe4096@ 00000000000779a0     OpensslLib:obj_dat.obj
 0002:0000b1f0       ??_C@_09KFIKEFOD@ffdhe6144@ 00000000000779b0     OpensslLib:obj_dat.obj
 0002:0000b200       ??_C@_09EEDIMPFH@ffdhe8192@ 00000000000779c0     OpensslLib:obj_dat.obj
 0002:0000b20c       ??_C@_05BDNCIFGE@cmcCA@    00000000000779cc     OpensslLib:obj_dat.obj
 0002:0000b218       ??_C@_0BK@LBDJBFMP@CMC?5Certificate?5Authority@ 00000000000779d8     OpensslLib:obj_dat.obj
 0002:0000b234       ??_C@_05ODGEMCD@cmcRA@     00000000000779f4     OpensslLib:obj_dat.obj
 0002:0000b240       ??_C@_0BL@NBGEGOFM@CMC?5Registration?5Authority@ 0000000000077a00     OpensslLib:obj_dat.obj
 0002:0000b260       ??_C@_07NOELNIBF@SM4?9ECB@ 0000000000077a20     OpensslLib:obj_dat.obj
 0002:0000b268       ??_C@_07OFHLEOKD@sm4?9ecb@ 0000000000077a28     OpensslLib:obj_dat.obj
 0002:0000b270       ??_C@_07ODPJNMLP@SM4?9CBC@ 0000000000077a30     OpensslLib:obj_dat.obj
 0002:0000b278       ??_C@_07NIMJEKAJ@sm4?9cbc@ 0000000000077a38     OpensslLib:obj_dat.obj
 0002:0000b280       ??_C@_07LHDNPKJK@SM4?9OFB@ 0000000000077a40     OpensslLib:obj_dat.obj
 0002:0000b288       ??_C@_07IMANGMCM@sm4?9ofb@ 0000000000077a48     OpensslLib:obj_dat.obj
 0002:0000b290       ??_C@_08BDMAKNBD@SM4?9CFB1@ 0000000000077a50     OpensslLib:obj_dat.obj
 0002:0000b2a0       ??_C@_08DBPJILDM@sm4?9cfb1@ 0000000000077a60     OpensslLib:obj_dat.obj
 0002:0000b2b0       ??_C@_07PNOLEFCC@SM4?9CFB@ 0000000000077a70     OpensslLib:obj_dat.obj
 0002:0000b2b8       ??_C@_07MGNLNDJE@sm4?9cfb@ 0000000000077a78     OpensslLib:obj_dat.obj
 0002:0000b2c0       ??_C@_08MCACBGFK@SM4?9CFB8@ 0000000000077a80     OpensslLib:obj_dat.obj
 0002:0000b2d0       ??_C@_08OADLDAHF@sm4?9cfb8@ 0000000000077a90     OpensslLib:obj_dat.obj
 0002:0000b2e0       ??_C@_07KIILCAGN@SM4?9CTR@ 0000000000077aa0     OpensslLib:obj_dat.obj
 0002:0000b2e8       ??_C@_07JDLLLGNL@sm4?9ctr@ 0000000000077aa8     OpensslLib:obj_dat.obj
 0002:0000b2f0       ??_C@_06KNMHIDBL@ISO?9CN@  0000000000077ab0     OpensslLib:obj_dat.obj
 0002:0000b2f8       ??_C@_0BD@GLPDOOPB@ISO?5CN?5Member?5Body@ 0000000000077ab8     OpensslLib:obj_dat.obj
 0002:0000b30c       ??_C@_05BGAJAOLO@oscca@    0000000000077acc     OpensslLib:obj_dat.obj
 0002:0000b318       ??_C@_09GAILPDAI@sm?9scheme@ 0000000000077ad8     OpensslLib:obj_dat.obj
 0002:0000b324       ??_C@_03ILCKPLAM@SM3@      0000000000077ae4     OpensslLib:obj_dat.obj
 0002:0000b328       ??_C@_03BDFFBCNC@sm3@      0000000000077ae8     OpensslLib:obj_dat.obj
 0002:0000b330       ??_C@_07DHCHMOJE@RSA?9SM3@ 0000000000077af0     OpensslLib:obj_dat.obj
 0002:0000b338       ??_C@_0BF@LJEMNFBJ@sm3WithRSAEncryption@ 0000000000077af8     OpensslLib:obj_dat.obj
 0002:0000b350       ??_C@_0P@BJPJCBFP@RSA?9SHA512?1224@ 0000000000077b10     OpensslLib:obj_dat.obj
 0002:0000b360       ??_C@_0BM@OAMEHMHD@sha512?9224WithRSAEncryption@ 0000000000077b20     OpensslLib:obj_dat.obj
 0002:0000b380       ??_C@_0P@COIAFFFI@RSA?9SHA512?1256@ 0000000000077b40     OpensslLib:obj_dat.obj
 0002:0000b390       ??_C@_0BM@HFDENMBB@sha512?9256WithRSAEncryption@ 0000000000077b50     OpensslLib:obj_dat.obj
 0002:0000b3b0       ??_C@_0CF@ELFGJJJE@id?9tc26?9gost?93410?92012?9256?9cons@ 0000000000077b70     OpensslLib:obj_dat.obj
 0002:0000b3d8       ??_C@_0CF@FBBBLKKL@id?9tc26?9gost?93410?92012?9256?9para@ 0000000000077b98     OpensslLib:obj_dat.obj
 0002:0000b400       ??_C@_0CH@KHJMDINL@GOST?5R?534?410?92012?5?$CI256?5bit?$CJ?5Par@ 0000000000077bc0     OpensslLib:obj_dat.obj
 0002:0000b428       ??_C@_0CF@MFFFCDAA@id?9tc26?9gost?93410?92012?9512?9para@ 0000000000077be8     OpensslLib:obj_dat.obj
 0002:0000b450       ??_C@_0CH@JGCOCGCO@GOST?5R?534?410?92012?5?$CI512?5bit?$CJ?5Par@ 0000000000077c10     OpensslLib:obj_dat.obj
 0002:0000b478       ??_C@_06DCPEEABG@ISO?9UA@  0000000000077c38     OpensslLib:obj_dat.obj
 0002:0000b480       ??_C@_06LNLILMPE@ua?9pki@  0000000000077c40     OpensslLib:obj_dat.obj
 0002:0000b488       ??_C@_09LIAMILCI@dstu28147@ 0000000000077c48     OpensslLib:obj_dat.obj
 0002:0000b498       ??_C@_0BF@BOFOAMLJ@DSTU?5Gost?528147?92009@ 0000000000077c58     OpensslLib:obj_dat.obj
 0002:0000b4b0       ??_C@_0O@KAGMLFFF@dstu28147?9ofb@ 0000000000077c70     OpensslLib:obj_dat.obj
 0002:0000b4c0       ??_C@_0BO@NJFBFPDF@DSTU?5Gost?528147?92009?5OFB?5mode@ 0000000000077c80     OpensslLib:obj_dat.obj
 0002:0000b4e0       ??_C@_0O@OKLKAKON@dstu28147?9cfb@ 0000000000077ca0     OpensslLib:obj_dat.obj
 0002:0000b4f0       ??_C@_0BO@DPGFKMCB@DSTU?5Gost?528147?92009?5CFB?5mode@ 0000000000077cb0     OpensslLib:obj_dat.obj
 0002:0000b510       ??_C@_0P@LJDDBCOK@dstu28147?9wrap@ 0000000000077cd0     OpensslLib:obj_dat.obj
 0002:0000b520       ??_C@_0BO@GCIMDMBJ@DSTU?5Gost?528147?92009?5key?5wrap@ 0000000000077ce0     OpensslLib:obj_dat.obj
 0002:0000b540       ??_C@_0BC@NEKEGBFA@hmacWithDstu34311@ 0000000000077d00     OpensslLib:obj_dat.obj
 0002:0000b558       ??_C@_0BI@PPEFMJDF@HMAC?5DSTU?5Gost?534311?995@ 0000000000077d18     OpensslLib:obj_dat.obj
 0002:0000b570       ??_C@_09EMDIBIGK@dstu34311@ 0000000000077d30     OpensslLib:obj_dat.obj
 0002:0000b580       ??_C@_0BD@KEGEMFDO@DSTU?5Gost?534311?995@ 0000000000077d40     OpensslLib:obj_dat.obj
 0002:0000b598       ??_C@_0L@HJONHGCF@dstu4145le@ 0000000000077d58     OpensslLib:obj_dat.obj
 0002:0000b5a8       ??_C@_0BN@DLDIMCIJ@DSTU?54145?92002?5little?5endian@ 0000000000077d68     OpensslLib:obj_dat.obj
 0002:0000b5c8       ??_C@_0L@HDHDFLCP@dstu4145be@ 0000000000077d88     OpensslLib:obj_dat.obj
 0002:0000b5d8       ??_C@_0BK@JAHDELLE@DSTU?54145?92002?5big?5endian@ 0000000000077d98     OpensslLib:obj_dat.obj
 0002:0000b5f8       ??_C@_08CCOHEDD@uacurve0@  0000000000077db8     OpensslLib:obj_dat.obj
 0002:0000b608       ??_C@_0N@OIEODNOG@DSTU?5curve?50@ 0000000000077dc8     OpensslLib:obj_dat.obj
 0002:0000b618       ??_C@_08BLDFEFHC@uacurve1@ 0000000000077dd8     OpensslLib:obj_dat.obj
 0002:0000b628       ??_C@_0N@PBFFAMKH@DSTU?5curve?51@ 0000000000077de8     OpensslLib:obj_dat.obj
 0002:0000b638       ??_C@_08DABIBGLB@uacurve2@ 0000000000077df8     OpensslLib:obj_dat.obj
 0002:0000b648       ??_C@_0N@NKHIFPGE@DSTU?5curve?52@ 0000000000077e08     OpensslLib:obj_dat.obj
 0002:0000b658       ??_C@_08CJADCHPA@uacurve3@ 0000000000077e18     OpensslLib:obj_dat.obj
 0002:0000b668       ??_C@_0N@MDGDGOCF@DSTU?5curve?53@ 0000000000077e28     OpensslLib:obj_dat.obj
 0002:0000b678       ??_C@_08GGECLBDH@uacurve4@ 0000000000077e38     OpensslLib:obj_dat.obj
 0002:0000b688       ??_C@_0N@IMCCPIOC@DSTU?5curve?54@ 0000000000077e48     OpensslLib:obj_dat.obj
 0002:0000b698       ??_C@_08HPFJIAHG@uacurve5@ 0000000000077e58     OpensslLib:obj_dat.obj
 0002:0000b6a8       ??_C@_0N@JFDJMJKD@DSTU?5curve?55@ 0000000000077e68     OpensslLib:obj_dat.obj
 0002:0000b6b8       ??_C@_08FEHENDLF@uacurve6@ 0000000000077e78     OpensslLib:obj_dat.obj
 0002:0000b6c8       ??_C@_0N@LOBEJKGA@DSTU?5curve?56@ 0000000000077e88     OpensslLib:obj_dat.obj
 0002:0000b6d8       ??_C@_08ENGPOCPE@uacurve7@ 0000000000077e98     OpensslLib:obj_dat.obj
 0002:0000b6e8       ??_C@_0N@KHAPKLCB@DSTU?5curve?57@ 0000000000077ea8     OpensslLib:obj_dat.obj
 0002:0000b6f8       ??_C@_08MKPHPODL@uacurve8@ 0000000000077eb8     OpensslLib:obj_dat.obj
 0002:0000b708       ??_C@_0N@CAJHLHOO@DSTU?5curve?58@ 0000000000077ec8     OpensslLib:obj_dat.obj
 0002:0000b718       ??_C@_08NDOMMPHK@uacurve9@ 0000000000077ed8     OpensslLib:obj_dat.obj
 0002:0000b728       ??_C@_0N@DJIMIGKP@DSTU?5curve?59@ 0000000000077ee8     OpensslLib:obj_dat.obj
 0002:0000b738       ??_C@_04PHJBIMMG@ieee@     0000000000077ef8     OpensslLib:obj_dat.obj
 0002:0000b740       ??_C@_0L@LDKGPNGG@ieee?9siswg@ 0000000000077f00     OpensslLib:obj_dat.obj
 0002:0000b750       ??_C@_0CH@DHDAMGDO@IEEE?5Security?5in?5Storage?5Workin@ 0000000000077f10     OpensslLib:obj_dat.obj
 0002:0000b778       ??_C@_03JCDBMKEN@SM2@      0000000000077f38     OpensslLib:obj_dat.obj
 0002:0000b77c       ??_C@_03KEOCDJD@sm2@       0000000000077f3c     OpensslLib:obj_dat.obj
 0002:0000b780       ??_C@_0CE@MLINIGJF@id?9tc26?9cipher?9gostr3412?92015?9m@ 0000000000077f40     OpensslLib:obj_dat.obj
 0002:0000b7a8       ??_C@_0CN@OJMMMFNF@id?9tc26?9cipher?9gostr3412?92015?9m@ 0000000000077f68     OpensslLib:obj_dat.obj
 0002:0000b7d8       ??_C@_0DC@HJFGIJEF@id?9tc26?9cipher?9gostr3412?92015?9m@ 0000000000077f98     OpensslLib:obj_dat.obj
 0002:0000b810       ??_C@_0CJ@OIMAFCDH@id?9tc26?9cipher?9gostr3412?92015?9k@ 0000000000077fd0     OpensslLib:obj_dat.obj
 0002:0000b840       ??_C@_0DC@FCNHEHI@id?9tc26?9cipher?9gostr3412?92015?9k@ 0000000000078000     OpensslLib:obj_dat.obj
 0002:0000b878       ??_C@_0DH@OMEPNOK@id?9tc26?9cipher?9gostr3412?92015?9k@ 0000000000078038     OpensslLib:obj_dat.obj
 0002:0000b8b0       ??_C@_0N@NOHKDKEG@id?9tc26?9wrap@ 0000000000078070     OpensslLib:obj_dat.obj
 0002:0000b8c0       ??_C@_0CC@ICCBFKEK@id?9tc26?9wrap?9gostr3412?92015?9mag@ 0000000000078080     OpensslLib:obj_dat.obj
 0002:0000b8e8       ??_C@_0CJ@GAGBMOFA@id?9tc26?9wrap?9gostr3412?92015?9mag@ 00000000000780a8     OpensslLib:obj_dat.obj
 0002:0000b918       ??_C@_0CH@HODOOMNG@id?9tc26?9wrap?9gostr3412?92015?9kuz@ 00000000000780d8     OpensslLib:obj_dat.obj
 0002:0000b940       ??_C@_0CO@KKJKILDM@id?9tc26?9wrap?9gostr3412?92015?9kuz@ 0000000000078100     OpensslLib:obj_dat.obj
 0002:0000b970       ??_C@_0CF@HKDMOJGI@id?9tc26?9gost?93410?92012?9256?9para@ 0000000000078130     OpensslLib:obj_dat.obj
 0002:0000b998       ??_C@_0CH@IMLBGLBI@GOST?5R?534?410?92012?5?$CI256?5bit?$CJ?5Par@ 0000000000078158     OpensslLib:obj_dat.obj
 0002:0000b9c0       ??_C@_0CF@GDCHNICJ@id?9tc26?9gost?93410?92012?9256?9para@ 0000000000078180     OpensslLib:obj_dat.obj
 0002:0000b9e8       ??_C@_0CH@JFKKFKFJ@GOST?5R?534?410?92012?5?$CI256?5bit?$CJ?5Par@ 00000000000781a8     OpensslLib:obj_dat.obj
 0002:0000ba10       ??_C@_0CF@CMGGEOOO@id?9tc26?9gost?93410?92012?9256?9para@ 00000000000781d0     OpensslLib:obj_dat.obj
 0002:0000ba38       ??_C@_0CH@NKOLMMJO@GOST?5R?534?410?92012?5?$CI256?5bit?$CJ?5Par@ 00000000000781f8     OpensslLib:obj_dat.obj
 0002:0000ba60       ??_C@_09KIGAEFAO@magma?9ecb@ 0000000000078220     OpensslLib:obj_dat.obj
 0002:0000ba70       ??_C@_09NOKALNHG@magma?9ctr@ 0000000000078230     OpensslLib:obj_dat.obj
 0002:0000ba80       ??_C@_09MBBGGHIB@magma?9ofb@ 0000000000078240     OpensslLib:obj_dat.obj
 0002:0000ba90       ??_C@_09JFNCEBKE@magma?9cbc@ 0000000000078250     OpensslLib:obj_dat.obj
 0002:0000baa0       ??_C@_09ILMANIDJ@magma?9cfb@ 0000000000078260     OpensslLib:obj_dat.obj
 0002:0000bab0       ??_C@_09HHELIIMO@magma?9mac@ 0000000000078270     OpensslLib:obj_dat.obj
 0002:0000bac0       ??_C@_0BD@EJFCDPF@hmacWithSHA512?9224@ 0000000000078280     OpensslLib:obj_dat.obj
 0002:0000bad8       ??_C@_0BD@DDOMFHPC@hmacWithSHA512?9256@ 0000000000078298     OpensslLib:obj_dat.obj
 0002:0001c9e8       X509_NAME_it               00000000000891a8     OpensslLib:x_name.obj
 0002:0001ca18       ??_C@_06IEOJBDIK@object@   00000000000891d8     OpensslLib:x_name.obj
 0002:0001ca20       ??_C@_05MFEJDJP@value@     00000000000891e0     OpensslLib:x_name.obj
 0002:0001ca28       ??_C@_0BA@KEPIIMOE@X509_NAME_ENTRY@ 00000000000891e8     OpensslLib:x_name.obj
 0002:0001ca38       ??_C@_04IEOKPFHO@RDNS@     00000000000891f8     OpensslLib:x_name.obj
 0002:0001ca40       ??_C@_0BC@GJMCELDI@X509_NAME_ENTRIES@ 0000000000089200     OpensslLib:x_name.obj
 0002:0001ca54       ??_C@_04FABLJDN@Name@      0000000000089214     OpensslLib:x_name.obj
 0002:0001ca60       ??_C@_0BD@FDNDONGH@X509_NAME_INTERNAL@ 0000000000089220     OpensslLib:x_name.obj
 0002:0001ca78       ??_C@_09KGNJKBNF@X509_NAME@ 0000000000089238     OpensslLib:x_name.obj
 0002:0001ca84       ??_C@_02KEGNLNML@?0?5@     0000000000089244     OpensslLib:x_name.obj
 0002:0001caf0       X509_NAME_ENTRY_it         00000000000892b0     OpensslLib:x_name.obj
 0002:0001cbd8       ??_C@_05DFCJAACA@name?$DN@ 0000000000089398     OpensslLib:x509name.obj
 0002:0001cbe0       ??_C@_01KICIPPFI@?2@       00000000000893a0     OpensslLib:a_strex.obj
 0002:0001cbe4       ??_C@_02HDBGODGB@?2?2@     00000000000893a4     OpensslLib:a_strex.obj
 0002:0001cbe8       ??_C@_01IPJKGB@?$CD@       00000000000893a8     OpensslLib:a_strex.obj
 0002:0001cbec       ??_C@_01JLIPDDHJ@?3@       00000000000893ac     OpensslLib:a_strex.obj
 0002:0001cbf0       ??_C@_01BJJEKLCA@?$CC@     00000000000893b0     OpensslLib:a_strex.obj
 0002:0001cbf4       ??_C@_01EEMJAFIK@?6@       00000000000893b4     OpensslLib:a_strex.obj
 0002:0001cbf8       ??_C@_03NPBFACHO@?5?$CL?5@ 00000000000893b8     OpensslLib:a_strex.obj
 0002:0001cbfc       ??_C@_01IHBHIGKO@?0@       00000000000893bc     OpensslLib:a_strex.obj
 0002:0001cc00       ??_C@_01MIFGBAGJ@?$CL@     00000000000893c0     OpensslLib:a_strex.obj
 0002:0001cc04       ??_C@_02LNAEAIDO@?$DL?5@   00000000000893c4     OpensslLib:a_strex.obj
 0002:0001cc08       ??_C@_03MHLONNLM@?5?$DN?5@ 00000000000893c8     OpensslLib:a_strex.obj
 0002:0001cc0c       ??_C@_01NEMOKFLO@?$DN@     00000000000893cc     OpensslLib:a_strex.obj
 0002:0001cd30       ??_C@_0BB@JGGOGLEG@0123456789ABCDEF@ 00000000000894f0     OpensslLib:f_int.obj
 0002:0001cd48       RSAPublicKey_it            0000000000089508     OpensslLib:rsa_asn1.obj
 0002:0001cd78       RSAPrivateKey_it           0000000000089538     OpensslLib:rsa_asn1.obj
 0002:0001cda8       ??_C@_01KDCPPGHE@r@        0000000000089568     OpensslLib:rsa_asn1.obj
 0002:0001cdac       ??_C@_01LPLHEDKD@d@        000000000008956c     OpensslLib:rsa_asn1.obj
 0002:0001cdb0       ??_C@_01PFHFFBPC@t@        0000000000089570     OpensslLib:rsa_asn1.obj
 0002:0001cdb8       ??_C@_0P@LIGOHEON@RSA_PRIME_INFO@ 0000000000089578     OpensslLib:rsa_asn1.obj
 0002:0001cdc8       ??_C@_01EFFIKLCJ@n@        0000000000089588     OpensslLib:rsa_asn1.obj
 0002:0001cdcc       ??_C@_01KGKMHCOC@e@        000000000008958c     OpensslLib:rsa_asn1.obj
 0002:0001cdd0       ??_C@_01JBBJJEPG@p@        0000000000089590     OpensslLib:rsa_asn1.obj
 0002:0001cdd4       ??_C@_01IIACKFLH@q@        0000000000089594     OpensslLib:rsa_asn1.obj
 0002:0001cdd8       ??_C@_04OIPJJFD@dmp1@      0000000000089598     OpensslLib:rsa_asn1.obj
 0002:0001cde0       ??_C@_04PENPDGE@dmq1@      00000000000895a0     OpensslLib:rsa_asn1.obj
 0002:0001cde8       ??_C@_04BBEMPLKC@iqmp@     00000000000895a8     OpensslLib:rsa_asn1.obj
 0002:0001cdf0       ??_C@_0M@JLELLENH@prime_infos@ 00000000000895b0     OpensslLib:rsa_asn1.obj
 0002:0001ce00       ??_C@_0O@PHAOOKLC@RSAPrivateKey@ 00000000000895c0     OpensslLib:rsa_asn1.obj
 0002:0001ce10       ??_C@_0N@BFBLLDFG@RSAPublicKey@ 00000000000895d0     OpensslLib:rsa_asn1.obj
 0002:0001ce20       ??_C@_0O@DHJLLKEK@hashAlgorithm@ 00000000000895e0     OpensslLib:rsa_asn1.obj
 0002:0001ce30       ??_C@_0BB@KKPGFJED@maskGenAlgorithm@ 00000000000895f0     OpensslLib:rsa_asn1.obj
 0002:0001ce48       ??_C@_0L@PKGNFOCE@saltLength@ 0000000000089608     OpensslLib:rsa_asn1.obj
 0002:0001ce58       ??_C@_0N@KGDDKMLA@trailerField@ 0000000000089618     OpensslLib:rsa_asn1.obj
 0002:0001ce68       ??_C@_0P@PJJHDFJB@RSA_PSS_PARAMS@ 0000000000089628     OpensslLib:rsa_asn1.obj
 0002:0001d058       RSA_PRIME_INFO_it          0000000000089818     OpensslLib:rsa_asn1.obj
 0002:0001d130       RSA_PSS_PARAMS_it          00000000000898f0     OpensslLib:rsa_asn1.obj
 0002:0001d2c0       ASN1_OBJECT_it             0000000000089a80     OpensslLib:tasn_typ.obj
 0002:0001d2f0       ASN1_OCTET_STRING_it       0000000000089ab0     OpensslLib:tasn_typ.obj
 0002:0001d320       ASN1_GENERALIZEDTIME_it    0000000000089ae0     OpensslLib:tasn_typ.obj
 0002:0001d350       ASN1_FBOOLEAN_it           0000000000089b10     OpensslLib:tasn_typ.obj
 0002:0001d380       ASN1_INTEGER_it            0000000000089b40     OpensslLib:tasn_typ.obj
 0002:0001d3b0       ASN1_BIT_STRING_it         0000000000089b70     OpensslLib:tasn_typ.obj
 0002:0001d3e0       ASN1_OCTET_STRING_NDEF_it  0000000000089ba0     OpensslLib:tasn_typ.obj
 0002:0001d410       ASN1_ANY_it                0000000000089bd0     OpensslLib:tasn_typ.obj
 0002:0001d440       ASN1_PRINTABLE_it          0000000000089c00     OpensslLib:tasn_typ.obj
 0002:0001d470       ??_C@_0BC@PEBEKNCO@ASN1_OCTET_STRING@ 0000000000089c30     OpensslLib:tasn_typ.obj
 0002:0001d488       ??_C@_0N@KIGEHGKE@ASN1_INTEGER@ 0000000000089c48     OpensslLib:tasn_typ.obj
 0002:0001d498       ??_C@_0BA@CLGIIAJD@ASN1_ENUMERATED@ 0000000000089c58     OpensslLib:tasn_typ.obj
 0002:0001d4a8       ??_C@_0BA@LJHGDIKH@ASN1_BIT_STRING@ 0000000000089c68     OpensslLib:tasn_typ.obj
 0002:0001d4b8       ??_C@_0BA@LEPDCAOC@ASN1_UTF8STRING@ 0000000000089c78     OpensslLib:tasn_typ.obj
 0002:0001d4c8       ??_C@_0BF@CPDMNKCA@ASN1_PRINTABLESTRING@ 0000000000089c88     OpensslLib:tasn_typ.obj
 0002:0001d4e0       ??_C@_0P@KBFNFBLB@ASN1_IA5STRING@ 0000000000089ca0     OpensslLib:tasn_typ.obj
 0002:0001d4f0       ??_C@_0BF@MPJFOIHC@ASN1_GENERALIZEDTIME@ 0000000000089cb0     OpensslLib:tasn_typ.obj
 0002:0001d508       ??_C@_09NHFFCPKK@ASN1_NULL@ 0000000000089cc8     OpensslLib:tasn_typ.obj
 0002:0001d518       ??_C@_0M@BJNOJGBL@ASN1_OBJECT@ 0000000000089cd8     OpensslLib:tasn_typ.obj
 0002:0001d528       ??_C@_08FIDCPDIJ@ASN1_ANY@ 0000000000089ce8     OpensslLib:tasn_typ.obj
 0002:0001d538       ??_C@_0O@NJFCFMGE@ASN1_SEQUENCE@ 0000000000089cf8     OpensslLib:tasn_typ.obj
 0002:0001d548       ??_C@_0P@NDKOCAEJ@ASN1_PRINTABLE@ 0000000000089d08     OpensslLib:tasn_typ.obj
 0002:0001d558       ??_C@_0M@FANFDIEE@DISPLAYTEXT@ 0000000000089d18     OpensslLib:tasn_typ.obj
 0002:0001d568       ??_C@_0BA@CBHCBCAE@DIRECTORYSTRING@ 0000000000089d28     OpensslLib:tasn_typ.obj
 0002:0001d578       ??_C@_0N@HMAPMMGF@ASN1_BOOLEAN@ 0000000000089d38     OpensslLib:tasn_typ.obj
 0002:0001d588       ??_C@_0O@JKANHMPI@ASN1_FBOOLEAN@ 0000000000089d48     OpensslLib:tasn_typ.obj
 0002:0001d598       ??_C@_0BH@HEBAELGA@ASN1_OCTET_STRING_NDEF@ 0000000000089d58     OpensslLib:tasn_typ.obj
 0002:0001d5b0       ??_C@_0BC@COPGMDLD@ASN1_SEQUENCE_ANY@ 0000000000089d70     OpensslLib:tasn_typ.obj
 0002:0001d5c8       ??_C@_0N@KHICOJGI@ASN1_SET_ANY@ 0000000000089d88     OpensslLib:tasn_typ.obj
 0002:0001d5d8       ASN1_NULL_it               0000000000089d98     OpensslLib:tasn_typ.obj
 0002:0001d608       ASN1_SEQUENCE_ANY_it       0000000000089dc8     OpensslLib:tasn_typ.obj
 0002:0001d638       ASN1_ENUMERATED_it         0000000000089df8     OpensslLib:tasn_typ.obj
 0002:0001d688       ASN1_BOOLEAN_it            0000000000089e48     OpensslLib:tasn_typ.obj
 0002:0001d6b8       ASN1_UTF8STRING_it         0000000000089e78     OpensslLib:tasn_typ.obj
 0002:0001d6e8       ASN1_SET_ANY_it            0000000000089ea8     OpensslLib:tasn_typ.obj
 0002:0001d738       ASN1_PRINTABLESTRING_it    0000000000089ef8     OpensslLib:tasn_typ.obj
 0002:0001d768       ASN1_IA5STRING_it          0000000000089f28     OpensslLib:tasn_typ.obj
 0002:0001d798       DIRECTORYSTRING_it         0000000000089f58     OpensslLib:tasn_typ.obj
 0002:0001d7c8       ASN1_SEQUENCE_it           0000000000089f88     OpensslLib:tasn_typ.obj
 0002:0001d7f8       DISPLAYTEXT_it             0000000000089fb8     OpensslLib:tasn_typ.obj
 0002:0001d828       ??_C@_07NHKPEHKF@?0?5Type?$DN@ 0000000000089fe8     OpensslLib:tasn_dec.obj
 0002:0001d830       ??_C@_06GPKHKFJE@Field?$DN@ 0000000000089ff0     OpensslLib:tasn_dec.obj
 0002:0001d838       ??_C@_05GCCLHHOK@Type?$DN@ 0000000000089ff8     OpensslLib:tasn_dec.obj
 0002:0001d8c0       X509_ALGOR_it              000000000008a080     OpensslLib:x_algor.obj
 0002:0001d8f0       ??_C@_09DAGAJHIH@parameter@ 000000000008a0b0     OpensslLib:x_algor.obj
 0002:0001d900       ??_C@_0L@BFHONDPK@X509_ALGOR@ 000000000008a0c0     OpensslLib:x_algor.obj
 0002:0001d950       X509_EXTENSION_it          000000000008a110     OpensslLib:x_exten.obj
 0002:0001d980       ??_C@_08CBBMEOFB@critical@ 000000000008a140     OpensslLib:x_exten.obj
 0002:0001d990       ??_C@_0P@OMHBNPIC@X509_EXTENSION@ 000000000008a150     OpensslLib:x_exten.obj
 0002:0001da00       GENERAL_NAME_it            000000000008a1c0     OpensslLib:v3_genn.obj
 0002:0001da30       ??_C@_07EEDOJOAA@type_id@  000000000008a1f0     OpensslLib:v3_genn.obj
 0002:0001da38       ??_C@_09MAFAINAH@OTHERNAME@ 000000000008a1f8     OpensslLib:v3_genn.obj
 0002:0001da48       ??_C@_0N@KBFEHHDO@nameAssigner@ 000000000008a208     OpensslLib:v3_genn.obj
 0002:0001da58       ??_C@_09EHIHAIPF@partyName@ 000000000008a218     OpensslLib:v3_genn.obj
 0002:0001da68       ??_C@_0N@GEILLNKP@EDIPARTYNAME@ 000000000008a228     OpensslLib:v3_genn.obj
 0002:0001da78       ??_C@_0M@FGIBMCEL@d?4otherName@ 000000000008a238     OpensslLib:v3_genn.obj
 0002:0001da88       ??_C@_0N@MMCCMIPN@d?4rfc822Name@ 000000000008a248     OpensslLib:v3_genn.obj
 0002:0001da98       ??_C@_09HIBJABFB@d?4dNSName@ 000000000008a258     OpensslLib:v3_genn.obj
 0002:0001daa8       ??_C@_0O@NKHOODFK@d?4x400Address@ 000000000008a268     OpensslLib:v3_genn.obj
 0002:0001dab8       ??_C@_0BA@JLDFBFLN@d?4directoryName@ 000000000008a278     OpensslLib:v3_genn.obj
 0002:0001dac8       ??_C@_0P@OBCPPLOL@d?4ediPartyName@ 000000000008a288     OpensslLib:v3_genn.obj
 0002:0001dad8       ??_C@_0BM@CMCMADCA@d?4uniformResourceIdentifier@ 000000000008a298     OpensslLib:v3_genn.obj
 0002:0001daf8       ??_C@_0M@PANAALJB@d?4iPAddress@ 000000000008a2b8     OpensslLib:v3_genn.obj
 0002:0001db08       ??_C@_0P@KIENIEMD@d?4registeredID@ 000000000008a2c8     OpensslLib:v3_genn.obj
 0002:0001db18       ??_C@_0N@JCNPGCGM@GENERAL_NAME@ 000000000008a2d8     OpensslLib:v3_genn.obj
 0002:0001db28       ??_C@_0N@CJKIBDLK@GeneralNames@ 000000000008a2e8     OpensslLib:v3_genn.obj
 0002:0001db38       ??_C@_0O@NFAAPMIG@GENERAL_NAMES@ 000000000008a2f8     OpensslLib:v3_genn.obj
 0002:0001db48       OTHERNAME_it               000000000008a308     OpensslLib:v3_genn.obj
 0002:0001dc20       GENERAL_NAMES_it           000000000008a3e0     OpensslLib:v3_genn.obj
 0002:0001dc50       EDIPARTYNAME_it            000000000008a410     OpensslLib:v3_genn.obj
 0002:0001dda0       ??_C@_06CBHGEMFM@?$DMNULL?$DO@ 000000000008a560     OpensslLib:err.obj
 0002:0001dda8       ??_C@_0L@IMDPAGCM@ssl_client@ 000000000008a568     OpensslLib:x509_vpm.obj
 0002:0001ddb8       ??_C@_0L@MDHNNNKP@ssl_server@ 000000000008a578     OpensslLib:x509_vpm.obj
 0002:0001dfd8       X509_CRL_it                000000000008a798     OpensslLib:x_crl.obj
 0002:0001e008       X509_CRL_INFO_it           000000000008a7c8     OpensslLib:x_crl.obj
 0002:0001e038       ??_C@_0P@HBDMPDNI@revocationDate@ 000000000008a7f8     OpensslLib:x_crl.obj
 0002:0001e048       ??_C@_0N@JBPKOADN@X509_REVOKED@ 000000000008a808     OpensslLib:x_crl.obj
 0002:0001e058       ??_C@_0L@MPDCJAIM@lastUpdate@ 000000000008a818     OpensslLib:x_crl.obj
 0002:0001e068       ??_C@_0L@BMOABHOK@nextUpdate@ 000000000008a828     OpensslLib:x_crl.obj
 0002:0001e078       ??_C@_07MIJFAMBD@revoked@  000000000008a838     OpensslLib:x_crl.obj
 0002:0001e080       ??_C@_0O@IMOAEKCP@X509_CRL_INFO@ 000000000008a840     OpensslLib:x_crl.obj
 0002:0001e090       ??_C@_08JGFBPDAP@X509_CRL@ 000000000008a850     OpensslLib:x_crl.obj
 0002:0001e0a0       X509_REVOKED_it            000000000008a860     OpensslLib:x_crl.obj
 0002:0001e2c0       ??_C@_0L@LCHPILLE@SSL?5client@ 000000000008aa80     OpensslLib:v3_purp.obj
 0002:0001e2d0       ??_C@_09BLMJDCHK@sslclient@ 000000000008aa90     OpensslLib:v3_purp.obj
 0002:0001e2e0       ??_C@_0L@PNDNFADH@SSL?5server@ 000000000008aaa0     OpensslLib:v3_purp.obj
 0002:0001e2f0       ??_C@_09FEILOJPJ@sslserver@ 000000000008aab0     OpensslLib:v3_purp.obj
 0002:0001e300       ??_C@_0BE@BPEJPGJG@Netscape?5SSL?5server@ 000000000008aac0     OpensslLib:v3_purp.obj
 0002:0001e318       ??_C@_0M@GKHHMMAE@nssslserver@ 000000000008aad8     OpensslLib:v3_purp.obj
 0002:0001e328       ??_C@_0P@LNDEBCCO@S?1MIME?5signing@ 000000000008aae8     OpensslLib:v3_purp.obj
 0002:0001e338       ??_C@_09JPGBHOKH@smimesign@ 000000000008aaf8     OpensslLib:v3_purp.obj
 0002:0001e348       ??_C@_0BC@DOGNOPGC@S?1MIME?5encryption@ 000000000008ab08     OpensslLib:v3_purp.obj
 0002:0001e360       ??_C@_0N@BPFJELMP@smimeencrypt@ 000000000008ab20     OpensslLib:v3_purp.obj
 0002:0001e370       ??_C@_0M@MEKLJHLA@CRL?5signing@ 000000000008ab30     OpensslLib:v3_purp.obj
 0002:0001e380       ??_C@_07IOMCDAPH@crlsign@  000000000008ab40     OpensslLib:v3_purp.obj
 0002:0001e388       ??_C@_0M@NMNFLNDB@Any?5Purpose@ 000000000008ab48     OpensslLib:v3_purp.obj
 0002:0001e394       ??_C@_03OBJFJEBA@any@      000000000008ab54     OpensslLib:v3_purp.obj
 0002:0001e398       ??_C@_0M@NEPIMEJA@OCSP?5helper@ 000000000008ab58     OpensslLib:v3_purp.obj
 0002:0001e3a8       ??_C@_0L@IMHCEJBK@ocsphelper@ 000000000008ab68     OpensslLib:v3_purp.obj
 0002:0001e3b8       ??_C@_0BD@HLGKGIIB@Time?5Stamp?5signing@ 000000000008ab78     OpensslLib:v3_purp.obj
 0002:0001e3d0       ??_C@_0O@MABGKINF@timestampsign@ 000000000008ab90     OpensslLib:v3_purp.obj
 0002:0001e410       ??_C@_0N@MJCHLFGM@NO?5X509_NAME@ 000000000008abd0     OpensslLib:x509_obj.obj
 0002:0001e420       X509_PUBKEY_it             000000000008abe0     OpensslLib:x_pubkey.obj
 0002:0001e450       ??_C@_05CJCEEADM@algor@    000000000008ac10     OpensslLib:x_pubkey.obj
 0002:0001e458       ??_C@_0L@PJCANJEE@public_key@ 000000000008ac18     OpensslLib:x_pubkey.obj
 0002:0001e468       ??_C@_0M@INJPOKDH@X509_PUBKEY@ 000000000008ac28     OpensslLib:x_pubkey.obj
 0002:0001e4e0       ASN1_TIME_it               000000000008aca0     OpensslLib:a_time.obj
 0002:0001e510       ??_C@_09DHMKJJNA@ASN1_TIME@ 000000000008acd0     OpensslLib:a_time.obj
 0002:0001e520       ??_C@_0BK@EMDNDBLP@?$CF04d?$CF02d?$CF02d?$CF02d?$CF02d?$CF02dZ@ 000000000008ace0     OpensslLib:a_time.obj
 0002:0001e540       ??_C@_0BK@PMAAGDOP@?$CF02d?$CF02d?$CF02d?$CF02d?$CF02d?$CF02dZ@ 000000000008ad00     OpensslLib:a_time.obj
 0002:0001e55c       ??_C@_04FIEKMBKB@?5GMT@    000000000008ad1c     OpensslLib:a_time.obj
 0002:0001e568       ??_C@_0BP@OGIOIJMK@?$CFs?5?$CF2d?5?$CF02d?3?$CF02d?3?$CF02d?$CF?4?$CKs?5?$CFd?$CFs@ 000000000008ad28     OpensslLib:a_time.obj
 0002:0001e588       ??_C@_0BL@NKCHLFNC@?$CFs?5?$CF2d?5?$CF02d?3?$CF02d?3?$CF02d?5?$CFd?$CFs@ 000000000008ad48     OpensslLib:a_time.obj
 0002:0001e5a8       ??_C@_0P@FGACABCD@Bad?5time?5value@ 000000000008ad68     OpensslLib:a_time.obj
 0002:0001e6b0       ??_C@_04HCDDPBNL@TRUE@     000000000008ae70     OpensslLib:v3_utl.obj
 0002:0001e6b8       ??_C@_05MAJJAKPI@FALSE@    000000000008ae78     OpensslLib:v3_utl.obj
 0002:0001e6c0       ??_C@_03EPGOEBGO@?90x@     000000000008ae80     OpensslLib:v3_utl.obj
 0002:0001e6c4       ??_C@_02MDDDDAID@0x@       000000000008ae84     OpensslLib:v3_utl.obj
 0002:0001e6c8       ??_C@_04LOAJBDKD@true@     000000000008ae88     OpensslLib:v3_utl.obj
 0002:0001e6d0       ??_C@_01NFFPALBN@Y@        000000000008ae90     OpensslLib:v3_utl.obj
 0002:0001e6d4       ??_C@_01EANLCPLP@y@        000000000008ae94     OpensslLib:v3_utl.obj
 0002:0001e6d8       ??_C@_03IPHJCBHH@YES@      000000000008ae98     OpensslLib:v3_utl.obj
 0002:0001e6dc       ??_C@_03ICICOMAL@yes@      000000000008ae9c     OpensslLib:v3_utl.obj
 0002:0001e6e0       ??_C@_05LAPONLG@false@     000000000008aea0     OpensslLib:v3_utl.obj
 0002:0001e6e8       ??_C@_01NANMIPIL@N@        000000000008aea8     OpensslLib:v3_utl.obj
 0002:0001e6ec       ??_C@_02NFLNFON@NO@        000000000008aeac     OpensslLib:v3_utl.obj
 0002:0001e6f0       ??_C@_02KAJCLHKP@no@       000000000008aeb0     OpensslLib:v3_utl.obj
 0002:0001e6f8       ??_C@_07BDICHDDB@?0value?3@ 000000000008aeb8     OpensslLib:v3_utl.obj
 0002:0001e700       ??_C@_06FONLLLNC@?0name?3@ 000000000008aec0     OpensslLib:v3_utl.obj
 0002:0001e708       ??_C@_08PCLJGJAL@section?3@ 000000000008aec8     OpensslLib:v3_utl.obj
 0002:0001e714       ??_C@_04DLDJKMIA@xn?9?9@   000000000008aed4     OpensslLib:v3_utl.obj
 0002:0001e720       ??_C@_0M@PCENNPGA@?$CFd?4?$CFd?4?$CFd?4?$CFd@ 000000000008aee0     OpensslLib:v3_utl.obj
 0002:0001e730       ??_C@_0L@JNOGJJCA@compatible@ 000000000008aef0     OpensslLib:x509_trs.obj
 0002:0001e740       ??_C@_0L@HNMCLCCI@SSL?5Client@ 000000000008af00     OpensslLib:x509_trs.obj
 0002:0001e750       ??_C@_0L@DCIAGJKL@SSL?5Server@ 000000000008af10     OpensslLib:x509_trs.obj
 0002:0001e760       ??_C@_0N@OEEPKGPL@S?1MIME?5email@ 000000000008af20     OpensslLib:x509_trs.obj
 0002:0001e770       ??_C@_0O@EEPBMPKP@Object?5Signer@ 000000000008af30     OpensslLib:x509_trs.obj
 0002:0001e780       ??_C@_0P@JHCOMJOI@OCSP?5responder@ 000000000008af40     OpensslLib:x509_trs.obj
 0002:0001e790       ??_C@_0N@CAJJAOJD@OCSP?5request@ 000000000008af50     OpensslLib:x509_trs.obj
 0002:0001e7a0       ??_C@_0L@CFEJKCOD@TSA?5server@ 000000000008af60     OpensslLib:x509_trs.obj
 0002:0001e7ac       ??_C@_04BHIIPFEC@base@     000000000008af6c     OpensslLib:v3_ncons.obj
 0002:0001e7b8       ??_C@_07CCOEHHFD@minimum@  000000000008af78     OpensslLib:v3_ncons.obj
 0002:0001e7c0       ??_C@_07MEIENILC@maximum@  000000000008af80     OpensslLib:v3_ncons.obj
 0002:0001e7c8       ??_C@_0BA@ECMIFHDE@GENERAL_SUBTREE@ 000000000008af88     OpensslLib:v3_ncons.obj
 0002:0001e7d8       ??_C@_0BC@FACFJLFB@permittedSubtrees@ 000000000008af98     OpensslLib:v3_ncons.obj
 0002:0001e7f0       ??_C@_0BB@HLFEMJKE@excludedSubtrees@ 000000000008afb0     OpensslLib:v3_ncons.obj
 0002:0001e808       ??_C@_0BB@MLLJAFMN@NAME_CONSTRAINTS@ 000000000008afc8     OpensslLib:v3_ncons.obj
 0002:0001e820       ??_C@_09HAKFOFAM@permitted@ 000000000008afe0     OpensslLib:v3_ncons.obj
 0002:0001e830       ??_C@_08HPCEJEEF@excluded@ 000000000008aff0     OpensslLib:v3_ncons.obj
 0002:0001e840       ??_C@_09DPPIOGNM@Permitted@ 000000000008b000     OpensslLib:v3_ncons.obj
 0002:0001e850       ??_C@_08PNNFBGOG@Excluded@ 000000000008b010     OpensslLib:v3_ncons.obj
 0002:0001e860       ??_C@_07GOIIHCND@?$CF?$CKs?$CFs?3?6@ 000000000008b020     OpensslLib:v3_ncons.obj
 0002:0001e868       ??_C@_03HIJPJGOM@?$CF?$CKs@ 000000000008b028     OpensslLib:v3_ncons.obj
 0002:0001e86c       ??_C@_03HBLCMHJN@IP?3@     000000000008b02c     OpensslLib:v3_ncons.obj
 0002:0001e870       ??_C@_01KMDKNFGN@?1@       000000000008b030     OpensslLib:v3_ncons.obj
 0002:0001e8c0       v3_name_constraints        000000000008b080     OpensslLib:v3_ncons.obj
 0002:0001e928       NAME_CONSTRAINTS_it        000000000008b0e8     OpensslLib:v3_ncons.obj
 0002:0001e9c0       GENERAL_SUBTREE_it         000000000008b180     OpensslLib:v3_ncons.obj
 0002:0001eaf0       ??_C@_08BMACPLOA@fullname@ 000000000008b2b0     OpensslLib:v3_crld.obj
 0002:0001eb00       ??_C@_0N@LGEOMMHB@relativename@ 000000000008b2c0     OpensslLib:v3_crld.obj
 0002:0001eb10       ??_C@_06CGLFEPBO@Unused@   000000000008b2d0     OpensslLib:v3_crld.obj
 0002:0001eb18       ??_C@_06OJAIHGIC@unused@   000000000008b2d8     OpensslLib:v3_crld.obj
 0002:0001eb20       ??_C@_0P@JENDIECI@Key?5Compromise@ 000000000008b2e0     OpensslLib:v3_crld.obj
 0002:0001eb30       ??_C@_0O@MCEAAJLH@keyCompromise@ 000000000008b2f0     OpensslLib:v3_crld.obj
 0002:0001eb40       ??_C@_0O@OOGICOKH@CA?5Compromise@ 000000000008b300     OpensslLib:v3_crld.obj
 0002:0001eb50       ??_C@_0N@NONEFGOE@CACompromise@ 000000000008b310     OpensslLib:v3_crld.obj
 0002:0001eb60       ??_C@_0BE@EECEIFAP@Affiliation?5Changed@ 000000000008b320     OpensslLib:v3_crld.obj
 0002:0001eb78       ??_C@_0BD@BNOFAJLL@affiliationChanged@ 000000000008b338     OpensslLib:v3_crld.obj
 0002:0001eb90       ??_C@_0L@FBLGFHIM@Superseded@ 000000000008b350     OpensslLib:v3_crld.obj
 0002:0001eba0       ??_C@_0L@NHCKNIFL@superseded@ 000000000008b360     OpensslLib:v3_crld.obj
 0002:0001ebb0       ??_C@_0BH@OLCOAMGF@Cessation?5Of?5Operation@ 000000000008b370     OpensslLib:v3_crld.obj
 0002:0001ebc8       ??_C@_0BF@IGJCOPF@cessationOfOperation@ 000000000008b388     OpensslLib:v3_crld.obj
 0002:0001ebe0       ??_C@_0BB@IPDHDNJD@Certificate?5Hold@ 000000000008b3a0     OpensslLib:v3_crld.obj
 0002:0001ebf8       ??_C@_0BA@FBHLCNLK@certificateHold@ 000000000008b3b8     OpensslLib:v3_crld.obj
 0002:0001ec08       ??_C@_0BE@FJCCMGMM@Privilege?5Withdrawn@ 000000000008b3c8     OpensslLib:v3_crld.obj
 0002:0001ec20       ??_C@_0BD@PBLGJKCE@privilegeWithdrawn@ 000000000008b3e0     OpensslLib:v3_crld.obj
 0002:0001ec38       ??_C@_0O@PAGOKAK@AA?5Compromise@ 000000000008b3f8     OpensslLib:v3_crld.obj
 0002:0001ec48       ??_C@_0N@LOIIODKP@AACompromise@ 000000000008b408     OpensslLib:v3_crld.obj
 0002:0001ec58       ??_C@_08DGFAABGD@?$DMEMPTY?$DO?6@ 000000000008b418     OpensslLib:v3_crld.obj
 0002:0001ec68       ??_C@_07PFOCLIJD@reasons@  000000000008b428     OpensslLib:v3_crld.obj
 0002:0001ec70       ??_C@_09GJHADLCP@CRLissuer@ 000000000008b430     OpensslLib:v3_crld.obj
 0002:0001ec80       ??_C@_0O@HJHJCLAE@name?4fullname@ 000000000008b440     OpensslLib:v3_crld.obj
 0002:0001ec90       ??_C@_0BC@JDMJBKME@name?4relativename@ 000000000008b450     OpensslLib:v3_crld.obj
 0002:0001eca8       ??_C@_0BA@MLHIPLLG@DIST_POINT_NAME@ 000000000008b468     OpensslLib:v3_crld.obj
 0002:0001ecb8       ??_C@_09FBDFGJDL@distpoint@ 000000000008b478     OpensslLib:v3_crld.obj
 0002:0001ecc8       ??_C@_0L@ELIKPJIH@DIST_POINT@ 000000000008b488     OpensslLib:v3_crld.obj
 0002:0001ecd8       ??_C@_0BG@CHNNADAE@CRLDistributionPoints@ 000000000008b498     OpensslLib:v3_crld.obj
 0002:0001ecf0       ??_C@_0BA@BBHAIMOE@CRL_DIST_POINTS@ 000000000008b4b0     OpensslLib:v3_crld.obj
 0002:0001ed00       ??_C@_08CENLBPEH@onlyuser@ 000000000008b4c0     OpensslLib:v3_crld.obj
 0002:0001ed0c       ??_C@_06PMNIEKCA@onlyCA@   000000000008b4cc     OpensslLib:v3_crld.obj
 0002:0001ed18       ??_C@_0BA@FNMBIJDN@onlysomereasons@ 000000000008b4d8     OpensslLib:v3_crld.obj
 0002:0001ed28       ??_C@_0M@BECDICJC@indirectCRL@ 000000000008b4e8     OpensslLib:v3_crld.obj
 0002:0001ed38       ??_C@_08DBIINPPL@onlyattr@ 000000000008b4f8     OpensslLib:v3_crld.obj
 0002:0001ed48       ??_C@_0BD@ENBCPHJ@ISSUING_DIST_POINT@ 000000000008b508     OpensslLib:v3_crld.obj
 0002:0001ed5c       ??_C@_06PPFMJOEO@onlyAA@   000000000008b51c     OpensslLib:v3_crld.obj
 0002:0001ee50       DIST_POINT_it              000000000008b610     OpensslLib:v3_crld.obj
 0002:0001ee80       v3_crld                    000000000008b640     OpensslLib:v3_crld.obj
 0002:0001eee8       DIST_POINT_NAME_it         000000000008b6a8     OpensslLib:v3_crld.obj
 0002:0001f010       ISSUING_DIST_POINT_it      000000000008b7d0     OpensslLib:v3_crld.obj
 0002:0001f040       v3_freshest_crl            000000000008b800     OpensslLib:v3_crld.obj
 0002:0001f0f0       v3_idp                     000000000008b8b0     OpensslLib:v3_crld.obj
 0002:0001f1c0       CRL_DIST_POINTS_it         000000000008b980     OpensslLib:v3_crld.obj
 0002:0001f218       ??_C@_05BMJJJIHB@trust@    000000000008b9d8     OpensslLib:x_x509a.obj
 0002:0001f220       ??_C@_06JPOFNODM@reject@   000000000008b9e0     OpensslLib:x_x509a.obj
 0002:0001f228       ??_C@_05NKHOCLEE@alias@    000000000008b9e8     OpensslLib:x_x509a.obj
 0002:0001f230       ??_C@_05CNHMOIOC@keyid@    000000000008b9f0     OpensslLib:x_x509a.obj
 0002:0001f238       ??_C@_05BGEKGIIP@other@    000000000008b9f8     OpensslLib:x_x509a.obj
 0002:0001f240       ??_C@_0O@LJIIOIG@X509_CERT_AUX@ 000000000008ba00     OpensslLib:x_x509a.obj
 0002:0001f2f0       X509_CERT_AUX_it           000000000008bab0     OpensslLib:x_x509a.obj
 0002:0001f320       ??_C@_0BA@OPHCNPAP@AUTHORITY_KEYID@ 000000000008bae0     OpensslLib:v3_akeya.obj
 0002:0001f330       AUTHORITY_KEYID_it         000000000008baf0     OpensslLib:v3_akeya.obj
 0002:0001f3c0       ??_C@_09MJPOMOII@notBefore@ 000000000008bb80     OpensslLib:x_val.obj
 0002:0001f3d0       ??_C@_08PJIFIJBI@notAfter@ 000000000008bb90     OpensslLib:x_val.obj
 0002:0001f3e0       ??_C@_08OPPGEJIL@X509_VAL@ 000000000008bba0     OpensslLib:x_val.obj
 0002:0001f430       X509_VAL_it                000000000008bbf0     OpensslLib:x_val.obj
 0002:0001f460       ??_C@_02DKCKIIND@?$CFs@    000000000008bc20     OpensslLib:asn_mime.obj
 0002:0001f464       ??_C@_02MFDMBIJM@ok@       000000000008bc24     OpensslLib:x509_txt.obj
 0002:0001f468       ??_C@_0CL@ICDMHEOH@unspecified?5certificate?5verific@ 000000000008bc28     OpensslLib:x509_txt.obj
 0002:0001f498       ??_C@_0CB@KFJODNFN@unable?5to?5get?5issuer?5certificat@ 000000000008bc58     OpensslLib:x509_txt.obj
 0002:0001f4c0       ??_C@_0BO@CIOBDJGN@unable?5to?5get?5certificate?5CRL@ 000000000008bc80     OpensslLib:x509_txt.obj
 0002:0001f4e0       ??_C@_0CK@LBDBBNHI@unable?5to?5decrypt?5certificate?8s@ 000000000008bca0     OpensslLib:x509_txt.obj
 0002:0001f510       ??_C@_0CC@KFEPDDPF@unable?5to?5decrypt?5CRL?8s?5signatu@ 000000000008bcd0     OpensslLib:x509_txt.obj
 0002:0001f538       ??_C@_0CD@KOEKDJOF@unable?5to?5decode?5issuer?5public?5@ 000000000008bcf8     OpensslLib:x509_txt.obj
 0002:0001f560       ??_C@_0BO@FPBBKLNG@certificate?5signature?5failure@ 000000000008bd20     OpensslLib:x509_txt.obj
 0002:0001f580       ??_C@_0BG@PKEGLGEB@CRL?5signature?5failure@ 000000000008bd40     OpensslLib:x509_txt.obj
 0002:0001f598       ??_C@_0BN@JFLHFAGA@certificate?5is?5not?5yet?5valid@ 000000000008bd58     OpensslLib:x509_txt.obj
 0002:0001f5b8       ??_C@_0BI@HHICNLNC@certificate?5has?5expired@ 000000000008bd78     OpensslLib:x509_txt.obj
 0002:0001f5d0       ??_C@_0BF@MIBPKMEH@CRL?5is?5not?5yet?5valid@ 000000000008bd90     OpensslLib:x509_txt.obj
 0002:0001f5e8       ??_C@_0BA@JMGDIGAP@CRL?5has?5expired@ 000000000008bda8     OpensslLib:x509_txt.obj
 0002:0001f5f8       ??_C@_0CO@BGGBNHHG@format?5error?5in?5certificate?8s?5n@ 000000000008bdb8     OpensslLib:x509_txt.obj
 0002:0001f628       ??_C@_0CN@NPHCNDGF@format?5error?5in?5certificate?8s?5n@ 000000000008bde8     OpensslLib:x509_txt.obj
 0002:0001f658       ??_C@_0CH@OEGANADM@format?5error?5in?5CRL?8s?5lastUpdat@ 000000000008be18     OpensslLib:x509_txt.obj
 0002:0001f680       ??_C@_0CH@DKJJKKIC@format?5error?5in?5CRL?8s?5nextUpdat@ 000000000008be40     OpensslLib:x509_txt.obj
 0002:0001f6a8       ??_C@_0O@BNNCBLEN@out?5of?5memory@ 000000000008be68     OpensslLib:x509_txt.obj
 0002:0001f6b8       ??_C@_0BI@PBDHIKFI@self?5signed?5certificate@ 000000000008be78     OpensslLib:x509_txt.obj
 0002:0001f6d0       ??_C@_0CN@GCPAFAGL@self?5signed?5certificate?5in?5cert@ 000000000008be90     OpensslLib:x509_txt.obj
 0002:0001f700       ??_C@_0CH@NBHLNPJC@unable?5to?5get?5local?5issuer?5cert@ 000000000008bec0     OpensslLib:x509_txt.obj
 0002:0001f728       ??_C@_0CH@PCOLJJF@unable?5to?5verify?5the?5first?5cert@ 000000000008bee8     OpensslLib:x509_txt.obj
 0002:0001f750       ??_C@_0BL@JGHJBAMD@certificate?5chain?5too?5long@ 000000000008bf10     OpensslLib:x509_txt.obj
 0002:0001f770       ??_C@_0BE@PBLGGMOB@certificate?5revoked@ 000000000008bf30     OpensslLib:x509_txt.obj
 0002:0001f788       ??_C@_0BH@EKEBOKH@invalid?5CA?5certificate@ 000000000008bf48     OpensslLib:x509_txt.obj
 0002:0001f7a0       ??_C@_0CA@LLGONKGK@path?5length?5constraint?5exceeded@ 000000000008bf60     OpensslLib:x509_txt.obj
 0002:0001f7c0       ??_C@_0CA@LPAJAMFA@unsupported?5certificate?5purpose@ 000000000008bf80     OpensslLib:x509_txt.obj
 0002:0001f7e0       ??_C@_0BI@GDICGBPK@certificate?5not?5trusted@ 000000000008bfa0     OpensslLib:x509_txt.obj
 0002:0001f7f8       ??_C@_0BF@OJPAOPB@certificate?5rejected@ 000000000008bfb8     OpensslLib:x509_txt.obj
 0002:0001f810       ??_C@_0BI@OHGOAFON@subject?5issuer?5mismatch@ 000000000008bfd0     OpensslLib:x509_txt.obj
 0002:0001f828       ??_C@_0CO@HGJKNPBG@authority?5and?5subject?5key?5ident@ 000000000008bfe8     OpensslLib:x509_txt.obj
 0002:0001f858       ??_C@_0CM@GGIKLLEP@authority?5and?5issuer?5serial?5num@ 000000000008c018     OpensslLib:x509_txt.obj
 0002:0001f888       ??_C@_0CP@EEPOGHPG@key?5usage?5does?5not?5include?5cert@ 000000000008c048     OpensslLib:x509_txt.obj
 0002:0001f8b8       ??_C@_0CF@OOPBMEA@unable?5to?5get?5CRL?5issuer?5certif@ 000000000008c078     OpensslLib:x509_txt.obj
 0002:0001f8e0       ??_C@_0BN@DHGAFJG@unhandled?5critical?5extension@ 000000000008c0a0     OpensslLib:x509_txt.obj
 0002:0001f900       ??_C@_0CH@JKPBLJBP@key?5usage?5does?5not?5include?5CRL?5@ 000000000008c0c0     OpensslLib:x509_txt.obj
 0002:0001f928       ??_C@_0CB@OODOOIP@unhandled?5critical?5CRL?5extensio@ 000000000008c0e8     OpensslLib:x509_txt.obj
 0002:0001f950       ??_C@_0CN@GNFODAID@invalid?5non?9CA?5certificate?5?$CIhas@ 000000000008c110     OpensslLib:x509_txt.obj
 0002:0001f980       ??_C@_0CG@BIOFEFIK@proxy?5path?5length?5constraint?5ex@ 000000000008c140     OpensslLib:x509_txt.obj
 0002:0001f9a8       ??_C@_0CN@HJJGOKEM@key?5usage?5does?5not?5include?5digi@ 000000000008c168     OpensslLib:x509_txt.obj
 0002:0001f9e0       ??_C@_0EA@EILBDOFP@proxy?5certificates?5not?5allowed?0@ 000000000008c1a0     OpensslLib:x509_txt.obj
 0002:0001fa20       ??_C@_0CO@BIBMOLPK@invalid?5or?5inconsistent?5certifi@ 000000000008c1e0     OpensslLib:x509_txt.obj
 0002:0001fa50       ??_C@_0DF@JOCKIEDN@invalid?5or?5inconsistent?5certifi@ 000000000008c210     OpensslLib:x509_txt.obj
 0002:0001fa88       ??_C@_0BD@KPLGPDJA@no?5explicit?5policy@ 000000000008c248     OpensslLib:x509_txt.obj
 0002:0001faa0       ??_C@_0BE@FHFDNMCN@Different?5CRL?5scope@ 000000000008c260     OpensslLib:x509_txt.obj
 0002:0001fab8       ??_C@_0BO@CHPDNLHA@Unsupported?5extension?5feature@ 000000000008c278     OpensslLib:x509_txt.obj
 0002:0001fad8       ??_C@_0DD@IBFFGHC@RFC?53779?5resource?5not?5subset?5of@ 000000000008c298     OpensslLib:x509_txt.obj
 0002:0001fb10       ??_C@_0BM@OAJDKGDI@permitted?5subtree?5violation@ 000000000008c2d0     OpensslLib:x509_txt.obj
 0002:0001fb30       ??_C@_0BL@OHBCHEHN@excluded?5subtree?5violation@ 000000000008c2f0     OpensslLib:x509_txt.obj
 0002:0001fb50       ??_C@_0DD@KOHKHENH@name?5constraints?5minimum?5and?5ma@ 000000000008c310     OpensslLib:x509_txt.obj
 0002:0001fb88       ??_C@_0CB@HLIFGCCB@application?5verification?5failur@ 000000000008c348     OpensslLib:x509_txt.obj
 0002:0001fbb0       ??_C@_0CB@NJIFBAAK@unsupported?5name?5constraint?5typ@ 000000000008c370     OpensslLib:x509_txt.obj
 0002:0001fbd8       ??_C@_0CO@MKOFKAHI@unsupported?5or?5invalid?5name?5con@ 000000000008c398     OpensslLib:x509_txt.obj
 0002:0001fc08       ??_C@_0CD@FOPJHCDH@unsupported?5or?5invalid?5name?5syn@ 000000000008c3c8     OpensslLib:x509_txt.obj
 0002:0001fc30       ??_C@_0BK@IBKFOKDF@CRL?5path?5validation?5error@ 000000000008c3f0     OpensslLib:x509_txt.obj
 0002:0001fc50       ??_C@_09OLGELLAO@Path?5Loop@ 000000000008c410     OpensslLib:x509_txt.obj
 0002:0001fc60       ??_C@_0CF@FOANFLBA@Suite?5B?3?5certificate?5version?5in@ 000000000008c420     OpensslLib:x509_txt.obj
 0002:0001fc88       ??_C@_0CG@BICIPKHE@Suite?5B?3?5invalid?5public?5key?5alg@ 000000000008c448     OpensslLib:x509_txt.obj
 0002:0001fcb0       ??_C@_0BL@FMOLHBNA@Suite?5B?3?5invalid?5ECC?5curve@ 000000000008c470     OpensslLib:x509_txt.obj
 0002:0001fcd0       ??_C@_0CF@HDBBCDPB@Suite?5B?3?5invalid?5signature?5algo@ 000000000008c490     OpensslLib:x509_txt.obj
 0002:0001fcf8       ??_C@_0CI@KACFGKAG@Suite?5B?3?5curve?5not?5allowed?5for?5@ 000000000008c4b8     OpensslLib:x509_txt.obj
 0002:0001fd20       ??_C@_0CG@KNKODCDA@Suite?5B?3?5cannot?5sign?5P?9384?5with@ 000000000008c4e0     OpensslLib:x509_txt.obj
 0002:0001fd48       ??_C@_0BC@BKAJEJKO@Hostname?5mismatch@ 000000000008c508     OpensslLib:x509_txt.obj
 0002:0001fd60       ??_C@_0BH@EANENMMC@Email?5address?5mismatch@ 000000000008c520     OpensslLib:x509_txt.obj
 0002:0001fd78       ??_C@_0BE@CAFPLHHN@IP?5address?5mismatch@ 000000000008c538     OpensslLib:x509_txt.obj
 0002:0001fd90       ??_C@_0BO@OPFDPPAC@No?5matching?5DANE?5TLSA?5records@ 000000000008c550     OpensslLib:x509_txt.obj
 0002:0001fdb0       ??_C@_0BM@CJPGEEIN@EE?5certificate?5key?5too?5weak@ 000000000008c570     OpensslLib:x509_txt.obj
 0002:0001fdd0       ??_C@_0BM@ENALCBIG@CA?5certificate?5key?5too?5weak@ 000000000008c590     OpensslLib:x509_txt.obj
 0002:0001fdf0       ??_C@_0CH@LKAOFJGJ@CA?5signature?5digest?5algorithm?5t@ 000000000008c5b0     OpensslLib:x509_txt.obj
 0002:0001fe18       ??_C@_0CJ@LGEOKENH@Invalid?5certificate?5verificatio@ 000000000008c5d8     OpensslLib:x509_txt.obj
 0002:0001fe48       ??_C@_0CA@IHGNDGJI@Issuer?5certificate?5lookup?5error@ 000000000008c608     OpensslLib:x509_txt.obj
 0002:0001fe68       ??_C@_0DL@IEHGPPOE@Certificate?5Transparency?5requir@ 000000000008c628     OpensslLib:x509_txt.obj
 0002:0001fea8       ??_C@_0BN@MGIIDFLE@proxy?5subject?5name?5violation@ 000000000008c668     OpensslLib:x509_txt.obj
 0002:0001fec8       ??_C@_0BJ@GCKALNFK@OCSP?5verification?5needed@ 000000000008c688     OpensslLib:x509_txt.obj
 0002:0001fee8       ??_C@_0BJ@MKJKHEMF@OCSP?5verification?5failed@ 000000000008c6a8     OpensslLib:x509_txt.obj
 0002:0001ff08       ??_C@_0BC@JFODIBJK@OCSP?5unknown?5cert@ 000000000008c6c8     OpensslLib:x509_txt.obj
 0002:0001ff20       ??_C@_0DD@FBNJLBKB@Certificate?5public?5key?5has?5expl@ 000000000008c6e0     OpensslLib:x509_txt.obj
 0002:0001ff58       ??_C@_0CH@MPONIKPM@unknown?5certificate?5verificatio@ 000000000008c718     OpensslLib:x509_txt.obj
 0002:00020320       ??_C@_03KCHOJKKI@set@      000000000008cae0     OpensslLib:x_attrib.obj
 0002:00020328       ??_C@_0P@IBKNNFL@X509_ATTRIBUTE@ 000000000008cae8     OpensslLib:x_attrib.obj
 0002:00020380       X509_ATTRIBUTE_it          000000000008cb40     OpensslLib:x_attrib.obj
 0002:000203b0       ??_C@_03KPIFFHNE@SET@      000000000008cb70     OpensslLib:tasn_prn.obj
 0002:000203b8       ??_C@_08POLPFBMC@SEQUENCE@ 000000000008cb78     OpensslLib:tasn_prn.obj
 0002:000203c8       ??_C@_08DFMPDBMK@X509_SIG@ 000000000008cb88     OpensslLib:x_sig.obj
 0002:000203d8       X509_SIG_it                000000000008cb98     OpensslLib:x_sig.obj
 0002:00020450       ??_C@_02ICGBAFJO@k1@       000000000008cc10     OpensslLib:ec_asn1.obj
 0002:00020454       ??_C@_02KJEMFGFN@k2@       000000000008cc14     OpensslLib:ec_asn1.obj
 0002:00020458       ??_C@_02LAFHGHBM@k3@       000000000008cc18     OpensslLib:ec_asn1.obj
 0002:00020460       ??_C@_0BC@NPDMPFCL@X9_62_PENTANOMIAL@ 000000000008cc20     OpensslLib:ec_asn1.obj
 0002:00020478       ??_C@_07PBHIMFBE@p?4other@ 000000000008cc38     OpensslLib:ec_asn1.obj
 0002:00020480       ??_C@_09KOBBOOPN@p?4onBasis@ 000000000008cc40     OpensslLib:ec_asn1.obj
 0002:00020490       ??_C@_09LICBCEBD@p?4tpBasis@ 000000000008cc50     OpensslLib:ec_asn1.obj
 0002:000204a0       ??_C@_09DMGLCKOJ@p?4ppBasis@ 000000000008cc60     OpensslLib:ec_asn1.obj
 0002:000204ac       ??_C@_01GOHFPIOK@m@        000000000008cc6c     OpensslLib:ec_asn1.obj
 0002:000204b0       ??_C@_0BJ@CCODLOLO@X9_62_CHARACTERISTIC_TWO@ 000000000008cc70     OpensslLib:ec_asn1.obj
 0002:000204d0       ??_C@_07DPJEDCLB@p?4prime@ 000000000008cc90     OpensslLib:ec_asn1.obj
 0002:000204d8       ??_C@_0L@NLMAKEBL@p?4char_two@ 000000000008cc98     OpensslLib:ec_asn1.obj
 0002:000204e8       ??_C@_09OAOLGAOM@fieldType@ 000000000008cca8     OpensslLib:ec_asn1.obj
 0002:000204f8       ??_C@_0O@PGPIAKKH@X9_62_FIELDID@ 000000000008ccb8     OpensslLib:ec_asn1.obj
 0002:00020508       ??_C@_01MCMALHOG@a@        000000000008ccc8     OpensslLib:ec_asn1.obj
 0002:0002050c       ??_C@_01OJONOECF@b@        000000000008cccc     OpensslLib:ec_asn1.obj
 0002:00020510       ??_C@_04MENKDCKE@seed@     000000000008ccd0     OpensslLib:ec_asn1.obj
 0002:00020518       ??_C@_0M@BHDPNPCK@X9_62_CURVE@ 000000000008ccd8     OpensslLib:ec_asn1.obj
 0002:00020528       ??_C@_07MJJGNICD@fieldID@  000000000008cce8     OpensslLib:ec_asn1.obj
 0002:00020530       ??_C@_05HIKPKPAA@curve@    000000000008ccf0     OpensslLib:ec_asn1.obj
 0002:00020538       ??_C@_05NDNMCCJH@order@    000000000008ccf8     OpensslLib:ec_asn1.obj
 0002:00020540       ??_C@_08DKFAOMDI@cofactor@ 000000000008cd00     OpensslLib:ec_asn1.obj
 0002:00020550       ??_C@_0N@ECDPFONH@ECPARAMETERS@ 000000000008cd10     OpensslLib:ec_asn1.obj
 0002:00020560       ??_C@_0BC@JEJHGDNN@value?4named_curve@ 000000000008cd20     OpensslLib:ec_asn1.obj
 0002:00020578       ??_C@_0BB@KOECJJJ@value?4parameters@ 000000000008cd38     OpensslLib:ec_asn1.obj
 0002:00020590       ??_C@_0BD@HOIIAPI@value?4implicitlyCA@ 000000000008cd50     OpensslLib:ec_asn1.obj
 0002:000205a8       ??_C@_0P@PBBIGPFJ@ECPKPARAMETERS@ 000000000008cd68     OpensslLib:ec_asn1.obj
 0002:000205b8       ??_C@_0L@BCENACFO@privateKey@ 000000000008cd78     OpensslLib:ec_asn1.obj
 0002:000205c8       ??_C@_0L@HHPOFMCB@parameters@ 000000000008cd88     OpensslLib:ec_asn1.obj
 0002:000205d8       ??_C@_09IDENFCJL@publicKey@ 000000000008cd98     OpensslLib:ec_asn1.obj
 0002:000205e8       ??_C@_0O@DFJMHGOP@EC_PRIVATEKEY@ 000000000008cda8     OpensslLib:ec_asn1.obj
 0002:000205f8       ??_C@_01LKDEMHDF@s@        000000000008cdb8     OpensslLib:ec_asn1.obj
 0002:00020600       ??_C@_09FLJPBFIA@ECDSA_SIG@ 000000000008cdc0     OpensslLib:ec_asn1.obj
 0002:00020610       ECPARAMETERS_it            000000000008cdd0     OpensslLib:ec_asn1.obj
 0002:000209b0       ECPKPARAMETERS_it          000000000008d170     OpensslLib:ec_asn1.obj
 0002:00020c40       ??_C@_01GBGANLPD@0@        000000000008d400     OpensslLib:bn_print.obj
 0002:00020c44       ??_C@_04FCIJFPNK@?$CFllu@  000000000008d404     OpensslLib:bn_print.obj
 0002:00020c50       ??_C@_07ICEKBAEF@?$CF019llu@ 000000000008d410     OpensslLib:bn_print.obj
 0002:00020c58       ??_C@_01JOAMLHOP@?9@       000000000008d418     OpensslLib:bn_print.obj
 0002:00020c98       ??_C@_09OJNEAJGG@?$DMINVALID?$DO@ 000000000008d458     OpensslLib:a_object.obj
 0002:00020eec       ??_C@_02PLJDPFIO@00@       000000000008d6ac     OpensslLib:asn1_par.obj
 0002:00020ef0       ??_C@_03NCODFONH@EOC@      000000000008d6b0     OpensslLib:asn1_par.obj
 0002:00020ef8       ??_C@_07JDEDMABE@BOOLEAN@  000000000008d6b8     OpensslLib:asn1_par.obj
 0002:00020f00       ??_C@_07EHCIHKNF@INTEGER@  000000000008d6c0     OpensslLib:asn1_par.obj
 0002:00020f08       ??_C@_0L@EKOKPLKE@BIT?5STRING@ 000000000008d6c8     OpensslLib:asn1_par.obj
 0002:00020f18       ??_C@_0N@KPGGMDFC@OCTET?5STRING@ 000000000008d6d8     OpensslLib:asn1_par.obj
 0002:00020f28       ??_C@_06IAMCMNFI@OBJECT@   000000000008d6e8     OpensslLib:asn1_par.obj
 0002:00020f30       ??_C@_0BC@HDOCNDIH@OBJECT?5DESCRIPTOR@ 000000000008d6f0     OpensslLib:asn1_par.obj
 0002:00020f48       ??_C@_08JHLDEHEK@EXTERNAL@ 000000000008d708     OpensslLib:asn1_par.obj
 0002:00020f54       ??_C@_04PKFANLLI@REAL@     000000000008d714     OpensslLib:asn1_par.obj
 0002:00020f60       ??_C@_0L@KNIEMAKM@ENUMERATED@ 000000000008d720     OpensslLib:asn1_par.obj
 0002:00020f70       ??_C@_09EKNCOIGI@?$DMASN1?511?$DO@ 000000000008d730     OpensslLib:asn1_par.obj
 0002:00020f80       ??_C@_0L@DCBPGANN@UTF8STRING@ 000000000008d740     OpensslLib:asn1_par.obj
 0002:00020f90       ??_C@_09EJFGDMAG@?$DMASN1?513?$DO@ 000000000008d750     OpensslLib:asn1_par.obj
 0002:00020fa0       ??_C@_09EMBJCKID@?$DMASN1?514?$DO@ 000000000008d760     OpensslLib:asn1_par.obj
 0002:00020fb0       ??_C@_09ENNLEALE@?$DMASN1?515?$DO@ 000000000008d770     OpensslLib:asn1_par.obj
 0002:00020fc0       ??_C@_0O@DFADMOGA@NUMERICSTRING@ 000000000008d780     OpensslLib:asn1_par.obj
 0002:00020fd0       ??_C@_0BA@FKHILLED@PRINTABLESTRING@ 000000000008d790     OpensslLib:asn1_par.obj
 0002:00020fe0       ??_C@_09FMBHBANP@T61STRING@ 000000000008d7a0     OpensslLib:asn1_par.obj
 0002:00020ff0       ??_C@_0P@LNAMNBEL@VIDEOTEXSTRING@ 000000000008d7b0     OpensslLib:asn1_par.obj
 0002:00021000       ??_C@_09JOMPLKGB@IA5STRING@ 000000000008d7c0     OpensslLib:asn1_par.obj
 0002:00021010       ??_C@_07HIOLDDN@UTCTIME@   000000000008d7d0     OpensslLib:asn1_par.obj
 0002:00021018       ??_C@_0BA@LKNBIJBB@GENERALIZEDTIME@ 000000000008d7d8     OpensslLib:asn1_par.obj
 0002:00021028       ??_C@_0O@MABADFB@GRAPHICSTRING@ 000000000008d7e8     OpensslLib:asn1_par.obj
 0002:00021038       ??_C@_0O@KDAJCBO@VISIBLESTRING@ 000000000008d7f8     OpensslLib:asn1_par.obj
 0002:00021048       ??_C@_0O@DKDEPFLO@GENERALSTRING@ 000000000008d808     OpensslLib:asn1_par.obj
 0002:00021058       ??_C@_0BA@EJHHDALK@UNIVERSALSTRING@ 000000000008d818     OpensslLib:asn1_par.obj
 0002:00021068       ??_C@_09FGHEBGDO@?$DMASN1?529?$DO@ 000000000008d828     OpensslLib:asn1_par.obj
 0002:00021078       ??_C@_09BIBABMFN@BMPSTRING@ 000000000008d838     OpensslLib:asn1_par.obj
 0002:00021088       ??_C@_09GPGAJHPD@?$CIunknown?$CJ@ 000000000008d848     OpensslLib:asn1_par.obj
 0002:00021198       ??_C@_08JJBFGKFE@minsize?$DN@ 000000000008d958     OpensslLib:a_mbstr.obj
 0002:000211a8       ??_C@_08EOPONIBF@maxsize?$DN@ 000000000008d968     OpensslLib:a_mbstr.obj
 0002:000211b4       ??_C@_06CHOIGJDB@BIGNUM@   000000000008d974     OpensslLib:x_bignum.obj
 0002:000211c0       ??_C@_07HILEKMCI@CBIGNUM@  000000000008d980     OpensslLib:x_bignum.obj
 0002:000211c8       BIGNUM_it                  000000000008d988     OpensslLib:x_bignum.obj
 0002:000211f8       CBIGNUM_it                 000000000008d9b8     OpensslLib:x_bignum.obj
 0002:00021228       ??_C@_03PMGGPEJJ@?$CFd?6@  000000000008d9e8     OpensslLib:x_int64.obj
 0002:0002122c       ??_C@_03OBICDNNO@?$CFu?6@  000000000008d9ec     OpensslLib:x_int64.obj
 0002:00021230       ??_C@_05OJLHEJN@INT32@     000000000008d9f0     OpensslLib:x_int64.obj
 0002:00021238       ??_C@_06KFJALMLJ@ZINT32@   000000000008d9f8     OpensslLib:x_int64.obj
 0002:00021240       ZINT32_it                  000000000008da00     OpensslLib:x_int64.obj
 0002:00021270       INT32_it                   000000000008da30     OpensslLib:x_int64.obj
 0002:000212a0       ??_C@_0P@BLMEJDMO@policyLanguage@ 000000000008da60     OpensslLib:v3_pcia.obj
 0002:000212b0       ??_C@_06NJNJNICG@policy@   000000000008da70     OpensslLib:v3_pcia.obj
 0002:000212b8       ??_C@_0N@CLKEFBDI@PROXY_POLICY@ 000000000008da78     OpensslLib:v3_pcia.obj
 0002:000212c8       ??_C@_0BH@JBGKCLHC@pcPathLengthConstraint@ 000000000008da88     OpensslLib:v3_pcia.obj
 0002:000212e0       ??_C@_0M@KKFBCGOG@proxyPolicy@ 000000000008daa0     OpensslLib:v3_pcia.obj
 0002:000212f0       ??_C@_0BK@PILNOGHK@PROXY_CERT_INFO_EXTENSION@ 000000000008dab0     OpensslLib:v3_pcia.obj
 0002:00021350       PROXY_CERT_INFO_EXTENSION_it 000000000008db10     OpensslLib:v3_pcia.obj
 0002:000213c0       PROXY_POLICY_it            000000000008db80     OpensslLib:v3_pcia.obj
 0002:000213f0       ??_C@_02DGMJAJHC@ca@       000000000008dbb0     OpensslLib:v3_bcons.obj
 0002:000213f8       ??_C@_07OGCPICFF@pathlen@  000000000008dbb8     OpensslLib:v3_bcons.obj
 0002:00021400       ??_C@_0BC@PKPCGCD@BASIC_CONSTRAINTS@ 000000000008dbc0     OpensslLib:v3_bcons.obj
 0002:00021414       ??_C@_02JLAAGLDA@CA@       000000000008dbd4     OpensslLib:v3_bcons.obj
 0002:00021460       v3_bcons                   000000000008dc20     OpensslLib:v3_bcons.obj
 0002:000214c8       BASIC_CONSTRAINTS_it       000000000008dc88     OpensslLib:v3_bcons.obj
 0002:000214f8       ??_C@_0CL@JMAEHKDJ@SECG?1WTLS?5curve?5over?5a?5112?5bit?5@ 000000000008dcb8     OpensslLib:ec_curve.obj
 0002:00021528       ??_C@_0CG@IMPBFOOG@SECG?5curve?5over?5a?5112?5bit?5prime@ 000000000008dce8     OpensslLib:ec_curve.obj
 0002:00021550       ??_C@_0CG@DNCCBNMA@SECG?5curve?5over?5a?5128?5bit?5prime@ 000000000008dd10     OpensslLib:ec_curve.obj
 0002:00021578       ??_C@_0CG@MDBLLOCO@SECG?5curve?5over?5a?5160?5bit?5prime@ 000000000008dd38     OpensslLib:ec_curve.obj
 0002:000215a0       ??_C@_0CL@NDOOJKPB@SECG?1WTLS?5curve?5over?5a?5160?5bit?5@ 000000000008dd60     OpensslLib:ec_curve.obj
 0002:000215d0       ??_C@_0CG@IFFAEDGD@SECG?5curve?5over?5a?5192?5bit?5prime@ 000000000008dd90     OpensslLib:ec_curve.obj
 0002:000215f8       ??_C@_0CG@IOHCCJAA@SECG?5curve?5over?5a?5224?5bit?5prime@ 000000000008ddb8     OpensslLib:ec_curve.obj
 0002:00021620       ??_C@_0CL@NHPHHEEB@NIST?1SECG?5curve?5over?5a?5224?5bit?5@ 000000000008dde0     OpensslLib:ec_curve.obj
 0002:00021650       ??_C@_0CG@MBJIMJMI@SECG?5curve?5over?5a?5256?5bit?5prime@ 000000000008de10     OpensslLib:ec_curve.obj
 0002:00021678       ??_C@_0CL@MPIFFEHD@NIST?1SECG?5curve?5over?5a?5384?5bit?5@ 000000000008de38     OpensslLib:ec_curve.obj
 0002:000216a8       ??_C@_0CL@NCEJLDDF@NIST?1SECG?5curve?5over?5a?5521?5bit?5@ 000000000008de68     OpensslLib:ec_curve.obj
 0002:000216d8       ??_C@_0DB@HJIMEGJL@NIST?1X9?462?1SECG?5curve?5over?5a?519@ 000000000008de98     OpensslLib:ec_curve.obj
 0002:00021710       ??_C@_0CH@BHJCBJE@X9?462?5curve?5over?5a?5192?5bit?5prim@ 000000000008ded0     OpensslLib:ec_curve.obj
 0002:00021738       ??_C@_0CH@COBCAEEE@X9?462?5curve?5over?5a?5239?5bit?5prim@ 000000000008def8     OpensslLib:ec_curve.obj
 0002:00021760       ??_C@_0CM@IACJENLF@X9?462?1SECG?5curve?5over?5a?5256?5bit@ 000000000008df20     OpensslLib:ec_curve.obj
 0002:00021790       ??_C@_0CG@NOPNGNKB@WTLS?5curve?5over?5a?5112?5bit?5prime@ 000000000008df50     OpensslLib:ec_curve.obj
 0002:000217b8       ??_C@_0CG@JBBHINGJ@WTLS?5curve?5over?5a?5160?5bit?5prime@ 000000000008df78     OpensslLib:ec_curve.obj
 0002:000217e0       ??_C@_0CG@NMHOBKEH@WTLS?5curve?5over?5a?5224?5bit?5prime@ 000000000008dfa0     OpensslLib:ec_curve.obj
 0002:00021808       ??_C@_0CK@DKPAAAHG@RFC?55639?5curve?5over?5a?5160?5bit?5p@ 000000000008dfc8     OpensslLib:ec_curve.obj
 0002:00021838       ??_C@_0CK@HMLLPNDL@RFC?55639?5curve?5over?5a?5192?5bit?5p@ 000000000008dff8     OpensslLib:ec_curve.obj
 0002:00021868       ??_C@_0CK@HHJJJHFI@RFC?55639?5curve?5over?5a?5224?5bit?5p@ 000000000008e028     OpensslLib:ec_curve.obj
 0002:00021898       ??_C@_0CK@DIHDHHJA@RFC?55639?5curve?5over?5a?5256?5bit?5p@ 000000000008e058     OpensslLib:ec_curve.obj
 0002:000218c8       ??_C@_0CK@BJFGHLBI@RFC?55639?5curve?5over?5a?5320?5bit?5p@ 000000000008e088     OpensslLib:ec_curve.obj
 0002:000218f8       ??_C@_0CK@GPOLLHGK@RFC?55639?5curve?5over?5a?5384?5bit?5p@ 000000000008e0b8     OpensslLib:ec_curve.obj
 0002:00021928       ??_C@_0CK@DLPHALOH@RFC?55639?5curve?5over?5a?5512?5bit?5p@ 000000000008e0e8     OpensslLib:ec_curve.obj
 0002:00021958       ??_C@_0CF@CCLOOCBH@SM2?5curve?5over?5a?5256?5bit?5prime?5@ 000000000008e118     OpensslLib:ec_curve.obj
 0002:00021980       ??_C@_05KJOGHNFI@B?9163@   000000000008e140     OpensslLib:ec_curve.obj
 0002:00021988       ??_C@_05LNJIBAFN@B?9233@   000000000008e148     OpensslLib:ec_curve.obj
 0002:00021990       ??_C@_05LBMNPPLM@B?9283@   000000000008e150     OpensslLib:ec_curve.obj
 0002:00021998       ??_C@_05GAFKBJFC@B?9409@   000000000008e158     OpensslLib:ec_curve.obj
 0002:000219a0       ??_C@_05BFHAOCLK@B?9571@   000000000008e160     OpensslLib:ec_curve.obj
 0002:000219a8       ??_C@_05IOOJCMJA@K?9163@   000000000008e168     OpensslLib:ec_curve.obj
 0002:000219b0       ??_C@_05JKJHEBJF@K?9233@   000000000008e170     OpensslLib:ec_curve.obj
 0002:000219b8       ??_C@_05JGMCKOHE@K?9283@   000000000008e178     OpensslLib:ec_curve.obj
 0002:000219c0       ??_C@_05EHFFEIJK@K?9409@   000000000008e180     OpensslLib:ec_curve.obj
 0002:000219c8       ??_C@_05DCHPLDHC@K?9571@   000000000008e188     OpensslLib:ec_curve.obj
 0002:000219d0       ??_C@_05PFLPKILE@P?9192@   000000000008e190     OpensslLib:ec_curve.obj
 0002:000219d8       ??_C@_05LNAFEPDN@P?9224@   000000000008e198     OpensslLib:ec_curve.obj
 0002:000219e0       ??_C@_05IKHMDLDK@P?9256@   000000000008e1a0     OpensslLib:ec_curve.obj
 0002:000219e8       ??_C@_05ICOKNIO@P?9384@    000000000008e1a8     OpensslLib:ec_curve.obj
 0002:000219f0       ??_C@_05FNKFIDMB@P?9521@   000000000008e1b0     OpensslLib:ec_curve.obj
 0002:00023e68       ??_C@_0BG@NHEBIAGP@OpenSSL?5EC_KEY?5method@ 0000000000090628     OpensslLib:ec_kmeth.obj
 0002:00023ef8       ??_C@_06GABBCIBA@method@   00000000000906b8     OpensslLib:v3_info.obj
 0002:00023f00       ??_C@_08CBBFJFMD@location@ 00000000000906c0     OpensslLib:v3_info.obj
 0002:00023f10       ??_C@_0BD@IKHCEBLA@ACCESS_DESCRIPTION@ 00000000000906d0     OpensslLib:v3_info.obj
 0002:00023f28       ??_C@_0BG@PFEKCAHJ@AUTHORITY_INFO_ACCESS@ 00000000000906e8     OpensslLib:v3_info.obj
 0002:00023f40       ??_C@_07FCJAGJJB@?$CFs?5?9?5?$CFs@ 0000000000090700     OpensslLib:v3_info.obj
 0002:00023f48       ??_C@_06KFEJCPI@value?$DN@ 0000000000090708     OpensslLib:v3_info.obj
 0002:00023f50       AUTHORITY_INFO_ACCESS_it   0000000000090710     OpensslLib:v3_info.obj
 0002:00023f80       ACCESS_DESCRIPTION_it      0000000000090740     OpensslLib:v3_info.obj
 0002:00023ff0       v3_sinfo                   00000000000907b0     OpensslLib:v3_info.obj
 0002:00024060       v3_info                    0000000000090820     OpensslLib:v3_info.obj
 0002:000240e8       ??_C@_08OMICEKMJ@?0?5value?$DN@ 00000000000908a8     OpensslLib:conf_mod.obj
 0002:00024100       v3_alt                     00000000000908c0     OpensslLib:v3_alt.obj
 0002:00024238       ??_C@_0O@NHCJKCDC@?$DMunsupported?$DO@ 00000000000909f8     OpensslLib:v3_alt.obj
 0002:00024248       ??_C@_09PAKBLAPA@othername@ 0000000000090a08     OpensslLib:v3_alt.obj
 0002:00024258       ??_C@_08EBDOEGJI@X400Name@ 0000000000090a18     OpensslLib:v3_alt.obj
 0002:00024268       ??_C@_0N@EEELPIKD@EdiPartyName@ 0000000000090a28     OpensslLib:v3_alt.obj
 0002:00024278       ??_C@_05HKHCDHCL@email@    0000000000090a38     OpensslLib:v3_alt.obj
 0002:00024280       ??_C@_03CBFPEBNE@DNS@      0000000000090a40     OpensslLib:v3_alt.obj
 0002:00024284       ??_C@_03GMOLNBOB@URI@      0000000000090a44     OpensslLib:v3_alt.obj
 0002:00024288       ??_C@_07FDBCPIKC@DirName@  0000000000090a48     OpensslLib:v3_alt.obj
 0002:00024290       ??_C@_09DPMBDOD@?$DMinvalid?$DO@ 0000000000090a50     OpensslLib:v3_alt.obj
 0002:000242a0       ??_C@_0L@NGHMMCPJ@IP?5Address@ 0000000000090a60     OpensslLib:v3_alt.obj
 0002:000242b0       ??_C@_0O@KAIENCPE@Registered?5ID@ 0000000000090a70     OpensslLib:v3_alt.obj
 0002:000242c0       ??_C@_04COAGEIMF@copy@     0000000000090a80     OpensslLib:v3_alt.obj
 0002:000242c8       ??_C@_04HDMMNHEL@move@     0000000000090a88     OpensslLib:v3_alt.obj
 0002:000242d0       ??_C@_03FEOBNLIE@RID@      0000000000090a90     OpensslLib:v3_alt.obj
 0002:000242d4       ??_C@_02MFEOMNPG@IP@       0000000000090a94     OpensslLib:v3_alt.obj
 0002:000242d8       ??_C@_07KKGEJKPE@dirName@  0000000000090a98     OpensslLib:v3_alt.obj
 0002:000242e0       ??_C@_09DBGAJPPE@otherName@ 0000000000090aa0     OpensslLib:v3_alt.obj
 0002:000242f0       ??_C@_08LNPIPPMM@section?$DN@ 0000000000090ab0     OpensslLib:v3_alt.obj
 0002:00024300       v3_policy_constraints      0000000000090ac0     OpensslLib:v3_pcons.obj
 0002:00024368       ??_C@_0BG@HGJBEKFE@requireExplicitPolicy@ 0000000000090b28     OpensslLib:v3_pcons.obj
 0002:00024380       ??_C@_0BF@MOMLJGAL@inhibitPolicyMapping@ 0000000000090b40     OpensslLib:v3_pcons.obj
 0002:00024398       ??_C@_0BD@MMPNIEIJ@POLICY_CONSTRAINTS@ 0000000000090b58     OpensslLib:v3_pcons.obj
 0002:000243b0       ??_C@_0BI@HNCHDEDI@Require?5Explicit?5Policy@ 0000000000090b70     OpensslLib:v3_pcons.obj
 0002:000243c8       ??_C@_0BH@HMKHOMED@Inhibit?5Policy?5Mapping@ 0000000000090b88     OpensslLib:v3_pcons.obj
 0002:000243e0       POLICY_CONSTRAINTS_it      0000000000090ba0     OpensslLib:v3_pcons.obj
 0002:00024450       v3_cpols                   0000000000090c10     OpensslLib:v3_cpols.obj
 0002:000244b8       ??_C@_0BE@GJBJOOCP@CERTIFICATEPOLICIES@ 0000000000090c78     OpensslLib:v3_cpols.obj
 0002:000244d0       ??_C@_08NEBFOBH@policyid@  0000000000090c90     OpensslLib:v3_cpols.obj
 0002:000244e0       ??_C@_0L@HMNGMMJI@qualifiers@ 0000000000090ca0     OpensslLib:v3_cpols.obj
 0002:000244f0       ??_C@_0L@POLPGHJK@POLICYINFO@ 0000000000090cb0     OpensslLib:v3_cpols.obj
 0002:00024500       ??_C@_08EECALGEF@d?4cpsuri@ 0000000000090cc0     OpensslLib:v3_cpols.obj
 0002:00024510       ??_C@_0N@JPAHANFF@d?4usernotice@ 0000000000090cd0     OpensslLib:v3_cpols.obj
 0002:00024520       ??_C@_07LEEILOKB@pqualid@  0000000000090ce0     OpensslLib:v3_cpols.obj
 0002:00024528       ??_C@_0P@POBJIHLD@POLICYQUALINFO@ 0000000000090ce8     OpensslLib:v3_cpols.obj
 0002:00024538       ??_C@_09FIKFDFH@noticeref@ 0000000000090cf8     OpensslLib:v3_cpols.obj
 0002:00024548       ??_C@_07MHGINJOA@exptext@  0000000000090d08     OpensslLib:v3_cpols.obj
 0002:00024550       ??_C@_0L@HCNDPADF@USERNOTICE@ 0000000000090d10     OpensslLib:v3_cpols.obj
 0002:00024560       ??_C@_0N@HEIPMDAG@organization@ 0000000000090d20     OpensslLib:v3_cpols.obj
 0002:00024570       ??_C@_09CFGHNILC@noticenos@ 0000000000090d30     OpensslLib:v3_cpols.obj
 0002:00024580       ??_C@_09DFHLGOKA@NOTICEREF@ 0000000000090d40     OpensslLib:v3_cpols.obj
 0002:0002458c       ??_C@_06MIFIGELF@ia5org@   0000000000090d4c     OpensslLib:v3_cpols.obj
 0002:00024598       ??_C@_0BB@FIJMMMGE@policyIdentifier@ 0000000000090d58     OpensslLib:v3_cpols.obj
 0002:000245ac       ??_C@_03KKDAPHBH@CPS@      0000000000090d6c     OpensslLib:v3_cpols.obj
 0002:000245b0       ??_C@_0L@LADHLIJ@userNotice@ 0000000000090d70     OpensslLib:v3_cpols.obj
 0002:000245bc       ??_C@_04OOMJJNCF@UTF8@     0000000000090d7c     OpensslLib:v3_cpols.obj
 0002:000245c8       ??_C@_0L@PJIJIHJD@UTF8String@ 0000000000090d88     OpensslLib:v3_cpols.obj
 0002:000245d4       ??_C@_03CNFPPDJC@BMP@      0000000000090d94     OpensslLib:v3_cpols.obj
 0002:000245d8       ??_C@_07MCGNPFEO@VISIBLE@  0000000000090d98     OpensslLib:v3_cpols.obj
 0002:000245e0       ??_C@_0N@EALKMFB@explicitText@ 0000000000090da0     OpensslLib:v3_cpols.obj
 0002:000245f0       ??_C@_0O@OKDALMJE@noticeNumbers@ 0000000000090db0     OpensslLib:v3_cpols.obj
 0002:00024600       ??_C@_0O@JBOAGIFP@?$CF?$CKsCPS?3?5?$CF?4?$CKs?6@ 0000000000090dc0     OpensslLib:v3_cpols.obj
 0002:00024610       ??_C@_0BH@KMGGMA@?$CF?$CKsOrganization?3?5?$CF?4?$CKs?6@ 0000000000090dd0     OpensslLib:v3_cpols.obj
 0002:00024628       ??_C@_0O@EFHNHHDA@?$CF?$CKsNumber?$CFs?3?5@ 0000000000090de8     OpensslLib:v3_cpols.obj
 0002:00024638       ??_C@_06OJHGLDPL@?$CInull?$CJ@ 0000000000090df8     OpensslLib:v3_cpols.obj
 0002:00024640       ??_C@_0BI@GOILGMJA@?$CF?$CKsExplicit?5Text?3?5?$CF?4?$CKs?6@ 0000000000090e00     OpensslLib:v3_cpols.obj
 0002:00024658       NOTICEREF_it               0000000000090e18     OpensslLib:v3_cpols.obj
 0002:00024710       USERNOTICE_it              0000000000090ed0     OpensslLib:v3_cpols.obj
 0002:00024840       POLICYQUALINFO_it          0000000000091000     OpensslLib:v3_cpols.obj
 0002:000248b0       POLICYINFO_it              0000000000091070     OpensslLib:v3_cpols.obj
 0002:000248e0       CERTIFICATEPOLICIES_it     00000000000910a0     OpensslLib:v3_cpols.obj
 0002:00024910       ??_C@_06KDGDAFPH@cipher@   00000000000910d0     OpensslLib:bio_enc.obj
 0002:00024980       ??_C@_0P@ONGHGJEC@message?5digest@ 0000000000091140     OpensslLib:bio_md.obj
 0002:00024a50       ??_C@_03MEGLGNML@SM4@      0000000000091210     OpensslLib:c_allc.obj
 0002:00024a54       ??_C@_03FMBEIEBF@sm4@      0000000000091214     OpensslLib:c_allc.obj
 0002:00024a58       ??_C@_0M@DJNCOMHD@aes128?9wrap@ 0000000000091218     OpensslLib:c_allc.obj
 0002:00024a64       ??_C@_06NICOGCEJ@AES128@   0000000000091224     OpensslLib:c_allc.obj
 0002:00024a6c       ??_C@_06NBPOHBOH@aes128@   000000000009122c     OpensslLib:c_allc.obj
 0002:00024a78       ??_C@_0M@MAMIKPGL@aes192?9wrap@ 0000000000091238     OpensslLib:c_allc.obj
 0002:00024a84       ??_C@_06COJEGFCC@AES192@   0000000000091244     OpensslLib:c_allc.obj
 0002:00024a8c       ??_C@_06CHEEHGIM@aes192@   000000000009124c     OpensslLib:c_allc.obj
 0002:00024a98       ??_C@_0M@FKKFKCPC@aes256?9wrap@ 0000000000091258     OpensslLib:c_allc.obj
 0002:00024aa4       ??_C@_06FBFHPGKM@AES256@   0000000000091264     OpensslLib:c_allc.obj
 0002:00024aac       ??_C@_06FIIHOFAC@aes256@   000000000009126c     OpensslLib:c_allc.obj
 0002:00024ab8       ??_C@_07POIDCCOH@ARIA128@  0000000000091278     OpensslLib:c_allc.obj
 0002:00024ac0       ??_C@_07OCFFDBP@aria128@   0000000000091280     OpensslLib:c_allc.obj
 0002:00024ac8       ??_C@_07IDJCFIM@ARIA192@   0000000000091288     OpensslLib:c_allc.obj
 0002:00024ad0       ??_C@_07PIJPFEHE@aria192@  0000000000091290     OpensslLib:c_allc.obj
 0002:00024ad8       ??_C@_07HHPKLGAC@ARIA256@  0000000000091298     OpensslLib:c_allc.obj
 0002:00024ae0       ??_C@_07IHFMMHPK@aria256@  00000000000912a0     OpensslLib:c_allc.obj
 0002:00024b08       ??_C@_08CBANLEIB@ssl3?9md5@ 00000000000912c8     OpensslLib:c_alld.obj
 0002:00024b18       ??_C@_09KCHAKJIH@ssl3?9sha1@ 00000000000912d8     OpensslLib:c_alld.obj
 0002:00024b30       dhx_pkey_meth              00000000000912f0     OpensslLib:dh_pmeth.obj
 0002:00024c30       dh_pkey_meth               00000000000913f0     OpensslLib:dh_pmeth.obj
 0002:00024d30       ??_C@_0BG@LEMCDPBI@dh_paramgen_prime_len@ 00000000000914f0     OpensslLib:dh_pmeth.obj
 0002:00024d48       ??_C@_0L@CMAICHCO@dh_rfc5114@ 0000000000091508     OpensslLib:dh_pmeth.obj
 0002:00024d58       ??_C@_08DJOKJGHP@dh_param@ 0000000000091518     OpensslLib:dh_pmeth.obj
 0002:00024d68       ??_C@_0BG@POLEFOHA@dh_paramgen_generator@ 0000000000091528     OpensslLib:dh_pmeth.obj
 0002:00024d80       ??_C@_0BJ@HCAFJLBI@dh_paramgen_subprime_len@ 0000000000091540     OpensslLib:dh_pmeth.obj
 0002:00024da0       ??_C@_0BB@DCMALDKK@dh_paramgen_type@ 0000000000091560     OpensslLib:dh_pmeth.obj
 0002:00024db4       ??_C@_06GADFDCHC@dh_pad@   0000000000091574     OpensslLib:dh_pmeth.obj
 0002:00024dc0       cmac_pkey_meth             0000000000091580     OpensslLib:cm_pmeth.obj
 0002:00024ec0       ??_C@_06BHJHKMJC@hexkey@   0000000000091680     OpensslLib:cm_pmeth.obj
 0002:00024ed0       ecx448_pkey_meth           0000000000091690     OpensslLib:ecx_meth.obj
 0002:00024fd0       ed448_pkey_meth            0000000000091790     OpensslLib:ecx_meth.obj
 0002:000250d0       ecx25519_pkey_meth         0000000000091890     OpensslLib:ecx_meth.obj
 0002:000251d0       ed25519_pkey_meth          0000000000091990     OpensslLib:ecx_meth.obj
 0002:000252d0       ed448_asn1_meth            0000000000091a90     OpensslLib:ecx_meth.obj
 0002:000253f0       ed25519_asn1_meth          0000000000091bb0     OpensslLib:ecx_meth.obj
 0002:00025510       ecx25519_asn1_meth         0000000000091cd0     OpensslLib:ecx_meth.obj
 0002:00025630       ecx448_asn1_meth           0000000000091df0     OpensslLib:ecx_meth.obj
 0002:00025748       ??_C@_0BK@JGHKCBDG@?$CF?$CKs?$DMINVALID?5PRIVATE?5KEY?$DO?6@ 0000000000091f08     OpensslLib:ecx_meth.obj
 0002:00025768       ??_C@_0BE@BHOIIFAI@?$CF?$CKs?$CFs?5Private?9Key?3?6@ 0000000000091f28     OpensslLib:ecx_meth.obj
 0002:00025780       ??_C@_09CDOGNPAC@?$CF?$CKspriv?3?6@ 0000000000091f40     OpensslLib:ecx_meth.obj
 0002:00025790       ??_C@_0BJ@NBDPFAFL@?$CF?$CKs?$DMINVALID?5PUBLIC?5KEY?$DO?6@ 0000000000091f50     OpensslLib:ecx_meth.obj
 0002:000257b0       ??_C@_0BD@HFJAOMDB@?$CF?$CKs?$CFs?5Public?9Key?3?6@ 0000000000091f70     OpensslLib:ecx_meth.obj
 0002:000257c8       ??_C@_08BMIKENKP@?$CF?$CKspub?3?6@ 0000000000091f88     OpensslLib:ecx_meth.obj
 0002:000257d8       ??_C@_0BJ@OPPGOKJE@OpenSSL?5X25519?5algorithm@ 0000000000091f98     OpensslLib:ecx_meth.obj
 0002:000257f8       ??_C@_0BH@LCCDECOI@OpenSSL?5X448?5algorithm@ 0000000000091fb8     OpensslLib:ecx_meth.obj
 0002:00025810       ??_C@_0BK@EOFFJDOF@OpenSSL?5ED25519?5algorithm@ 0000000000091fd0     OpensslLib:ecx_meth.obj
 0002:00025830       ??_C@_0BI@FPELGGCO@OpenSSL?5ED448?5algorithm@ 0000000000091ff0     OpensslLib:ecx_meth.obj
 0002:00025850       rsa_pkey_meth              0000000000092010     OpensslLib:rsa_pmeth.obj
 0002:00025950       rsa_pss_pkey_meth          0000000000092110     OpensslLib:rsa_pmeth.obj
 0002:00025a50       ??_C@_0BB@BILFEOKG@rsa_padding_mode@ 0000000000092210     OpensslLib:rsa_pmeth.obj
 0002:00025a64       ??_C@_06PDLHKEJK@sslv23@   0000000000092224     OpensslLib:rsa_pmeth.obj
 0002:00025a6c       ??_C@_04CGFJFPFD@none@     000000000009222c     OpensslLib:rsa_pmeth.obj
 0002:00025a74       ??_C@_04EIGNDHKO@oeap@     0000000000092234     OpensslLib:rsa_pmeth.obj
 0002:00025a7c       ??_C@_04MAAGAICF@oaep@     000000000009223c     OpensslLib:rsa_pmeth.obj
 0002:00025a84       ??_C@_04JNCMEILM@x931@     0000000000092244     OpensslLib:rsa_pmeth.obj
 0002:00025a90       ??_C@_0BA@CIHMEEHB@rsa_pss_saltlen@ 0000000000092250     OpensslLib:rsa_pmeth.obj
 0002:00025aa0       ??_C@_03LJAEFNNE@max@      0000000000092260     OpensslLib:rsa_pmeth.obj
 0002:00025aa4       ??_C@_04HAPDLBFF@auto@     0000000000092264     OpensslLib:rsa_pmeth.obj
 0002:00025ab0       ??_C@_0BA@GFPKPLAF@rsa_keygen_bits@ 0000000000092270     OpensslLib:rsa_pmeth.obj
 0002:00025ac0       ??_C@_0BC@DMECNPFD@rsa_keygen_pubexp@ 0000000000092280     OpensslLib:rsa_pmeth.obj
 0002:00025ad8       ??_C@_0BC@KMPAJFPF@rsa_keygen_primes@ 0000000000092298     OpensslLib:rsa_pmeth.obj
 0002:00025af0       ??_C@_0M@CNLGKALE@rsa_mgf1_md@ 00000000000922b0     OpensslLib:rsa_pmeth.obj
 0002:00025b00       ??_C@_0BH@OIJPKNFL@rsa_pss_keygen_mgf1_md@ 00000000000922c0     OpensslLib:rsa_pmeth.obj
 0002:00025b18       ??_C@_0BC@BFLLMFID@rsa_pss_keygen_md@ 00000000000922d8     OpensslLib:rsa_pmeth.obj
 0002:00025b30       ??_C@_0BH@MFJEKBFK@rsa_pss_keygen_saltlen@ 00000000000922f0     OpensslLib:rsa_pmeth.obj
 0002:00025b48       ??_C@_0M@OPEEJBKE@rsa_oaep_md@ 0000000000092308     OpensslLib:rsa_pmeth.obj
 0002:00025b58       ??_C@_0P@NCFNIFLM@rsa_oaep_label@ 0000000000092318     OpensslLib:rsa_pmeth.obj
 0002:00025b70       tls1_prf_pkey_meth         0000000000092330     OpensslLib:tls1_prf.obj
 0002:00025c70       ??_C@_06PNMBKEGN@secret@   0000000000092430     OpensslLib:tls1_prf.obj
 0002:00025c78       ??_C@_09CIFGBJCP@hexsecret@ 0000000000092438     OpensslLib:tls1_prf.obj
 0002:00025c88       ??_C@_07FKCLENDA@hexseed@  0000000000092448     OpensslLib:tls1_prf.obj
 0002:00025c90       hkdf_pkey_meth             0000000000092450     OpensslLib:hkdf.obj
 0002:00025d90       ??_C@_04GMGOKAFF@mode@     0000000000092550     OpensslLib:hkdf.obj
 0002:00025d98       ??_C@_0BD@PBGBEBFD@EXTRACT_AND_EXPAND@ 0000000000092558     OpensslLib:hkdf.obj
 0002:00025db0       ??_C@_0N@OIPAJIAH@EXTRACT_ONLY@ 0000000000092570     OpensslLib:hkdf.obj
 0002:00025dc0       ??_C@_0M@FMHABNKF@EXPAND_ONLY@ 0000000000092580     OpensslLib:hkdf.obj
 0002:00025dcc       ??_C@_04OKLIMCN@salt@      000000000009258c     OpensslLib:hkdf.obj
 0002:00025dd8       ??_C@_07JAFKPDLJ@hexsalt@  0000000000092598     OpensslLib:hkdf.obj
 0002:00025de0       ??_C@_07EGMICCIA@hexinfo@  00000000000925a0     OpensslLib:hkdf.obj
 0002:00025df0       sm2_pkey_meth              00000000000925b0     OpensslLib:sm2_pmeth.obj
 0002:00025ef0       ??_C@_0BC@BLCJLNNM@ec_paramgen_curve@ 00000000000926b0     OpensslLib:sm2_pmeth.obj
 0002:00025f08       ??_C@_0N@CHHABLAI@ec_param_enc@ 00000000000926c8     OpensslLib:sm2_pmeth.obj
 0002:00025f18       ??_C@_08FCANLLBJ@explicit@ 00000000000926d8     OpensslLib:sm2_pmeth.obj
 0002:00025f28       ??_C@_0M@FBFAECBG@named_curve@ 00000000000926e8     OpensslLib:sm2_pmeth.obj
 0002:00025f40       siphash_pkey_meth          0000000000092700     OpensslLib:siphash_pmeth.obj
 0002:00026040       ??_C@_0L@NANBDDC@digestsize@ 0000000000092800     OpensslLib:siphash_pmeth.obj
 0002:00026050       ec_pkey_meth               0000000000092810     OpensslLib:ec_pmeth.obj
 0002:00026150       ??_C@_0M@JAAKIKPH@ecdh_kdf_md@ 0000000000092910     OpensslLib:ec_pmeth.obj
 0002:00026160       ??_C@_0BD@CPNABICB@ecdh_cofactor_mode@ 0000000000092920     OpensslLib:ec_pmeth.obj
 0002:00026180       hmac_pkey_meth             0000000000092940     OpensslLib:hm_pmeth.obj
 0002:00026280       ??_C@_0L@LIHNHIHF@?$CF?$CKs?$CF04x?5?9?5@ 0000000000092a40     OpensslLib:b_dump.obj
 0002:0002628c       ??_C@_03NDEAONJP@?5?5?5@   0000000000092a4c     OpensslLib:b_dump.obj
 0002:00026290       ??_C@_02KNHHEEKP@?5?5@     0000000000092a50     OpensslLib:b_dump.obj
 0002:00026294       ??_C@_06KAALCHHK@crlUrl@   0000000000092a54     OpensslLib:ocsp_asn.obj
 0002:0002629c       ??_C@_06DLEHNACA@crlNum@   0000000000092a5c     OpensslLib:ocsp_asn.obj
 0002:000262a8       ??_C@_07BDEAJPPO@crlTime@  0000000000092a68     OpensslLib:ocsp_asn.obj
 0002:000262b0       ??_C@_0L@JOKCDHBA@OCSP_CRLID@ 0000000000092a70     OpensslLib:ocsp_asn.obj
 0002:000262c0       ??_C@_07PAIKCKMF@locator@  0000000000092a80     OpensslLib:ocsp_asn.obj
 0002:000262c8       ??_C@_0BA@JLGHGCLL@OCSP_SERVICELOC@ 0000000000092a88     OpensslLib:ocsp_asn.obj
 0002:00026380       OCSP_SERVICELOC_it         0000000000092b40     OpensslLib:ocsp_asn.obj
 0002:000263b0       OCSP_CRLID_it              0000000000092b70     OpensslLib:ocsp_asn.obj
 0002:000263e0       ??_C@_0BD@LDHEJACI@OpenSSL?5PKCS?$CD1?5RSA@ 0000000000092ba0     OpensslLib:rsa_ossl.obj
 0002:000263f8       ??_C@_0BC@MGHKLCAP@OpenSSL?5DH?5Method@ 0000000000092bb8     OpensslLib:dh_key.obj
 0002:00026410       cmac_asn1_meth             0000000000092bd0     OpensslLib:cm_ameth.obj
 0002:00026528       ??_C@_0BE@GBIGMENL@OpenSSL?5CMAC?5method@ 0000000000092ce8     OpensslLib:cm_ameth.obj
 0002:00026540       sm2_asn1_meth              0000000000092d00     OpensslLib:ec_ameth.obj
 0002:00026660       eckey_asn1_meth            0000000000092e20     OpensslLib:ec_ameth.obj
 0002:00026778       ??_C@_0M@CJKOCIEC@Private?9Key@ 0000000000092f38     OpensslLib:ec_ameth.obj
 0002:00026788       ??_C@_0L@FMJMEKAC@Public?9Key@ 0000000000092f48     OpensslLib:ec_ameth.obj
 0002:00026798       ??_C@_0BB@DMDKLH@ECDSA?9Parameters@ 0000000000092f58     OpensslLib:ec_ameth.obj
 0002:000267b0       ??_C@_0O@OPPPNLCD@?$CFs?3?5?$CI?$CFd?5bit?$CJ?6@ 0000000000092f70     OpensslLib:ec_ameth.obj
 0002:000267c0       ??_C@_02KNLLHFAA@EC@       0000000000092f80     OpensslLib:ec_ameth.obj
 0002:000267c8       ??_C@_0BF@DKDIFOGG@OpenSSL?5EC?5algorithm@ 0000000000092f88     OpensslLib:ec_ameth.obj
 0002:000267e0       siphash_asn1_meth          0000000000092fa0     OpensslLib:siphash_ameth.obj
 0002:000268f8       ??_C@_07IBBIJFNK@SIPHASH@  00000000000930b8     OpensslLib:siphash_ameth.obj
 0002:00026900       ??_C@_0BH@FCFCAEA@OpenSSL?5SIPHASH?5method@ 00000000000930c0     OpensslLib:siphash_ameth.obj
 0002:00026920       hmac_asn1_meth             00000000000930e0     OpensslLib:hm_ameth.obj
 0002:00026a38       ??_C@_0BE@BABEGANF@OpenSSL?5HMAC?5method@ 00000000000931f8     OpensslLib:hm_ameth.obj
 0002:00026a50       rsa_pss_asn1_meth          0000000000093210     OpensslLib:rsa_ameth.obj
 0002:00026b70       rsa_asn1_meths             0000000000093330     OpensslLib:rsa_ameth.obj
 0002:00026da0       ??_C@_0BP@CGCIOPAF@No?5PSS?5parameter?5restrictions?6@ 0000000000093560     OpensslLib:rsa_ameth.obj
 0002:00026dc0       ??_C@_0BM@OMMNCLDM@PSS?5parameter?5restrictions?3@ 0000000000093580     OpensslLib:rsa_ameth.obj
 0002:00026de0       ??_C@_0BK@KFGFELEH@?$CIINVALID?5PSS?5PARAMETERS?$CJ?6@ 00000000000935a0     OpensslLib:rsa_ameth.obj
 0002:00026e00       ??_C@_0BB@PMMDHLKH@Hash?5Algorithm?3?5@ 00000000000935c0     OpensslLib:rsa_ameth.obj
 0002:00026e18       ??_C@_0P@ODEAMLKF@sha1?5?$CIdefault?$CJ@ 00000000000935d8     OpensslLib:rsa_ameth.obj
 0002:00026e28       ??_C@_0BB@HEAMLCPA@Mask?5Algorithm?3?5@ 00000000000935e8     OpensslLib:rsa_ameth.obj
 0002:00026e3c       ??_C@_06BIDGLIKJ@?5with?5@ 00000000000935fc     OpensslLib:rsa_ameth.obj
 0002:00026e48       ??_C@_07DNODLGKM@INVALID@  0000000000093608     OpensslLib:rsa_ameth.obj
 0002:00026e50       ??_C@_0BJ@NNFOENLD@mgf1?5with?5sha1?5?$CIdefault?$CJ@ 0000000000093610     OpensslLib:rsa_ameth.obj
 0002:00026e70       ??_C@_07NLJCBFAF@Minimum@  0000000000093630     OpensslLib:rsa_ameth.obj
 0002:00026e78       ??_C@_0BD@DPAJFAGN@?$CFs?5Salt?5Length?3?50x@ 0000000000093638     OpensslLib:rsa_ameth.obj
 0002:00026e90       ??_C@_0N@CGLOPGL@14?5?$CIdefault?$CJ@ 0000000000093650     OpensslLib:rsa_ameth.obj
 0002:00026ea0       ??_C@_0BC@EDKEKAHK@Trailer?5Field?3?50x@ 0000000000093660     OpensslLib:rsa_ameth.obj
 0002:00026eb8       ??_C@_0N@FFIHJHFK@BC?5?$CIdefault?$CJ@ 0000000000093678     OpensslLib:rsa_ameth.obj
 0002:00026ec8       ??_C@_07FGNHIEKH@RSA?9PSS@ 0000000000093688     OpensslLib:rsa_ameth.obj
 0002:00026ed0       ??_C@_03IKGEINEE@?$CFs?5@  0000000000093690     OpensslLib:rsa_ameth.obj
 0002:00026ed8       ??_C@_0CC@BJIIEMBB@Private?9Key?3?5?$CI?$CFd?5bit?0?5?$CFd?5primes@ 0000000000093698     OpensslLib:rsa_ameth.obj
 0002:00026f00       ??_C@_08OKDKAJKD@modulus?3@ 00000000000936c0     OpensslLib:rsa_ameth.obj
 0002:00026f10       ??_C@_0BA@FAAMOFHC@publicExponent?3@ 00000000000936d0     OpensslLib:rsa_ameth.obj
 0002:00026f20       ??_C@_0BG@HAJOCCOP@Public?9Key?3?5?$CI?$CFd?5bit?$CJ?6@ 00000000000936e0     OpensslLib:rsa_ameth.obj
 0002:00026f38       ??_C@_08GIMLILAA@Modulus?3@ 00000000000936f8     OpensslLib:rsa_ameth.obj
 0002:00026f48       ??_C@_09DALHJPOO@Exponent?3@ 0000000000093708     OpensslLib:rsa_ameth.obj
 0002:00026f58       ??_C@_0BB@NFOLHHHJ@privateExponent?3@ 0000000000093718     OpensslLib:rsa_ameth.obj
 0002:00026f70       ??_C@_07PNLMLIF@prime1?3@  0000000000093730     OpensslLib:rsa_ameth.obj
 0002:00026f78       ??_C@_07NJNHFNM@prime2?3@  0000000000093738     OpensslLib:rsa_ameth.obj
 0002:00026f80       ??_C@_0L@OIOCMGKP@exponent1?3@ 0000000000093740     OpensslLib:rsa_ameth.obj
 0002:00026f90       ??_C@_0L@OKKEHIPG@exponent2?3@ 0000000000093750     OpensslLib:rsa_ameth.obj
 0002:00026fa0       ??_C@_0N@GNAMJPHF@coefficient?3@ 0000000000093760     OpensslLib:rsa_ameth.obj
 0002:00026fb0       ??_C@_08BCNLBGP@prime?$CFd?3@ 0000000000093770     OpensslLib:rsa_ameth.obj
 0002:00026fc0       ??_C@_0M@NKHBEBLE@exponent?$CFd?3@ 0000000000093780     OpensslLib:rsa_ameth.obj
 0002:00026fd0       ??_C@_0P@FAPFJECG@coefficient?$CFd?3@ 0000000000093790     OpensslLib:rsa_ameth.obj
 0002:00026fe0       ??_C@_0BD@MHOEKPBI@OpenSSL?5RSA?5method@ 00000000000937a0     OpensslLib:rsa_ameth.obj
 0002:00026ff8       ??_C@_0BH@JANGLOLP@OpenSSL?5RSA?9PSS?5method@ 00000000000937b8     OpensslLib:rsa_ameth.obj
 0002:00027010       dh_asn1_meth               00000000000937d0     OpensslLib:dh_ameth.obj
 0002:00027130       dhx_asn1_meth              00000000000938f0     OpensslLib:dh_ameth.obj
 0002:00027248       ??_C@_0P@ELBFBOG@DH?5Private?9Key@ 0000000000093a08     OpensslLib:dh_ameth.obj
 0002:00027258       ??_C@_0O@EBAKGDPN@DH?5Public?9Key@ 0000000000093a18     OpensslLib:dh_ameth.obj
 0002:00027268       ??_C@_0O@OMPEPKAJ@DH?5Parameters@ 0000000000093a28     OpensslLib:dh_ameth.obj
 0002:00027278       ??_C@_0N@MPONDEBM@private?9key?3@ 0000000000093a38     OpensslLib:dh_ameth.obj
 0002:00027288       ??_C@_0M@BCALNHOD@public?9key?3@ 0000000000093a48     OpensslLib:dh_ameth.obj
 0002:00027294       ??_C@_06POMKLBDA@prime?3@  0000000000093a54     OpensslLib:dh_ameth.obj
 0002:000272a0       ??_C@_0L@HDGHCIJF@generator?3@ 0000000000093a60     OpensslLib:dh_ameth.obj
 0002:000272b0       ??_C@_0BA@PFGIPGBD@subgroup?5order?3@ 0000000000093a70     OpensslLib:dh_ameth.obj
 0002:000272c0       ??_C@_0BB@HEOELHJJ@subgroup?5factor?3@ 0000000000093a80     OpensslLib:dh_ameth.obj
 0002:000272d4       ??_C@_05PENGGDLK@seed?3@   0000000000093a94     OpensslLib:dh_ameth.obj
 0002:000272dc       ??_C@_06LEJCPMLM@?$CF02x?$CFs@ 0000000000093a9c     OpensslLib:dh_ameth.obj
 0002:000272e8       ??_C@_08ILALFGPI@counter?3@ 0000000000093aa8     OpensslLib:dh_ameth.obj
 0002:000272f8       ??_C@_0CF@KKPEILHE@recommended?9private?9length?3?5?$CFd?5@ 0000000000093ab8     OpensslLib:dh_ameth.obj
 0002:00027320       ??_C@_02EPINMGPM@DH@       0000000000093ae0     OpensslLib:dh_ameth.obj
 0002:00027328       ??_C@_0BJ@OPGBMMOB@OpenSSL?5PKCS?$CD3?5DH?5method@ 0000000000093ae8     OpensslLib:dh_ameth.obj
 0002:00027348       ??_C@_0BI@JOIJFJMC@OpenSSL?5X9?442?5DH?5method@ 0000000000093b08     OpensslLib:dh_ameth.obj
 0002:00027360       v3_ocsp_accresp            0000000000093b20     OpensslLib:v3_extku.obj
 0002:000273d0       v3_ext_ku                  0000000000093b90     OpensslLib:v3_extku.obj
 0002:00027438       ??_C@_0BD@CKAGEBEF@EXTENDED_KEY_USAGE@ 0000000000093bf8     OpensslLib:v3_extku.obj
 0002:00027470       EXTENDED_KEY_USAGE_it      0000000000093c30     OpensslLib:v3_extku.obj
 0002:000274a0       v3_key_usage               0000000000093c60     OpensslLib:v3_bitst.obj
 0002:00027510       v3_nscert                  0000000000093cd0     OpensslLib:v3_bitst.obj
 0002:00027578       ??_C@_06DGDLPBAN@client@   0000000000093d38     OpensslLib:v3_bitst.obj
 0002:00027580       ??_C@_06HJHJCKIO@server@   0000000000093d40     OpensslLib:v3_bitst.obj
 0002:00027588       ??_C@_0P@DDHLFHHK@Object?5Signing@ 0000000000093d48     OpensslLib:v3_bitst.obj
 0002:00027598       ??_C@_07GIOKFKGL@objsign@  0000000000093d58     OpensslLib:v3_bitst.obj
 0002:000275a0       ??_C@_08FINKBBAF@reserved@ 0000000000093d60     OpensslLib:v3_bitst.obj
 0002:000275ac       ??_C@_06FMDLPOFJ@SSL?5CA@  0000000000093d6c     OpensslLib:v3_bitst.obj
 0002:000275b4       ??_C@_05JHLHLOEK@sslCA@    0000000000093d74     OpensslLib:v3_bitst.obj
 0002:000275c0       ??_C@_09GIEMCMEO@S?1MIME?5CA@ 0000000000093d80     OpensslLib:v3_bitst.obj
 0002:000275d0       ??_C@_07FFHDGPMJ@emailCA@  0000000000093d90     OpensslLib:v3_bitst.obj
 0002:000275d8       ??_C@_0BC@FAMHGMHB@Object?5Signing?5CA@ 0000000000093d98     OpensslLib:v3_bitst.obj
 0002:000275ec       ??_C@_05JLEIJNEE@objCA@    0000000000093dac     OpensslLib:v3_bitst.obj
 0002:000275f8       ??_C@_0BC@DPKEIPIO@Digital?5Signature@ 0000000000093db8     OpensslLib:v3_bitst.obj
 0002:00027610       ??_C@_0BB@MFKHIIOM@digitalSignature@ 0000000000093dd0     OpensslLib:v3_bitst.obj
 0002:00027628       ??_C@_0BA@DJCGBBAI@Non?5Repudiation@ 0000000000093de8     OpensslLib:v3_bitst.obj
 0002:00027638       ??_C@_0P@GPCNPOGO@nonRepudiation@ 0000000000093df8     OpensslLib:v3_bitst.obj
 0002:00027648       ??_C@_0BB@KNACIBEN@Key?5Encipherment@ 0000000000093e08     OpensslLib:v3_bitst.obj
 0002:00027660       ??_C@_0BA@MINCLOJG@keyEncipherment@ 0000000000093e20     OpensslLib:v3_bitst.obj
 0002:00027670       ??_C@_0BC@GNPIAJLP@Data?5Encipherment@ 0000000000093e30     OpensslLib:v3_bitst.obj
 0002:00027688       ??_C@_0BB@LBKKKIGO@dataEncipherment@ 0000000000093e48     OpensslLib:v3_bitst.obj
 0002:000276a0       ??_C@_0O@EOJOBCHL@Key?5Agreement@ 0000000000093e60     OpensslLib:v3_bitst.obj
 0002:000276b0       ??_C@_0N@GONHKOEO@keyAgreement@ 0000000000093e70     OpensslLib:v3_bitst.obj
 0002:000276c0       ??_C@_0BB@ELNGMDLH@Certificate?5Sign@ 0000000000093e80     OpensslLib:v3_bitst.obj
 0002:000276d8       ??_C@_0M@ONBOOMGI@keyCertSign@ 0000000000093e98     OpensslLib:v3_bitst.obj
 0002:000276e8       ??_C@_08OCJGKMAN@CRL?5Sign@ 0000000000093ea8     OpensslLib:v3_bitst.obj
 0002:000276f8       ??_C@_07IHBCCDFJ@cRLSign@  0000000000093eb8     OpensslLib:v3_bitst.obj
 0002:00027700       ??_C@_0O@CANGKMJD@Encipher?5Only@ 0000000000093ec0     OpensslLib:v3_bitst.obj
 0002:00027710       ??_C@_0N@BEFDLIKF@encipherOnly@ 0000000000093ed0     OpensslLib:v3_bitst.obj
 0002:00027720       ??_C@_0O@FKBAPCEG@Decipher?5Only@ 0000000000093ee0     OpensslLib:v3_bitst.obj
 0002:00027730       ??_C@_0N@LIFHMFCO@decipherOnly@ 0000000000093ef0     OpensslLib:v3_bitst.obj
 0002:00027740       v3_ocsp_crlid              0000000000093f00     OpensslLib:v3_ocsp.obj
 0002:000277b0       v3_crl_hold                0000000000093f70     OpensslLib:v3_ocsp.obj
 0002:00027820       v3_ocsp_nocheck            0000000000093fe0     OpensslLib:v3_ocsp.obj
 0002:00027890       v3_ocsp_acutoff            0000000000094050     OpensslLib:v3_ocsp.obj
 0002:00027900       v3_ocsp_nonce              00000000000940c0     OpensslLib:v3_ocsp.obj
 0002:00027970       v3_crl_invdate             0000000000094130     OpensslLib:v3_ocsp.obj
 0002:000279e0       v3_ocsp_serviceloc         00000000000941a0     OpensslLib:v3_ocsp.obj
 0002:00027a48       ??_C@_0M@KIKBFHBJ@?$CF?$CKscrlUrl?3?5@ 0000000000094208     OpensslLib:v3_ocsp.obj
 0002:00027a58       ??_C@_0M@MLCMBODE@?$CF?$CKscrlNum?3?5@ 0000000000094218     OpensslLib:v3_ocsp.obj
 0002:00027a68       ??_C@_0N@IBJOMEDL@?$CF?$CKscrlTime?3?5@ 0000000000094228     OpensslLib:v3_ocsp.obj
 0002:00027a78       ??_C@_0M@IHOINNJF@?$CF?$CKsIssuer?3?5@ 0000000000094238     OpensslLib:v3_ocsp.obj
 0002:00027a84       ??_C@_04NFEJKGEM@?6?$CF?$CKs@ 0000000000094244     OpensslLib:v3_ocsp.obj
 0002:00027a8c       ??_C@_03NLJIHOMM@?5?9?5@   000000000009424c     OpensslLib:v3_ocsp.obj
 0002:00027a90       v3_akey_id                 0000000000094250     OpensslLib:v3_akey.obj
 0002:00027af8       ??_C@_06KHDOHNKC@always@   00000000000942b8     OpensslLib:v3_akey.obj
 0002:00027b00       v3_ns_ia5_list             00000000000942c0     OpensslLib:v3_ia5.obj
 0002:00027e40       v3_delta_crl               0000000000094600     OpensslLib:v3_int.obj
 0002:00027eb0       v3_inhibit_anyp            0000000000094670     OpensslLib:v3_int.obj
 0002:00027f20       v3_crl_num                 00000000000946e0     OpensslLib:v3_int.obj
 0002:00027f90       v3_ext_admission           0000000000094750     OpensslLib:v3_admis.obj
 0002:00027ff8       ??_C@_0BC@KHBCHCNJ@namingAuthorityId@ 00000000000947b8     OpensslLib:v3_admis.obj
 0002:00028010       ??_C@_0BD@DEIEGLEM@namingAuthorityUrl@ 00000000000947d0     OpensslLib:v3_admis.obj
 0002:00028028       ??_C@_0BE@NPIMHIBI@namingAuthorityText@ 00000000000947e8     OpensslLib:v3_admis.obj
 0002:00028040       ??_C@_0BB@COJAOCFM@NAMING_AUTHORITY@ 0000000000094800     OpensslLib:v3_admis.obj
 0002:00028058       ??_C@_0BA@DBBLIBJC@namingAuthority@ 0000000000094818     OpensslLib:v3_admis.obj
 0002:00028068       ??_C@_0BA@JCIKJJCP@professionItems@ 0000000000094828     OpensslLib:v3_admis.obj
 0002:00028078       ??_C@_0P@PBNEFCJO@professionOIDs@ 0000000000094838     OpensslLib:v3_admis.obj
 0002:00028088       ??_C@_0BD@NJLNALHF@registrationNumber@ 0000000000094848     OpensslLib:v3_admis.obj
 0002:000280a0       ??_C@_0BC@EDMGMCCO@addProfessionInfo@ 0000000000094860     OpensslLib:v3_admis.obj
 0002:000280b8       ??_C@_0BA@KKEGAEAH@PROFESSION_INFO@ 0000000000094878     OpensslLib:v3_admis.obj
 0002:000280c8       ??_C@_0BD@GKCCDPCL@admissionAuthority@ 0000000000094888     OpensslLib:v3_admis.obj
 0002:000280e0       ??_C@_0BA@KJOLGNIM@professionInfos@ 00000000000948a0     OpensslLib:v3_admis.obj
 0002:000280f0       ??_C@_0L@OIMBEHAN@ADMISSIONS@ 00000000000948b0     OpensslLib:v3_admis.obj
 0002:00028100       ??_C@_0BF@FNBKMPAG@contentsOfAdmissions@ 00000000000948c0     OpensslLib:v3_admis.obj
 0002:00028118       ??_C@_0BB@PBMIGONA@ADMISSION_SYNTAX@ 00000000000948d8     OpensslLib:v3_admis.obj
 0002:00028130       ??_C@_0BF@MPDFFBEA@?$CF?$CKsnamingAuthority?3?5@ 00000000000948f0     OpensslLib:v3_admis.obj
 0002:00028148       ??_C@_0BM@DCICMEAO@?$CF?$CKs?5?5admissionAuthorityId?3?5@ 0000000000094908     OpensslLib:v3_admis.obj
 0002:00028164       ??_C@_01PKGAHCOL@?$CJ@     0000000000094924     OpensslLib:v3_admis.obj
 0002:00028168       ??_C@_02GFKOMOKH@?5?$CI@   0000000000094928     OpensslLib:v3_admis.obj
 0002:00028170       ??_C@_09MCJOGJJM@?$CFs?$CFs?$CFs?$CFs?6@ 0000000000094930     OpensslLib:v3_admis.obj
 0002:00028180       ??_C@_0BL@DELGFPFK@?$CF?$CKs?5?5namingAuthorityText?3?5@ 0000000000094940     OpensslLib:v3_admis.obj
 0002:000281a0       ??_C@_0BK@OPCGIEEP@?$CF?$CKs?5?5namingAuthorityUrl?3?5@ 0000000000094960     OpensslLib:v3_admis.obj
 0002:000281c0       ??_C@_0BI@NKKBPCEB@?$CF?$CKsadmissionAuthority?3?6@ 0000000000094980     OpensslLib:v3_admis.obj
 0002:000281d8       ??_C@_05EGGOJAEM@?$CF?$CKs?5?5@ 0000000000094998     OpensslLib:v3_admis.obj
 0002:000281e0       ??_C@_0P@ONCDAKNH@?$CF?$CKsEntry?5?$CF0d?3?6@ 00000000000949a0     OpensslLib:v3_admis.obj
 0002:000281f0       ??_C@_0BK@MGPHHOEM@?$CF?$CKs?5?5admissionAuthority?3?6@ 00000000000949b0     OpensslLib:v3_admis.obj
 0002:00028210       ??_C@_07BAKLHGB@?$CF?$CKs?5?5?5?5@ 00000000000949d0     OpensslLib:v3_admis.obj
 0002:00028218       ??_C@_0CB@JOPMCDOG@?$CF?$CKs?5?5Profession?5Info?5Entry?5?$CF0d?3@ 00000000000949d8     OpensslLib:v3_admis.obj
 0002:00028240       ??_C@_0BM@PNLACIIE@?$CF?$CKs?5?5?5?5registrationNumber?3?5@ 0000000000094a00     OpensslLib:v3_admis.obj
 0002:00028260       ??_C@_0BG@COHLBKD@?$CF?$CKs?5?5?5?5Info?5Entries?3?6@ 0000000000094a20     OpensslLib:v3_admis.obj
 0002:00028278       ??_C@_09IECKBPIB@?$CF?$CKs?5?5?5?5?5?5@ 0000000000094a38     OpensslLib:v3_admis.obj
 0002:00028288       ??_C@_0BJ@KFOBDAG@?$CF?$CKs?5?5?5?5Profession?5OIDs?3?6@ 0000000000094a48     OpensslLib:v3_admis.obj
 0002:000282a8       ??_C@_0BD@OELCPJIC@?$CF?$CKs?5?5?5?5?5?5?$CFs?$CFs?$CFs?$CFs?6@ 0000000000094a68     OpensslLib:v3_admis.obj
 0002:000282c0       PROFESSION_INFO_it         0000000000094a80     OpensslLib:v3_admis.obj
 0002:00028350       ADMISSION_SYNTAX_it        0000000000094b10     OpensslLib:v3_admis.obj
 0002:00028380       ADMISSIONS_it              0000000000094b40     OpensslLib:v3_admis.obj
 0002:000284f0       NAMING_AUTHORITY_it        0000000000094cb0     OpensslLib:v3_admis.obj
 0002:00028520       v3_skey_id                 0000000000094ce0     OpensslLib:v3_skey.obj
 0002:00028588       ??_C@_04OIJGJDKO@hash@     0000000000094d48     OpensslLib:v3_skey.obj
 0002:00028590       v3_crl_reason              0000000000094d50     OpensslLib:v3_enum.obj
 0002:000285f8       ??_C@_0M@NNPCGPMF@Unspecified@ 0000000000094db8     OpensslLib:v3_enum.obj
 0002:00028608       ??_C@_0M@MFMDLEDN@unspecified@ 0000000000094dc8     OpensslLib:v3_enum.obj
 0002:00028618       ??_C@_0BA@GLPEKBIK@Remove?5From?5CRL@ 0000000000094dd8     OpensslLib:v3_enum.obj
 0002:00028628       ??_C@_0O@BILLKPKO@removeFromCRL@ 0000000000094de8     OpensslLib:v3_enum.obj
 0002:00028640       v3_pkey_usage_period       0000000000094e00     OpensslLib:v3_pku.obj
 0002:000286a8       ??_C@_0BC@CCOKACDM@PKEY_USAGE_PERIOD@ 0000000000094e68     OpensslLib:v3_pku.obj
 0002:000286c0       ??_C@_0N@KGLJEEMK@Not?5Before?3?5@ 0000000000094e80     OpensslLib:v3_pku.obj
 0002:000286d0       ??_C@_0M@FCHJLIHE@Not?5After?3?5@ 0000000000094e90     OpensslLib:v3_pku.obj
 0002:00028720       PKEY_USAGE_PERIOD_it       0000000000094ee0     OpensslLib:v3_pku.obj
 0002:00028750       v3_policy_mappings         0000000000094f10     OpensslLib:v3_pmaps.obj
 0002:000287b8       ??_C@_0BD@JILOPHFL@issuerDomainPolicy@ 0000000000094f78     OpensslLib:v3_pmaps.obj
 0002:000287d0       ??_C@_0BE@FFIKMOKF@subjectDomainPolicy@ 0000000000094f90     OpensslLib:v3_pmaps.obj
 0002:000287e8       ??_C@_0P@NLHMKCKF@POLICY_MAPPING@ 0000000000094fa8     OpensslLib:v3_pmaps.obj
 0002:000287f8       ??_C@_0BA@DHPBCFFC@POLICY_MAPPINGS@ 0000000000094fb8     OpensslLib:v3_pmaps.obj
 0002:00028850       POLICY_MAPPINGS_it         0000000000095010     OpensslLib:v3_pmaps.obj
 0002:00028880       POLICY_MAPPING_it          0000000000095040     OpensslLib:v3_pmaps.obj
 0002:000288d0       v3_sxnet                   0000000000095090     OpensslLib:v3_sxnet.obj
 0002:00028938       ??_C@_04LDDJGOBB@zone@     00000000000950f8     OpensslLib:v3_sxnet.obj
 0002:00028940       ??_C@_04CCHAHKJA@user@     0000000000095100     OpensslLib:v3_sxnet.obj
 0002:00028948       ??_C@_07FLDOGLPN@SXNETID@  0000000000095108     OpensslLib:v3_sxnet.obj
 0002:00028950       ??_C@_03NDFJNBKD@ids@      0000000000095110     OpensslLib:v3_sxnet.obj
 0002:00028954       ??_C@_05BPAJFIHK@SXNET@    0000000000095114     OpensslLib:v3_sxnet.obj
 0002:00028960       ??_C@_0BF@NMLBNADB@?6?$CF?$CKsZone?3?5?$CFs?0?5User?3?5@ 0000000000095120     OpensslLib:v3_sxnet.obj
 0002:000289c0       SXNETID_it                 0000000000095180     OpensslLib:v3_sxnet.obj
 0002:00028a30       SXNET_it                   00000000000951f0     OpensslLib:v3_sxnet.obj
 0002:00028a60       v3_pci                     0000000000095220     OpensslLib:v3_pci.obj
 0002:00028ac8       ??_C@_0BG@IMLADBOH@?$CF?$CKsPolicy?5Text?3?5?$CF?4?$CKs?6@ 0000000000095288     OpensslLib:v3_pci.obj
 0002:00028ae0       ??_C@_08JGCCIMAA@language@ 00000000000952a0     OpensslLib:v3_pci.obj
 0002:00028aec       ??_C@_04ODCMNEMO@hex?3@    00000000000952ac     OpensslLib:v3_pci.obj
 0002:00028af4       ??_C@_05BOPHDICO@file?3@   00000000000952b4     OpensslLib:v3_pci.obj
 0002:00028afc       ??_C@_05FHIGHPDA@text?3@   00000000000952bc     OpensslLib:v3_pci.obj
 0002:00028b10       v3_tls_feature             00000000000952d0     OpensslLib:v3_tlsf.obj
 0002:00028b78       ??_C@_0M@HGHOPPFP@TLS_FEATURE@ 0000000000095338     OpensslLib:v3_tlsf.obj
 0002:00028b88       ??_C@_0P@NAKMKOPA@status_request@ 0000000000095348     OpensslLib:v3_tlsf.obj
 0002:00028b98       ??_C@_0BC@HEECFCMD@status_request_v2@ 0000000000095358     OpensslLib:v3_tlsf.obj
 0002:00028c00       ??_C@_04JBGFELJA@tag?$DN@  00000000000953c0     OpensslLib:asn1_gen.obj
 0002:00028c08       ??_C@_05CCNLIHFO@ASCII@    00000000000953c8     OpensslLib:asn1_gen.obj
 0002:00028c10       ??_C@_03IECIMIEG@HEX@      00000000000953d0     OpensslLib:asn1_gen.obj
 0002:00028c18       ??_C@_07HMNLDFAL@BITLIST@  00000000000953d8     OpensslLib:asn1_gen.obj
 0002:00028c20       ??_C@_05NALEHOPE@Char?$DN@ 00000000000953e0     OpensslLib:asn1_gen.obj
 0002:00028c28       ??_C@_04PPJDIBFE@BOOL@     00000000000953e8     OpensslLib:asn1_gen.obj
 0002:00028c30       ??_C@_03JMHEAPMO@INT@      00000000000953f0     OpensslLib:asn1_gen.obj
 0002:00028c34       ??_C@_04PNKFCNMG@ENUM@     00000000000953f4     OpensslLib:asn1_gen.obj
 0002:00028c3c       ??_C@_03PGJCFEMG@OID@      00000000000953fc     OpensslLib:asn1_gen.obj
 0002:00028c40       ??_C@_03JCIJEFNJ@UTC@      0000000000095400     OpensslLib:asn1_gen.obj
 0002:00028c48       ??_C@_07EECHABMP@GENTIME@  0000000000095408     OpensslLib:asn1_gen.obj
 0002:00028c50       ??_C@_03LBMHMDEB@OCT@      0000000000095410     OpensslLib:asn1_gen.obj
 0002:00028c58       ??_C@_0M@JIDALIGG@OCTETSTRING@ 0000000000095418     OpensslLib:asn1_gen.obj
 0002:00028c64       ??_C@_06GOEDGPII@BITSTR@   0000000000095424     OpensslLib:asn1_gen.obj
 0002:00028c70       ??_C@_09MBLGEDKL@BITSTRING@ 0000000000095430     OpensslLib:asn1_gen.obj
 0002:00028c7c       ??_C@_04CBEPCLMK@UNIV@     000000000009543c     OpensslLib:asn1_gen.obj
 0002:00028c84       ??_C@_03OLMOBCBF@IA5@      0000000000095444     OpensslLib:asn1_gen.obj
 0002:00028c88       ??_C@_09OMDMMLJJ@PRINTABLE@ 0000000000095448     OpensslLib:asn1_gen.obj
 0002:00028c94       ??_C@_03HMGPCGIG@T61@      0000000000095454     OpensslLib:asn1_gen.obj
 0002:00028c98       ??_C@_0O@GENPGMAM@TELETEXSTRING@ 0000000000095458     OpensslLib:asn1_gen.obj
 0002:00028ca8       ??_C@_0O@OIKLOOAP@GeneralString@ 0000000000095468     OpensslLib:asn1_gen.obj
 0002:00028cb8       ??_C@_06GBOJAPHH@GENSTR@   0000000000095478     OpensslLib:asn1_gen.obj
 0002:00028cc0       ??_C@_07DBOJJFHC@NUMERIC@  0000000000095480     OpensslLib:asn1_gen.obj
 0002:00028cc8       ??_C@_03NCPCKDJB@SEQ@      0000000000095488     OpensslLib:asn1_gen.obj
 0002:00028ccc       ??_C@_03KKGFKKLA@EXP@      000000000009548c     OpensslLib:asn1_gen.obj
 0002:00028cd0       ??_C@_08CNKBIFDO@EXPLICIT@ 0000000000095490     OpensslLib:asn1_gen.obj
 0002:00028cdc       ??_C@_03PKFOHEJD@IMP@      000000000009549c     OpensslLib:asn1_gen.obj
 0002:00028ce0       ??_C@_08PPMOEJGF@IMPLICIT@ 00000000000954a0     OpensslLib:asn1_gen.obj
 0002:00028cf0       ??_C@_07KIEILLID@OCTWRAP@  00000000000954b0     OpensslLib:asn1_gen.obj
 0002:00028cf8       ??_C@_07LAEBDLGO@SEQWRAP@  00000000000954b8     OpensslLib:asn1_gen.obj
 0002:00028d00       ??_C@_07OAIMKKNN@SETWRAP@  00000000000954c0     OpensslLib:asn1_gen.obj
 0002:00028d08       ??_C@_07JHDNPBBM@BITWRAP@  00000000000954c8     OpensslLib:asn1_gen.obj
 0002:00028d10       ??_C@_04HPGCGPG@FORM@      00000000000954d0     OpensslLib:asn1_gen.obj
 0002:00028d18       ??_C@_06DPGELLJH@FORMAT@   00000000000954d8     OpensslLib:asn1_gen.obj
 0002:00028d20       ??_C@_07IOGEOOAA@string?$DN@ 00000000000954e0     OpensslLib:asn1_gen.obj
 0002:00028d28       ??_C@_03DNALGGBA@DIR@      00000000000954e8     OpensslLib:asn1_gen.obj
 0002:00029040       ??_C@_0GE@BFJKPFGM@?$FLOPENSSL_RAND_POOL?$FN?5NULL?5RandBu@ 0000000000095800     OpensslLib:rand_pool.obj
 0002:000290a8       ??_C@_0BL@BANKOLJL@RandBuffer?5?$CB?$DN?5?$CI?$CIvoid?5?$CK?$CJ?50?$CJ@ 0000000000095868     OpensslLib:rand_pool.obj
 0002:000290c8       ??_C@_0DI@IALCLMIH@d?3?2myedk2?2edk2?2CryptoPkg?2Librar@ 0000000000095888     OpensslLib:rand_pool.obj
 0002:0002ad18       ??_C@_08KLAPILAK@SigEd448@ 00000000000974d8     OpensslLib:eddsa.obj
 0002:000329f0       ??_C@_05NJJIPCOC@?$CFs?50?6@ 000000000009f1b0     OpensslLib:t_pkey.obj
 0002:000329f8       ??_C@_0BE@KHLFKPFC@?$CFs?5?$CFs?$CFlu?5?$CI?$CFs0x?$CFlx?$CJ?6@ 000000000009f1b8     OpensslLib:t_pkey.obj
 0002:00032a10       ??_C@_0M@IBLDKCHK@?5?$CINegative?$CJ@ 000000000009f1d0     OpensslLib:t_pkey.obj
 0002:00032a1c       ??_C@_05JMJKDBEJ@?$CFs?$CFs?6@ 000000000009f1dc     OpensslLib:t_pkey.obj
 0002:00032ab0       curve448_point_identity    000000000009f270     OpensslLib:curve448.obj
 0002:00032bf8       ??_C@_03JFFFKLGJ@C1x@      000000000009f3b8     OpensslLib:sm2_crypt.obj
 0002:00032bfc       ??_C@_03IMEOJKCI@C1y@      000000000009f3bc     OpensslLib:sm2_crypt.obj
 0002:00032c00       ??_C@_02IGAJHAEE@C3@       000000000009f3c0     OpensslLib:sm2_crypt.obj
 0002:00032c04       ??_C@_02JPBCEBAF@C2@       000000000009f3c4     OpensslLib:sm2_crypt.obj
 0002:00032c08       ??_C@_0P@HHMLELMD@SM2_Ciphertext@ 000000000009f3c8     OpensslLib:sm2_crypt.obj
 0002:00032ca0       SM2_Ciphertext_it          000000000009f460     OpensslLib:sm2_crypt.obj
 0002:00033530       ??_C@_0BI@DFFFIKFB@Generator?5?$CIcompressed?$CJ?3@ 000000000009fcf0     OpensslLib:eck_prn.obj
 0002:00033548       ??_C@_0BK@DOCPEENO@Generator?5?$CIuncompressed?$CJ?3@ 000000000009fd08     OpensslLib:eck_prn.obj
 0002:00033568       ??_C@_0BE@FPCNHCIJ@Generator?5?$CIhybrid?$CJ?3@ 000000000009fd28     OpensslLib:eck_prn.obj
 0002:00033580       ??_C@_0N@JOFLCJFF@ASN1?5OID?3?5?$CFs@ 000000000009fd40     OpensslLib:eck_prn.obj
 0002:00033590       ??_C@_0BA@LNIECBHN@NIST?5CURVE?3?5?$CFs?6@ 000000000009fd50     OpensslLib:eck_prn.obj
 0002:000335a0       ??_C@_0BA@KNKNOIFH@Field?5Type?3?5?$CFs?6@ 000000000009fd60     OpensslLib:eck_prn.obj
 0002:000335b0       ??_C@_0BA@ENMKKION@Basis?5Type?3?5?$CFs?6@ 000000000009fd70     OpensslLib:eck_prn.obj
 0002:000335c0       ??_C@_0M@JDIPGLHE@Polynomial?3@ 000000000009fd80     OpensslLib:eck_prn.obj
 0002:000335cc       ??_C@_06DBHHIIKM@Prime?3@  000000000009fd8c     OpensslLib:eck_prn.obj
 0002:000335d4       ??_C@_05GMFDOKMO@A?3?5?5?5@ 000000000009fd94     OpensslLib:eck_prn.obj
 0002:000335dc       ??_C@_05OKMHJIGA@B?3?5?5?5@ 000000000009fd9c     OpensslLib:eck_prn.obj
 0002:000335e8       ??_C@_07KOGOKIFH@Order?3?5@ 000000000009fda8     OpensslLib:eck_prn.obj
 0002:000335f0       ??_C@_0L@IEMHODML@Cofactor?3?5@ 000000000009fdb0     OpensslLib:eck_prn.obj
 0002:000335fc       ??_C@_05PDHKGGIM@Seed?3@   000000000009fdbc     OpensslLib:eck_prn.obj
 0002:00033604       ??_C@_02JPPHBJLD@?2?6@     000000000009fdc4     OpensslLib:f_int.obj
 0002:00033608       ??_C@_01JEJKBAGA@g@        000000000009fdc8     OpensslLib:dh_asn1.obj
 0002:0003360c       ??_C@_06IJDLPEM@length@    000000000009fdcc     OpensslLib:dh_asn1.obj
 0002:00033618       ??_C@_08LKFDNFJ@DHparams@  000000000009fdd8     OpensslLib:dh_asn1.obj
 0002:00033628       ??_C@_07HDOCMLOI@counter@  000000000009fde8     OpensslLib:dh_asn1.obj
 0002:00033630       ??_C@_0O@KANPBCM@int_dhvparams@ 000000000009fdf0     OpensslLib:dh_asn1.obj
 0002:00033640       ??_C@_01CBDEGOCN@j@        000000000009fe00     OpensslLib:dh_asn1.obj
 0002:00033648       ??_C@_07JLLHOFNK@vparams@  000000000009fe08     OpensslLib:dh_asn1.obj
 0002:00033650       ??_C@_0O@HMLHGNDO@int_dhx942_dh@ 000000000009fe10     OpensslLib:dh_asn1.obj
 0002:00033730       DHparams_it                000000000009fef0     OpensslLib:dh_asn1.obj
 0002:000362f0       ??_C@_09OJPHJNPC@fips_mode@ 00000000000a2ab0     OpensslLib:evp_cnf.obj
 0002:00036300       ??_C@_0M@HEHLDANB@alg_section@ 00000000000a2ac0     OpensslLib:evp_cnf.obj
 0002:00036310       ??_C@_0N@DJMJOKGL@stbl_section@ 00000000000a2ad0     OpensslLib:asn_mstbl.obj
 0002:00036320       ??_C@_03KLIPLJLL@min@      00000000000a2ae0     OpensslLib:asn_mstbl.obj
 0002:00036324       ??_C@_04LFLEPBN@mask@      00000000000a2ae4     OpensslLib:asn_mstbl.obj
 0002:0003632c       ??_C@_05GECEPKB@flags@     00000000000a2aec     OpensslLib:asn_mstbl.obj
 0002:00036334       ??_C@_06HCDOONEJ@nomask@   00000000000a2af4     OpensslLib:asn_mstbl.obj
 0002:0003633c       ??_C@_06KABKJMAI@field?$DN@ 00000000000a2afc     OpensslLib:asn_mstbl.obj
 0002:00036348       ??_C@_08IPPANOEC@ssl_conf@ 00000000000a2b08     OpensslLib:conf_ssl.obj
 0002:00036358       ??_C@_0M@HCKPEIO@oid_section@ 00000000000a2b18     OpensslLib:asn_moid.obj
 0002:00037510       _bignum_dh2048_224_q       00000000000a3cd0     OpensslLib:bn_dh.obj
 0002:00037528       _bignum_dh2048_256_g       00000000000a3ce8     OpensslLib:bn_dh.obj
 0002:00037540       _bignum_dh1024_160_g       00000000000a3d00     OpensslLib:bn_dh.obj
 0002:00037558       _bignum_dh2048_224_p       00000000000a3d18     OpensslLib:bn_dh.obj
 0002:00037570       _bignum_dh2048_256_p       00000000000a3d30     OpensslLib:bn_dh.obj
 0002:00037588       _bignum_dh2048_224_g       00000000000a3d48     OpensslLib:bn_dh.obj
 0002:000375a0       _bignum_dh1024_160_p       00000000000a3d60     OpensslLib:bn_dh.obj
 0002:000375b8       _bignum_dh2048_256_q       00000000000a3d78     OpensslLib:bn_dh.obj
 0002:000375d0       _bignum_dh1024_160_q       00000000000a3d90     OpensslLib:bn_dh.obj
 0002:000375e8       _bignum_ffdhe4096_p        00000000000a3da8     OpensslLib:bn_dh.obj
 0002:00037600       _bignum_ffdhe8192_p        00000000000a3dc0     OpensslLib:bn_dh.obj
 0002:00037618       _bignum_ffdhe2048_p        00000000000a3dd8     OpensslLib:bn_dh.obj
 0002:00037630       _bignum_const_2            00000000000a3df0     OpensslLib:bn_dh.obj
 0002:00037648       _bignum_ffdhe6144_p        00000000000a3e08     OpensslLib:bn_dh.obj
 0002:00037660       _bignum_ffdhe3072_p        00000000000a3e20     OpensslLib:bn_dh.obj
 0002:000386c0       curve448_scalar_one        00000000000a4e80     OpensslLib:scalar.obj
 0002:00038740       curve448_scalar_zero       00000000000a4f00     OpensslLib:scalar.obj
 0002:0003dc00       CumulativeDays             00000000000aa3c0     BaseCryptLib:TimerWrapper.obj
 0002:0003dce0       ??_C@_0BN@FHPHCJAL@BufferToSort?5?$CB?$DN?5?$CI?$CIvoid?5?$CK?$CJ?50?$CJ@ 00000000000aa4a0     BaseCryptLib:CrtWrapper.obj
 0002:0003dd00       ??_C@_0ED@BFHODHP@d?3?2myedk2?2edk2?2CryptoPkg?2Librar@ 00000000000aa4c0     BaseCryptLib:CrtWrapper.obj
 0002:0003dd48       ??_C@_0CA@DJEMEKLN@CompareFunction?5?$CB?$DN?5?$CI?$CIvoid?5?$CK?$CJ?50?$CJ@ 00000000000aa508     BaseCryptLib:CrtWrapper.obj
 0002:0003dd68       ??_C@_0BD@IPPNMEE@s1?5?$CB?$DN?5?$CI?$CIvoid?5?$CK?$CJ?50?$CJ@ 00000000000aa528     BaseCryptLib:CrtWrapper.obj
 0002:0003dd80       ??_C@_0BD@OCHJABCG@s2?5?$CB?$DN?5?$CI?$CIvoid?5?$CK?$CJ?50?$CJ@ 00000000000aa540     BaseCryptLib:CrtWrapper.obj
 0002:0003dd98       ??_C@_0BF@MBPLIJNB@base?5?$CB?$DN?5?$CI?$CIvoid?5?$CK?$CJ?50?$CJ@ 00000000000aa558     BaseCryptLib:CrtWrapper.obj
 0002:0003ddb0       ??_C@_0BI@BKNMBGLA@compare?5?$CB?$DN?5?$CI?$CIvoid?5?$CK?$CJ?50?$CJ@ 00000000000aa570     BaseCryptLib:CrtWrapper.obj
 0002:0003ddd0       ??_C@_0EE@KPJOBFDM@d?3?2myedk2?2edk2?2MdePkg?2Library?2B@ 00000000000aa590     BaseMemoryLibRepStr:ScanMem8Wrapper.obj
 0002:0003de18       ??_C@_0DP@DAHOLNJI@d?3?2myedk2?2edk2?2MdePkg?2Library?2B@ 00000000000aa5d8     BaseRngLibTimerLib:RngLibTimer.obj
 0002:0003de58       ??_C@_0BF@NGOMKDDB@Rand?5?$CB?$DN?5?$CI?$CIvoid?5?$CK?$CJ?50?$CJ@ 00000000000aa618     BaseRngLibTimerLib:RngLibTimer.obj
 0002:0003de70       __real@4020000000000000    00000000000aa630     OpensslLib:drbg_lib.obj
 0002:0003de78       __real@43e0000000000000    00000000000aa638     OpensslLib:drbg_lib.obj
 0002:0003de80       __xmm@00000003000000020000000100000000 00000000000aa640     OpensslLib:f_generic.obj
 0002:0003de90       __xmm@00000008000000080000000800000008 00000000000aa650     OpensslLib:f_generic.obj
 0002:0003dea0       __xmm@36363636363636363636363636363636 00000000000aa660     OpensslLib:hmac.obj
 0002:0003deb0       __xmm@5c5c5c5c5c5c5c5c5c5c5c5c5c5c5c5c 00000000000aa670     OpensslLib:hmac.obj
 0002:0003df24       __volatile_metadata        00000000000aa6e4     <linker-defined>
 0003:00000000       _fltused                   00000000000aadc0     BaseIntrinsicLib:MemoryIntrinsics.obj
 0003:00000008       gEfiGlobalVariableGuid     00000000000aadc8     SecurityStubDxe:AutoGen.obj
 0003:00000018       gEfiStatusCodeRuntimeProtocolGuid 00000000000aadd8     SecurityStubDxe:AutoGen.obj
 0003:00000028       gEfiSecurityArchProtocolGuid 00000000000aade8     SecurityStubDxe:AutoGen.obj
 0003:00000038       gEfiEventReadyToBootGuid   00000000000aadf8     SecurityStubDxe:AutoGen.obj
 0003:00000048       gEfiImageSecurityDatabaseGuid 00000000000aae08     SecurityStubDxe:AutoGen.obj
 0003:00000058       gPcdProtocolGuid           00000000000aae18     SecurityStubDxe:AutoGen.obj
 0003:00000068       gEfiDxeSmmReadyToLockProtocolGuid 00000000000aae28     SecurityStubDxe:AutoGen.obj
 0003:00000078       gEfiLoadFileProtocolGuid   00000000000aae38     SecurityStubDxe:AutoGen.obj
 0003:00000088       gEfiDeferredImageLoadProtocolGuid 00000000000aae48     SecurityStubDxe:AutoGen.obj
 0003:00000098       gEfiCertPkcs7Guid          00000000000aae58     SecurityStubDxe:AutoGen.obj
 0003:000000a8       gEfiCertX509Sha384Guid     00000000000aae68     SecurityStubDxe:AutoGen.obj
 0003:000000b8       gEfiFileInfoGuid           00000000000aae78     SecurityStubDxe:AutoGen.obj
 0003:000000c8       gEfiCertX509Sha256Guid     00000000000aae88     SecurityStubDxe:AutoGen.obj
 0003:000000d8       gEfiDevicePathProtocolGuid 00000000000aae98     SecurityStubDxe:AutoGen.obj
 0003:000000e8       gEfiFirmwareVolume2ProtocolGuid 00000000000aaea8     SecurityStubDxe:AutoGen.obj
 0003:000000f8       gEfiCertX509Sha512Guid     00000000000aaeb8     SecurityStubDxe:AutoGen.obj
 0003:00000108       gEfiDevicePathToTextProtocolGuid 00000000000aaec8     SecurityStubDxe:AutoGen.obj
 0003:00000118       gUefiOvmfPkgPlatformInfoGuid 00000000000aaed8     SecurityStubDxe:AutoGen.obj
 0003:00000128       gEfiCertX509Guid           00000000000aaee8     SecurityStubDxe:AutoGen.obj
 0003:00000138       gEfiDevicePathUtilitiesProtocolGuid 00000000000aaef8     SecurityStubDxe:AutoGen.obj
 0003:00000148       gEfiSimpleFileSystemProtocolGuid 00000000000aaf08     SecurityStubDxe:AutoGen.obj
 0003:00000158       gEfiHobListGuid            00000000000aaf18     SecurityStubDxe:AutoGen.obj
 0003:00000168       gEfiSecurity2ArchProtocolGuid 00000000000aaf28     SecurityStubDxe:AutoGen.obj
 0003:00000178       gEfiEndOfDxeEventGroupGuid 00000000000aaf38     SecurityStubDxe:AutoGen.obj
 0003:00000188       gEfiBlockIoProtocolGuid    00000000000aaf48     SecurityStubDxe:AutoGen.obj
 0003:00000198       gEfiCallerIdGuid           00000000000aaf58     SecurityStubDxe:AutoGen.obj
 0003:000001a8       gEfiLoadFile2ProtocolGuid  00000000000aaf68     SecurityStubDxe:AutoGen.obj
 0003:000001b8       mSecurityStub              00000000000aaf78     SecurityStubDxe:SecurityStub.obj
 0003:000001c0       mSecurity2Stub             00000000000aaf80     SecurityStubDxe:SecurityStub.obj
 0003:000001c8       mDeferredImageLoad         00000000000aaf88     SecurityStubDxe:Defer3rdPartyImageLoad.obj
 0003:000001d0       mHashOidValue              00000000000aaf90     DxeImageVerificationLib:DxeImageVerificationLib.obj
 0003:00000200       mHash                      00000000000aafc0     DxeImageVerificationLib:DxeImageVerificationLib.obj
 0003:00000340       mVariableType              00000000000ab100     DxeImageVerificationLib:Measurement.obj
 0003:00000350       mOidValue                  00000000000ab110     BaseCryptLib:CryptPkcs7VerifyCommon.obj
 0003:00000360       mSpcIndirectOidValue       00000000000ab120     BaseCryptLib:CryptAuthenticode.obj
 0003:00000370       mSpcRFC3161OidValue        00000000000ab130     BaseCryptLib:CryptTs.obj
 0003:00000ab0       rand_meth                  00000000000ab870     OpensslLib:drbg_lib.obj
 0003:00000ee0       mSecurityArchProtocolHandle 00000000000abca0     SecurityStubDxe:SecurityStub.obj
 0003:00000ee8       mEndOfDxe                  00000000000abca8     SecurityStubDxe:Defer3rdPartyImageLoad.obj
 0003:00000ee9       mImageLoadedAfterEndOfDxe  00000000000abca9     SecurityStubDxe:Defer3rdPartyImageLoad.obj
 0003:00000ef0       mDeferred3rdPartyImage     00000000000abcb0     SecurityStubDxe:Defer3rdPartyImageLoad.obj
 0003:00000f00       gST                        00000000000abcc0     UefiBootServicesTableLib:UefiBootServicesTableLib.obj
 0003:00000f08       gBS                        00000000000abcc8     UefiBootServicesTableLib:UefiBootServicesTableLib.obj
 0003:00000f10       gImageHandle               00000000000abcd0     UefiBootServicesTableLib:UefiBootServicesTableLib.obj
 0003:00000f18       mDevicePathLibDevicePathToText 00000000000abcd8     UefiDevicePathLibDevicePathProtocol:UefiDevicePathLib.obj
 0003:00000f20       mDevicePathLibDevicePathUtilities 00000000000abce0     UefiDevicePathLibDevicePathProtocol:UefiDevicePathLib.obj
 0003:00000f28       gRT                        00000000000abce8     UefiRuntimeServicesTableLib:UefiRuntimeServicesTableLib.obj
 0003:00000f30       mHobList                   00000000000abcf0     DxeHobLib:HobLib.obj
 0003:00000f38       mNumberOfSecurity2Handler  00000000000abcf8     DxeSecurityManagementLib:DxeSecurityManagementLib.obj
 0003:00000f40       mSecurityTable             00000000000abd00     DxeSecurityManagementLib:DxeSecurityManagementLib.obj
 0003:00000f48       mNumberOfSecurityHandler   00000000000abd08     DxeSecurityManagementLib:DxeSecurityManagementLib.obj
 0003:00000f50       mSecurity2Table            00000000000abd10     DxeSecurityManagementLib:DxeSecurityManagementLib.obj
 0003:00000f58       mMaxNumberOfSecurity2Handler 00000000000abd18     DxeSecurityManagementLib:DxeSecurityManagementLib.obj
 0003:00000f5c       mCurrentAuthOperation2     00000000000abd1c     DxeSecurityManagementLib:DxeSecurityManagementLib.obj
 0003:00000f60       mReportStatusCodeLibStatusCodeProtocol 00000000000abd20     DxeReportStatusCodeLib:ReportStatusCodeLib.obj
 0003:00000f68       mImageBase                 00000000000abd28     DxeImageVerificationLib:DxeImageVerificationLib.obj
 0003:00000f70       mMeasuredAuthorityList     00000000000abd30     DxeImageVerificationLib:Measurement.obj
 0003:00000f78       mMeasuredAuthorityCountMax 00000000000abd38     DxeImageVerificationLib:Measurement.obj
 0003:00000f80       mMeasuredAuthorityCount    00000000000abd40     DxeImageVerificationLib:Measurement.obj
 0003:00000f88       mPcd                       00000000000abd48     DxePcdLib:DxePcdLib.obj
 0003:00000f90       gParity                    00000000000abd50     PcAtSerialPortLib:SerialPortLib.obj
 0003:00000f91       gBreakSet                  00000000000abd51     PcAtSerialPortLib:SerialPortLib.obj
 0003:000010a0       errno                      00000000000abe60     BaseCryptLib:CrtWrapper.obj
 0003:00001a50       mHashTypeStr               00000000000ac810     <common>
 0003:00001a58       mNtHeader                  00000000000ac818     <common>
 0003:00001a60       mPeCoffHeaderOffset        00000000000ac820     <common>
 0003:00001a80       mImageDigest               00000000000ac840     <common>
 0003:00001ac0       mImageSize                 00000000000ac880     <common>
 0003:00001ad0       mCertType                  00000000000ac890     <common>
 0003:00001ae0       mImageDigestSize           00000000000ac8a0     <common>

 entry point at        0001:00000384

 Static symbols

 0001:0000001a       InternalMemCopyMem.0       00000000000002da     BaseMemoryLibRepStr:CopyMem.obj
 0001:0000002a       @CopyBackward              00000000000002ea     BaseMemoryLibRepStr:CopyMem.obj
 0001:00000033       @CopyBytes                 00000000000002f3     BaseMemoryLibRepStr:CopyMem.obj
 0001:0000014e       TdVmCall.no_return_data    000000000000040e     BaseLib:TdVmcall.obj
 0001:0000026b       TdCall.exit                000000000000052b     BaseLib:TdCall.obj
 0001:000002af       AsmCpuid.0                 000000000000056f     BaseLib:CpuId.obj
 0001:000002b4       AsmCpuid.1                 0000000000000574     BaseLib:CpuId.obj
 0001:000002bb       AsmCpuid.2                 000000000000057b     BaseLib:CpuId.obj
 0001:000002c4       AsmCpuid.3                 0000000000000584     BaseLib:CpuId.obj
 0001:00007894       sha1_block_data_order      0000000000007b54 f   OpensslLib:sha1dgst.obj
 0001:00008130       sha512_block_data_order    00000000000083f0 f   OpensslLib:sha512.obj
 0001:00008598       x509_object_cmp            0000000000008858 f   OpensslLib:x509_lu.obj
 0001:000089bc       x509_store_add             0000000000008c7c f   OpensslLib:x509_lu.obj
 0001:00008ad4       x509_object_idx_cnt        0000000000008d94 f   OpensslLib:x509_lu.obj
 0001:000094b8       check_suite_b              0000000000009778 f   OpensslLib:x509_cmp.obj
 0001:000096dc       null_callback              000000000000999c f   OpensslLib:x509_vfy.obj
 0001:000096e0       verify_cb_cert             00000000000099a0 f   OpensslLib:x509_vfy.obj
 0001:00009730       check_auth_level           00000000000099f0 f   OpensslLib:x509_vfy.obj
 0001:0000989c       verify_chain               0000000000009b5c f   OpensslLib:x509_vfy.obj
 0001:00009afc       find_issuer                0000000000009dbc f   OpensslLib:x509_vfy.obj
 0001:00009c2c       check_issued               0000000000009eec f   OpensslLib:x509_vfy.obj
 0001:00009c48       check_chain_extensions     0000000000009f08 f   OpensslLib:x509_vfy.obj
 0001:0000a068       check_name_constraints     000000000000a328 f   OpensslLib:x509_vfy.obj
 0001:0000a364       check_id_error             000000000000a624 f   OpensslLib:x509_vfy.obj
 0001:0000a3b0       check_hosts                000000000000a670 f   OpensslLib:x509_vfy.obj
 0001:0000a4ac       check_id                   000000000000a76c f   OpensslLib:x509_vfy.obj
 0001:0000a5f4       check_trust                000000000000a8b4 f   OpensslLib:x509_vfy.obj
 0001:0000a880       check_revocation           000000000000ab40 f   OpensslLib:x509_vfy.obj
 0001:0000a8fc       check_cert                 000000000000abbc f   OpensslLib:x509_vfy.obj
 0001:0000ab50       check_crl_time             000000000000ae10 f   OpensslLib:x509_vfy.obj
 0001:0000ac48       get_crl_sk                 000000000000af08 f   OpensslLib:x509_vfy.obj
 0001:0000afb0       crl_extension_match        000000000000b270 f   OpensslLib:x509_vfy.obj
 0001:0000b0b0       crl_akid_check             000000000000b370 f   OpensslLib:x509_vfy.obj
 0001:0000b23c       check_crl_path             000000000000b4fc f   OpensslLib:x509_vfy.obj
 0001:0000b344       idp_check_dp               000000000000b604 f   OpensslLib:x509_vfy.obj
 0001:0000b62c       crl_crldp_check            000000000000b8ec f   OpensslLib:x509_vfy.obj
 0001:0000b78c       check_crl                  000000000000ba4c f   OpensslLib:x509_vfy.obj
 0001:0000ba40       cert_crl                   000000000000bd00 f   OpensslLib:x509_vfy.obj
 0001:0000baec       check_policy               000000000000bdac f   OpensslLib:x509_vfy.obj
 0001:0000bd8c       internal_verify            000000000000c04c f   OpensslLib:x509_vfy.obj
 0001:0000c58c       dane_match                 000000000000c84c f   OpensslLib:x509_vfy.obj
 0001:0000c8e8       check_dane_issuer          000000000000cba8 f   OpensslLib:x509_vfy.obj
 0001:0000c964       check_dane_pkeys           000000000000cc24 f   OpensslLib:x509_vfy.obj
 0001:0000cab8       check_leaf_suiteb          000000000000cd78 f   OpensslLib:x509_vfy.obj
 0001:0000cb60       dane_verify                000000000000ce20 f   OpensslLib:x509_vfy.obj
 0001:0000cc9c       augment_stack              000000000000cf5c f   OpensslLib:x509_vfy.obj
 0001:0000cd48       build_chain                000000000000d008 f   OpensslLib:x509_vfy.obj
 0001:0000d6dc       check_key_level            000000000000d99c f   OpensslLib:x509_vfy.obj
 0001:0000d7fc       mem_init                   000000000000dabc f   OpensslLib:bss_mem.obj
 0001:0000d890       mem_new                    000000000000db50 f   OpensslLib:bss_mem.obj
 0001:0000d898       mem_free                   000000000000db58 f   OpensslLib:bss_mem.obj
 0001:0000d8d0       mem_buf_free               000000000000db90 f   OpensslLib:bss_mem.obj
 0001:0000d978       mem_buf_sync               000000000000dc38 f   OpensslLib:bss_mem.obj
 0001:0000d9d4       mem_read                   000000000000dc94 f   OpensslLib:bss_mem.obj
 0001:0000da64       mem_write                  000000000000dd24 f   OpensslLib:bss_mem.obj
 0001:0000db2c       mem_ctrl                   000000000000ddec f   OpensslLib:bss_mem.obj
 0001:0000dca0       mem_gets                   000000000000df60 f   OpensslLib:bss_mem.obj
 0001:0000dd1c       mem_puts                   000000000000dfdc f   OpensslLib:bss_mem.obj
 0001:0000dd48       x509_cb                    000000000000e008 f   OpensslLib:x_x509.obj
 0001:0000e054       init                       000000000000e314 f   OpensslLib:m_sha1.obj
 0001:0000e060       update                     000000000000e320 f   OpensslLib:m_sha1.obj
 0001:0000e06c       final                      000000000000e32c f   OpensslLib:m_sha1.obj
 0001:0000e07c       ctrl                       000000000000e33c f   OpensslLib:m_sha1.obj
 0001:0000e190       init224                    000000000000e450 f   OpensslLib:m_sha1.obj
 0001:0000e19c       update224                  000000000000e45c f   OpensslLib:m_sha1.obj
 0001:0000e19c       update256                  000000000000e45c f   OpensslLib:m_sha1.obj
 0001:0000e1a8       final224                   000000000000e468 f   OpensslLib:m_sha1.obj
 0001:0000e1a8       final256                   000000000000e468 f   OpensslLib:m_sha1.obj
 0001:0000e1b8       init256                    000000000000e478 f   OpensslLib:m_sha1.obj
 0001:0000e1c4       init512_224                000000000000e484 f   OpensslLib:m_sha1.obj
 0001:0000e258       init512_256                000000000000e518 f   OpensslLib:m_sha1.obj
 0001:0000e2ec       init384                    000000000000e5ac f   OpensslLib:m_sha1.obj
 0001:0000e2f8       update384                  000000000000e5b8 f   OpensslLib:m_sha1.obj
 0001:0000e2f8       update512                  000000000000e5b8 f   OpensslLib:m_sha1.obj
 0001:0000e304       final384                   000000000000e5c4 f   OpensslLib:m_sha1.obj
 0001:0000e304       final512                   000000000000e5c4 f   OpensslLib:m_sha1.obj
 0001:0000e314       init512                    000000000000e5d4 f   OpensslLib:m_sha1.obj
 0001:0000e3cc       sk_reserve                 000000000000e68c f   OpensslLib:stack.obj
 0001:0000e5ac       internal_delete            000000000000e86c f   OpensslLib:stack.obj
 0001:0000e600       internal_find              000000000000e8c0 f   OpensslLib:stack.obj
 0001:0000e760       bio_call_callback          000000000000ea20 f   OpensslLib:bio_lib.obj
 0001:0000e9e4       bio_read_intern            000000000000eca4 f   OpensslLib:bio_lib.obj
 0001:0000eb10       bio_write_intern           000000000000edd0 f   OpensslLib:bio_lib.obj
 0001:0000f8b0       pk7_cb                     000000000000fb70 f   OpensslLib:pk7_asn1.obj
 0001:0000f940       si_cb                      000000000000fc00 f   OpensslLib:pk7_asn1.obj
 0001:0000f960       ri_cb                      000000000000fc20 f   OpensslLib:pk7_asn1.obj
 0001:0000f980       o_names_init_ossl_         000000000000fc40 f   OpensslLib:o_names.obj
 0001:0000fa1c       obj_name_cmp               000000000000fcdc f   OpensslLib:o_names.obj
 0001:0000fa6c       obj_name_hash              000000000000fd2c f   OpensslLib:o_names.obj
 0001:0000fcf4       init                       000000000000ffb4 f   OpensslLib:m_md5.obj
 0001:0000fd34       update                     000000000000fff4 f   OpensslLib:m_md5.obj
 0001:0000fd40       final                      0000000000010000 f   OpensslLib:m_md5.obj
 0001:0000fd50       sn_cmp_BSEARCH_CMP_FN      0000000000010010 f   OpensslLib:obj_dat.obj
 0001:0000fd6c       ln_cmp_BSEARCH_CMP_FN      000000000001002c f   OpensslLib:obj_dat.obj
 0001:0000fd8c       added_obj_hash             000000000001004c f   OpensslLib:obj_dat.obj
 0001:0000fe50       added_obj_cmp              0000000000010110 f   OpensslLib:obj_dat.obj
 0001:00010210       obj_cmp_BSEARCH_CMP_FN     00000000000104d0 f   OpensslLib:obj_dat.obj
 0001:00010b60       pkey_set_type              0000000000010e20 f   OpensslLib:p_lib.obj
 0001:00010d44       x509_name_ex_new           0000000000011004 f   OpensslLib:x_name.obj
 0001:00010dd8       x509_name_ex_free          0000000000011098 f   OpensslLib:x_name.obj
 0001:00010e2c       local_sk_X509_NAME_ENTRY_free 00000000000110ec f   OpensslLib:x_name.obj
 0001:00010e50       local_sk_X509_NAME_ENTRY_pop_free 0000000000011110 f   OpensslLib:x_name.obj
 0001:00010e5c       x509_name_ex_d2i           000000000001111c f   OpensslLib:x_name.obj
 0001:0001113c       x509_name_ex_i2d           00000000000113fc f   OpensslLib:x_name.obj
 0001:000111a4       x509_name_encode           0000000000011464 f   OpensslLib:x_name.obj
 0001:00011330       x509_name_ex_print         00000000000115f0 f   OpensslLib:x_name.obj
 0001:00011378       x509_name_canon            0000000000011638 f   OpensslLib:x_name.obj
 0001:00011568       asn1_string_canon          0000000000011828 f   OpensslLib:x_name.obj
 0001:000116a0       i2d_name_canon             0000000000011960 f   OpensslLib:x_name.obj
 0001:00012230       send_bio_chars             00000000000124f0 f   OpensslLib:a_strex.obj
 0001:0001226c       do_esc_char                000000000001252c f   OpensslLib:a_strex.obj
 0001:000123ec       do_buf                     00000000000126ac f   OpensslLib:a_strex.obj
 0001:00012618       do_hex_dump                00000000000128d8 f   OpensslLib:a_strex.obj
 0001:000126a4       do_dump                    0000000000012964 f   OpensslLib:a_strex.obj
 0001:000127b8       do_print_ex                0000000000012a78 f   OpensslLib:a_strex.obj
 0001:000129b8       do_indent                  0000000000012c78 f   OpensslLib:a_strex.obj
 0001:00012a24       do_name_ex                 0000000000012ce4 f   OpensslLib:a_strex.obj
 0001:00012e60       rsa_cb                     0000000000013120 f   OpensslLib:rsa_asn1.obj
 0001:00012ed4       rsa_pss_cb                 0000000000013194 f   OpensslLib:rsa_asn1.obj
 0001:00013288       sha256_block_data_order    0000000000013548 f   OpensslLib:sha256.obj
 0001:000136f0       ocsp_nonce_free            00000000000139b0 f   OpensslLib:v3_ocsp.obj
 0001:000137e0       asn1_item_embed_d2i        0000000000013aa0 f   OpensslLib:tasn_dec.obj
 0001:00013f28       asn1_template_ex_d2i       00000000000141e8 f   OpensslLib:tasn_dec.obj
 0001:0001409c       asn1_template_noexp_d2i    000000000001435c f   OpensslLib:tasn_dec.obj
 0001:0001432c       asn1_d2i_ex_primitive      00000000000145ec f   OpensslLib:tasn_dec.obj
 0001:0001461c       asn1_ex_c2i                00000000000148dc f   OpensslLib:tasn_dec.obj
 0001:000148c4       asn1_find_end              0000000000014b84 f   OpensslLib:tasn_dec.obj
 0001:00014a04       asn1_collect               0000000000014cc4 f   OpensslLib:tasn_dec.obj
 0001:00014bb4       asn1_check_tlen            0000000000014e74 f   OpensslLib:tasn_dec.obj
 0001:00014e44       asn1_item_embed_new        0000000000015104 f   OpensslLib:tasn_new.obj
 0001:0001508c       asn1_template_new          000000000001534c f   OpensslLib:tasn_new.obj
 0001:00015124       asn1_template_clear        00000000000153e4 f   OpensslLib:tasn_new.obj
 0001:000151a0       asn1_primitive_new         0000000000015460 f   OpensslLib:tasn_new.obj
 0001:000152dc       cleanup_old_md_data        000000000001559c f   OpensslLib:digest.obj
 0001:0001574c       i2c_ibuf                   0000000000015a0c f   OpensslLib:a_int.obj
 0001:00015820       c2i_ibuf                   0000000000015ae0 f   OpensslLib:a_int.obj
 0001:0001593c       asn1_get_uint64            0000000000015bfc f   OpensslLib:a_int.obj
 0001:00015a68       asn1_string_get_int64      0000000000015d28 f   OpensslLib:a_int.obj
 0001:00015b3c       asn1_string_set_int64      0000000000015dfc f   OpensslLib:a_int.obj
 0001:00015b9c       bn_to_asn1_string          0000000000015e5c f   OpensslLib:a_int.obj
 0001:00015c84       asn1_string_to_bn          0000000000015f44 f   OpensslLib:a_int.obj
 0001:0001659c       asn1_item_flags_i2d        000000000001685c f   OpensslLib:tasn_enc.obj
 0001:000169d0       asn1_template_ex_i2d       0000000000016c90 f   OpensslLib:tasn_enc.obj
 0001:00016cb4       der_cmp                    0000000000016f74 f   OpensslLib:tasn_enc.obj
 0001:00016cf4       asn1_set_seq_out           0000000000016fb4 f   OpensslLib:tasn_enc.obj
 0001:00016fa0       asn1_i2d_ex_primitive      0000000000017260 f   OpensslLib:tasn_enc.obj
 0001:00017094       asn1_ex_i2c                0000000000017354 f   OpensslLib:tasn_enc.obj
 0001:00017264       ERR_STATE_free             0000000000017524 f   OpensslLib:err.obj
 0001:0001746c       get_error_values           000000000001772c f   OpensslLib:err.obj
 0001:000175ec       err_do_init_ossl_          00000000000178ac f   OpensslLib:err.obj
 0001:0001771c       err_set_error_data_int     00000000000179dc f   OpensslLib:err.obj
 0001:000179f8       sk_OPENSSL_STRING_deep_copy 0000000000017cb8 f   OpensslLib:x509_vpm.obj
 0001:00017b90       str_copy                   0000000000017e50 f   OpensslLib:x509_vpm.obj
 0001:00017b98       str_free                   0000000000017e58 f   OpensslLib:x509_vpm.obj
 0001:00017df0       int_x509_param_set1        00000000000180b0 f   OpensslLib:x509_vpm.obj
 0001:00017fcc       table_cmp_BSEARCH_CMP_FN   000000000001828c f   OpensslLib:x509_vpm.obj
 0001:00018058       crl_inf_cb                 0000000000018318 f   OpensslLib:x_crl.obj
 0001:0001808c       crl_cb                     000000000001834c f   OpensslLib:x_crl.obj
 0001:000186a8       setup_idp                  0000000000018968 f   OpensslLib:x_crl.obj
 0001:000187a0       X509_REVOKED_cmp           0000000000018a60 f   OpensslLib:x_crl.obj
 0001:000187ac       def_crl_verify             0000000000018a6c f   OpensslLib:x_crl.obj
 0001:000187d4       def_crl_lookup             0000000000018a94 f   OpensslLib:x_crl.obj
 0001:00018984       do_ex_data_init_ossl_      0000000000018c44 f   OpensslLib:ex_data.obj
 0001:000189cc       get_and_lock               0000000000018c8c f   OpensslLib:ex_data.obj
 0001:00019068       table_cmp_BSEARCH_CMP_FN   0000000000019328 f   OpensslLib:a_strnid.obj
 0001:00019068       sig_cmp_BSEARCH_CMP_FN     0000000000019328 f   OpensslLib:obj_xref.obj
 0001:00019068       nid_cmp_BSEARCH_CMP_FN     0000000000019328 f   OpensslLib:v3_purp.obj
 0001:00019070       check_sig_alg_match        0000000000019330 f   OpensslLib:v3_purp.obj
 0001:00019128       x509v3_cache_extensions    00000000000193e8 f   OpensslLib:v3_purp.obj
 0001:0001986c       check_ca                   0000000000019b2c f   OpensslLib:v3_purp.obj
 0001:000198cc       check_purpose_ssl_client   0000000000019b8c f   OpensslLib:v3_purp.obj
 0001:0001993c       check_purpose_ssl_server   0000000000019bfc f   OpensslLib:v3_purp.obj
 0001:000199ac       check_purpose_ns_ssl_server 0000000000019c6c f   OpensslLib:v3_purp.obj
 0001:000199e8       purpose_smime              0000000000019ca8 f   OpensslLib:v3_purp.obj
 0001:00019a44       check_purpose_smime_sign   0000000000019d04 f   OpensslLib:v3_purp.obj
 0001:00019a80       check_purpose_smime_encrypt 0000000000019d40 f   OpensslLib:v3_purp.obj
 0001:00019abc       check_purpose_crl_sign     0000000000019d7c f   OpensslLib:v3_purp.obj
 0001:00019af4       ocsp_helper                0000000000019db4 f   OpensslLib:v3_purp.obj
 0001:00019b08       check_purpose_timestamp_sign 0000000000019dc8 f   OpensslLib:v3_purp.obj
 0001:00019b94       ecx_cmp_parameters         0000000000019e54 f   OpensslLib:ecx_meth.obj
 0001:00019b94       final                      0000000000019e54 f   OpensslLib:m_null.obj
 0001:00019b94       init                       0000000000019e54 f   OpensslLib:m_null.obj
 0001:00019b94       update                     0000000000019e54 f   OpensslLib:m_null.obj
 0001:00019b94       i2r_ocsp_nocheck           0000000000019e54 f   OpensslLib:v3_ocsp.obj
 0001:00019b94       no_check                   0000000000019e54 f   OpensslLib:v3_purp.obj
 0001:0001ad10       ec_guess_cofactor          000000000001afd0 f   OpensslLib:ec_lib.obj
 0001:0001b9cc       ec_precompute_mont_data    000000000001bc8c f   OpensslLib:ec_lib.obj
 0001:0001bac4       ec_field_inverse_mod_ord   000000000001bd84 f   OpensslLib:ec_lib.obj
 0001:0001bbbc       pubkey_cb                  000000000001be7c f   OpensslLib:x_pubkey.obj
 0001:0001bc20       x509_pubkey_decode         000000000001bee0 f   OpensslLib:x_pubkey.obj
 0001:0001be0c       leap_year                  000000000001c0cc f   OpensslLib:a_time.obj
 0001:0001be6c       determine_days             000000000001c12c f   OpensslLib:a_time.obj
 0001:0001c708       x509v3_add_len_value       000000000001c9c8 f   OpensslLib:v3_utl.obj
 0001:0001c8dc       bignum_to_string           000000000001cb9c f   OpensslLib:v3_utl.obj
 0001:0001cfb0       strip_spaces               000000000001d270 f   OpensslLib:v3_utl.obj
 0001:0001d090       equal_nocase               000000000001d350 f   OpensslLib:v3_utl.obj
 0001:0001d114       equal_case                 000000000001d3d4 f   OpensslLib:v3_utl.obj
 0001:0001d178       equal_email                000000000001d438 f   OpensslLib:v3_utl.obj
 0001:0001d218       wildcard_match             000000000001d4d8 f   OpensslLib:v3_utl.obj
 0001:0001d348       valid_star                 000000000001d608 f   OpensslLib:v3_utl.obj
 0001:0001d49c       equal_wildcard             000000000001d75c f   OpensslLib:v3_utl.obj
 0001:0001d540       do_check_string            000000000001d800 f   OpensslLib:v3_utl.obj
 0001:0001d678       do_x509_check              000000000001d938 f   OpensslLib:v3_utl.obj
 0001:0001d9e8       ipv4_from_asc              000000000001dca8 f   OpensslLib:v3_utl.obj
 0001:0001da6c       ipv6_from_asc              000000000001dd2c f   OpensslLib:v3_utl.obj
 0001:0001db78       ipv6_cb                    000000000001de38 f   OpensslLib:v3_utl.obj
 0001:0001de30       tree_init                  000000000001e0f0 f   OpensslLib:pcy_tree.obj
 0001:0001e19c       tree_link_nodes            000000000001e45c f   OpensslLib:pcy_tree.obj
 0001:0001e370       tree_add_unmatched         000000000001e630 f   OpensslLib:pcy_tree.obj
 0001:0001e404       tree_link_any              000000000001e6c4 f   OpensslLib:pcy_tree.obj
 0001:0001e5f8       tree_add_auth_node         000000000001e8b8 f   OpensslLib:pcy_tree.obj
 0001:0001e674       tree_calculate_authority_set 000000000001e934 f   OpensslLib:pcy_tree.obj
 0001:0001e7a8       tree_calculate_user_set    000000000001ea68 f   OpensslLib:pcy_tree.obj
 0001:0001e918       tree_evaluate              000000000001ebd8 f   OpensslLib:pcy_tree.obj
 0001:0001eae0       exnode_free                000000000001eda0 f   OpensslLib:pcy_tree.obj
 0001:0001efe0       trust_1oidany              000000000001f2a0 f   OpensslLib:x509_trs.obj
 0001:0001efec       trust_1oid                 000000000001f2ac f   OpensslLib:x509_trs.obj
 0001:0001eff8       trust_compat               000000000001f2b8 f   OpensslLib:x509_trs.obj
 0001:0001f03c       obj_trust                  000000000001f2fc f   OpensslLib:x509_trs.obj
 0001:0001f15c       ia5ncasecmp                000000000001f41c f   OpensslLib:v3_ncons.obj
 0001:0001f1a4       v2i_NAME_CONSTRAINTS       000000000001f464 f   OpensslLib:v3_ncons.obj
 0001:0001f364       i2r_NAME_CONSTRAINTS       000000000001f624 f   OpensslLib:v3_ncons.obj
 0001:0001f3c0       do_i2r_name_constraints    000000000001f680 f   OpensslLib:v3_ncons.obj
 0001:0001f83c       nc_match                   000000000001fafc f   OpensslLib:v3_ncons.obj
 0001:0001f978       nc_match_single            000000000001fc38 f   OpensslLib:v3_ncons.obj
 0001:0001fb0c       nc_email                   000000000001fdcc f   OpensslLib:v3_ncons.obj
 0001:0001fc64       nc_uri                     000000000001ff24 f   OpensslLib:v3_ncons.obj
 0001:0001fe80       sec_alloc_realloc          0000000000020140 f   OpensslLib:buffer.obj
 0001:0002018c       gnames_from_sectname       000000000002044c f   OpensslLib:v3_crld.obj
 0001:00020230       set_dist_point_name        00000000000204f0 f   OpensslLib:v3_crld.obj
 0001:000203f4       set_reasons                00000000000206b4 f   OpensslLib:v3_crld.obj
 0001:000204ec       print_reasons              00000000000207ac f   OpensslLib:v3_crld.obj
 0001:000205c0       crldp_from_section         0000000000020880 f   OpensslLib:v3_crld.obj
 0001:000206c0       v2i_crld                   0000000000020980 f   OpensslLib:v3_crld.obj
 0001:0002088c       dpn_cb                     0000000000020b4c f   OpensslLib:v3_crld.obj
 0001:000208f0       v2i_idp                    0000000000020bb0 f   OpensslLib:v3_crld.obj
 0001:00020ac0       print_gens                 0000000000020d80 f   OpensslLib:v3_crld.obj
 0001:00020b40       print_distpoint            0000000000020e00 f   OpensslLib:v3_crld.obj
 0001:00020b94       i2r_idp                    0000000000020e54 f   OpensslLib:v3_crld.obj
 0001:00020bd8       i2r_crldp                  0000000000020e98 f   OpensslLib:v3_crld.obj
 0001:00020d70       policy_cache_create        0000000000021030 f   OpensslLib:pcy_cache.obj
 0001:00020eec       policy_cache_new           00000000000211ac f   OpensslLib:pcy_cache.obj
 0001:000210b4       policy_data_cmp            0000000000021374 f   OpensslLib:pcy_cache.obj
 0001:00021164       PKCS7_get_octet_string     0000000000021424 f   OpensslLib:pk7_doit.obj
 0001:000211c4       PKCS7_bio_add_digest       0000000000021484 f   OpensslLib:pk7_doit.obj
 0001:00021270       pkcs7_encode_rinfo         0000000000021530 f   OpensslLib:pk7_doit.obj
 0001:00021a7c       PKCS7_find_digest          0000000000021d3c f   OpensslLib:pk7_doit.obj
 0001:00021b08       do_pkcs7_signed_attrib     0000000000021dc8 f   OpensslLib:pk7_doit.obj
 0001:000225c0       get_attribute              0000000000022880 f   OpensslLib:pk7_doit.obj
 0001:0002262c       add_attribute              00000000000228ec f   OpensslLib:pk7_doit.obj
 0001:00022c9c       ossl_init_get_thread_local 0000000000022f5c f   OpensslLib:init.obj
 0001:00022cf4       ossl_init_base_ossl_       0000000000022fb4 f   OpensslLib:init.obj
 0001:00022d60       ossl_init_add_all_digests_ossl_ 0000000000023020 f   OpensslLib:init.obj
 0001:00022e7c       ossl_init_config_ossl_     000000000002313c f   OpensslLib:init.obj
 0001:00022f14       ossl_init_async_ossl_      00000000000231d4 f   OpensslLib:init.obj
 0001:00023238       sigx_cmp_BSEARCH_CMP_FN    00000000000234f8 f   OpensslLib:obj_xref.obj
 0001:000233a0       sk_table_cmp               0000000000023660 f   OpensslLib:a_strnid.obj
 0001:000233a0       ameth_cmp_BSEARCH_CMP_FN   0000000000023660 f   OpensslLib:ameth_lib.obj
 0001:000233a0       pmeth_cmp_BSEARCH_CMP_FN   0000000000023660 f   OpensslLib:pmeth_lib.obj
 0001:000233a0       ext_cmp_BSEARCH_CMP_FN     0000000000023660 f   OpensslLib:v3_lib.obj
 0001:000233b0       int_ctx_new                0000000000023670 f   OpensslLib:pmeth_lib.obj
 0001:00023a24       expand                     0000000000023ce4 f   OpensslLib:lhash.obj
 0001:00023b10       getrn                      0000000000023dd0 f   OpensslLib:lhash.obj
 0001:00023d1c       ec_asn1_group2fieldid      0000000000023fdc f   OpensslLib:ec_asn1.obj
 0001:00023e4c       ec_asn1_group2curve        000000000002410c f   OpensslLib:ec_asn1.obj
 0001:0002760c       bn_free_d                  00000000000278cc f   OpensslLib:bn_lib.obj
 0001:00027a30       bn2binpad                  0000000000027cf0 f   OpensslLib:bn_lib.obj
 0001:00028c94       make_kn                    0000000000028f54 f   OpensslLib:cmac.obj
 0001:00029158       st_free                    0000000000029418 f   OpensslLib:a_strnid.obj
 0001:00029a98       traverse_string            0000000000029d58 f   OpensslLib:a_mbstr.obj
 0001:00029b90       in_utf8                    0000000000029e50 f   OpensslLib:a_mbstr.obj
 0001:00029b98       out_utf8                   0000000000029e58 f   OpensslLib:a_mbstr.obj
 0001:00029bbc       type_str                   0000000000029e7c f   OpensslLib:a_mbstr.obj
 0001:00029c60       cpy_asc                    0000000000029f20 f   OpensslLib:a_mbstr.obj
 0001:00029c70       cpy_bmp                    0000000000029f30 f   OpensslLib:a_mbstr.obj
 0001:00029c8c       cpy_univ                   0000000000029f4c f   OpensslLib:a_mbstr.obj
 0001:00029cbc       cpy_utf8                   0000000000029f7c f   OpensslLib:a_mbstr.obj
 0001:00029efc       bn_new                     000000000002a1bc f   OpensslLib:x_bignum.obj
 0001:00029f20       bn_secure_new              000000000002a1e0 f   OpensslLib:x_bignum.obj
 0001:00029f4c       bn_free                    000000000002a20c f   OpensslLib:x_bignum.obj
 0001:00029f7c       bn_i2c                     000000000002a23c f   OpensslLib:x_bignum.obj
 0001:00029ff4       bn_c2i                     000000000002a2b4 f   OpensslLib:x_bignum.obj
 0001:0002a05c       bn_secure_c2i              000000000002a31c f   OpensslLib:x_bignum.obj
 0001:0002a0e8       bn_print                   000000000002a3a8 f   OpensslLib:x_bignum.obj
 0001:0002a1f0       uint64_new                 000000000002a4b0 f   OpensslLib:x_int64.obj
 0001:0002a22c       uint32_new                 000000000002a4ec f   OpensslLib:x_int64.obj
 0001:0002a268       uint32_free                000000000002a528 f   OpensslLib:x_int64.obj
 0001:0002a284       uint32_clear               000000000002a544 f   OpensslLib:x_int64.obj
 0001:0002a28c       uint32_i2c                 000000000002a54c f   OpensslLib:x_int64.obj
 0001:0002a324       uint32_c2i                 000000000002a5e4 f   OpensslLib:x_int64.obj
 0001:0002a410       uint32_print               000000000002a6d0 f   OpensslLib:x_int64.obj
 0001:0002acc4       evp_EncryptDecryptUpdate   000000000002af84 f   OpensslLib:evp_enc.obj
 0001:0002b4c0       i2v_BASIC_CONSTRAINTS      000000000002b780 f   OpensslLib:v3_bcons.obj
 0001:0002b544       v2i_BASIC_CONSTRAINTS      000000000002b804 f   OpensslLib:v3_bcons.obj
 0001:0002b858       BN_STACK_push              000000000002bb18 f   OpensslLib:bn_ctx.obj
 0001:0002b90c       BN_POOL_get                000000000002bbcc f   OpensslLib:bn_ctx.obj
 0001:0002ba14       ec_group_new_from_data     000000000002bcd4 f   OpensslLib:ec_curve.obj
 0001:0002c780       bnrand                     000000000002ca40 f   OpensslLib:bn_rand.obj
 0001:0002c938       bnrand_range               000000000002cbf8 f   OpensslLib:bn_rand.obj
 0001:0002cd30       bn_from_montgomery_word    000000000002cff0 f   OpensslLib:bn_mont.obj
 0001:0002f5d0       bn_get_bits                000000000002f890 f   OpensslLib:bn_exp.obj
 0001:0002f628       MOD_EXP_CTIME_COPY_TO_PREBUF 000000000002f8e8 f   OpensslLib:bn_exp.obj
 0001:0002f680       MOD_EXP_CTIME_COPY_FROM_PREBUF 000000000002f940 f   OpensslLib:bn_exp.obj
 0001:000303d0       julian_adj                 0000000000030690 f   OpensslLib:o_time.obj
 0001:000304ec       julian_to_date             00000000000307ac f   OpensslLib:o_time.obj
 0001:00030618       i2v_AUTHORITY_INFO_ACCESS  00000000000308d8 f   OpensslLib:v3_info.obj
 0001:000307c4       v2i_AUTHORITY_INFO_ACCESS  0000000000030a84 f   OpensslLib:v3_info.obj
 0001:00030990       module_add                 0000000000030c50 f   OpensslLib:conf_mod.obj
 0001:00030d24       node_cmp                   0000000000030fe4 f   OpensslLib:pcy_node.obj
 0001:00031368       v2i_issuer_alt             0000000000031628 f   OpensslLib:v3_alt.obj
 0001:00031490       copy_issuer                0000000000031750 f   OpensslLib:v3_alt.obj
 0001:000315ec       v2i_subject_alt            00000000000318ac f   OpensslLib:v3_alt.obj
 0001:0003174c       copy_email                 0000000000031a0c f   OpensslLib:v3_alt.obj
 0001:00031cd4       do_othername               0000000000031f94 f   OpensslLib:v3_alt.obj
 0001:00031da0       do_dirname                 0000000000032060 f   OpensslLib:v3_alt.obj
 0001:00031eb8       i2v_POLICY_CONSTRAINTS     0000000000032178 f   OpensslLib:v3_pcons.obj
 0001:00031efc       v2i_POLICY_CONSTRAINTS     00000000000321bc f   OpensslLib:v3_pcons.obj
 0001:0003209c       r2i_certpol                000000000003235c f   OpensslLib:v3_cpols.obj
 0001:000322e4       policy_section             00000000000325a4 f   OpensslLib:v3_cpols.obj
 0001:000325ac       displaytext_str2tag        000000000003286c f   OpensslLib:v3_cpols.obj
 0001:00032680       notice_section             0000000000032940 f   OpensslLib:v3_cpols.obj
 0001:00032a50       i2r_certpol                0000000000032d10 f   OpensslLib:v3_cpols.obj
 0001:00032af4       print_qualifiers           0000000000032db4 f   OpensslLib:v3_cpols.obj
 0001:00033140       do_rand_init_ossl_         0000000000033400 f   OpensslLib:rand_lib.obj
 0001:00033308       rand_pool_grow             00000000000335c8 f   OpensslLib:rand_lib.obj
 0001:000336a8       enc_new                    0000000000033968 f   OpensslLib:bio_enc.obj
 0001:00033728       enc_free                   00000000000339e8 f   OpensslLib:bio_enc.obj
 0001:0003379c       enc_read                   0000000000033a5c f   OpensslLib:bio_enc.obj
 0001:00033a38       enc_write                  0000000000033cf8 f   OpensslLib:bio_enc.obj
 0001:00033bd4       enc_ctrl                   0000000000033e94 f   OpensslLib:bio_enc.obj
 0001:00033dcc       enc_callback_ctrl          000000000003408c f   OpensslLib:bio_enc.obj
 0001:00033dcc       md_callback_ctrl           000000000003408c f   OpensslLib:bio_md.obj
 0001:00033de4       update                     00000000000340a4 f   OpensslLib:m_sigver.obj
 0001:00033e04       do_sigver_init             00000000000340c4 f   OpensslLib:m_sigver.obj
 0001:000342fc       md_new                     00000000000345bc f   OpensslLib:bio_md.obj
 0001:00034328       md_free                    00000000000345e8 f   OpensslLib:bio_md.obj
 0001:0003436c       md_read                    000000000003462c f   OpensslLib:bio_md.obj
 0001:00034410       md_write                   00000000000346d0 f   OpensslLib:bio_md.obj
 0001:000344b4       md_ctrl                    0000000000034774 f   OpensslLib:bio_md.obj
 0001:000345dc       md_gets                    000000000003489c f   OpensslLib:bio_md.obj
 0001:00034780       null_gets                  0000000000034a40 f   OpensslLib:bss_null.obj
 0001:00034780       null_read                  0000000000034a40 f   OpensslLib:bss_null.obj
 0001:00034784       null_write                 0000000000034a44 f   OpensslLib:bss_null.obj
 0001:00034788       null_ctrl                  0000000000034a48 f   OpensslLib:bss_null.obj
 0001:000347c0       null_puts                  0000000000034a80 f   OpensslLib:bss_null.obj
 0001:000350d4       rand_drbg_new              0000000000035394 f   OpensslLib:drbg_lib.obj
 0001:00035b90       drbg_setup                 0000000000035e50 f   OpensslLib:drbg_lib.obj
 0001:00035c48       do_rand_drbg_init_ossl_    0000000000035f08 f   OpensslLib:drbg_lib.obj
 0001:00035cd8       drbg_bytes                 0000000000035f98 f   OpensslLib:drbg_lib.obj
 0001:00035e30       drbg_add                   00000000000360f0 f   OpensslLib:drbg_lib.obj
 0001:00035f54       drbg_seed                  0000000000036214 f   OpensslLib:drbg_lib.obj
 0001:00035f64       drbg_status                0000000000036224 f   OpensslLib:drbg_lib.obj
 0001:000360f0       pkey_dh_init               00000000000363b0 f   OpensslLib:dh_pmeth.obj
 0001:0003614c       pkey_dh_cleanup            000000000003640c f   OpensslLib:dh_pmeth.obj
 0001:0003617c       pkey_dh_copy               000000000003643c f   OpensslLib:dh_pmeth.obj
 0001:00036230       pkey_dh_ctrl               00000000000364f0 f   OpensslLib:dh_pmeth.obj
 0001:000363e0       pkey_dh_ctrl_str           00000000000366a0 f   OpensslLib:dh_pmeth.obj
 0001:00036580       pkey_dh_paramgen           0000000000036840 f   OpensslLib:dh_pmeth.obj
 0001:000367a4       pkey_dh_keygen             0000000000036a64 f   OpensslLib:dh_pmeth.obj
 0001:00036830       pkey_dh_derive             0000000000036af0 f   OpensslLib:dh_pmeth.obj
 0001:000369bc       pkey_cmac_init             0000000000036c7c f   OpensslLib:cm_pmeth.obj
 0001:000369e4       pkey_cmac_copy             0000000000036ca4 f   OpensslLib:cm_pmeth.obj
 0001:00036a24       cmac_key_free              0000000000036ce4 f   OpensslLib:cm_ameth.obj
 0001:00036a24       pkey_cmac_cleanup          0000000000036ce4 f   OpensslLib:cm_pmeth.obj
 0001:00036a30       pkey_cmac_keygen           0000000000036cf0 f   OpensslLib:cm_pmeth.obj
 0001:00036a98       int_update                 0000000000036d58 f   OpensslLib:cm_pmeth.obj
 0001:00036b8c       cmac_signctx_init          0000000000036e4c f   OpensslLib:cm_pmeth.obj
 0001:00036ba4       cmac_signctx               0000000000036e64 f   OpensslLib:cm_pmeth.obj
 0001:00036cb4       pkey_cmac_ctrl             0000000000036f74 f   OpensslLib:cm_pmeth.obj
 0001:00036d40       pkey_cmac_ctrl_str         0000000000037000 f   OpensslLib:cm_pmeth.obj
 0001:00036e10       ecx_key_op                 00000000000370d0 f   OpensslLib:ecx_meth.obj
 0001:000370ac       ecx_pub_encode             000000000003736c f   OpensslLib:ecx_meth.obj
 0001:00037198       ecx_pub_decode             0000000000037458 f   OpensslLib:ecx_meth.obj
 0001:000371c4       ecx_pub_cmp                0000000000037484 f   OpensslLib:ecx_meth.obj
 0001:00037234       ecx_priv_decode            00000000000374f4 f   OpensslLib:ecx_meth.obj
 0001:000372c8       ecx_priv_encode            0000000000037588 f   OpensslLib:ecx_meth.obj
 0001:00037414       ecx_size                   00000000000376d4 f   OpensslLib:ecx_meth.obj
 0001:00037440       ecx_bits                   0000000000037700 f   OpensslLib:ecx_meth.obj
 0001:00037470       ecx_security_bits          0000000000037730 f   OpensslLib:ecx_meth.obj
 0001:00037490       ecx_free                   0000000000037750 f   OpensslLib:ecx_meth.obj
 0001:00037508       ecx_key_print              00000000000377c8 f   OpensslLib:ecx_meth.obj
 0001:000376a4       ecx_priv_print             0000000000037964 f   OpensslLib:ecx_meth.obj
 0001:000376bc       ecx_pub_print              000000000003797c f   OpensslLib:ecx_meth.obj
 0001:000376d0       ecx_ctrl                   0000000000037990 f   OpensslLib:ecx_meth.obj
 0001:00037798       ecd_ctrl                   0000000000037a58 f   OpensslLib:ecx_meth.obj
 0001:000377b0       ecx_set_priv_key           0000000000037a70 f   OpensslLib:ecx_meth.obj
 0001:000377d8       ecx_set_pub_key            0000000000037a98 f   OpensslLib:ecx_meth.obj
 0001:000377fc       ecx_get_priv_key           0000000000037abc f   OpensslLib:ecx_meth.obj
 0001:000378d8       ecx_get_pub_key            0000000000037b98 f   OpensslLib:ecx_meth.obj
 0001:000379ac       ecd_size25519              0000000000037c6c f   OpensslLib:ecx_meth.obj
 0001:000379ac       hmac_size                  0000000000037c6c f   OpensslLib:hm_ameth.obj
 0001:000379b4       ecd_size448                0000000000037c74 f   OpensslLib:ecx_meth.obj
 0001:000379bc       ecd_item_verify            0000000000037c7c f   OpensslLib:ecx_meth.obj
 0001:00037a38       ecd_item_sign25519         0000000000037cf8 f   OpensslLib:ecx_meth.obj
 0001:00037a90       ecd_sig_info_set25519      0000000000037d50 f   OpensslLib:ecx_meth.obj
 0001:00037ab0       ecd_item_sign448           0000000000037d70 f   OpensslLib:ecx_meth.obj
 0001:00037b08       ecd_sig_info_set448        0000000000037dc8 f   OpensslLib:ecx_meth.obj
 0001:00037b28       pkey_ecx_keygen            0000000000037de8 f   OpensslLib:ecx_meth.obj
 0001:00037b54       validate_ecx_derive        0000000000037e14 f   OpensslLib:ecx_meth.obj
 0001:00037bc4       pkey_ecx_derive25519       0000000000037e84 f   OpensslLib:ecx_meth.obj
 0001:00037c4c       pkey_ecx_derive448         0000000000037f0c f   OpensslLib:ecx_meth.obj
 0001:00037cac       pkey_ecx_ctrl              0000000000037f6c f   OpensslLib:ecx_meth.obj
 0001:00037cbc       pkey_ecd_digestsign25519   0000000000037f7c f   OpensslLib:ecx_meth.obj
 0001:00037d28       pkey_ecd_digestsign448     0000000000037fe8 f   OpensslLib:ecx_meth.obj
 0001:00037d94       pkey_ecd_digestverify25519 0000000000038054 f   OpensslLib:ecx_meth.obj
 0001:00037dbc       pkey_ecd_digestverify448   000000000003807c f   OpensslLib:ecx_meth.obj
 0001:00037dfc       pkey_ecd_ctrl              00000000000380bc f   OpensslLib:ecx_meth.obj
 0001:00037e44       pkey_rsa_init              0000000000038104 f   OpensslLib:rsa_pmeth.obj
 0001:00037ea8       pkey_rsa_copy              0000000000038168 f   OpensslLib:rsa_pmeth.obj
 0001:00037f3c       setup_tbuf                 00000000000381fc f   OpensslLib:rsa_pmeth.obj
 0001:00037fb4       pkey_rsa_cleanup           0000000000038274 f   OpensslLib:rsa_pmeth.obj
 0001:00037fec       pkey_rsa_sign              00000000000382ac f   OpensslLib:rsa_pmeth.obj
 0001:000381fc       pkey_rsa_verifyrecover     00000000000384bc f   OpensslLib:rsa_pmeth.obj
 0001:00038390       pkey_rsa_verify            0000000000038650 f   OpensslLib:rsa_pmeth.obj
 0001:0003853c       pkey_rsa_encrypt           00000000000387fc f   OpensslLib:rsa_pmeth.obj
 0001:00038640       pkey_rsa_decrypt           0000000000038900 f   OpensslLib:rsa_pmeth.obj
 0001:00038780       check_padding_md           0000000000038a40 f   OpensslLib:rsa_pmeth.obj
 0001:00038838       pkey_rsa_ctrl              0000000000038af8 f   OpensslLib:rsa_pmeth.obj
 0001:00038bc8       pkey_rsa_ctrl_str          0000000000038e88 f   OpensslLib:rsa_pmeth.obj
 0001:00039078       pkey_rsa_keygen            0000000000039338 f   OpensslLib:rsa_pmeth.obj
 0001:00039218       pkey_pss_init              00000000000394d8 f   OpensslLib:rsa_pmeth.obj
 0001:00039304       pkey_tls1_prf_init         00000000000395c4 f   OpensslLib:tls1_prf.obj
 0001:00039340       pkey_tls1_prf_cleanup      0000000000039600 f   OpensslLib:tls1_prf.obj
 0001:000393a0       pkey_tls1_prf_ctrl         0000000000039660 f   OpensslLib:tls1_prf.obj
 0001:000394b4       pkey_tls1_prf_ctrl_str     0000000000039774 f   OpensslLib:tls1_prf.obj
 0001:000395c8       pkey_tls1_prf_derive       0000000000039888 f   OpensslLib:tls1_prf.obj
 0001:0003963c       tls1_prf_P_hash            00000000000398fc f   OpensslLib:tls1_prf.obj
 0001:00039978       tls1_prf_alg               0000000000039c38 f   OpensslLib:tls1_prf.obj
 0001:00039ae8       pkey_hkdf_init             0000000000039da8 f   OpensslLib:hkdf.obj
 0001:00039b24       pkey_hkdf_cleanup          0000000000039de4 f   OpensslLib:hkdf.obj
 0001:00039bac       pkey_hkdf_ctrl             0000000000039e6c f   OpensslLib:hkdf.obj
 0001:00039d14       pkey_hkdf_ctrl_str         0000000000039fd4 f   OpensslLib:hkdf.obj
 0001:00039ec0       pkey_hkdf_derive_init      000000000003a180 f   OpensslLib:hkdf.obj
 0001:00039f54       pkey_hkdf_derive           000000000003a214 f   OpensslLib:hkdf.obj
 0001:0003a0d4       HKDF_Extract               000000000003a394 f   OpensslLib:hkdf.obj
 0001:0003a1bc       HKDF_Expand                000000000003a47c f   OpensslLib:hkdf.obj
 0001:0003a3a4       pkey_sm2_init              000000000003a664 f   OpensslLib:sm2_pmeth.obj
 0001:0003a3e0       pkey_sm2_cleanup           000000000003a6a0 f   OpensslLib:sm2_pmeth.obj
 0001:0003a420       pkey_sm2_copy              000000000003a6e0 f   OpensslLib:sm2_pmeth.obj
 0001:0003a4e4       pkey_sm2_sign              000000000003a7a4 f   OpensslLib:sm2_pmeth.obj
 0001:0003a578       pkey_sm2_verify            000000000003a838 f   OpensslLib:sm2_pmeth.obj
 0001:0003a6d0       pkey_sm2_encrypt           000000000003a990 f   OpensslLib:sm2_pmeth.obj
 0001:0003a7c0       pkey_sm2_decrypt           000000000003aa80 f   OpensslLib:sm2_pmeth.obj
 0001:0003a874       pkey_sm2_ctrl              000000000003ab34 f   OpensslLib:sm2_pmeth.obj
 0001:0003a9bc       pkey_sm2_ctrl_str          000000000003ac7c f   OpensslLib:sm2_pmeth.obj
 0001:0003aaa0       pkey_sm2_digest_custom     000000000003ad60 f   OpensslLib:sm2_pmeth.obj
 0001:0003ab70       pkey_siphash_init          000000000003ae30 f   OpensslLib:siphash_pmeth.obj
 0001:0003abbc       pkey_siphash_cleanup       000000000003ae7c f   OpensslLib:siphash_pmeth.obj
 0001:0003ac30       pkey_siphash_copy          000000000003aef0 f   OpensslLib:siphash_pmeth.obj
 0001:0003aca4       pkey_siphash_keygen        000000000003af64 f   OpensslLib:siphash_pmeth.obj
 0001:0003ace0       int_update                 000000000003afa0 f   OpensslLib:siphash_pmeth.obj
 0001:0003ad00       siphash_signctx_init       000000000003afc0 f   OpensslLib:siphash_pmeth.obj
 0001:0003ad60       siphash_signctx            000000000003b020 f   OpensslLib:siphash_pmeth.obj
 0001:0003ad84       pkey_siphash_ctrl          000000000003b044 f   OpensslLib:siphash_pmeth.obj
 0001:0003ae80       pkey_siphash_ctrl_str      000000000003b140 f   OpensslLib:siphash_pmeth.obj
 0001:0003af38       pkey_ec_init               000000000003b1f8 f   OpensslLib:ec_pmeth.obj
 0001:0003af7c       pkey_ec_copy               000000000003b23c f   OpensslLib:ec_pmeth.obj
 0001:0003b024       pkey_ec_cleanup            000000000003b2e4 f   OpensslLib:ec_pmeth.obj
 0001:0003b06c       pkey_ec_sign               000000000003b32c f   OpensslLib:ec_pmeth.obj
 0001:0003b140       pkey_ec_verify             000000000003b400 f   OpensslLib:ec_pmeth.obj
 0001:0003b1ac       pkey_ec_derive             000000000003b46c f   OpensslLib:ec_pmeth.obj
 0001:0003b268       pkey_ec_kdf_derive         000000000003b528 f   OpensslLib:ec_pmeth.obj
 0001:0003b3b8       pkey_ec_ctrl               000000000003b678 f   OpensslLib:ec_pmeth.obj
 0001:0003b61c       pkey_ec_ctrl_str           000000000003b8dc f   OpensslLib:ec_pmeth.obj
 0001:0003b78c       pkey_ec_paramgen           000000000003ba4c f   OpensslLib:ec_pmeth.obj
 0001:0003b810       pkey_ec_keygen             000000000003bad0 f   OpensslLib:ec_pmeth.obj
 0001:0003b8fc       pkey_hmac_init             000000000003bbbc f   OpensslLib:hm_pmeth.obj
 0001:0003b968       pkey_hmac_copy             000000000003bc28 f   OpensslLib:hm_pmeth.obj
 0001:0003b9e0       pkey_hmac_cleanup          000000000003bca0 f   OpensslLib:hm_pmeth.obj
 0001:0003ba4c       pkey_hmac_keygen           000000000003bd0c f   OpensslLib:hm_pmeth.obj
 0001:0003ba90       int_update                 000000000003bd50 f   OpensslLib:hm_pmeth.obj
 0001:0003bac8       hmac_signctx_init          000000000003bd88 f   OpensslLib:hm_pmeth.obj
 0001:0003bb08       hmac_signctx               000000000003bdc8 f   OpensslLib:hm_pmeth.obj
 0001:0003bb74       pkey_hmac_ctrl             000000000003be34 f   OpensslLib:hm_pmeth.obj
 0001:0003bbe4       pkey_hmac_ctrl_str         000000000003bea4 f   OpensslLib:hm_pmeth.obj
 0001:0003bf60       rsa_ossl_public_encrypt    000000000003c220 f   OpensslLib:rsa_ossl.obj
 0001:0003c220       rsa_get_blinding           000000000003c4e0 f   OpensslLib:rsa_ossl.obj
 0001:0003c298       rsa_ossl_private_encrypt   000000000003c558 f   OpensslLib:rsa_ossl.obj
 0001:0003c718       rsa_ossl_private_decrypt   000000000003c9d8 f   OpensslLib:rsa_ossl.obj
 0001:0003cb00       rsa_ossl_public_decrypt    000000000003cdc0 f   OpensslLib:rsa_ossl.obj
 0001:0003ce3c       rsa_ossl_mod_exp           000000000003d0fc f   OpensslLib:rsa_ossl.obj
 0001:0003d92c       rsa_ossl_init              000000000003dbec f   OpensslLib:rsa_ossl.obj
 0001:0003d938       rsa_ossl_finish            000000000003dbf8 f   OpensslLib:rsa_ossl.obj
 0001:0003e2d4       generate_key               000000000003e594 f   OpensslLib:dh_key.obj
 0001:0003e52c       compute_key                000000000003e7ec f   OpensslLib:dh_key.obj
 0001:0003e698       dh_bn_mod_exp              000000000003e958 f   OpensslLib:dh_key.obj
 0001:0003e6d4       dh_init                    000000000003e994 f   OpensslLib:dh_key.obj
 0001:0003e6e0       dh_finish                  000000000003e9a0 f   OpensslLib:dh_key.obj
 0001:0003e6f8       cmac_size                  000000000003e9b8 f   OpensslLib:cm_ameth.obj
 0001:0003e700       eckey_param2type           000000000003e9c0 f   OpensslLib:ec_ameth.obj
 0001:0003e7dc       eckey_pub_encode           000000000003ea9c f   OpensslLib:ec_ameth.obj
 0001:0003e9e8       eckey_pub_decode           000000000003eca8 f   OpensslLib:ec_ameth.obj
 0001:0003eb70       eckey_pub_cmp              000000000003ee30 f   OpensslLib:ec_ameth.obj
 0001:0003ebc0       eckey_priv_decode          000000000003ee80 f   OpensslLib:ec_ameth.obj
 0001:0003ed3c       eckey_priv_encode          000000000003effc f   OpensslLib:ec_ameth.obj
 0001:0003ee60       int_ec_size                000000000003f120 f   OpensslLib:ec_ameth.obj
 0001:0003ee6c       ec_bits                    000000000003f12c f   OpensslLib:ec_ameth.obj
 0001:0003ee7c       ec_security_bits           000000000003f13c f   OpensslLib:ec_ameth.obj
 0001:0003eee0       ec_missing_parameters      000000000003f1a0 f   OpensslLib:ec_ameth.obj
 0001:0003eefc       ec_copy_parameters         000000000003f1bc f   OpensslLib:ec_ameth.obj
 0001:0003ef6c       ec_cmp_parameters          000000000003f22c f   OpensslLib:ec_ameth.obj
 0001:0003efa8       int_ec_free                000000000003f268 f   OpensslLib:ec_ameth.obj
 0001:0003efb4       do_EC_KEY_print            000000000003f274 f   OpensslLib:ec_ameth.obj
 0001:0003f230       eckey_param_decode         000000000003f4f0 f   OpensslLib:ec_ameth.obj
 0001:0003f274       eckey_param_encode         000000000003f534 f   OpensslLib:ec_ameth.obj
 0001:0003f280       eckey_param_print          000000000003f540 f   OpensslLib:ec_ameth.obj
 0001:0003f290       eckey_pub_print            000000000003f550 f   OpensslLib:ec_ameth.obj
 0001:0003f2a0       eckey_priv_print           000000000003f560 f   OpensslLib:ec_ameth.obj
 0001:0003f2ac       old_ec_priv_decode         000000000003f56c f   OpensslLib:ec_ameth.obj
 0001:0003f2f4       old_ec_priv_encode         000000000003f5b4 f   OpensslLib:ec_ameth.obj
 0001:0003f300       ec_pkey_ctrl               000000000003f5c0 f   OpensslLib:ec_ameth.obj
 0001:0003f408       ec_pkey_check              000000000003f6c8 f   OpensslLib:ec_ameth.obj
 0001:0003f43c       ec_pkey_public_check       000000000003f6fc f   OpensslLib:ec_ameth.obj
 0001:0003f448       ec_pkey_param_check        000000000003f708 f   OpensslLib:ec_ameth.obj
 0001:0003f47c       siphash_size               000000000003f73c f   OpensslLib:siphash_ameth.obj
 0001:0003f484       hmac_key_free              000000000003f744 f   OpensslLib:hm_ameth.obj
 0001:0003f484       siphash_key_free           000000000003f744 f   OpensslLib:siphash_ameth.obj
 0001:0003f4b8       dh_pkey_ctrl               000000000003f778 f   OpensslLib:dh_ameth.obj
 0001:0003f4b8       siphash_pkey_ctrl          000000000003f778 f   OpensslLib:siphash_ameth.obj
 0001:0003f4c0       hmac_pkey_public_cmp       000000000003f780 f   OpensslLib:hm_ameth.obj
 0001:0003f4c0       siphash_pkey_public_cmp    000000000003f780 f   OpensslLib:siphash_ameth.obj
 0001:0003f4e0       siphash_set_priv_key       000000000003f7a0 f   OpensslLib:siphash_ameth.obj
 0001:0003f550       siphash_get_priv_key       000000000003f810 f   OpensslLib:siphash_ameth.obj
 0001:0003f5a0       hmac_pkey_ctrl             000000000003f860 f   OpensslLib:hm_ameth.obj
 0001:0003f5b8       hmac_set_priv_key          000000000003f878 f   OpensslLib:hm_ameth.obj
 0001:0003f62c       hmac_get_priv_key          000000000003f8ec f   OpensslLib:hm_ameth.obj
 0001:0003f674       rsa_param_encode           000000000003f934 f   OpensslLib:rsa_ameth.obj
 0001:0003f6cc       rsa_param_decode           000000000003f98c f   OpensslLib:rsa_ameth.obj
 0001:0003f748       rsa_pub_encode             000000000003fa08 f   OpensslLib:rsa_ameth.obj
 0001:0003f840       rsa_pub_decode             000000000003fb00 f   OpensslLib:rsa_ameth.obj
 0001:0003f8d8       rsa_pub_cmp                000000000003fb98 f   OpensslLib:rsa_ameth.obj
 0001:0003f940       old_rsa_priv_decode        000000000003fc00 f   OpensslLib:rsa_ameth.obj
 0001:0003f98c       old_rsa_priv_encode        000000000003fc4c f   OpensslLib:rsa_ameth.obj
 0001:0003f9a0       rsa_priv_encode            000000000003fc60 f   OpensslLib:rsa_ameth.obj
 0001:0003fa78       rsa_priv_decode            000000000003fd38 f   OpensslLib:rsa_ameth.obj
 0001:0003fb0c       int_rsa_size               000000000003fdcc f   OpensslLib:rsa_ameth.obj
 0001:0003fb30       rsa_bits                   000000000003fdf0 f   OpensslLib:rsa_ameth.obj
 0001:0003fb40       rsa_security_bits          000000000003fe00 f   OpensslLib:rsa_ameth.obj
 0001:0003fbfc       int_rsa_free               000000000003febc f   OpensslLib:rsa_ameth.obj
 0001:0003fc08       rsa_pss_param_print        000000000003fec8 f   OpensslLib:rsa_ameth.obj
 0001:0003feec       pkey_rsa_print             00000000000401ac f   OpensslLib:rsa_ameth.obj
 0001:00040254       rsa_pub_print              0000000000040514 f   OpensslLib:rsa_ameth.obj
 0001:0004025c       rsa_priv_print             000000000004051c f   OpensslLib:rsa_ameth.obj
 0001:00040268       rsa_pss_decode             0000000000040528 f   OpensslLib:rsa_ameth.obj
 0001:000402ec       rsa_sig_print              00000000000405ac f   OpensslLib:rsa_ameth.obj
 0001:0004039c       rsa_pkey_ctrl              000000000004065c f   OpensslLib:rsa_ameth.obj
 0001:00040490       rsa_md_to_algor            0000000000040750 f   OpensslLib:rsa_ameth.obj
 0001:00040500       rsa_md_to_mgf1             00000000000407c0 f   OpensslLib:rsa_ameth.obj
 0001:00040708       rsa_ctx_to_pss_string      00000000000409c8 f   OpensslLib:rsa_ameth.obj
 0001:000408a4       rsa_pss_to_ctx             0000000000040b64 f   OpensslLib:rsa_ameth.obj
 0001:00040c8c       rsa_item_verify            0000000000040f4c f   OpensslLib:rsa_ameth.obj
 0001:00040cec       rsa_item_sign              0000000000040fac f   OpensslLib:rsa_ameth.obj
 0001:00040dbc       rsa_sig_info_set           000000000004107c f   OpensslLib:rsa_ameth.obj
 0001:00040e90       rsa_pkey_check             0000000000041150 f   OpensslLib:rsa_ameth.obj
 0001:00040e9c       i2d_dhp                    000000000004115c f   OpensslLib:dh_ameth.obj
 0001:00040f44       int_dh_free                0000000000041204 f   OpensslLib:dh_ameth.obj
 0001:00040f50       dh_pub_decode              0000000000041210 f   OpensslLib:dh_ameth.obj
 0001:00041120       dh_pub_encode              00000000000413e0 f   OpensslLib:dh_ameth.obj
 0001:00041274       dh_priv_decode             0000000000041534 f   OpensslLib:dh_ameth.obj
 0001:00041470       dh_priv_encode             0000000000041730 f   OpensslLib:dh_ameth.obj
 0001:000415a8       dh_param_decode            0000000000041868 f   OpensslLib:dh_ameth.obj
 0001:00041608       dh_param_encode            00000000000418c8 f   OpensslLib:dh_ameth.obj
 0001:00041614       do_dh_print                00000000000418d4 f   OpensslLib:dh_ameth.obj
 0001:00041908       int_dh_size                0000000000041bc8 f   OpensslLib:dh_ameth.obj
 0001:0004192c       dh_bits                    0000000000041bec f   OpensslLib:dh_ameth.obj
 0001:0004193c       dh_security_bits           0000000000041bfc f   OpensslLib:dh_ameth.obj
 0001:00041984       dh_cmp_parameters          0000000000041c44 f   OpensslLib:dh_ameth.obj
 0001:000419f8       int_dh_bn_cpy              0000000000041cb8 f   OpensslLib:dh_ameth.obj
 0001:00041a44       int_dh_param_copy          0000000000041d04 f   OpensslLib:dh_ameth.obj
 0001:00041b08       dh_copy_parameters         0000000000041dc8 f   OpensslLib:dh_ameth.obj
 0001:00041b64       dh_missing_parameters      0000000000041e24 f   OpensslLib:dh_ameth.obj
 0001:00041b84       dh_pub_cmp                 0000000000041e44 f   OpensslLib:dh_ameth.obj
 0001:00041bcc       dh_param_print             0000000000041e8c f   OpensslLib:dh_ameth.obj
 0001:00041bd8       dh_public_print            0000000000041e98 f   OpensslLib:dh_ameth.obj
 0001:00041be8       dh_private_print           0000000000041ea8 f   OpensslLib:dh_ameth.obj
 0001:00041bf8       dh_pkey_public_check       0000000000041eb8 f   OpensslLib:dh_ameth.obj
 0001:00041c88       dh_pkey_param_check        0000000000041f48 f   OpensslLib:dh_ameth.obj
 0001:00042928       ecdsa_sign_setup           0000000000042be8 f   OpensslLib:ecdsa_ossl.obj
 0001:00043698       bn_mod_inverse_no_branch   0000000000043958 f   OpensslLib:bn_gcd.obj
 0001:000451a4       i2v_EXTENDED_KEY_USAGE     0000000000045464 f   OpensslLib:v3_extku.obj
 0001:00045230       v2i_EXTENDED_KEY_USAGE     00000000000454f0 f   OpensslLib:v3_extku.obj
 0001:0004553c       i2r_ocsp_crlid             00000000000457fc f   OpensslLib:v3_ocsp.obj
 0001:00045690       i2r_ocsp_acutoff           0000000000045950 f   OpensslLib:v3_ocsp.obj
 0001:000456dc       i2r_object                 000000000004599c f   OpensslLib:v3_ocsp.obj
 0001:00045720       ocsp_nonce_new             00000000000459e0 f   OpensslLib:v3_ocsp.obj
 0001:0004572c       i2d_ocsp_nonce             00000000000459ec f   OpensslLib:v3_ocsp.obj
 0001:00045764       d2i_ocsp_nonce             0000000000045a24 f   OpensslLib:v3_ocsp.obj
 0001:000457fc       i2r_ocsp_nonce             0000000000045abc f   OpensslLib:v3_ocsp.obj
 0001:00045840       s2i_ocsp_nocheck           0000000000045b00 f   OpensslLib:v3_ocsp.obj
 0001:0004584c       i2r_ocsp_serviceloc        0000000000045b0c f   OpensslLib:v3_ocsp.obj
 0001:00045958       i2v_AUTHORITY_KEYID        0000000000045c18 f   OpensslLib:v3_akey.obj
 0001:00045a98       v2i_AUTHORITY_KEYID        0000000000045d58 f   OpensslLib:v3_akey.obj
 0001:00045ed4       s2i_asn1_int               0000000000046194 f   OpensslLib:v3_int.obj
 0001:00045edc       i2r_NAMING_AUTHORITY       000000000004619c f   OpensslLib:v3_admis.obj
 0001:00046088       i2r_ADMISSION_SYNTAX       0000000000046348 f   OpensslLib:v3_admis.obj
 0001:000464c4       s2i_skey_id                0000000000046784 f   OpensslLib:v3_skey.obj
 0001:000466b0       i2r_PKEY_USAGE_PERIOD      0000000000046970 f   OpensslLib:v3_pku.obj
 0001:0004677c       i2v_POLICY_MAPPINGS        0000000000046a3c f   OpensslLib:v3_pmaps.obj
 0001:00046834       v2i_POLICY_MAPPINGS        0000000000046af4 f   OpensslLib:v3_pmaps.obj
 0001:00046a1c       sxnet_i2r                  0000000000046cdc f   OpensslLib:v3_sxnet.obj
 0001:00046adc       sxnet_v2i                  0000000000046d9c f   OpensslLib:v3_sxnet.obj
 0001:00046dd8       i2r_pci                    0000000000047098 f   OpensslLib:v3_pci.obj
 0001:00046e7c       process_pci_value          000000000004713c f   OpensslLib:v3_pci.obj
 0001:00047294       r2i_pci                    0000000000047554 f   OpensslLib:v3_pci.obj
 0001:000476c0       i2v_TLS_FEATURE            0000000000047980 f   OpensslLib:v3_tlsf.obj
 0001:00047774       v2i_TLS_FEATURE            0000000000047a34 f   OpensslLib:v3_tlsf.obj
 0001:0004795c       generate_v3                0000000000047c1c f   OpensslLib:asn1_gen.obj
 0001:00047ca0       asn1_cb                    0000000000047f60 f   OpensslLib:asn1_gen.obj
 0001:00047f1c       parse_tagging              00000000000481dc f   OpensslLib:asn1_gen.obj
 0001:00047fc8       asn1_multi                 0000000000048288 f   OpensslLib:asn1_gen.obj
 0001:00048178       append_exp                 0000000000048438 f   OpensslLib:asn1_gen.obj
 0001:0004820c       asn1_str2tag               00000000000484cc f   OpensslLib:asn1_gen.obj
 0001:000482a4       asn1_str2type              0000000000048564 f   OpensslLib:asn1_gen.obj
 0001:00048638       bitstr_cb                  00000000000488f8 f   OpensslLib:asn1_gen.obj
 0001:0004868c       mask_cb                    000000000004894c f   OpensslLib:asn1_gen.obj
 0001:00048710       RandGetBytes               00000000000489d0 f   OpensslLib:rand_pool.obj
 0001:00048b28       hmac_ctx_cleanup           0000000000048de8 f   OpensslLib:hmac.obj
 0001:00048bc0       hmac_ctx_alloc_mds         0000000000048e80 f   OpensslLib:hmac.obj
 0001:00048ca4       sm4_init_key               0000000000048f64 f   OpensslLib:e_sm4.obj
 0001:00048cc4       sm4_cbc_cipher             0000000000048f84 f   OpensslLib:e_sm4.obj
 0001:00048dcc       sm4_cfb128_cipher          000000000004908c f   OpensslLib:e_sm4.obj
 0001:00048e7c       sm4_ecb_cipher             000000000004913c f   OpensslLib:e_sm4.obj
 0001:00048f00       sm4_ofb_cipher             00000000000491c0 f   OpensslLib:e_sm4.obj
 0001:00049000       sm4_ctr_cipher             00000000000492c0 f   OpensslLib:e_sm4.obj
 0001:00049068       aria_init_key              0000000000049328 f   OpensslLib:e_aria.obj
 0001:000490d4       aria_128_cbc_cipher        0000000000049394 f   OpensslLib:e_aria.obj
 0001:000490d4       aria_192_cbc_cipher        0000000000049394 f   OpensslLib:e_aria.obj
 0001:000490d4       aria_256_cbc_cipher        0000000000049394 f   OpensslLib:e_aria.obj
 0001:000491a8       aria_128_cfb128_cipher     0000000000049468 f   OpensslLib:e_aria.obj
 0001:000491a8       aria_192_cfb128_cipher     0000000000049468 f   OpensslLib:e_aria.obj
 0001:000491a8       aria_256_cfb128_cipher     0000000000049468 f   OpensslLib:e_aria.obj
 0001:00049258       aria_128_ecb_cipher        0000000000049518 f   OpensslLib:e_aria.obj
 0001:00049258       aria_192_ecb_cipher        0000000000049518 f   OpensslLib:e_aria.obj
 0001:00049258       aria_256_ecb_cipher        0000000000049518 f   OpensslLib:e_aria.obj
 0001:000492d0       aria_128_ofb_cipher        0000000000049590 f   OpensslLib:e_aria.obj
 0001:000492d0       aria_192_ofb_cipher        0000000000049590 f   OpensslLib:e_aria.obj
 0001:000492d0       aria_256_ofb_cipher        0000000000049590 f   OpensslLib:e_aria.obj
 0001:000493d0       aria_128_cfb1_cipher       0000000000049690 f   OpensslLib:e_aria.obj
 0001:000493d0       aria_192_cfb1_cipher       0000000000049690 f   OpensslLib:e_aria.obj
 0001:000493d0       aria_256_cfb1_cipher       0000000000049690 f   OpensslLib:e_aria.obj
 0001:0004948c       aria_128_cfb8_cipher       000000000004974c f   OpensslLib:e_aria.obj
 0001:0004948c       aria_192_cfb8_cipher       000000000004974c f   OpensslLib:e_aria.obj
 0001:0004948c       aria_256_cfb8_cipher       000000000004974c f   OpensslLib:e_aria.obj
 0001:00049538       aria_ctr_cipher            00000000000497f8 f   OpensslLib:e_aria.obj
 0001:000495a0       aria_gcm_init_key          0000000000049860 f   OpensslLib:e_aria.obj
 0001:000496bc       aria_gcm_ctrl              000000000004997c f   OpensslLib:e_aria.obj
 0001:00049aa8       aria_gcm_tls_cipher        0000000000049d68 f   OpensslLib:e_aria.obj
 0001:00049bec       aria_gcm_cipher            0000000000049eac f   OpensslLib:e_aria.obj
 0001:00049cc4       aria_gcm_cleanup           0000000000049f84 f   OpensslLib:e_aria.obj
 0001:00049cf0       aria_ccm_init_key          0000000000049fb0 f   OpensslLib:e_aria.obj
 0001:00049dd0       aria_ccm_ctrl              000000000004a090 f   OpensslLib:e_aria.obj
 0001:00049ff4       aria_ccm_tls_cipher        000000000004a2b4 f   OpensslLib:e_aria.obj
 0001:0004a1d4       aria_ccm_cipher            000000000004a494 f   OpensslLib:e_aria.obj
 0001:0004a408       aes_init_key               000000000004a6c8 f   OpensslLib:e_aes.obj
 0001:0004a4c0       aes_cbc_cipher             000000000004a780 f   OpensslLib:e_aes.obj
 0001:0004a52c       aes_ecb_cipher             000000000004a7ec f   OpensslLib:e_aes.obj
 0001:0004a5a4       aes_ofb_cipher             000000000004a864 f   OpensslLib:e_aes.obj
 0001:0004a604       aes_cfb_cipher             000000000004a8c4 f   OpensslLib:e_aes.obj
 0001:0004a66c       aes_cfb8_cipher            000000000004a92c f   OpensslLib:e_aes.obj
 0001:0004a6cc       aes_cfb1_cipher            000000000004a98c f   OpensslLib:e_aes.obj
 0001:0004a800       aes_ctr_cipher             000000000004aac0 f   OpensslLib:e_aes.obj
 0001:0004a894       aes_gcm_cleanup            000000000004ab54 f   OpensslLib:e_aes.obj
 0001:0004a8ec       aes_gcm_ctrl               000000000004abac f   OpensslLib:e_aes.obj
 0001:0004acd8       aes_gcm_init_key           000000000004af98 f   OpensslLib:e_aes.obj
 0001:0004add0       aes_gcm_tls_cipher         000000000004b090 f   OpensslLib:e_aes.obj
 0001:0004af1c       aes_gcm_cipher             000000000004b1dc f   OpensslLib:e_aes.obj
 0001:0004b014       aes_xts_ctrl               000000000004b2d4 f   OpensslLib:e_aes.obj
 0001:0004b084       aes_xts_init_key           000000000004b344 f   OpensslLib:e_aes.obj
 0001:0004b1d0       aes_xts_cipher             000000000004b490 f   OpensslLib:e_aes.obj
 0001:0004b268       aes_ccm_ctrl               000000000004b528 f   OpensslLib:e_aes.obj
 0001:0004b48c       aes_ccm_init_key           000000000004b74c f   OpensslLib:e_aes.obj
 0001:0004b544       aes_ccm_tls_cipher         000000000004b804 f   OpensslLib:e_aes.obj
 0001:0004b724       aes_ccm_cipher             000000000004b9e4 f   OpensslLib:e_aes.obj
 0001:0004b958       aes_wrap_init_key          000000000004bc18 f   OpensslLib:e_aes.obj
 0001:0004b9f4       aes_wrap_cipher            000000000004bcb4 f   OpensslLib:e_aes.obj
 0001:0004bb98       ctr_XOR                    000000000004be58 f   OpensslLib:drbg_ctr.obj
 0001:0004bc18       ctr_BCC_block              000000000004bed8 f   OpensslLib:drbg_ctr.obj
 0001:0004bc84       ctr_BCC_blocks             000000000004bf44 f   OpensslLib:drbg_ctr.obj
 0001:0004bd00       ctr_BCC_update             000000000004bfc0 f   OpensslLib:drbg_ctr.obj
 0001:0004bdc4       ctr_df                     000000000004c084 f   OpensslLib:drbg_ctr.obj
 0001:0004c028       ctr_update                 000000000004c2e8 f   OpensslLib:drbg_ctr.obj
 0001:0004c21c       drbg_ctr_instantiate       000000000004c4dc f   OpensslLib:drbg_ctr.obj
 0001:0004c314       drbg_ctr_reseed            000000000004c5d4 f   OpensslLib:drbg_ctr.obj
 0001:0004c380       drbg_ctr_generate          000000000004c640 f   OpensslLib:drbg_ctr.obj
 0001:0004c5ec       drbg_ctr_uninstantiate     000000000004c8ac f   OpensslLib:drbg_ctr.obj
 0001:0004c870       init                       000000000004cb30 f   OpensslLib:m_sha3.obj
 0001:0004c8f0       sha3_init                  000000000004cbb0 f   OpensslLib:m_sha3.obj
 0001:0004c8f8       shake_init                 000000000004cbb8 f   OpensslLib:m_sha3.obj
 0001:0004c900       sha3_update                000000000004cbc0 f   OpensslLib:m_sha3.obj
 0001:0004c9f8       sha3_final                 000000000004ccb8 f   OpensslLib:m_sha3.obj
 0001:0004ca9c       shake_ctrl                 000000000004cd5c f   OpensslLib:m_sha3.obj
 0001:0004cabc       init                       000000000004cd7c f   OpensslLib:m_sm3.obj
 0001:0004cb18       update                     000000000004cdd8 f   OpensslLib:m_sm3.obj
 0001:0004cc2c       final                      000000000004ceec f   OpensslLib:m_sm3.obj
 0001:0004cc3c       init                       000000000004cefc f   OpensslLib:m_md5_sha1.obj
 0001:0004cc80       update                     000000000004cf40 f   OpensslLib:m_md5_sha1.obj
 0001:0004ccc4       final                      000000000004cf84 f   OpensslLib:m_md5_sha1.obj
 0001:0004ccfc       ctrl                       000000000004cfbc f   OpensslLib:m_md5_sha1.obj
 0001:0004ce9c       trans_cb                   000000000004d15c f   OpensslLib:pmeth_gn.obj
 0001:0004ceb4       dh_param_init              000000000004d174 f   OpensslLib:dh_rfc7919.obj
 0001:0004cf74       dh_builtin_genparams       000000000004d234 f   OpensslLib:dh_gen.obj
 0001:0004d124       oneshot_hash               000000000004d3e4 f   OpensslLib:eddsa.obj
 0001:0004d1c8       hash_init_with_dom         000000000004d488 f   OpensslLib:eddsa.obj
 0001:0004d8e0       fe_frombytes               000000000004dba0 f   OpensslLib:curve25519.obj
 0001:0004db98       fe_tobytes                 000000000004de58 f   OpensslLib:curve25519.obj
 0001:0004de08       fe_mul                     000000000004e0c8 f   OpensslLib:curve25519.obj
 0001:0004e6c0       fe_sq                      000000000004e980 f   OpensslLib:curve25519.obj
 0001:0004ec4c       fe_invert                  000000000004ef0c f   OpensslLib:curve25519.obj
 0001:0004ee8c       fe_sq2                     000000000004f14c f   OpensslLib:curve25519.obj
 0001:0004f3fc       fe_pow22523                000000000004f6bc f   OpensslLib:curve25519.obj
 0001:0004f640       ge_p3_tobytes              000000000004f900 f   OpensslLib:curve25519.obj
 0001:0004f6c0       ge_frombytes_vartime       000000000004f980 f   OpensslLib:curve25519.obj
 0001:0004f918       ge_p3_to_cached            000000000004fbd8 f   OpensslLib:curve25519.obj
 0001:0004f998       ge_p1p1_to_p2              000000000004fc58 f   OpensslLib:curve25519.obj
 0001:0004f9f4       ge_p1p1_to_p3              000000000004fcb4 f   OpensslLib:curve25519.obj
 0001:0004fa68       ge_p2_dbl                  000000000004fd28 f   OpensslLib:curve25519.obj
 0001:0004fb54       ge_p3_dbl                  000000000004fe14 f   OpensslLib:curve25519.obj
 0001:0004fbc4       ge_madd                    000000000004fe84 f   OpensslLib:curve25519.obj
 0001:0004fd04       ge_add                     000000000004ffc4 f   OpensslLib:curve25519.obj
 0001:0004fe58       cmov                       0000000000050118 f   OpensslLib:curve25519.obj
 0001:0004fed8       table_select               0000000000050198 f   OpensslLib:curve25519.obj
 0001:000500d0       ge_scalarmult_base         0000000000050390 f   OpensslLib:curve25519.obj
 0001:000502bc       x25519_scalar_mult_generic 000000000005057c f   OpensslLib:curve25519.obj
 0001:00050780       slide                      0000000000050a40 f   OpensslLib:curve25519.obj
 0001:00050880       ge_double_scalarmult_vartime 0000000000050b40 f   OpensslLib:curve25519.obj
 0001:00050de8       x25519_sc_reduce           00000000000510a8 f   OpensslLib:curve25519.obj
 0001:00051c20       sc_muladd                  0000000000051ee0 f   OpensslLib:curve25519.obj
 0001:00054008       gf_bias                    00000000000542c8 f   OpensslLib:curve448.obj
 0001:00054068       gf_weak_reduce             0000000000054328 f   OpensslLib:curve448.obj
 0001:00054068       gf_weak_reduce             0000000000054328 f   OpensslLib:f_generic.obj
 0001:000540b4       gf_sub_nr                  0000000000054374 f   OpensslLib:curve448.obj
 0001:000540f8       gf_cond_neg                00000000000543b8 f   OpensslLib:curve448.obj
 0001:00054170       gf_invert                  0000000000054430 f   OpensslLib:curve448.obj
 0001:000541fc       point_double_internal      00000000000544bc f   OpensslLib:curve448.obj
 0001:000543c8       pt_to_pniels               0000000000054688 f   OpensslLib:curve448.obj
 0001:00054448       pniels_to_pt               0000000000054708 f   OpensslLib:curve448.obj
 0001:000544e8       niels_to_pt                00000000000547a8 f   OpensslLib:curve448.obj
 0001:00054584       add_niels_to_pt            0000000000054844 f   OpensslLib:curve448.obj
 0001:000546f8       sub_niels_from_pt          00000000000549b8 f   OpensslLib:curve448.obj
 0001:00054860       add_pniels_to_pt           0000000000054b20 f   OpensslLib:curve448.obj
 0001:000554ec       recode_wnaf                00000000000557ac f   OpensslLib:curve448.obj
 0001:00055cec       rsa_get_public_exp         0000000000055fac f   OpensslLib:rsa_crpt.obj
 0001:000568d4       rsa_builtin_keygen         0000000000056b94 f   OpensslLib:rsa_gen.obj
 0001:00057274       encode_pkcs1               0000000000057534 f   OpensslLib:rsa_sign.obj
 0001:000582a0       sm2_sig_gen                0000000000058560 f   OpensslLib:sm2_sign.obj
 0001:0005854c       sm2_sig_verify             000000000005880c f   OpensslLib:sm2_sign.obj
 0001:00058958       ec_field_size              0000000000058c18 f   OpensslLib:sm2_crypt.obj
 0001:00059e4c       nist_cp_bn_0               000000000005a10c f   OpensslLib:bn_nist.obj
 0001:0005c818       print_bin                  000000000005cad8 f   OpensslLib:eck_prn.obj
 0001:0005d4ac       dh_cb                      000000000005d76c f   OpensslLib:dh_asn1.obj
 0001:0005e0b0       SM4_T_slow                 000000000005e370 f   OpensslLib:sm4.obj
 0001:0005f9c4       cfbr_encrypt_block         000000000005fc84 f   OpensslLib:cfb128.obj
 0001:0005fc90       gcm_gmult_4bit             000000000005ff50 f   OpensslLib:gcm128.obj
 0001:000612c8       rotnr                      0000000000061588 f   OpensslLib:aria.obj
 0001:00061350       sl2                        0000000000061610 f   OpensslLib:aria.obj
 0001:000613e0       a                          00000000000616a0 f   OpensslLib:aria.obj
 0001:0006155c       FO                         000000000006181c f   OpensslLib:aria.obj
 0001:00063370       crypto_128_unwrap_raw      0000000000063630 f   OpensslLib:wrap128.obj
 0001:000637ac       alg_module_init            0000000000063a6c f   OpensslLib:evp_cnf.obj
 0001:00063904       stbl_module_init           0000000000063bc4 f   OpensslLib:asn_mstbl.obj
 0001:000639e0       stbl_module_finish         0000000000063ca0 f   OpensslLib:asn_mstbl.obj
 0001:00063a0c       do_tcreate                 0000000000063ccc f   OpensslLib:asn_mstbl.obj
 0001:00063d70       ssl_module_free            0000000000064030 f   OpensslLib:conf_ssl.obj
 0001:00063e3c       ssl_module_init            00000000000640fc f   OpensslLib:conf_ssl.obj
 0001:00064158       oid_module_init            0000000000064418 f   OpensslLib:asn_moid.obj
 0001:0006436c       oid_module_finish          000000000006462c f   OpensslLib:asn_moid.obj
 0001:00064370       Round                      0000000000064630 f   OpensslLib:keccak1600.obj
 0001:00064740       KeccakF1600                0000000000064a00 f   OpensslLib:keccak1600.obj
 0001:000677f8       witness                    0000000000067ab8 f   OpensslLib:bn_prime.obj
 0001:000678d8       probable_prime             0000000000067b98 f   OpensslLib:bn_prime.obj
 0001:00067a6c       probable_prime_dh          0000000000067d2c f   OpensslLib:bn_prime.obj
 0001:00067d5c       sc_subx                    000000000006801c f   OpensslLib:scalar.obj
 0001:00067de8       sc_montmul                 00000000000680a8 f   OpensslLib:scalar.obj
 0001:000681ac       gf_sqrn                    000000000006846c f   OpensslLib:f_generic.obj
 0001:0006bf24       QuickSortWorker            000000000006c1e4 f   BaseCryptLib:CrtWrapper.obj
 0002:00002070       TS_TST_INFO_seq_tt         000000000006e830     BaseCryptLib:CryptTs.obj
 0002:000021e0       TS_ACCURACY_seq_tt         000000000006e9a0     BaseCryptLib:CryptTs.obj
 0002:00002240       TS_MESSAGE_IMPRINT_seq_tt  000000000006ea00     BaseCryptLib:CryptTs.obj
 0002:000023f0       K512                       000000000006ebb0     OpensslLib:sha512.obj
 0002:00002678       minbits_table              000000000006ee38     OpensslLib:x509_vfy.obj
 0002:000026a0       mem_method                 000000000006ee60     OpensslLib:bss_mem.obj
 0002:000027b0       X509_CINF_seq_tt           000000000006ef70     OpensslLib:x_x509.obj
 0002:000028f0       X509_seq_tt                000000000006f0b0     OpensslLib:x_x509.obj
 0002:00002980       X509_CINF_aux              000000000006f140     OpensslLib:x_x509.obj
 0002:000029a8       X509_aux                   000000000006f168     OpensslLib:x_x509.obj
 0002:00002a00       sha1_md                    000000000006f1c0     OpensslLib:m_sha1.obj
 0002:00002a50       sha224_md                  000000000006f210     OpensslLib:m_sha1.obj
 0002:00002aa0       sha512_224_md              000000000006f260     OpensslLib:m_sha1.obj
 0002:00002af0       sha256_md                  000000000006f2b0     OpensslLib:m_sha1.obj
 0002:00002b40       sha512_md                  000000000006f300     OpensslLib:m_sha1.obj
 0002:00002b90       sha384_md                  000000000006f350     OpensslLib:m_sha1.obj
 0002:00002be0       sha512_256_md              000000000006f3a0     OpensslLib:m_sha1.obj
 0002:00002ec0       PKCS7_ENVELOPE_seq_tt      000000000006f680     OpensslLib:pk7_asn1.obj
 0002:00002fb0       PKCS7_adb                  000000000006f770     OpensslLib:pk7_asn1.obj
 0002:00002fe0       PKCS7_SIGNER_INFO_aux      000000000006f7a0     OpensslLib:pk7_asn1.obj
 0002:00003010       PKCS7_SIGNER_INFO_seq_tt   000000000006f7d0     OpensslLib:pk7_asn1.obj
 0002:00003150       PKCS7_ENC_CONTENT_seq_tt   000000000006f910     OpensslLib:pk7_asn1.obj
 0002:00003210       PKCS7_adbtbl               000000000006f9d0     OpensslLib:pk7_asn1.obj
 0002:00003330       PKCS7_RECIP_INFO_aux       000000000006faf0     OpensslLib:pk7_asn1.obj
 0002:00003388       p7default_tt               000000000006fb48     OpensslLib:pk7_asn1.obj
 0002:000033b0       PKCS7_ISSUER_AND_SERIAL_seq_tt 000000000006fb70     OpensslLib:pk7_asn1.obj
 0002:000033f0       PKCS7_SIGN_ENVELOPE_seq_tt 000000000006fbb0     OpensslLib:pk7_asn1.obj
 0002:000034d0       PKCS7_RECIP_INFO_seq_tt    000000000006fc90     OpensslLib:pk7_asn1.obj
 0002:00003580       PKCS7_aux                  000000000006fd40     OpensslLib:pk7_asn1.obj
 0002:000035e0       PKCS7_SIGNED_seq_tt        000000000006fda0     OpensslLib:pk7_asn1.obj
 0002:000036a0       PKCS7_ATTR_SIGN_item_tt    000000000006fe60     OpensslLib:pk7_asn1.obj
 0002:000036c0       PKCS7_DIGEST_seq_tt        000000000006fe80     OpensslLib:pk7_asn1.obj
 0002:00003770       PKCS7_ATTR_VERIFY_item_tt  000000000006ff30     OpensslLib:pk7_asn1.obj
 0002:00003790       PKCS7_seq_tt               000000000006ff50     OpensslLib:pk7_asn1.obj
 0002:000037d0       PKCS7_ENCRYPT_seq_tt       000000000006ff90     OpensslLib:pk7_asn1.obj
 0002:00003810       md5_md                     000000000006ffd0     OpensslLib:m_md5.obj
 0002:0000baf0       nid_objs                   00000000000782b0     OpensslLib:obj_dat.obj
 0002:000175b0       ln_objs                    0000000000083d70     OpensslLib:obj_dat.obj
 0002:00018840       so                         0000000000085000     OpensslLib:obj_dat.obj
 0002:0001a6a0       obj_objs                   0000000000086e60     OpensslLib:obj_dat.obj
 0002:0001b760       sn_objs                    0000000000087f20     OpensslLib:obj_dat.obj
 0002:0001ca88       X509_NAME_ENTRIES_item_tt  0000000000089248     OpensslLib:x_name.obj
 0002:0001cab0       X509_NAME_ENTRY_seq_tt     0000000000089270     OpensslLib:x_name.obj
 0002:0001cb20       X509_NAME_INTERNAL_item_tt 00000000000892e0     OpensslLib:x_name.obj
 0002:0001cb40       x509_name_ff               0000000000089300     OpensslLib:x_name.obj
 0002:0001cb78       X509_NAME_INTERNAL_it      0000000000089338     OpensslLib:x_name.obj
 0002:0001cba8       X509_NAME_ENTRIES_it       0000000000089368     OpensslLib:x_name.obj
 0002:0001cc10       tag2nbyte                  00000000000893d0     OpensslLib:a_strex.obj
 0002:0001cc30       char_type                  00000000000893f0     OpensslLib:a_strex.obj
 0002:0001cd30       ?hexdig@?1??do_hex_dump@@9@9 00000000000894f0     OpensslLib:a_strex.obj
 0002:0001cd30       ?hexdig@?1??OPENSSL_buf2hexstr@@9@9 00000000000894f0     OpensslLib:o_str.obj
 0002:0001cd30       ?hex@?1??X509_NAME_oneline@@9@9 00000000000894f0     OpensslLib:x509_obj.obj
 0002:0001ce80       RSAPublicKey_seq_tt        0000000000089640     OpensslLib:rsa_asn1.obj
 0002:0001cec0       RSAPublicKey_aux           0000000000089680     OpensslLib:rsa_asn1.obj
 0002:0001cef0       RSAPrivateKey_seq_tt       00000000000896b0     OpensslLib:rsa_asn1.obj
 0002:0001d030       RSAPrivateKey_aux          00000000000897f0     OpensslLib:rsa_asn1.obj
 0002:0001d088       RSA_PSS_PARAMS_aux         0000000000089848     OpensslLib:rsa_asn1.obj
 0002:0001d0b0       RSA_PSS_PARAMS_seq_tt      0000000000089870     OpensslLib:rsa_asn1.obj
 0002:0001d160       RSA_PRIME_INFO_seq_tt      0000000000089920     OpensslLib:rsa_asn1.obj
 0002:0001d1c0       K256                       0000000000089980     OpensslLib:sha256.obj
 0002:0001d668       ASN1_SEQUENCE_ANY_item_tt  0000000000089e28     OpensslLib:tasn_typ.obj
 0002:0001d718       ASN1_SET_ANY_item_tt       0000000000089ed8     OpensslLib:tasn_typ.obj
 0002:0001d840       tag2bit                    000000000008a000     OpensslLib:tasn_dec.obj
 0002:0001d910       X509_ALGOR_seq_tt          000000000008a0d0     OpensslLib:x_algor.obj
 0002:0001d9a0       X509_EXTENSION_seq_tt      000000000008a160     OpensslLib:x_exten.obj
 0002:0001db80       OTHERNAME_seq_tt           000000000008a340     OpensslLib:v3_genn.obj
 0002:0001dbc0       EDIPARTYNAME_seq_tt        000000000008a380     OpensslLib:v3_genn.obj
 0002:0001dc00       GENERAL_NAMES_item_tt      000000000008a3c0     OpensslLib:v3_genn.obj
 0002:0001dc80       GENERAL_NAME_ch_tt         000000000008a440     OpensslLib:v3_genn.obj
 0002:0001ddd0       default_table              000000000008a590     OpensslLib:x509_vpm.obj
 0002:0001e0d0       X509_REVOKED_seq_tt        000000000008a890     OpensslLib:x_crl.obj
 0002:0001e130       X509_CRL_INFO_seq_tt       000000000008a8f0     OpensslLib:x_crl.obj
 0002:0001e210       X509_CRL_seq_tt            000000000008a9d0     OpensslLib:x_crl.obj
 0002:0001e270       X509_CRL_INFO_aux          000000000008aa30     OpensslLib:x_crl.obj
 0002:0001e298       X509_CRL_aux               000000000008aa58     OpensslLib:x_crl.obj
 0002:0001e3e0       ?supported_nids@?1??X509_supported_extension@@9@9 000000000008aba0     OpensslLib:v3_purp.obj
 0002:0001e478       X509_PUBKEY_aux            000000000008ac38     OpensslLib:x_pubkey.obj
 0002:0001e4a0       X509_PUBKEY_seq_tt         000000000008ac60     OpensslLib:x_pubkey.obj
 0002:0001e5c0       ?max@?1??asn1_time_to_tm@@9@9 000000000008ad80     OpensslLib:a_time.obj
 0002:0001e5f0       ?min@?1??asn1_time_to_tm@@9@9 000000000008adb0     OpensslLib:a_time.obj
 0002:0001e618       _asn1_mon                  000000000008add8     OpensslLib:a_time.obj
 0002:0001e648       ?ydays@?1??determine_days@@9@9 000000000008ae08     OpensslLib:a_time.obj
 0002:0001e680       ?mdays@?1??asn1_time_to_tm@@9@9 000000000008ae40     OpensslLib:a_time.obj
 0002:0001e880       NAME_CONSTRAINTS_seq_tt    000000000008b040     OpensslLib:v3_ncons.obj
 0002:0001e960       GENERAL_SUBTREE_seq_tt     000000000008b120     OpensslLib:v3_ncons.obj
 0002:0001e9f0       ctype_char_map             000000000008b1b0     OpensslLib:ctype.obj
 0002:0001ed68       CRL_DIST_POINTS_item_tt    000000000008b528     OpensslLib:v3_crld.obj
 0002:0001ed90       ISSUING_DIST_POINT_seq_tt  000000000008b550     OpensslLib:v3_crld.obj
 0002:0001ef20       reason_flags               000000000008b6e0     OpensslLib:v3_crld.obj
 0002:0001f0b0       DIST_POINT_NAME_ch_tt      000000000008b870     OpensslLib:v3_crld.obj
 0002:0001f160       DIST_POINT_seq_tt          000000000008b920     OpensslLib:v3_crld.obj
 0002:0001f1f0       DIST_POINT_NAME_aux        000000000008b9b0     OpensslLib:v3_crld.obj
 0002:0001f250       X509_CERT_AUX_seq_tt       000000000008ba10     OpensslLib:x_x509a.obj
 0002:0001f360       AUTHORITY_KEYID_seq_tt     000000000008bb20     OpensslLib:v3_akeya.obj
 0002:0001f3f0       X509_VAL_seq_tt            000000000008bbb0     OpensslLib:x_val.obj
 0002:0001ff80       sigoid_srt_xref            000000000008c740     OpensslLib:obj_xref.obj
 0002:000200e0       sigoid_srt                 000000000008c8a0     OpensslLib:obj_xref.obj
 0002:00020340       X509_ATTRIBUTE_seq_tt      000000000008cb00     OpensslLib:x_attrib.obj
 0002:00020410       X509_SIG_seq_tt            000000000008cbd0     OpensslLib:x_sig.obj
 0002:00020640       X9_62_CURVE_it             000000000008ce00     OpensslLib:ec_asn1.obj
 0002:00020670       X9_62_FIELDID_seq_tt       000000000008ce30     OpensslLib:ec_asn1.obj
 0002:000206b0       X9_62_PENTANOMIAL_seq_tt   000000000008ce70     OpensslLib:ec_asn1.obj
 0002:00020710       fieldID_def_tt             000000000008ced0     OpensslLib:ec_asn1.obj
 0002:00020730       X9_62_CHARACTERISTIC_TWO_adb 000000000008cef0     OpensslLib:ec_asn1.obj
 0002:00020760       X9_62_CHARACTERISTIC_TWO_seq_tt 000000000008cf20     OpensslLib:ec_asn1.obj
 0002:000207c0       ECDSA_SIG_seq_tt           000000000008cf80     OpensslLib:ec_asn1.obj
 0002:00020800       ECPARAMETERS_seq_tt        000000000008cfc0     OpensslLib:ec_asn1.obj
 0002:000208c0       ECDSA_SIG_it               000000000008d080     OpensslLib:ec_asn1.obj
 0002:000208f0       X9_62_FIELDID_it           000000000008d0b0     OpensslLib:ec_asn1.obj
 0002:00020920       X9_62_CHARACTERISTIC_TWO_it 000000000008d0e0     OpensslLib:ec_asn1.obj
 0002:00020950       ECPKPARAMETERS_ch_tt       000000000008d110     OpensslLib:ec_asn1.obj
 0002:000209e0       EC_PRIVATEKEY_it           000000000008d1a0     OpensslLib:ec_asn1.obj
 0002:00020a10       X9_62_FIELDID_adb          000000000008d1d0     OpensslLib:ec_asn1.obj
 0002:00020a40       EC_PRIVATEKEY_seq_tt       000000000008d200     OpensslLib:ec_asn1.obj
 0002:00020ac0       X9_62_CURVE_seq_tt         000000000008d280     OpensslLib:ec_asn1.obj
 0002:00020b20       X9_62_PENTANOMIAL_it       000000000008d2e0     OpensslLib:ec_asn1.obj
 0002:00020b50       X9_62_CHARACTERISTIC_TWO_adbtbl 000000000008d310     OpensslLib:ec_asn1.obj
 0002:00020bc8       char_two_def_tt            000000000008d388     OpensslLib:ec_asn1.obj
 0002:00020bf0       X9_62_FIELDID_adbtbl       000000000008d3b0     OpensslLib:ec_asn1.obj
 0002:00020c60       Hex                        000000000008d420     OpensslLib:bn_print.obj
 0002:00020c78       ?const_one@?1??BN_value_one@@9@9 000000000008d438     OpensslLib:bn_lib.obj
 0002:00020c90       ?data_one@?1??BN_value_one@@9@9 000000000008d450     OpensslLib:bn_lib.obj
 0002:00020ca8       ?zero_iv@?1??CMAC_Init@@9@9 000000000008d468     OpensslLib:cmac.obj
 0002:00020cd0       tbl_standard               000000000008d490     OpensslLib:a_strnid.obj
 0002:000210a0       ?tag2str@?1??ASN1_tag2str@@9@9 000000000008d860     OpensslLib:asn1_par.obj
 0002:00021310       PROXY_POLICY_seq_tt        000000000008dad0     OpensslLib:v3_pcia.obj
 0002:00021380       PROXY_CERT_INFO_EXTENSION_seq_tt 000000000008db40     OpensslLib:v3_pcia.obj
 0002:00021420       BASIC_CONSTRAINTS_seq_tt   000000000008dbe0     OpensslLib:v3_bcons.obj
 0002:00021a00       _EC_brainpoolP512t1        000000000008e1c0     OpensslLib:ec_curve.obj
 0002:00021b90       _EC_WTLS_8                 000000000008e350     OpensslLib:ec_curve.obj
 0002:00021c00       _EC_brainpoolP512r1        000000000008e3c0     OpensslLib:ec_curve.obj
 0002:00021d90       _EC_X9_62_PRIME_239V3      000000000008e550     OpensslLib:ec_curve.obj
 0002:00021e70       _EC_SECG_PRIME_224K1       000000000008e630     OpensslLib:ec_curve.obj
 0002:00021f30       _EC_SECG_PRIME_128R2       000000000008e6f0     OpensslLib:ec_curve.obj
 0002:00021fc0       _EC_sm2p256v1              000000000008e780     OpensslLib:ec_curve.obj
 0002:00022090       curve_list                 000000000008e850     OpensslLib:ec_curve.obj
 0002:00022590       _EC_brainpoolP256t1        000000000008ed50     OpensslLib:ec_curve.obj
 0002:00022660       _EC_SECG_PRIME_112R1       000000000008ee20     OpensslLib:ec_curve.obj
 0002:000226e0       _EC_NIST_PRIME_521         000000000008eea0     OpensslLib:ec_curve.obj
 0002:00022890       _EC_NIST_PRIME_192         000000000008f050     OpensslLib:ec_curve.obj
 0002:00022950       _EC_NIST_PRIME_384         000000000008f110     OpensslLib:ec_curve.obj
 0002:00022aa0       _EC_SECG_PRIME_128R1       000000000008f260     OpensslLib:ec_curve.obj
 0002:00022b30       _EC_WTLS_9                 000000000008f2f0     OpensslLib:ec_curve.obj
 0002:00022bc0       _EC_SECG_PRIME_160R2       000000000008f380     OpensslLib:ec_curve.obj
 0002:00022c70       _EC_SECG_PRIME_192K1       000000000008f430     OpensslLib:ec_curve.obj
 0002:00022d10       _EC_NIST_PRIME_224         000000000008f4d0     OpensslLib:ec_curve.obj
 0002:00022de0       _EC_brainpoolP160t1        000000000008f5a0     OpensslLib:ec_curve.obj
 0002:00022e70       _EC_brainpoolP384r1        000000000008f630     OpensslLib:ec_curve.obj
 0002:00022fa0       _EC_WTLS_12                000000000008f760     OpensslLib:ec_curve.obj
 0002:00023060       _EC_SECG_PRIME_160K1       000000000008f820     OpensslLib:ec_curve.obj
 0002:000230f0       _EC_X9_62_PRIME_239V1      000000000008f8b0     OpensslLib:ec_curve.obj
 0002:000231d0       _EC_brainpoolP160r1        000000000008f990     OpensslLib:ec_curve.obj
 0002:00023260       _EC_brainpoolP224t1        000000000008fa20     OpensslLib:ec_curve.obj
 0002:00023320       _EC_X9_62_PRIME_239V2      000000000008fae0     OpensslLib:ec_curve.obj
 0002:00023400       _EC_X9_62_PRIME_192V2      000000000008fbc0     OpensslLib:ec_curve.obj
 0002:000234c0       _EC_SECG_PRIME_256K1       000000000008fc80     OpensslLib:ec_curve.obj
 0002:00023590       _EC_brainpoolP224r1        000000000008fd50     OpensslLib:ec_curve.obj
 0002:00023650       _EC_SECG_PRIME_112R2       000000000008fe10     OpensslLib:ec_curve.obj
 0002:000236d0       _EC_brainpoolP192r1        000000000008fe90     OpensslLib:ec_curve.obj
 0002:00023770       _EC_brainpoolP320t1        000000000008ff30     OpensslLib:ec_curve.obj
 0002:00023870       _EC_brainpoolP320r1        0000000000090030     OpensslLib:ec_curve.obj
 0002:00023970       _EC_SECG_PRIME_160R1       0000000000090130     OpensslLib:ec_curve.obj
 0002:00023a20       _EC_brainpoolP256r1        00000000000901e0     OpensslLib:ec_curve.obj
 0002:00023af0       _EC_brainpoolP384t1        00000000000902b0     OpensslLib:ec_curve.obj
 0002:00023c20       _EC_brainpoolP192t1        00000000000903e0     OpensslLib:ec_curve.obj
 0002:00023cc0       _EC_X9_62_PRIME_192V3      0000000000090480     OpensslLib:ec_curve.obj
 0002:00023d80       _EC_X9_62_PRIME_256V1      0000000000090540     OpensslLib:ec_curve.obj
 0002:00023e80       openssl_ec_key_method      0000000000090640     OpensslLib:ec_kmeth.obj
 0002:00023fb0       ACCESS_DESCRIPTION_seq_tt  0000000000090770     OpensslLib:v3_info.obj
 0002:000240c8       AUTHORITY_INFO_ACCESS_item_tt 0000000000090888     OpensslLib:v3_info.obj
 0002:00024410       POLICY_CONSTRAINTS_seq_tt  0000000000090bd0     OpensslLib:v3_pcons.obj
 0002:00024688       POLICYQUALINFO_adb         0000000000090e48     OpensslLib:v3_cpols.obj
 0002:000246c0       POLICYQUALINFO_adbtbl      0000000000090e80     OpensslLib:v3_cpols.obj
 0002:00024740       POLICYQUALINFO_seq_tt      0000000000090f00     OpensslLib:v3_cpols.obj
 0002:00024780       NOTICEREF_seq_tt           0000000000090f40     OpensslLib:v3_cpols.obj
 0002:000247c0       policydefault_tt           0000000000090f80     OpensslLib:v3_cpols.obj
 0002:000247e0       USERNOTICE_seq_tt          0000000000090fa0     OpensslLib:v3_cpols.obj
 0002:00024820       CERTIFICATEPOLICIES_item_tt 0000000000090fe0     OpensslLib:v3_cpols.obj
 0002:00024870       POLICYINFO_seq_tt          0000000000091030     OpensslLib:v3_cpols.obj
 0002:00024920       methods_enc                00000000000910e0     OpensslLib:bio_enc.obj
 0002:00024990       methods_md                 0000000000091150     OpensslLib:bio_md.obj
 0002:000249f0       null_method                00000000000911b0     OpensslLib:bss_null.obj
 0002:00024ae8       ossl_pers_string           00000000000912a8     OpensslLib:drbg_lib.obj
 0002:000262e0       OCSP_SERVICELOC_seq_tt     0000000000092aa0     OpensslLib:ocsp_asn.obj
 0002:00026320       OCSP_CRLID_seq_tt          0000000000092ae0     OpensslLib:ocsp_asn.obj
 0002:00027450       EXTENDED_KEY_USAGE_item_tt 0000000000093c10     OpensslLib:v3_extku.obj
 0002:000282f0       ADMISSIONS_seq_tt          0000000000094ab0     OpensslLib:v3_admis.obj
 0002:000283b0       NAMING_AUTHORITY_seq_tt    0000000000094b70     OpensslLib:v3_admis.obj
 0002:00028410       PROFESSION_INFO_seq_tt     0000000000094bd0     OpensslLib:v3_admis.obj
 0002:000284b0       ADMISSION_SYNTAX_seq_tt    0000000000094c70     OpensslLib:v3_admis.obj
 0002:000286e0       PKEY_USAGE_PERIOD_seq_tt   0000000000094ea0     OpensslLib:v3_pku.obj
 0002:00028810       POLICY_MAPPING_seq_tt      0000000000094fd0     OpensslLib:v3_pmaps.obj
 0002:000288b0       POLICY_MAPPINGS_item_tt    0000000000095070     OpensslLib:v3_pmaps.obj
 0002:00028980       SXNET_seq_tt               0000000000095140     OpensslLib:v3_sxnet.obj
 0002:000289f0       SXNETID_seq_tt             00000000000951b0     OpensslLib:v3_sxnet.obj
 0002:00028bb0       TLS_FEATURE_it             0000000000095370     OpensslLib:v3_tlsf.obj
 0002:00028be0       TLS_FEATURE_item_tt        00000000000953a0     OpensslLib:v3_tlsf.obj
 0002:00028d30       ?tnst@?1??asn1_str2tag@@9@9 00000000000954f0     OpensslLib:asn1_gen.obj
 0002:00029100       ?dummy_key@?1??HMAC@@9@9   00000000000958c0     OpensslLib:hmac.obj
 0002:00029110       sm4_ecb                    00000000000958d0     OpensslLib:e_sm4.obj
 0002:00029170       sm4_ctr_mode               0000000000095930     OpensslLib:e_sm4.obj
 0002:000291d0       sm4_cfb128                 0000000000095990     OpensslLib:e_sm4.obj
 0002:00029230       sm4_cbc                    00000000000959f0     OpensslLib:e_sm4.obj
 0002:00029290       sm4_ofb                    0000000000095a50     OpensslLib:e_sm4.obj
 0002:000292f0       aria_256_ctr               0000000000095ab0     OpensslLib:e_aria.obj
 0002:00029350       aria_192_ofb               0000000000095b10     OpensslLib:e_aria.obj
 0002:000293b0       aria_128_cbc               0000000000095b70     OpensslLib:e_aria.obj
 0002:00029410       aria_192_ccm               0000000000095bd0     OpensslLib:e_aria.obj
 0002:00029470       aria_128_ofb               0000000000095c30     OpensslLib:e_aria.obj
 0002:000294d0       aria_128_gcm               0000000000095c90     OpensslLib:e_aria.obj
 0002:00029530       aria_192_cfb8              0000000000095cf0     OpensslLib:e_aria.obj
 0002:00029590       aria_256_cbc               0000000000095d50     OpensslLib:e_aria.obj
 0002:000295f0       aria_192_cfb1              0000000000095db0     OpensslLib:e_aria.obj
 0002:00029650       aria_128_ecb               0000000000095e10     OpensslLib:e_aria.obj
 0002:000296b0       aria_256_ecb               0000000000095e70     OpensslLib:e_aria.obj
 0002:00029710       aria_192_ecb               0000000000095ed0     OpensslLib:e_aria.obj
 0002:00029770       aria_128_cfb1              0000000000095f30     OpensslLib:e_aria.obj
 0002:000297d0       aria_256_cfb8              0000000000095f90     OpensslLib:e_aria.obj
 0002:00029830       aria_256_gcm               0000000000095ff0     OpensslLib:e_aria.obj
 0002:00029890       aria_256_cfb1              0000000000096050     OpensslLib:e_aria.obj
 0002:000298f0       aria_128_cfb128            00000000000960b0     OpensslLib:e_aria.obj
 0002:00029950       aria_256_cfb128            0000000000096110     OpensslLib:e_aria.obj
 0002:000299b0       aria_128_ctr               0000000000096170     OpensslLib:e_aria.obj
 0002:00029a10       aria_128_cfb8              00000000000961d0     OpensslLib:e_aria.obj
 0002:00029a70       aria_192_cfb128            0000000000096230     OpensslLib:e_aria.obj
 0002:00029ad0       aria_192_cbc               0000000000096290     OpensslLib:e_aria.obj
 0002:00029b30       aria_192_ctr               00000000000962f0     OpensslLib:e_aria.obj
 0002:00029b90       aria_128_ccm               0000000000096350     OpensslLib:e_aria.obj
 0002:00029bf0       aria_256_ofb               00000000000963b0     OpensslLib:e_aria.obj
 0002:00029c50       aria_256_ccm               0000000000096410     OpensslLib:e_aria.obj
 0002:00029cb0       aria_192_gcm               0000000000096470     OpensslLib:e_aria.obj
 0002:00029d10       aes_192_ecb                00000000000964d0     OpensslLib:e_aes.obj
 0002:00029d70       aes_192_ccm                0000000000096530     OpensslLib:e_aes.obj
 0002:00029dd0       aes_192_ctr                0000000000096590     OpensslLib:e_aes.obj
 0002:00029e30       aes_128_ofb                00000000000965f0     OpensslLib:e_aes.obj
 0002:00029e90       aes_256_ccm                0000000000096650     OpensslLib:e_aes.obj
 0002:00029ef0       aes_192_gcm                00000000000966b0     OpensslLib:e_aes.obj
 0002:00029f50       aes_128_wrap_pad           0000000000096710     OpensslLib:e_aes.obj
 0002:00029fb0       aes_256_ctr                0000000000096770     OpensslLib:e_aes.obj
 0002:0002a010       aes_192_cfb8               00000000000967d0     OpensslLib:e_aes.obj
 0002:0002a070       aes_192_cfb                0000000000096830     OpensslLib:e_aes.obj
 0002:0002a0d0       aes_256_gcm                0000000000096890     OpensslLib:e_aes.obj
 0002:0002a130       aes_128_gcm                00000000000968f0     OpensslLib:e_aes.obj
 0002:0002a190       aes_128_cfb1               0000000000096950     OpensslLib:e_aes.obj
 0002:0002a1f0       aes_192_cbc                00000000000969b0     OpensslLib:e_aes.obj
 0002:0002a250       aes_128_xts                0000000000096a10     OpensslLib:e_aes.obj
 0002:0002a2b0       aes_128_ctr                0000000000096a70     OpensslLib:e_aes.obj
 0002:0002a310       aes_256_wrap               0000000000096ad0     OpensslLib:e_aes.obj
 0002:0002a370       aes_256_cbc                0000000000096b30     OpensslLib:e_aes.obj
 0002:0002a3d0       aes_192_ofb                0000000000096b90     OpensslLib:e_aes.obj
 0002:0002a430       aes_256_wrap_pad           0000000000096bf0     OpensslLib:e_aes.obj
 0002:0002a490       aes_128_ecb                0000000000096c50     OpensslLib:e_aes.obj
 0002:0002a4f0       aes_256_ofb                0000000000096cb0     OpensslLib:e_aes.obj
 0002:0002a550       aes_256_cfb                0000000000096d10     OpensslLib:e_aes.obj
 0002:0002a5b0       aes_128_wrap               0000000000096d70     OpensslLib:e_aes.obj
 0002:0002a610       aes_256_cfb1               0000000000096dd0     OpensslLib:e_aes.obj
 0002:0002a670       aes_128_cbc                0000000000096e30     OpensslLib:e_aes.obj
 0002:0002a6d0       aes_192_wrap_pad           0000000000096e90     OpensslLib:e_aes.obj
 0002:0002a730       aes_256_cfb8               0000000000096ef0     OpensslLib:e_aes.obj
 0002:0002a790       aes_128_cfb8               0000000000096f50     OpensslLib:e_aes.obj
 0002:0002a7f0       aes_256_ecb                0000000000096fb0     OpensslLib:e_aes.obj
 0002:0002a850       aes_256_xts                0000000000097010     OpensslLib:e_aes.obj
 0002:0002a8b0       aes_128_cfb                0000000000097070     OpensslLib:e_aes.obj
 0002:0002a910       aes_192_wrap               00000000000970d0     OpensslLib:e_aes.obj
 0002:0002a970       aes_192_cfb1               0000000000097130     OpensslLib:e_aes.obj
 0002:0002a9d0       aes_128_ccm                0000000000097190     OpensslLib:e_aes.obj
 0002:0002aa28       ?df_key@?3??drbg_ctr_init@@9@9 00000000000971e8     OpensslLib:drbg_ctr.obj
 0002:0002aa50       ?shake128_md@?1??EVP_shake128@@9@9 0000000000097210     OpensslLib:m_sha3.obj
 0002:0002aaa0       ?shake256_md@?1??EVP_shake256@@9@9 0000000000097260     OpensslLib:m_sha3.obj
 0002:0002aaf0       ?sha3_224_md@?1??EVP_sha3_224@@9@9 00000000000972b0     OpensslLib:m_sha3.obj
 0002:0002ab40       ?sha3_384_md@?1??EVP_sha3_384@@9@9 0000000000097300     OpensslLib:m_sha3.obj
 0002:0002ab90       ?sha3_256_md@?1??EVP_sha3_256@@9@9 0000000000097350     OpensslLib:m_sha3.obj
 0002:0002abe0       ?sha3_512_md@?1??EVP_sha3_512@@9@9 00000000000973a0     OpensslLib:m_sha3.obj
 0002:0002ac30       sm3_md                     00000000000973f0     OpensslLib:m_sm3.obj
 0002:0002ac80       md5_sha1_md                0000000000097440     OpensslLib:m_md5_sha1.obj
 0002:0002acd0       null_md                    0000000000097490     OpensslLib:m_null.obj
 0002:0002ad30       ?order@?1??c448_ed448_verify@@9@9 00000000000974f0     OpensslLib:eddsa.obj
 0002:0002ad70       ?zero@?1??fe_isnonzero@@9@9 0000000000097530     OpensslLib:curve25519.obj
 0002:0002ad90       d                          0000000000097550     OpensslLib:curve25519.obj
 0002:0002adb8       d2                         0000000000097578     OpensslLib:curve25519.obj
 0002:0002ade0       k25519Precomp              00000000000975a0     OpensslLib:curve25519.obj
 0002:000325e0       sqrtm1                     000000000009eda0     OpensslLib:curve25519.obj
 0002:00032608       ?kZeros@?1??X25519@@9@9    000000000009edc8     OpensslLib:curve25519.obj
 0002:00032630       Bi                         000000000009edf0     OpensslLib:curve25519.obj
 0002:00032a30       ONE                        000000000009f1f0     OpensslLib:curve448.obj
 0002:00032a70       precomputed_scalarmul_adjustment 000000000009f230     OpensslLib:curve448.obj
 0002:00032bb0       ZERO                       000000000009f370     OpensslLib:curve448.obj
 0002:00032bf0       zeroes                     000000000009f3b0     OpensslLib:rsa_pss.obj
 0002:00032c20       SM2_Ciphertext_seq_tt      000000000009f3e0     OpensslLib:sm2_crypt.obj
 0002:00032cd0       ?ret@?1??EC_GFp_nist_method@@9@9 000000000009f490     OpensslLib:ecp_nist.obj
 0002:00032e80       _nist_p_256                000000000009f640     OpensslLib:bn_nist.obj
 0002:00032f20       ?_bignum_nist_p_256_sqr@?1??BN_nist_mod_256@@9@9 000000000009f6e0     OpensslLib:bn_nist.obj
 0002:00032f40       _nist_p_521                000000000009f700     OpensslLib:bn_nist.obj
 0002:00032f88       _nist_p_192_sqr            000000000009f748     OpensslLib:bn_nist.obj
 0002:00032fb8       _nist_p_224_sqr            000000000009f778     OpensslLib:bn_nist.obj
 0002:00032ff0       _bignum_nist_p_521         000000000009f7b0     OpensslLib:bn_nist.obj
 0002:00033008       _bignum_nist_p_256         000000000009f7c8     OpensslLib:bn_nist.obj
 0002:00033020       _bignum_nist_p_384         000000000009f7e0     OpensslLib:bn_nist.obj
 0002:00033038       ?_bignum_nist_p_521_sqr@?1??BN_nist_mod_521@@9@9 000000000009f7f8     OpensslLib:bn_nist.obj
 0002:00033050       _nist_p_384_sqr            000000000009f810     OpensslLib:bn_nist.obj
 0002:000330b0       ?_bignum_nist_p_224_sqr@?1??BN_nist_mod_224@@9@9 000000000009f870     OpensslLib:bn_nist.obj
 0002:000330d0       _nist_p_224                000000000009f890     OpensslLib:bn_nist.obj
 0002:00033110       ?_bignum_nist_p_384_sqr@?1??BN_nist_mod_384@@9@9 000000000009f8d0     OpensslLib:bn_nist.obj
 0002:00033128       ?_bignum_nist_p_192_sqr@?1??BN_nist_mod_192@@9@9 000000000009f8e8     OpensslLib:bn_nist.obj
 0002:00033140       _nist_p_521_sqr            000000000009f900     OpensslLib:bn_nist.obj
 0002:000331d0       _nist_p_256_sqr            000000000009f990     OpensslLib:bn_nist.obj
 0002:00033210       _bignum_nist_p_224         000000000009f9d0     OpensslLib:bn_nist.obj
 0002:00033228       _bignum_nist_p_192         000000000009f9e8     OpensslLib:bn_nist.obj
 0002:00033240       _nist_p_384                000000000009fa00     OpensslLib:bn_nist.obj
 0002:00033330       _nist_p_192                000000000009faf0     OpensslLib:bn_nist.obj
 0002:00033380       ?ret@?1??EC_GFp_mont_method@@9@9 000000000009fb40     OpensslLib:ecp_mont.obj
 0002:00033660       DHvparams_it               000000000009fe20     OpensslLib:dh_asn1.obj
 0002:00033690       DHxparams_seq_tt           000000000009fe50     OpensslLib:dh_asn1.obj
 0002:00033760       DHparams_seq_tt            000000000009ff20     OpensslLib:dh_asn1.obj
 0002:000337c0       DHvparams_seq_tt           000000000009ff80     OpensslLib:dh_asn1.obj
 0002:00033800       DHparams_aux               000000000009ffc0     OpensslLib:dh_asn1.obj
 0002:00033828       DHxparams_it               000000000009ffe8     OpensslLib:dh_asn1.obj
 0002:00033860       ?tab@?1??BN_kronecker@@9@9 00000000000a0020     OpensslLib:bn_kron.obj
 0002:00033880       ?CK@?1??SM4_set_key@@9@9   00000000000a0040     OpensslLib:sm4.obj
 0002:00033900       SM4_S                      00000000000a00c0     OpensslLib:sm4.obj
 0002:00033a00       SM4_SBOX_T                 00000000000a01c0     OpensslLib:sm4.obj
 0002:00033e00       rem_4bit                   00000000000a05c0     OpensslLib:gcm128.obj
 0002:00033e80       sb4                        00000000000a0640     OpensslLib:aria.obj
 0002:00033f80       c3                         00000000000a0740     OpensslLib:aria.obj
 0002:00033f90       Td4                        00000000000a0750     OpensslLib:aes_core.obj
 0002:00033f90       sb3                        00000000000a0750     OpensslLib:aria.obj
 0002:00034090       c2                         00000000000a0850     OpensslLib:aria.obj
 0002:000340a0       c1                         00000000000a0860     OpensslLib:aria.obj
 0002:000340b0       sb2                        00000000000a0870     OpensslLib:aria.obj
 0002:000341b0       sb1                        00000000000a0970     OpensslLib:aria.obj
 0002:000342b0       Td2                        00000000000a0a70     OpensslLib:aes_core.obj
 0002:000346b0       Td1                        00000000000a0e70     OpensslLib:aes_core.obj
 0002:00034ab0       Td0                        00000000000a1270     OpensslLib:aes_core.obj
 0002:00034eb0       Te0                        00000000000a1670     OpensslLib:aes_core.obj
 0002:000352b0       rcon                       00000000000a1a70     OpensslLib:aes_core.obj
 0002:000352e0       Te3                        00000000000a1aa0     OpensslLib:aes_core.obj
 0002:000356e0       Te2                        00000000000a1ea0     OpensslLib:aes_core.obj
 0002:00035ae0       Td3                        00000000000a22a0     OpensslLib:aes_core.obj
 0002:00035ee0       Te1                        00000000000a26a0     OpensslLib:aes_core.obj
 0002:000362e0       default_aiv                00000000000a2aa0     OpensslLib:wrap128.obj
 0002:000362e8       default_iv                 00000000000a2aa8     OpensslLib:wrap128.obj
 0002:00036370       iotas                      00000000000a2b30     OpensslLib:keccak1600.obj
 0002:00036430       dh1024_160_g               00000000000a2bf0     OpensslLib:bn_dh.obj
 0002:000364b0       ffdhe4096_p                00000000000a2c70     OpensslLib:bn_dh.obj
 0002:000366b0       dh2048_256_q               00000000000a2e70     OpensslLib:bn_dh.obj
 0002:000366d0       ffdhe3072_p                00000000000a2e90     OpensslLib:bn_dh.obj
 0002:00036850       dh2048_256_p               00000000000a3010     OpensslLib:bn_dh.obj
 0002:00036950       dh2048_256_g               00000000000a3110     OpensslLib:bn_dh.obj
 0002:00036a50       dh2048_224_g               00000000000a3210     OpensslLib:bn_dh.obj
 0002:00036b50       value_2                    00000000000a3310     OpensslLib:bn_dh.obj
 0002:00036b58       dh2048_224_q               00000000000a3318     OpensslLib:bn_dh.obj
 0002:00036b78       dh1024_160_q               00000000000a3338     OpensslLib:bn_dh.obj
 0002:00036b90       dh2048_224_p               00000000000a3350     OpensslLib:bn_dh.obj
 0002:00036c90       ffdhe8192_p                00000000000a3450     OpensslLib:bn_dh.obj
 0002:00037090       ffdhe2048_p                00000000000a3850     OpensslLib:bn_dh.obj
 0002:00037190       ffdhe6144_p                00000000000a3950     OpensslLib:bn_dh.obj
 0002:00037490       dh1024_160_p               00000000000a3c50     OpensslLib:bn_dh.obj
 0002:00037680       primes                     00000000000a3e40     OpensslLib:bn_prime.obj
 0002:00038680       sc_p                       00000000000a4e40     OpensslLib:scalar.obj
 0002:00038700       sc_r2                      00000000000a4ec0     OpensslLib:scalar.obj
 0002:00038780       curve448_wnaf_base_table   00000000000a4f40     OpensslLib:curve448_tables.obj
 0002:00039f80       curve448_precomputed_base_table 00000000000a6740     OpensslLib:curve448_tables.obj
 0002:0003db80       MODULUS                    00000000000aa340     OpensslLib:f_generic.obj
 0002:0003dbc0       ONE                        00000000000aa380     OpensslLib:f_generic.obj
 0002:0003dec0       allzeroes                  00000000000aa680     OpensslLib:curve25519.obj
 0003:0000037c       allow_customize            00000000000ab13c     OpensslLib:mem.obj
 0003:00000380       new_nid                    00000000000ab140     OpensslLib:obj_dat.obj
 0003:00000388       memset_func                00000000000ab148     OpensslLib:mem_clr.obj
 0003:00000390       int_crl_meth               00000000000ab150     OpensslLib:x_crl.obj
 0003:000003c0       xstandard                  00000000000ab180     OpensslLib:v3_purp.obj
 0003:00000570       trstandard                 00000000000ab330     OpensslLib:x509_trs.obj
 0003:000006b0       destructor_key             00000000000ab470     OpensslLib:init.obj
 0003:000006c0       standard_methods           00000000000ab480     OpensslLib:pmeth_lib.obj
 0003:00000740       standard_methods           00000000000ab500     OpensslLib:ameth_lib.obj
 0003:000007b0       bignum_pf                  00000000000ab570     OpensslLib:x_bignum.obj
 0003:000007f0       cbignum_pf                 00000000000ab5b0     OpensslLib:x_bignum.obj
 0003:00000830       uint32_pf                  00000000000ab5f0     OpensslLib:x_int64.obj
 0003:00000870       nist_curves                00000000000ab630     OpensslLib:ec_curve.obj
 0003:00000960       standard_exts              00000000000ab720     OpensslLib:v3_lib.obj
 0003:00000ae0       rsa_pkcs1_ossl_meth        00000000000ab8a0     OpensslLib:rsa_ossl.obj
 0003:00000b60       dh_ossl                    00000000000ab920     OpensslLib:dh_key.obj
 0003:00000bb0       key_usage_type_table       00000000000ab970     OpensslLib:v3_bitst.obj
 0003:00000ca0       ns_cert_type_table         00000000000aba60     OpensslLib:v3_bitst.obj
 0003:00000d80       crl_reasons                00000000000abb40     OpensslLib:v3_enum.obj
 0003:00000e90       tls_feature_tbl            00000000000abc50     OpensslLib:v3_tlsf.obj
 0003:00000eb0       drbg_ctr_meth              00000000000abc70     OpensslLib:drbg_ctr.obj
 0003:00000ed0       ?c80@?1??ctr_df@@9@9       00000000000abc90     OpensslLib:drbg_ctr.obj
 0003:00000f98       names_lh                   00000000000abd58     OpensslLib:o_names.obj
 0003:00000fa0       init                       00000000000abd60     OpensslLib:o_names.obj
 0003:00000fa8       obj_lock                   00000000000abd68     OpensslLib:o_names.obj
 0003:00000fb0       o_names_init_ossl_ret_     00000000000abd70     OpensslLib:o_names.obj
 0003:00000fb8       added                      00000000000abd78     OpensslLib:obj_dat.obj
 0003:00000fc0       err_init                   00000000000abd80     OpensslLib:err.obj
 0003:00000fc4       err_do_init_ossl_ret_      00000000000abd84     OpensslLib:err.obj
 0003:00000fc8       param_table                00000000000abd88     OpensslLib:x509_vpm.obj
 0003:00000fd0       ?thread_local_key@?1??CRYPTO_THREAD_init_local@@9@9 00000000000abd90     OpensslLib:threads_none.obj
 0003:00000fd8       ex_data_lock               00000000000abd98     OpensslLib:ex_data.obj
 0003:00000fe0       do_ex_data_init_ossl_ret_  00000000000abda0     OpensslLib:ex_data.obj
 0003:00000fe4       ex_data_init               00000000000abda4     OpensslLib:ex_data.obj
 0003:00000fe8       xptable                    00000000000abda8     OpensslLib:v3_purp.obj
 0003:00000ff0       trtable                    00000000000abdb0     OpensslLib:x509_trs.obj
 0003:00000ff8       add_all_digests            00000000000abdb8     OpensslLib:init.obj
 0003:00000ffc       ossl_init_load_crypto_strings_ossl_ret_ 00000000000abdbc     OpensslLib:init.obj
 0003:00001000       ossl_init_base_ossl_ret_   00000000000abdc0     OpensslLib:init.obj
 0003:00001004       ossl_init_config_ossl_ret_ 00000000000abdc4     OpensslLib:init.obj
 0003:00001008       init_lock                  00000000000abdc8     OpensslLib:init.obj
 0003:00001010       register_atexit            00000000000abdd0     OpensslLib:init.obj
 0003:00001018       conf_settings              00000000000abdd8     OpensslLib:init.obj
 0003:00001020       ossl_init_async_ossl_ret_  00000000000abde0     OpensslLib:init.obj
 0003:00001024       ossl_init_zlib_ossl_ret_   00000000000abde4     OpensslLib:init.obj
 0003:00001028       zlib                       00000000000abde8     OpensslLib:init.obj
 0003:0000102c       ossl_init_register_atexit_ossl_ret_ 00000000000abdec     OpensslLib:init.obj
 0003:00001030       add_all_ciphers            00000000000abdf0     OpensslLib:init.obj
 0003:00001034       ossl_init_load_crypto_nodelete_ossl_ret_ 00000000000abdf4     OpensslLib:init.obj
 0003:00001038       config                     00000000000abdf8     OpensslLib:init.obj
 0003:0000103c       load_crypto_nodelete       00000000000abdfc     OpensslLib:init.obj
 0003:00001040       async                      00000000000abe00     OpensslLib:init.obj
 0003:00001044       ossl_init_add_all_ciphers_ossl_ret_ 00000000000abe04     OpensslLib:init.obj
 0003:00001048       stopped                    00000000000abe08     OpensslLib:init.obj
 0003:0000104c       load_crypto_strings        00000000000abe0c     OpensslLib:init.obj
 0003:00001050       ossl_init_add_all_digests_ossl_ret_ 00000000000abe10     OpensslLib:init.obj
 0003:00001054       base                       00000000000abe14     OpensslLib:init.obj
 0003:00001058       app_pkey_methods           00000000000abe18     OpensslLib:pmeth_lib.obj
 0003:00001060       app_methods                00000000000abe20     OpensslLib:ameth_lib.obj
 0003:00001068       stable                     00000000000abe28     OpensslLib:a_strnid.obj
 0003:00001070       supported_modules          00000000000abe30     OpensslLib:conf_mod.obj
 0003:00001078       ext_list                   00000000000abe38     OpensslLib:v3_lib.obj
 0003:00001080       rand_init                  00000000000abe40     OpensslLib:rand_lib.obj
 0003:00001084       do_rand_init_ossl_ret_     00000000000abe44     OpensslLib:rand_lib.obj
 0003:00001088       openssl_configured         00000000000abe48     OpensslLib:conf_sap.obj
 0003:0000108c       do_rand_drbg_init_ossl_ret_ 00000000000abe4c     OpensslLib:drbg_lib.obj
 0003:00001090       rand_drbg_init             00000000000abe50     OpensslLib:drbg_lib.obj
 0003:00001094       rand_drbg_flags            00000000000abe54     OpensslLib:drbg_lib.obj
 0003:00001098       ?zeros@?1??CRYPTO_128_unwrap_pad@@9@9 00000000000abe58     OpensslLib:wrap128.obj
 0003:000010b0       mRunningOnQ35              00000000000abe70     DxePciLibI440FxQ35:PciLib.obj
 0003:000010b4       mAcpiTimerIoAddr           00000000000abe74     DxeAcpiTimerLib:DxeAcpiTimerLib.obj
 0003:000010b8       free_type                  00000000000abe78     OpensslLib:o_names.obj
 0003:000010c0       ?m@?1??SHA512@@9@9         00000000000abe80     OpensslLib:sha512.obj
 0003:00001100       name_funcs_stack           00000000000abec0     OpensslLib:o_names.obj
 0003:00001108       err_string_lock            00000000000abec8     OpensslLib:err.obj
 0003:00001110       err_thread_local           00000000000abed0     OpensslLib:err.obj
 0003:00001114       rand_nonce_count           00000000000abed4     OpensslLib:rand_lib.obj
 0003:00001118       pbe_algs                   00000000000abed8     OpensslLib:evp_pbe.obj
 0003:00001120       thread_local_storage       00000000000abee0     OpensslLib:threads_none.obj
 0003:00001920       ex_data                    00000000000ac6e0     OpensslLib:ex_data.obj
 0003:000019a0       sigx_app                   00000000000ac760     OpensslLib:obj_xref.obj
 0003:000019a8       sig_app                    00000000000ac768     OpensslLib:obj_xref.obj
 0003:000019b0       ?nilbn@?1??bn_init@@9@9    00000000000ac770     OpensslLib:bn_lib.obj
 0003:000019c8       default_RAND_meth          00000000000ac788     OpensslLib:rand_lib.obj
 0003:000019d0       rand_nonce_lock            00000000000ac790     OpensslLib:rand_lib.obj
 0003:000019d8       rand_meth_lock             00000000000ac798     OpensslLib:rand_lib.obj
 0003:000019e0       ctxkey                     00000000000ac7a0     OpensslLib:async.obj
 0003:000019e4       poolkey                    00000000000ac7a4     OpensslLib:async.obj
 0003:000019e8       private_drbg               00000000000ac7a8     OpensslLib:drbg_lib.obj
 0003:000019ec       public_drbg                00000000000ac7ac     OpensslLib:drbg_lib.obj
 0003:000019f0       master_drbg                00000000000ac7b0     OpensslLib:drbg_lib.obj
 0003:000019f8       ?tntmp@?1??asn1_str2tag@@9@9 00000000000ac7b8     OpensslLib:asn1_gen.obj
 0003:00001a00       ?m@?1??HMAC@@9@9           00000000000ac7c0     OpensslLib:hmac.obj
 0003:00001a40       ssl_names_count            00000000000ac800     OpensslLib:conf_ssl.obj
 0003:00001a48       ssl_names                  00000000000ac808     OpensslLib:conf_ssl.obj
 0005:00000000       $unwind$ASN1_ENUMERATED_get 00000000000b06c0     OpensslLib:a_int.obj
 0005:00000000       $unwind$ASN1_INTEGER_get   00000000000b06c0     OpensslLib:a_int.obj
 0005:00000000       $unwind$asn1_string_set_int64 00000000000b06c0     OpensslLib:a_int.obj
 0005:00000000       $unwind$st_free            00000000000b06c0     OpensslLib:a_strnid.obj
 0005:00000000       $unwind$stbl_module_finish 00000000000b06c0     OpensslLib:asn_mstbl.obj
 0005:00000000       $unwind$ASN1_TYPE_free     00000000000b06c0     OpensslLib:tasn_typ.obj
 0005:00000000       $unwind$X509_ALGOR_free    00000000000b06c0     OpensslLib:x_algor.obj
 0005:00000000       $unwind$BN_GENCB_call      00000000000b06c0     OpensslLib:bn_prime.obj
 0005:00000000       $unwind$int_dh_size        00000000000b06c0     OpensslLib:dh_ameth.obj
 0005:00000000       $unwind$dh_finish          00000000000b06c0     OpensslLib:dh_key.obj
 0005:00000000       $unwind$gf_sub_nr          00000000000b06c0     OpensslLib:curve448.obj
 0005:00000000       $unwind$ec_security_bits   00000000000b06c0     OpensslLib:ec_ameth.obj
 0005:00000000       $unwind$eckey_pub_cmp      00000000000b06c0     OpensslLib:ec_ameth.obj
 0005:00000000       $unwind$ERR_set_mark       00000000000b06c0     OpensslLib:err.obj
 0005:00000000       $unwind$md_gets            00000000000b06c0     OpensslLib:bio_md.obj
 0005:00000000       $unwind$aria_gcm_cleanup   00000000000b06c0     OpensslLib:e_aria.obj
 0005:00000000       $unwind$sm4_init_key       00000000000b06c0     OpensslLib:e_sm4.obj
 0005:00000000       $unwind$EVP_CIPHER_CTX_iv_length 00000000000b06c0     OpensslLib:evp_lib.obj
 0005:00000000       $unwind$hmac_get_priv_key  00000000000b06c0     OpensslLib:hm_ameth.obj
 0005:00000000       $unwind$hmac_pkey_public_cmp 00000000000b06c0     OpensslLib:hm_ameth.obj
 0005:00000000       $unwind$int_update         00000000000b06c0     OpensslLib:hm_pmeth.obj
 0005:00000000       $unwind$ossl_init_add_all_digests_ossl_ 00000000000b06c0     OpensslLib:init.obj
 0005:00000000       $unwind$ossl_init_config_ossl_ 00000000000b06c0     OpensslLib:init.obj
 0005:00000000       $unwind$obj_name_cmp       00000000000b06c0     OpensslLib:o_names.obj
 0005:00000000       $unwind$added_obj_cmp      00000000000b06c0     OpensslLib:obj_dat.obj
 0005:00000000       $unwind$obj_cmp_BSEARCH_CMP_FN 00000000000b06c0     OpensslLib:obj_dat.obj
 0005:00000000       $unwind$i2r_object         00000000000b06c0     OpensslLib:v3_ocsp.obj
 0005:00000000       $unwind$i2r_ocsp_acutoff   00000000000b06c0     OpensslLib:v3_ocsp.obj
 0005:00000000       $unwind$i2r_ocsp_nonce     00000000000b06c0     OpensslLib:v3_ocsp.obj
 0005:00000000       $unwind$PKCS7_free         00000000000b06c0     OpensslLib:pk7_asn1.obj
 0005:00000000       $unwind$ri_cb              00000000000b06c0     OpensslLib:pk7_asn1.obj
 0005:00000000       $unwind$si_cb              00000000000b06c0     OpensslLib:pk7_asn1.obj
 0005:00000000       $unwind$RAND_DRBG_get0_master 00000000000b06c0     OpensslLib:drbg_lib.obj
 0005:00000000       $unwind$drbg_status        00000000000b06c0     OpensslLib:drbg_lib.obj
 0005:00000000       $unwind$RAND_get_rand_method 00000000000b06c0     OpensslLib:rand_lib.obj
 0005:00000000       $unwind$int_rsa_size       00000000000b06c0     OpensslLib:rsa_ameth.obj
 0005:00000000       $unwind$rsa_pss_cb         00000000000b06c0     OpensslLib:rsa_asn1.obj
 0005:00000000       $unwind$siphash_pkey_public_cmp 00000000000b06c0     OpensslLib:siphash_ameth.obj
 0005:00000000       $unwind$int_update         00000000000b06c0     OpensslLib:siphash_pmeth.obj
 0005:00000000       $unwind$x509_object_cmp    00000000000b06c0     OpensslLib:x509_lu.obj
 0005:00000000       $unwind$check_issued       00000000000b06c0     OpensslLib:x509_vfy.obj
 0005:00000000       $unwind$X509_ATTRIBUTE_free 00000000000b06c0     OpensslLib:x_attrib.obj
 0005:00000000       $unwind$X509_CRL_free      00000000000b06c0     OpensslLib:x_crl.obj
 0005:00000000       $unwind$X509_NAME_ENTRY_free 00000000000b06c0     OpensslLib:x_name.obj
 0005:00000000       $unwind$X509_free          00000000000b06c0     OpensslLib:x_x509.obj
 0005:00000000       $unwind$policy_data_cmp    00000000000b06c0     OpensslLib:pcy_cache.obj
 0005:00000000       $unwind$node_cmp           00000000000b06c0     OpensslLib:pcy_node.obj
 0005:00000000       $unwind$exnode_free        00000000000b06c0     OpensslLib:pcy_tree.obj
 0005:00000000       $unwind$POLICYINFO_free    00000000000b06c0     OpensslLib:v3_cpols.obj
 0005:00000000       $unwind$POLICYQUALINFO_free 00000000000b06c0     OpensslLib:v3_cpols.obj
 0005:00000000       $unwind$DIST_POINT_free    00000000000b06c0     OpensslLib:v3_crld.obj
 0005:00000000       $unwind$dpn_cb             00000000000b06c0     OpensslLib:v3_crld.obj
 0005:00000000       $unwind$GENERAL_NAMES_free 00000000000b06c0     OpensslLib:v3_genn.obj
 0005:00000000       $unwind$GENERAL_NAME_free  00000000000b06c0     OpensslLib:v3_genn.obj
 0005:00000000       $unwind$ACCESS_DESCRIPTION_free 00000000000b06c0     OpensslLib:v3_info.obj
 0005:00000000       $unwind$POLICY_MAPPING_free 00000000000b06c0     OpensslLib:v3_pmaps.obj
 0005:00000000       $unwind$check_purpose_crl_sign 00000000000b06c0     OpensslLib:v3_purp.obj
 0005:00000000       $unwind$check_purpose_smime_encrypt 00000000000b06c0     OpensslLib:v3_purp.obj
 0005:00000000       $unwind$check_purpose_smime_sign 00000000000b06c0     OpensslLib:v3_purp.obj
 0005:00000000       $unwind$check_purpose_ssl_client 00000000000b06c0     OpensslLib:v3_purp.obj
 0005:00000000       $unwind$check_purpose_ssl_server 00000000000b06c0     OpensslLib:v3_purp.obj
 0005:00000000       $unwind$purpose_smime      00000000000b06c0     OpensslLib:v3_purp.obj
 0005:00000000       $unwind$GetHobList         00000000000b06c0     DxeHobLib:HobLib.obj
 0005:00000000       $unwind$GetPcdProtocol     00000000000b06c0     DxePcdLib:DxePcdLib.obj
 0005:00000000       $unwind$_ModuleEntryPoint  00000000000b06c0     UefiDriverEntryPoint:DriverEntryPoint.obj
 0005:00000000       $unwind$AllocatePool       00000000000b06c0     UefiMemoryAllocationLib:MemoryAllocationLib.obj
 0005:00000000       $unwind$FreePool           00000000000b06c0     UefiMemoryAllocationLib:MemoryAllocationLib.obj
 0005:00000008       $unwind$ProcessLibraryConstructorList 00000000000b06c8     SecurityStubDxe:AutoGen.obj
 0005:0000001c       $unwind$time               00000000000b06dc     BaseCryptLib:TimerWrapper.obj
 0005:0000001c       $unwind$ASN1_item_digest   00000000000b06dc     OpensslLib:a_digest.obj
 0005:0000001c       $unwind$ASN1_item_dup      00000000000b06dc     OpensslLib:a_dup.obj
 0005:0000001c       $unwind$asn1_template_new  00000000000b06dc     OpensslLib:tasn_new.obj
 0005:0000001c       $unwind$asn1_do_adb        00000000000b06dc     OpensslLib:tasn_utl.obj
 0005:0000001c       $unwind$asn1_do_lock       00000000000b06dc     OpensslLib:tasn_utl.obj
 0005:0000001c       $unwind$BIO_new_mem_buf    00000000000b06dc     OpensslLib:bss_mem.obj
 0005:0000001c       $unwind$BN_BLINDING_new    00000000000b06dc     OpensslLib:bn_blind.obj
 0005:0000001c       $unwind$BN_POOL_get        00000000000b06dc     OpensslLib:bn_ctx.obj
 0005:0000001c       $unwind$BN_div             00000000000b06dc     OpensslLib:bn_div.obj
 0005:0000001c       $unwind$BN_nnmod           00000000000b06dc     OpensslLib:bn_mod.obj
 0005:0000001c       $unwind$pkey_dh_keygen     00000000000b06dc     OpensslLib:dh_pmeth.obj
 0005:0000001c       $unwind$EC_GROUP_get_ecpkparameters 00000000000b06dc     OpensslLib:ec_asn1.obj
 0005:0000001c       $unwind$EC_KEY_new_method  00000000000b06dc     OpensslLib:ec_kmeth.obj
 0005:0000001c       $unwind$EC_GROUP_new       00000000000b06dc     OpensslLib:ec_lib.obj
 0005:0000001c       $unwind$EC_POINT_new       00000000000b06dc     OpensslLib:ec_lib.obj
 0005:0000001c       $unwind$EC_POINTs_make_affine 00000000000b06dc     OpensslLib:ec_lib.obj
 0005:0000001c       $unwind$pkey_ec_derive     00000000000b06dc     OpensslLib:ec_pmeth.obj
 0005:0000001c       $unwind$ecd_item_verify    00000000000b06dc     OpensslLib:ecx_meth.obj
 0005:0000001c       $unwind$enc_new            00000000000b06dc     OpensslLib:bio_enc.obj
 0005:0000001c       $unwind$EVP_DigestInit_ex  00000000000b06dc     OpensslLib:digest.obj
 0005:0000001c       $unwind$aes_init_key       00000000000b06dc     OpensslLib:e_aes.obj
 0005:0000001c       $unwind$aes_xts_cipher     00000000000b06dc     OpensslLib:e_aes.obj
 0005:0000001c       $unwind$EVP_CIPHER_CTX_copy 00000000000b06dc     OpensslLib:evp_enc.obj
 0005:0000001c       $unwind$EVP_DecryptFinal_ex 00000000000b06dc     OpensslLib:evp_enc.obj
 0005:0000001c       $unwind$EVP_CIPHER_param_to_asn1 00000000000b06dc     OpensslLib:evp_lib.obj
 0005:0000001c       $unwind$EVP_PKEY_copy_parameters 00000000000b06dc     OpensslLib:p_lib.obj
 0005:0000001c       $unwind$EVP_PKEY_CTX_dup   00000000000b06dc     OpensslLib:pmeth_lib.obj
 0005:0000001c       $unwind$pkey_hmac_init     00000000000b06dc     OpensslLib:hm_pmeth.obj
 0005:0000001c       $unwind$CRYPTO_memdup      00000000000b06dc     OpensslLib:o_str.obj
 0005:0000001c       $unwind$OPENSSL_buf2hexstr 00000000000b06dc     OpensslLib:o_str.obj
 0005:0000001c       $unwind$OBJ_dup            00000000000b06dc     OpensslLib:obj_lib.obj
 0005:0000001c       $unwind$drbg_setup         00000000000b06dc     OpensslLib:drbg_lib.obj
 0005:0000001c       $unwind$rand_drbg_new      00000000000b06dc     OpensslLib:drbg_lib.obj
 0005:0000001c       $unwind$RAND_bytes         00000000000b06dc     OpensslLib:rand_lib.obj
 0005:0000001c       $unwind$rand_pool_add      00000000000b06dc     OpensslLib:rand_lib.obj
 0005:0000001c       $unwind$rand_pool_bytes_needed 00000000000b06dc     OpensslLib:rand_lib.obj
 0005:0000001c       $unwind$rsa_item_verify    00000000000b06dc     OpensslLib:rsa_ameth.obj
 0005:0000001c       $unwind$pkey_siphash_ctrl  00000000000b06dc     OpensslLib:siphash_pmeth.obj
 0005:0000001c       $unwind$OPENSSL_sk_dup     00000000000b06dc     OpensslLib:stack.obj
 0005:0000001c       $unwind$sk_reserve         00000000000b06dc     OpensslLib:stack.obj
 0005:0000001c       $unwind$X509_STORE_new     00000000000b06dc     OpensslLib:x509_lu.obj
 0005:0000001c       $unwind$X509_verify_cert   00000000000b06dc     OpensslLib:x509_vfy.obj
 0005:0000001c       $unwind$x509_name_ex_new   00000000000b06dc     OpensslLib:x_name.obj
 0005:0000001c       $unwind$i2s_ASN1_IA5STRING 00000000000b06dc     OpensslLib:v3_ia5.obj
 0005:0000001c       $unwind$s2i_ASN1_IA5STRING 00000000000b06dc     OpensslLib:v3_ia5.obj
 0005:0000001c       $unwind$i2s_ASN1_INTEGER   00000000000b06dc     OpensslLib:v3_utl.obj
 0005:0000001c       $unwind$SecurityStubAuthenticateState 00000000000b06dc     SecurityStubDxe:SecurityStub.obj
 0005:00000028       $unwind$bn_to_asn1_string  00000000000b06e8     OpensslLib:a_int.obj
 0005:00000028       $unwind$BN_BLINDING_convert_ex 00000000000b06e8     OpensslLib:bn_blind.obj
 0005:00000028       $unwind$BN_BLINDING_invert_ex 00000000000b06e8     OpensslLib:bn_blind.obj
 0005:00000028       $unwind$BN_BLINDING_update 00000000000b06e8     OpensslLib:bn_blind.obj
 0005:00000028       $unwind$BN_STACK_push      00000000000b06e8     OpensslLib:bn_ctx.obj
 0005:00000028       $unwind$BN_mod_inverse     00000000000b06e8     OpensslLib:bn_gcd.obj
 0005:00000028       $unwind$BN_mod_lshift_quick 00000000000b06e8     OpensslLib:bn_mod.obj
 0005:00000028       $unwind$bnrand_range       00000000000b06e8     OpensslLib:bn_rand.obj
 0005:00000028       $unwind$pkey_cmac_ctrl_str 00000000000b06e8     OpensslLib:cm_pmeth.obj
 0005:00000028       $unwind$module_add         00000000000b06e8     OpensslLib:conf_mod.obj
 0005:00000028       $unwind$i2o_ECPublicKey    00000000000b06e8     OpensslLib:ec_asn1.obj
 0005:00000028       $unwind$EC_GROUP_check     00000000000b06e8     OpensslLib:ec_check.obj
 0005:00000028       $unwind$ec_key_simple_priv2oct 00000000000b06e8     OpensslLib:ec_key.obj
 0005:00000028       $unwind$EC_POINT_get_affine_coordinates 00000000000b06e8     OpensslLib:ec_lib.obj
 0005:00000028       $unwind$ecx_pub_encode     00000000000b06e8     OpensslLib:ecx_meth.obj
 0005:00000028       $unwind$aria_ccm_init_key  00000000000b06e8     OpensslLib:e_aria.obj
 0005:00000028       $unwind$aria_gcm_init_key  00000000000b06e8     OpensslLib:e_aria.obj
 0005:00000028       $unwind$EVP_EncryptFinal_ex 00000000000b06e8     OpensslLib:evp_enc.obj
 0005:00000028       $unwind$EVP_CIPHER_get_asn1_iv 00000000000b06e8     OpensslLib:evp_lib.obj
 0005:00000028       $unwind$EVP_PKEY_sign      00000000000b06e8     OpensslLib:pmeth_fn.obj
 0005:00000028       $unwind$CRYPTO_set_ex_data 00000000000b06e8     OpensslLib:ex_data.obj
 0005:00000028       $unwind$OBJ_create         00000000000b06e8     OpensslLib:obj_dat.obj
 0005:00000028       $unwind$d2i_ocsp_nonce     00000000000b06e8     OpensslLib:v3_ocsp.obj
 0005:00000028       $unwind$RAND_DRBG_set      00000000000b06e8     OpensslLib:drbg_lib.obj
 0005:00000028       $unwind$drbg_bytes         00000000000b06e8     OpensslLib:drbg_lib.obj
 0005:00000028       $unwind$rand_pool_grow     00000000000b06e8     OpensslLib:rand_lib.obj
 0005:00000028       $unwind$pkey_sm2_ctrl      00000000000b06e8     OpensslLib:sm2_pmeth.obj
 0005:00000028       $unwind$X509_STORE_CTX_init 00000000000b06e8     OpensslLib:x509_vfy.obj
 0005:00000028       $unwind$X509_get_pubkey_parameters 00000000000b06e8     OpensslLib:x509_vfy.obj
 0005:00000028       $unwind$policy_data_new    00000000000b06e8     OpensslLib:pcy_data.obj
 0005:00000028       $unwind$gnames_from_sectname 00000000000b06e8     OpensslLib:v3_crld.obj
 0005:00000028       $unwind$equal_email        00000000000b06e8     OpensslLib:v3_utl.obj
 0005:00000028       $unwind$Security2StubAuthenticate 00000000000b06e8     SecurityStubDxe:SecurityStub.obj
 0005:0000003c       $unwind$SecurityStubInitialize 00000000000b06fc     SecurityStubDxe:SecurityStub.obj
 0005:00000048       $unwind$i2c_ASN1_BIT_STRING 00000000000b0708     OpensslLib:a_bitstr.obj
 0005:00000048       $unwind$mem_ctrl           00000000000b0708     OpensslLib:bss_mem.obj
 0005:00000048       $unwind$BN_mul_word        00000000000b0708     OpensslLib:bn_word.obj
 0005:00000048       $unwind$cmac_signctx       00000000000b0708     OpensslLib:cm_pmeth.obj
 0005:00000048       $unwind$ssl_module_free    00000000000b0708     OpensslLib:conf_ssl.obj
 0005:00000048       $unwind$DH_check_params    00000000000b0708     OpensslLib:dh_check.obj
 0005:00000048       $unwind$ge_p1p1_to_p3      00000000000b0708     OpensslLib:curve25519.obj
 0005:00000048       $unwind$EVP_CIPHER_set_asn1_iv 00000000000b0708     OpensslLib:evp_lib.obj
 0005:00000048       $unwind$sha3_update        00000000000b0708     OpensslLib:m_sha3.obj
 0005:00000048       $unwind$expand             00000000000b0708     OpensslLib:lhash.obj
 0005:00000048       $unwind$MD5_Final          00000000000b0708     OpensslLib:md5_dgst.obj
 0005:00000048       $unwind$MD5_Update         00000000000b0708     OpensslLib:md5_dgst.obj
 0005:00000048       $unwind$CRYPTO_realloc     00000000000b0708     OpensslLib:mem.obj
 0005:00000048       $unwind$SHA3_absorb        00000000000b0708     OpensslLib:keccak1600.obj
 0005:00000048       $unwind$SHA1_Update        00000000000b0708     OpensslLib:sha1dgst.obj
 0005:00000048       $unwind$SHA256_Update      00000000000b0708     OpensslLib:sha256.obj
 0005:00000048       $unwind$SHA512_Update      00000000000b0708     OpensslLib:sha512.obj
 0005:00000048       $unwind$update             00000000000b0708     OpensslLib:m_sm3.obj
 0005:00000048       $unwind$sm3_final          00000000000b0708     OpensslLib:sm3.obj
 0005:00000048       $unwind$check_crl          00000000000b0708     OpensslLib:x509_vfy.obj
 0005:00000048       $unwind$dane_verify        00000000000b0708     OpensslLib:x509_vfy.obj
 0005:00000048       $unwind$internal_verify    00000000000b0708     OpensslLib:x509_vfy.obj
 0005:00000048       $unwind$X509_VERIFY_PARAM_inherit 00000000000b0708     OpensslLib:x509_vpm.obj
 0005:00000048       $unwind$i2v_GENERAL_NAMES  00000000000b0708     OpensslLib:v3_alt.obj
 0005:00000048       $unwind$i2r_crldp          00000000000b0708     OpensslLib:v3_crld.obj
 0005:00000048       $unwind$SXNET_get_id_INTEGER 00000000000b0708     OpensslLib:v3_sxnet.obj
 0005:00000048       $unwind$LookupImage        00000000000b0708     SecurityStubDxe:Defer3rdPartyImageLoad.obj
 0005:00000048       $unwind$EfiGetSystemConfigurationTable 00000000000b0708     UefiLib:UefiLib.obj
 0005:00000048       $unwind$IsDataMeasured     00000000000b0708     DxeImageVerificationLib:Measurement.obj
 0005:00000048       $unwind$MeasureVariable    00000000000b0708     DxeImageVerificationLib:Measurement.obj
 0005:00000048       $unwind$SecureBootHook     00000000000b0708     DxeImageVerificationLib:Measurement.obj
 0005:00000060       $unwind$gmtime             00000000000b0720     BaseCryptLib:TimerWrapper.obj
 0005:00000060       $unwind$BN_kronecker       00000000000b0720     OpensslLib:bn_kron.obj
 0005:00000060       $unwind$bn_lshift_fixed_top 00000000000b0720     OpensslLib:bn_shift.obj
 0005:00000060       $unwind$bn_rshift_fixed_top 00000000000b0720     OpensslLib:bn_shift.obj
 0005:00000060       $unwind$aes_gcm_tls_cipher 00000000000b0720     OpensslLib:e_aes.obj
 0005:00000060       $unwind$aria_gcm_tls_cipher 00000000000b0720     OpensslLib:e_aria.obj
 0005:00000060       $unwind$CRYPTO_ctr128_encrypt 00000000000b0720     OpensslLib:ctr128.obj
 0005:00000060       $unwind$CRYPTO_gcm128_aad  00000000000b0720     OpensslLib:gcm128.obj
 0005:00000060       $unwind$rsa_pss_param_print 00000000000b0720     OpensslLib:rsa_ameth.obj
 0005:00000060       $unwind$rsa_get_public_exp 00000000000b0720     OpensslLib:rsa_crpt.obj
 0005:00000060       $unwind$SipHash_Update     00000000000b0720     OpensslLib:siphash.obj
 0005:00000060       $unwind$X509_chain_check_suiteb 00000000000b0720     OpensslLib:x509_cmp.obj
 0005:00000060       $unwind$check_auth_level   00000000000b0720     OpensslLib:x509_vfy.obj
 0005:00000060       $unwind$crl_akid_check     00000000000b0720     OpensslLib:x509_vfy.obj
 0005:00000060       $unwind$X509_VERIFY_PARAM_set1_policies 00000000000b0720     OpensslLib:x509_vpm.obj
 0005:00000060       $unwind$X509V3_get_d2i     00000000000b0720     OpensslLib:v3_lib.obj
 0005:00000060       $unwind$GetDefferedImageInfo 00000000000b0720     SecurityStubDxe:Defer3rdPartyImageLoad.obj
 0005:0000007c       $unwind$asn1_string_to_bn  00000000000b073c     OpensslLib:a_int.obj
 0005:0000007c       $unwind$ASN1_TYPE_unpack_sequence 00000000000b073c     OpensslLib:a_type.obj
 0005:0000007c       $unwind$ASN1_generate_v3   00000000000b073c     OpensslLib:asn1_gen.obj
 0005:0000007c       $unwind$append_exp         00000000000b073c     OpensslLib:asn1_gen.obj
 0005:0000007c       $unwind$ASN1_STRING_type_new 00000000000b073c     OpensslLib:asn1_lib.obj
 0005:0000007c       $unwind$uint32_new         00000000000b073c     OpensslLib:x_int64.obj
 0005:0000007c       $unwind$uint64_new         00000000000b073c     OpensslLib:x_int64.obj
 0005:0000007c       $unwind$BN_CTX_get         00000000000b073c     OpensslLib:bn_ctx.obj
 0005:0000007c       $unwind$BN_CTX_start       00000000000b073c     OpensslLib:bn_ctx.obj
 0005:0000007c       $unwind$BN_lshift          00000000000b073c     OpensslLib:bn_shift.obj
 0005:0000007c       $unwind$BN_rshift          00000000000b073c     OpensslLib:bn_shift.obj
 0005:0000007c       $unwind$pkey_cmac_ctrl     00000000000b073c     OpensslLib:cm_pmeth.obj
 0005:0000007c       $unwind$CMAC_CTX_new       00000000000b073c     OpensslLib:cmac.obj
 0005:0000007c       $unwind$dh_param_decode    00000000000b073c     OpensslLib:dh_ameth.obj
 0005:0000007c       $unwind$dh_pkey_public_check 00000000000b073c     OpensslLib:dh_ameth.obj
 0005:0000007c       $unwind$dh_bn_mod_exp      00000000000b073c     OpensslLib:dh_key.obj
 0005:0000007c       $unwind$pkey_dh_init       00000000000b073c     OpensslLib:dh_pmeth.obj
 0005:0000007c       $unwind$curve448_scalar_add 00000000000b073c     OpensslLib:scalar.obj
 0005:0000007c       $unwind$eckey_param_decode 00000000000b073c     OpensslLib:ec_ameth.obj
 0005:0000007c       $unwind$old_ec_priv_decode 00000000000b073c     OpensslLib:ec_ameth.obj
 0005:0000007c       $unwind$ECDSA_SIG_new      00000000000b073c     OpensslLib:ec_asn1.obj
 0005:0000007c       $unwind$pkey_ec_init       00000000000b073c     OpensslLib:ec_pmeth.obj
 0005:0000007c       $unwind$pkey_ec_verify     00000000000b073c     OpensslLib:ec_pmeth.obj
 0005:0000007c       $unwind$ec_GFp_mont_field_decode 00000000000b073c     OpensslLib:ecp_mont.obj
 0005:0000007c       $unwind$ec_GFp_mont_field_encode 00000000000b073c     OpensslLib:ecp_mont.obj
 0005:0000007c       $unwind$ec_GFp_mont_field_mul 00000000000b073c     OpensslLib:ecp_mont.obj
 0005:0000007c       $unwind$ec_GFp_mont_field_set_to_one 00000000000b073c     OpensslLib:ecp_mont.obj
 0005:0000007c       $unwind$ec_GFp_mont_field_sqr 00000000000b073c     OpensslLib:ecp_mont.obj
 0005:0000007c       $unwind$ec_GFp_simple_point_set_affine_coordinates 00000000000b073c     OpensslLib:ecp_smpl.obj
 0005:0000007c       $unwind$pkey_ecd_digestsign25519 00000000000b073c     OpensslLib:ecx_meth.obj
 0005:0000007c       $unwind$aes_cbc_cipher     00000000000b073c     OpensslLib:e_aes.obj
 0005:0000007c       $unwind$EVP_PKEY_get0_EC_KEY 00000000000b073c     OpensslLib:p_lib.obj
 0005:0000007c       $unwind$EVP_PKEY_new       00000000000b073c     OpensslLib:p_lib.obj
 0005:0000007c       $unwind$EVP_PKEY_sign_init 00000000000b073c     OpensslLib:pmeth_fn.obj
 0005:0000007c       $unwind$EVP_PKEY_verify_init 00000000000b073c     OpensslLib:pmeth_fn.obj
 0005:0000007c       $unwind$EVP_PKEY_CTX_ctrl  00000000000b073c     OpensslLib:pmeth_lib.obj
 0005:0000007c       $unwind$hmac_signctx       00000000000b073c     OpensslLib:hm_pmeth.obj
 0005:0000007c       $unwind$pkey_hkdf_init     00000000000b073c     OpensslLib:hkdf.obj
 0005:0000007c       $unwind$pkey_tls1_prf_init 00000000000b073c     OpensslLib:tls1_prf.obj
 0005:0000007c       $unwind$PKCS7_ctrl         00000000000b073c     OpensslLib:pk7_lib.obj
 0005:0000007c       $unwind$ctr_BCC_block      00000000000b073c     OpensslLib:drbg_ctr.obj
 0005:0000007c       $unwind$rand_pool_add_begin 00000000000b073c     OpensslLib:rand_lib.obj
 0005:0000007c       $unwind$old_rsa_priv_decode 00000000000b073c     OpensslLib:rsa_ameth.obj
 0005:0000007c       $unwind$rsa_multip_info_new 00000000000b073c     OpensslLib:rsa_mp.obj
 0005:0000007c       $unwind$RSA_padding_check_PKCS1_type_1 00000000000b073c     OpensslLib:rsa_pk1.obj
 0005:0000007c       $unwind$setup_tbuf         00000000000b073c     OpensslLib:rsa_pmeth.obj
 0005:0000007c       $unwind$pkey_siphash_init  00000000000b073c     OpensslLib:siphash_pmeth.obj
 0005:0000007c       $unwind$pkey_sm2_decrypt   00000000000b073c     OpensslLib:sm2_pmeth.obj
 0005:0000007c       $unwind$pkey_sm2_init      00000000000b073c     OpensslLib:sm2_pmeth.obj
 0005:0000007c       $unwind$x509_name_ex_print 00000000000b073c     OpensslLib:x_name.obj
 0005:0000007c       $unwind$X509_PUBKEY_get0   00000000000b073c     OpensslLib:x_pubkey.obj
 0005:0000007c       $unwind$InternalReportStatusCode 00000000000b073c     DxeReportStatusCodeLib:ReportStatusCodeLib.obj
 0005:0000007c       $unwind$DxeSmmReadyToLock  00000000000b073c     SecurityStubDxe:Defer3rdPartyImageLoad.obj
 0005:0000007c       $unwind$EfiCreateEventReadyToBootEx 00000000000b073c     UefiLib:UefiNotTiano.obj
 0005:00000084       $unwind$Defer3rdPartyImageLoad 00000000000b0744     SecurityStubDxe:Defer3rdPartyImageLoad.obj
 0005:00000094       $unwind$ConvertAsn1TimeToEfiTime 00000000000b0754     BaseCryptLib:CryptTs.obj
 0005:00000094       $unwind$asn1_primitive_free 00000000000b0754     OpensslLib:tasn_fre.obj
 0005:00000094       $unwind$X509_ALGOR_set0    00000000000b0754     OpensslLib:x_algor.obj
 0005:00000094       $unwind$BN_set_bit         00000000000b0754     OpensslLib:bn_lib.obj
 0005:00000094       $unwind$BN_MONT_CTX_set_locked 00000000000b0754     OpensslLib:bn_mont.obj
 0005:00000094       $unwind$BN_add_word        00000000000b0754     OpensslLib:bn_word.obj
 0005:00000094       $unwind$ge_p1p1_to_p2      00000000000b0754     OpensslLib:curve25519.obj
 0005:00000094       $unwind$niels_to_pt        00000000000b0754     OpensslLib:curve448.obj
 0005:00000094       $unwind$oneshot_hash       00000000000b0754     OpensslLib:eddsa.obj
 0005:00000094       $unwind$EC_curve_nist2nid  00000000000b0754     OpensslLib:ec_curve.obj
 0005:00000094       $unwind$ec_precompute_mont_data 00000000000b0754     OpensslLib:ec_lib.obj
 0005:00000094       $unwind$ERR_clear_error    00000000000b0754     OpensslLib:err.obj
 0005:00000094       $unwind$ERR_put_error      00000000000b0754     OpensslLib:err.obj
 0005:00000094       $unwind$aes_ccm_ctrl       00000000000b0754     OpensslLib:e_aes.obj
 0005:00000094       $unwind$aes_wrap_init_key  00000000000b0754     OpensslLib:e_aes.obj
 0005:00000094       $unwind$aria_ccm_ctrl      00000000000b0754     OpensslLib:e_aria.obj
 0005:00000094       $unwind$init               00000000000b0754     OpensslLib:m_sha3.obj
 0005:00000094       $unwind$sha3_final         00000000000b0754     OpensslLib:m_sha3.obj
 0005:00000094       $unwind$hmac_set_priv_key  00000000000b0754     OpensslLib:hm_ameth.obj
 0005:00000094       $unwind$pkey_hkdf_ctrl     00000000000b0754     OpensslLib:hkdf.obj
 0005:00000094       $unwind$pkey_tls1_prf_ctrl 00000000000b0754     OpensslLib:tls1_prf.obj
 0005:00000094       $unwind$CRYPTO_clear_realloc 00000000000b0754     OpensslLib:mem.obj
 0005:00000094       $unwind$CRYPTO_ccm128_init 00000000000b0754     OpensslLib:ccm128.obj
 0005:00000094       $unwind$PKCS7_add1_attrib_digest 00000000000b0754     OpensslLib:pk7_attr.obj
 0005:00000094       $unwind$ctr_BCC_update     00000000000b0754     OpensslLib:drbg_ctr.obj
 0005:00000094       $unwind$rsa_pss_params_create 00000000000b0754     OpensslLib:rsa_ameth.obj
 0005:00000094       $unwind$OPENSSL_sk_insert  00000000000b0754     OpensslLib:stack.obj
 0005:00000094       $unwind$x509_store_add     00000000000b0754     OpensslLib:x509_lu.obj
 0005:00000094       $unwind$X509_check_trust   00000000000b0754     OpensslLib:x509_trs.obj
 0005:00000094       $unwind$check_crl_time     00000000000b0754     OpensslLib:x509_vfy.obj
 0005:00000094       $unwind$crl_extension_match 00000000000b0754     OpensslLib:x509_vfy.obj
 0005:00000094       $unwind$x509_check_cert_time 00000000000b0754     OpensslLib:x509_vfy.obj
 0005:00000094       $unwind$X509_ATTRIBUTE_create 00000000000b0754     OpensslLib:x_attrib.obj
 0005:00000094       $unwind$tree_add_unmatched 00000000000b0754     OpensslLib:pcy_tree.obj
 0005:00000094       $unwind$do_othername       00000000000b0754     OpensslLib:v3_alt.obj
 0005:00000094       $unwind$print_gens         00000000000b0754     OpensslLib:v3_crld.obj
 0005:00000094       $unwind$print_reasons      00000000000b0754     OpensslLib:v3_crld.obj
 0005:00000094       $unwind$nc_uri             00000000000b0754     OpensslLib:v3_ncons.obj
 0005:00000094       $unwind$CompareMem         00000000000b0754     BaseMemoryLibRepStr:CompareMemWrapper.obj
 0005:00000094       $unwind$CopyMem            00000000000b0754     BaseMemoryLibRepStr:CopyMemWrapper.obj
 0005:00000094       $unwind$InternalReallocatePool 00000000000b0754     UefiMemoryAllocationLib:MemoryAllocationLib.obj
 0005:00000094       $unwind$DxeImageVerificationLibImageRead 00000000000b0754     DxeImageVerificationLib:DxeImageVerificationLib.obj
 0005:000000a8       $unwind$DebugPrint         00000000000b0768     BaseDebugLibSerialPort:DebugLib.obj
 0005:000000b0       $unwind$DebugPrintMarker   00000000000b0770     BaseDebugLibSerialPort:DebugLib.obj
 0005:000000c4       $unwind$DebugAssert        00000000000b0784     BaseDebugLibSerialPort:DebugLib.obj
 0005:000000cc       $unwind$malloc             00000000000b078c     BaseCryptLib:BaseMemAllocation.obj
 0005:000000cc       $unwind$ASN1_INTEGER_cmp   00000000000b078c     OpensslLib:a_int.obj
 0005:000000cc       $unwind$cpy_utf8           00000000000b078c     OpensslLib:a_mbstr.obj
 0005:000000cc       $unwind$out_utf8           00000000000b078c     OpensslLib:a_mbstr.obj
 0005:000000cc       $unwind$send_bio_chars     00000000000b078c     OpensslLib:a_strex.obj
 0005:000000cc       $unwind$ASN1_item_new      00000000000b078c     OpensslLib:tasn_new.obj
 0005:000000cc       $unwind$bn_free            00000000000b078c     OpensslLib:x_bignum.obj
 0005:000000cc       $unwind$bn_new             00000000000b078c     OpensslLib:x_bignum.obj
 0005:000000cc       $unwind$bn_secure_new      00000000000b078c     OpensslLib:x_bignum.obj
 0005:000000cc       $unwind$uint32_free        00000000000b078c     OpensslLib:x_int64.obj
 0005:000000cc       $unwind$BIO_push           00000000000b078c     OpensslLib:bio_lib.obj
 0005:000000cc       $unwind$bread_conv         00000000000b078c     OpensslLib:bio_meth.obj
 0005:000000cc       $unwind$bwrite_conv        00000000000b078c     OpensslLib:bio_meth.obj
 0005:000000cc       $unwind$mem_buf_sync       00000000000b078c     OpensslLib:bss_mem.obj
 0005:000000cc       $unwind$mem_free           00000000000b078c     OpensslLib:bss_mem.obj
 0005:000000cc       $unwind$mem_gets           00000000000b078c     OpensslLib:bss_mem.obj
 0005:000000cc       $unwind$bn_free_d          00000000000b078c     OpensslLib:bn_lib.obj
 0005:000000cc       $unwind$nist_cp_bn_0       00000000000b078c     OpensslLib:bn_nist.obj
 0005:000000cc       $unwind$pkey_cmac_init     00000000000b078c     OpensslLib:cm_pmeth.obj
 0005:000000cc       $unwind$dh_cb              00000000000b078c     OpensslLib:dh_asn1.obj
 0005:000000cc       $unwind$pkey_dh_cleanup    00000000000b078c     OpensslLib:dh_pmeth.obj
 0005:000000cc       $unwind$ec_cmp_parameters  00000000000b078c     OpensslLib:ec_ameth.obj
 0005:000000cc       $unwind$ec_GFp_mont_group_clear_finish 00000000000b078c     OpensslLib:ecp_mont.obj
 0005:000000cc       $unwind$ec_GFp_mont_group_finish 00000000000b078c     OpensslLib:ecp_mont.obj
 0005:000000cc       $unwind$ec_GFp_mont_group_init 00000000000b078c     OpensslLib:ecp_mont.obj
 0005:000000cc       $unwind$ec_GFp_simple_group_clear_finish 00000000000b078c     OpensslLib:ecp_smpl.obj
 0005:000000cc       $unwind$ec_GFp_simple_group_finish 00000000000b078c     OpensslLib:ecp_smpl.obj
 0005:000000cc       $unwind$ec_GFp_simple_group_init 00000000000b078c     OpensslLib:ecp_smpl.obj
 0005:000000cc       $unwind$ec_GFp_simple_point_clear_finish 00000000000b078c     OpensslLib:ecp_smpl.obj
 0005:000000cc       $unwind$ec_GFp_simple_point_finish 00000000000b078c     OpensslLib:ecp_smpl.obj
 0005:000000cc       $unwind$ec_GFp_simple_point_init 00000000000b078c     OpensslLib:ecp_smpl.obj
 0005:000000cc       $unwind$ecd_item_sign25519 00000000000b078c     OpensslLib:ecx_meth.obj
 0005:000000cc       $unwind$ecd_item_sign448   00000000000b078c     OpensslLib:ecx_meth.obj
 0005:000000cc       $unwind$ERR_pop_to_mark    00000000000b078c     OpensslLib:err.obj
 0005:000000cc       $unwind$err_clear_last_constant_time 00000000000b078c     OpensslLib:err.obj
 0005:000000cc       $unwind$get_error_values   00000000000b078c     OpensslLib:err.obj
 0005:000000cc       $unwind$md_new             00000000000b078c     OpensslLib:bio_md.obj
 0005:000000cc       $unwind$openssl_add_all_ciphers_int 00000000000b078c     OpensslLib:c_allc.obj
 0005:000000cc       $unwind$EVP_MD_CTX_reset   00000000000b078c     OpensslLib:digest.obj
 0005:000000cc       $unwind$EVP_CIPHER_CTX_reset 00000000000b078c     OpensslLib:evp_enc.obj
 0005:000000cc       $unwind$init               00000000000b078c     OpensslLib:m_md5.obj
 0005:000000cc       $unwind$init               00000000000b078c     OpensslLib:m_md5_sha1.obj
 0005:000000cc       $unwind$EVP_add_cipher     00000000000b078c     OpensslLib:names.obj
 0005:000000cc       $unwind$EVP_get_cipherbyname 00000000000b078c     OpensslLib:names.obj
 0005:000000cc       $unwind$EVP_get_digestbyname 00000000000b078c     OpensslLib:names.obj
 0005:000000cc       $unwind$do_ex_data_init_ossl_ 00000000000b078c     OpensslLib:ex_data.obj
 0005:000000cc       $unwind$hmac_key_free      00000000000b078c     OpensslLib:hm_ameth.obj
 0005:000000cc       $unwind$pkey_hmac_keygen   00000000000b078c     OpensslLib:hm_pmeth.obj
 0005:000000cc       $unwind$HMAC_CTX_new       00000000000b078c     OpensslLib:hmac.obj
 0005:000000cc       $unwind$hmac_ctx_cleanup   00000000000b078c     OpensslLib:hmac.obj
 0005:000000cc       $unwind$ossl_init_thread_start 00000000000b078c     OpensslLib:init.obj
 0005:000000cc       $unwind$OPENSSL_LH_retrieve 00000000000b078c     OpensslLib:lhash.obj
 0005:000000cc       $unwind$openssl_lh_strcasehash 00000000000b078c     OpensslLib:lhash.obj
 0005:000000cc       $unwind$CRYPTO_ccm128_setiv 00000000000b078c     OpensslLib:ccm128.obj
 0005:000000cc       $unwind$CRYPTO_ccm128_tag  00000000000b078c     OpensslLib:ccm128.obj
 0005:000000cc       $unwind$o_names_init_ossl_ 00000000000b078c     OpensslLib:o_names.obj
 0005:000000cc       $unwind$obj_name_hash      00000000000b078c     OpensslLib:o_names.obj
 0005:000000cc       $unwind$added_obj_hash     00000000000b078c     OpensslLib:obj_dat.obj
 0005:000000cc       $unwind$PKCS7_get_octet_string 00000000000b078c     OpensslLib:pk7_doit.obj
 0005:000000cc       $unwind$PKCS7_get_signer_info 00000000000b078c     OpensslLib:pk7_lib.obj
 0005:000000cc       $unwind$do_rand_drbg_init_ossl_ 00000000000b078c     OpensslLib:drbg_lib.obj
 0005:000000cc       $unwind$do_rand_init_ossl_ 00000000000b078c     OpensslLib:rand_lib.obj
 0005:000000cc       $unwind$rand_drbg_cleanup_entropy 00000000000b078c     OpensslLib:rand_lib.obj
 0005:000000cc       $unwind$rsa_param_encode   00000000000b078c     OpensslLib:rsa_ameth.obj
 0005:000000cc       $unwind$rsa_security_bits  00000000000b078c     OpensslLib:rsa_ameth.obj
 0005:000000cc       $unwind$rsa_multip_info_free 00000000000b078c     OpensslLib:rsa_mp.obj
 0005:000000cc       $unwind$pkey_rsa_cleanup   00000000000b078c     OpensslLib:rsa_pmeth.obj
 0005:000000cc       $unwind$pkey_rsa_init      00000000000b078c     OpensslLib:rsa_pmeth.obj
 0005:000000cc       $unwind$SHA1_Init          00000000000b078c     OpensslLib:sha1dgst.obj
 0005:000000cc       $unwind$SHA224_Init        00000000000b078c     OpensslLib:sha256.obj
 0005:000000cc       $unwind$SHA256_Init        00000000000b078c     OpensslLib:sha256.obj
 0005:000000cc       $unwind$siphash_get_priv_key 00000000000b078c     OpensslLib:siphash_ameth.obj
 0005:000000cc       $unwind$siphash_key_free   00000000000b078c     OpensslLib:siphash_ameth.obj
 0005:000000cc       $unwind$pkey_siphash_keygen 00000000000b078c     OpensslLib:siphash_pmeth.obj
 0005:000000cc       $unwind$init               00000000000b078c     OpensslLib:m_sm3.obj
 0005:000000cc       $unwind$X509_OBJECT_free   00000000000b078c     OpensslLib:x509_lu.obj
 0005:000000cc       $unwind$X509V3_EXT_d2i     00000000000b078c     OpensslLib:v3_lib.obj
 0005:000000cc       $unwind$check_purpose_timestamp_sign 00000000000b078c     OpensslLib:v3_purp.obj
 0005:000000cc       $unwind$equal_case         00000000000b078c     OpensslLib:v3_utl.obj
 0005:000000cc       $unwind$ipv6_cb            00000000000b078c     OpensslLib:v3_utl.obj
 0005:000000cc       $unwind$MmioRead32         00000000000b078c     BaseIoLibIntrinsicSev:IoLib.obj
 0005:000000cc       $unwind$IoRead32           00000000000b078c     BaseIoLibIntrinsicSev:IoLibMsc.obj
 0005:000000cc       $unwind$SaveAndDisableInterrupts 00000000000b078c     BaseLib:Cpu.obj
 0005:000000cc       $unwind$StrnLenS           00000000000b078c     BaseLib:SafeString.obj
 0005:000000cc       $unwind$PciExpressRead32   00000000000b078c     BasePciExpressLib:PciExpressLib.obj
 0005:000000cc       $unwind$InternalAllocateZeroPool 00000000000b078c     UefiMemoryAllocationLib:MemoryAllocationLib.obj
 0005:000000cc       $unwind$OnReadyToBoot      00000000000b078c     DxeImageVerificationLib:DxeImageVerificationLib.obj
 0005:000000d4       $unwind$AES_set_decrypt_key 00000000000b0794     OpensslLib:aes_core.obj
 0005:000000d4       $unwind$ASN1_STRING_cmp    00000000000b0794     OpensslLib:asn1_lib.obj
 0005:000000d4       $unwind$ASN1_STRING_copy   00000000000b0794     OpensslLib:asn1_lib.obj
 0005:000000d4       $unwind$ASN1_STRING_dup    00000000000b0794     OpensslLib:asn1_lib.obj
 0005:000000d4       $unwind$der_cmp            00000000000b0794     OpensslLib:tasn_enc.obj
 0005:000000d4       $unwind$BIO_indent         00000000000b0794     OpensslLib:bio_lib.obj
 0005:000000d4       $unwind$BIO_pop            00000000000b0794     OpensslLib:bio_lib.obj
 0005:000000d4       $unwind$mem_buf_free       00000000000b0794     OpensslLib:bss_mem.obj
 0005:000000d4       $unwind$BN_dup             00000000000b0794     OpensslLib:bn_lib.obj
 0005:000000d4       $unwind$BN_set_word        00000000000b0794     OpensslLib:bn_lib.obj
 0005:000000d4       $unwind$BN_mod_lshift1_quick 00000000000b0794     OpensslLib:bn_mod.obj
 0005:000000d4       $unwind$BN_mod_sub_quick   00000000000b0794     OpensslLib:bn_mod.obj
 0005:000000d4       $unwind$BN_MONT_CTX_copy   00000000000b0794     OpensslLib:bn_mont.obj
 0005:000000d4       $unwind$BN_lshift1         00000000000b0794     OpensslLib:bn_shift.obj
 0005:000000d4       $unwind$BN_mod_word        00000000000b0794     OpensslLib:bn_word.obj
 0005:000000d4       $unwind$pkey_cmac_copy     00000000000b0794     OpensslLib:cm_pmeth.obj
 0005:000000d4       $unwind$dh_pub_cmp         00000000000b0794     OpensslLib:dh_ameth.obj
 0005:000000d4       $unwind$dh_security_bits   00000000000b0794     OpensslLib:dh_ameth.obj
 0005:000000d4       $unwind$int_dh_bn_cpy      00000000000b0794     OpensslLib:dh_ameth.obj
 0005:000000d4       $unwind$pkey_dh_copy       00000000000b0794     OpensslLib:dh_pmeth.obj
 0005:000000d4       $unwind$dh_param_init      00000000000b0794     OpensslLib:dh_rfc7919.obj
 0005:000000d4       $unwind$ge_p3_to_cached    00000000000b0794     OpensslLib:curve25519.obj
 0005:000000d4       $unwind$gf_strong_reduce   00000000000b0794     OpensslLib:f_generic.obj
 0005:000000d4       $unwind$ec_copy_parameters 00000000000b0794     OpensslLib:ec_ameth.obj
 0005:000000d4       $unwind$EC_KEY_dup         00000000000b0794     OpensslLib:ec_key.obj
 0005:000000d4       $unwind$EC_GROUP_dup       00000000000b0794     OpensslLib:ec_lib.obj
 0005:000000d4       $unwind$pkey_ec_cleanup    00000000000b0794     OpensslLib:ec_pmeth.obj
 0005:000000d4       $unwind$pkey_ec_copy       00000000000b0794     OpensslLib:ec_pmeth.obj
 0005:000000d4       $unwind$ec_GFp_mont_group_copy 00000000000b0794     OpensslLib:ecp_mont.obj
 0005:000000d4       $unwind$ec_GFp_simple_group_copy 00000000000b0794     OpensslLib:ecp_smpl.obj
 0005:000000d4       $unwind$ec_GFp_simple_invert 00000000000b0794     OpensslLib:ecp_smpl.obj
 0005:000000d4       $unwind$ec_GFp_simple_point_copy 00000000000b0794     OpensslLib:ecp_smpl.obj
 0005:000000d4       $unwind$ecx_free           00000000000b0794     OpensslLib:ecx_meth.obj
 0005:000000d4       $unwind$md_free            00000000000b0794     OpensslLib:bio_md.obj
 0005:000000d4       $unwind$aes_gcm_cipher     00000000000b0794     OpensslLib:e_aes.obj
 0005:000000d4       $unwind$aes_gcm_cleanup    00000000000b0794     OpensslLib:e_aes.obj
 0005:000000d4       $unwind$aria_gcm_cipher    00000000000b0794     OpensslLib:e_aria.obj
 0005:000000d4       $unwind$EVP_CIPHER_type    00000000000b0794     OpensslLib:evp_lib.obj
 0005:000000d4       $unwind$final              00000000000b0794     OpensslLib:m_md5_sha1.obj
 0005:000000d4       $unwind$EVP_add_digest     00000000000b0794     OpensslLib:names.obj
 0005:000000d4       $unwind$HMAC_CTX_copy      00000000000b0794     OpensslLib:hmac.obj
 0005:000000d4       $unwind$hmac_ctx_alloc_mds 00000000000b0794     OpensslLib:hmac.obj
 0005:000000d4       $unwind$ossl_init_base_ossl_ 00000000000b0794     OpensslLib:init.obj
 0005:000000d4       $unwind$pkey_hkdf_cleanup  00000000000b0794     OpensslLib:hkdf.obj
 0005:000000d4       $unwind$pkey_hkdf_derive_init 00000000000b0794     OpensslLib:hkdf.obj
 0005:000000d4       $unwind$pkey_tls1_prf_cleanup 00000000000b0794     OpensslLib:tls1_prf.obj
 0005:000000d4       $unwind$CRYPTO_zalloc      00000000000b0794     OpensslLib:mem.obj
 0005:000000d4       $unwind$CRYPTO_gcm128_tag  00000000000b0794     OpensslLib:gcm128.obj
 0005:000000d4       $unwind$CRYPTO_strdup      00000000000b0794     OpensslLib:o_str.obj
 0005:000000d4       $unwind$i2d_ocsp_nonce     00000000000b0794     OpensslLib:v3_ocsp.obj
 0005:000000d4       $unwind$pk7_cb             00000000000b0794     OpensslLib:pk7_asn1.obj
 0005:000000d4       $unwind$get_attribute      00000000000b0794     OpensslLib:pk7_doit.obj
 0005:000000d4       $unwind$PKCS7_stream       00000000000b0794     OpensslLib:pk7_lib.obj
 0005:000000d4       $unwind$RAND_priv_bytes    00000000000b0794     OpensslLib:rand_lib.obj
 0005:000000d4       $unwind$rsa_pub_cmp        00000000000b0794     OpensslLib:rsa_ameth.obj
 0005:000000d4       $unwind$pkey_rsa_copy      00000000000b0794     OpensslLib:rsa_pmeth.obj
 0005:000000d4       $unwind$pkey_sm2_cleanup   00000000000b0794     OpensslLib:sm2_pmeth.obj
 0005:000000d4       $unwind$internal_delete    00000000000b0794     OpensslLib:stack.obj
 0005:000000d4       $unwind$X509_NAME_cmp      00000000000b0794     OpensslLib:x509_cmp.obj
 0005:000000d4       $unwind$X509_cmp           00000000000b0794     OpensslLib:x509_cmp.obj
 0005:000000d4       $unwind$check_suite_b      00000000000b0794     OpensslLib:x509_cmp.obj
 0005:000000d4       $unwind$trust_compat       00000000000b0794     OpensslLib:x509_trs.obj
 0005:000000d4       $unwind$X509v3_get_ext_by_NID 00000000000b0794     OpensslLib:x509_v3.obj
 0005:000000d4       $unwind$X509_STORE_CTX_cleanup 00000000000b0794     OpensslLib:x509_vfy.obj
 0005:000000d4       $unwind$check_dane_issuer  00000000000b0794     OpensslLib:x509_vfy.obj
 0005:000000d4       $unwind$check_key_level    00000000000b0794     OpensslLib:x509_vfy.obj
 0005:000000d4       $unwind$verify_chain       00000000000b0794     OpensslLib:x509_vfy.obj
 0005:000000d4       $unwind$X509_NAME_get_index_by_NID 00000000000b0794     OpensslLib:x509name.obj
 0005:000000d4       $unwind$X509_PUBKEY_set0_param 00000000000b0794     OpensslLib:x_pubkey.obj
 0005:000000d4       $unwind$pubkey_cb          00000000000b0794     OpensslLib:x_pubkey.obj
 0005:000000d4       $unwind$displaytext_str2tag 00000000000b0794     OpensslLib:v3_cpols.obj
 0005:000000d4       $unwind$i2r_idp            00000000000b0794     OpensslLib:v3_crld.obj
 0005:000000d4       $unwind$i2r_PKEY_USAGE_PERIOD 00000000000b0794     OpensslLib:v3_pku.obj
 0005:000000d4       $unwind$X509_check_akid    00000000000b0794     OpensslLib:v3_purp.obj
 0005:000000d4       $unwind$check_purpose_ns_ssl_server 00000000000b0794     OpensslLib:v3_purp.obj
 0005:000000d4       $unwind$x509_likely_issued 00000000000b0794     OpensslLib:v3_purp.obj
 0005:000000d4       $unwind$a2i_ipadd          00000000000b0794     OpensslLib:v3_utl.obj
 0005:000000d4       $unwind$name_cmp           00000000000b0794     OpensslLib:v3_utl.obj
 0005:000000d4       $unwind$AsciiStrCmp        00000000000b0794     BaseLib:String.obj
 0005:000000d4       $unwind$AsciiStrLen        00000000000b0794     BaseLib:String.obj
 0005:000000d4       $unwind$AsciiStriCmp       00000000000b0794     BaseLib:String.obj
 0005:000000d4       $unwind$ZeroMem            00000000000b0794     BaseMemoryLibRepStr:ZeroMemWrapper.obj
 0005:000000d4       $unwind$GetRandomNumber64  00000000000b0794     BaseRngLibTimerLib:RngLibTimer.obj
 0005:000000d4       $unwind$NextDevicePathNode 00000000000b0794     UefiDevicePathLibDevicePathProtocol:UefiDevicePathLib.obj
 0005:000000e0       $unwind$UefiDevicePathLibLocateProtocol 00000000000b07a0     UefiDevicePathLibDevicePathProtocol:UefiDevicePathLib.obj
 0005:000000e8       $unwind$ECDH_compute_key   00000000000b07a8     OpensslLib:ec_kmeth.obj
 0005:000000e8       $unwind$pkey_set_type      00000000000b07a8     OpensslLib:p_lib.obj
 0005:000000e8       $unwind$internal_find      00000000000b07a8     OpensslLib:stack.obj
 0005:000000e8       $unwind$GetEfiGlobalVariable2 00000000000b07a8     UefiLib:UefiLib.obj
 0005:000000f4       $unwind$ExecuteSecurityHandlers 00000000000b07b4     DxeSecurityManagementLib:DxeSecurityManagementLib.obj
 0005:0000010c       $unwind$ASN1_get_object    00000000000b07cc     OpensslLib:asn1_lib.obj
 0005:0000010c       $unwind$asn1_item_embed_new 00000000000b07cc     OpensslLib:tasn_new.obj
 0005:0000010c       $unwind$DH_check           00000000000b07cc     OpensslLib:dh_check.obj
 0005:0000010c       $unwind$pkey_dh_paramgen   00000000000b07cc     OpensslLib:dh_pmeth.obj
 0005:0000010c       $unwind$ec_key_simple_generate_key 00000000000b07cc     OpensslLib:ec_key.obj
 0005:0000010c       $unwind$EC_POINT_point2buf 00000000000b07cc     OpensslLib:ec_oct.obj
 0005:0000010c       $unwind$ec_GFp_nist_field_sqr 00000000000b07cc     OpensslLib:ecp_nist.obj
 0005:0000010c       $unwind$ec_GFp_simple_blind_coordinates 00000000000b07cc     OpensslLib:ecp_smpl.obj
 0005:0000010c       $unwind$aes_xts_init_key   00000000000b07cc     OpensslLib:e_aes.obj
 0005:0000010c       $unwind$i2r_ocsp_serviceloc 00000000000b07cc     OpensslLib:v3_ocsp.obj
 0005:0000010c       $unwind$rand_pool_new      00000000000b07cc     OpensslLib:rand_lib.obj
 0005:0000010c       $unwind$RSA_setup_blinding 00000000000b07cc     OpensslLib:rsa_crpt.obj
 0005:0000010c       $unwind$pkey_rsa_ctrl      00000000000b07cc     OpensslLib:rsa_pmeth.obj
 0005:0000010c       $unwind$pkey_rsa_keygen    00000000000b07cc     OpensslLib:rsa_pmeth.obj
 0005:0000010c       $unwind$sk_OPENSSL_STRING_deep_copy 00000000000b07cc     OpensslLib:x509_vpm.obj
 0005:0000010c       $unwind$copy_email         00000000000b07cc     OpensslLib:v3_alt.obj
 0005:0000010c       $unwind$do_dirname         00000000000b07cc     OpensslLib:v3_alt.obj
 0005:0000010c       $unwind$v2i_GENERAL_NAMES  00000000000b07cc     OpensslLib:v3_alt.obj
 0005:0000010c       $unwind$sxnet_i2r          00000000000b07cc     OpensslLib:v3_sxnet.obj
 0005:0000010c       $unwind$ExecuteSecurity2Handlers 00000000000b07cc     DxeSecurityManagementLib:DxeSecurityManagementLib.obj
 0005:00000124       $unwind$GetImageType       00000000000b07e4     DxeImageVerificationLib:DxeImageVerificationLib.obj
 0005:00000134       $unwind$HashPeImage        00000000000b07f4     DxeImageVerificationLib:DxeImageVerificationLib.obj
 0005:0000014c       $unwind$AddImageExeInfo    00000000000b080c     DxeImageVerificationLib:DxeImageVerificationLib.obj
 0005:00000164       $unwind$IsCertHashFoundInDbx 00000000000b0824     DxeImageVerificationLib:DxeImageVerificationLib.obj
 0005:00000180       $unwind$rsa_ossl_public_decrypt 00000000000b0840     OpensslLib:rsa_ossl.obj
 0005:00000180       $unwind$IsSignatureFoundInDatabase 00000000000b0840     DxeImageVerificationLib:DxeImageVerificationLib.obj
 0005:00000198       $unwind$PassTimestampCheck 00000000000b0858     DxeImageVerificationLib:DxeImageVerificationLib.obj
 0005:000001b0       $unwind$IsForbiddenByDbx   00000000000b0870     DxeImageVerificationLib:DxeImageVerificationLib.obj
 0005:000001c8       $unwind$IsAllowedByDb      00000000000b0888     DxeImageVerificationLib:DxeImageVerificationLib.obj
 0005:000001e0       $unwind$DxeImageVerificationHandler 00000000000b08a0     DxeImageVerificationLib:DxeImageVerificationLib.obj
 0005:00000200       $unwind$BN_uadd            00000000000b08c0     OpensslLib:bn_add.obj
 0005:00000200       $unwind$bn_div_words       00000000000b08c0     OpensslLib:bn_asm.obj
 0005:00000200       $unwind$BN_bin2bn          00000000000b08c0     OpensslLib:bn_lib.obj
 0005:00000200       $unwind$BN_num_bits        00000000000b08c0     OpensslLib:bn_lib.obj
 0005:00000200       $unwind$bn_from_mont_fixed_top 00000000000b08c0     OpensslLib:bn_mont.obj
 0005:00000200       $unwind$BN_div_word        00000000000b08c0     OpensslLib:bn_word.obj
 0005:00000200       $unwind$int_update         00000000000b08c0     OpensslLib:cm_pmeth.obj
 0005:00000200       $unwind$ec_GFp_simple_group_get_curve 00000000000b08c0     OpensslLib:ecp_smpl.obj
 0005:00000200       $unwind$md_ctrl            00000000000b08c0     OpensslLib:bio_md.obj
 0005:00000200       $unwind$EVP_Digest         00000000000b08c0     OpensslLib:digest.obj
 0005:00000200       $unwind$aes_ecb_cipher     00000000000b08c0     OpensslLib:e_aes.obj
 0005:00000200       $unwind$aria_128_ecb_cipher 00000000000b08c0     OpensslLib:e_aria.obj
 0005:00000200       $unwind$aria_192_ecb_cipher 00000000000b08c0     OpensslLib:e_aria.obj
 0005:00000200       $unwind$aria_256_ecb_cipher 00000000000b08c0     OpensslLib:e_aria.obj
 0005:00000200       $unwind$sm4_ecb_cipher     00000000000b08c0     OpensslLib:e_sm4.obj
 0005:00000200       $unwind$getrn              00000000000b08c0     OpensslLib:lhash.obj
 0005:00000200       $unwind$OBJ_NAME_add       00000000000b08c0     OpensslLib:o_names.obj
 0005:00000200       $unwind$SHA1_Final         00000000000b08c0     OpensslLib:sha1dgst.obj
 0005:00000200       $unwind$SHA256_Final       00000000000b08c0     OpensslLib:sha256.obj
 0005:00000200       $unwind$SM4_decrypt        00000000000b08c0     OpensslLib:sm4.obj
 0005:00000200       $unwind$SM4_encrypt        00000000000b08c0     OpensslLib:sm4.obj
 0005:00000200       $unwind$obj_trust          00000000000b08c0     OpensslLib:x509_trs.obj
 0005:00000200       $unwind$augment_stack      00000000000b08c0     OpensslLib:x509_vfy.obj
 0005:00000200       $unwind$i2r_certpol        00000000000b08c0     OpensslLib:v3_cpols.obj
 0005:00000200       $unwind$crldp_from_section 00000000000b08c0     OpensslLib:v3_crld.obj
 0005:00000200       $unwind$AddDataMeasured    00000000000b08c0     DxeImageVerificationLib:Measurement.obj
 0005:00000218       $unwind$strncasecmp        00000000000b08d8     BaseCryptLib:CrtWrapper.obj
 0005:00000218       $unwind$asn1_str2tag       00000000000b08d8     OpensslLib:asn1_gen.obj
 0005:00000218       $unwind$mask_cb            00000000000b08d8     OpensslLib:asn1_gen.obj
 0005:00000218       $unwind$ASN1_STRING_set0   00000000000b08d8     OpensslLib:asn1_lib.obj
 0005:00000218       $unwind$PKCS8_pkey_set0    00000000000b08d8     OpensslLib:p8_pkey.obj
 0005:00000218       $unwind$bn_c2i             00000000000b08d8     OpensslLib:x_bignum.obj
 0005:00000218       $unwind$bn_i2c             00000000000b08d8     OpensslLib:x_bignum.obj
 0005:00000218       $unwind$mem_init           00000000000b08d8     OpensslLib:bss_mem.obj
 0005:00000218       $unwind$mem_read           00000000000b08d8     OpensslLib:bss_mem.obj
 0005:00000218       $unwind$BN_add             00000000000b08d8     OpensslLib:bn_add.obj
 0005:00000218       $unwind$BN_sub             00000000000b08d8     OpensslLib:bn_add.obj
 0005:00000218       $unwind$BN_copy            00000000000b08d8     OpensslLib:bn_lib.obj
 0005:00000218       $unwind$BN_sub_word        00000000000b08d8     OpensslLib:bn_word.obj
 0005:00000218       $unwind$sec_alloc_realloc  00000000000b08d8     OpensslLib:buffer.obj
 0005:00000218       $unwind$pkey_cmac_keygen   00000000000b08d8     OpensslLib:cm_pmeth.obj
 0005:00000218       $unwind$CMAC_CTX_copy      00000000000b08d8     OpensslLib:cmac.obj
 0005:00000218       $unwind$dh_cmp_parameters  00000000000b08d8     OpensslLib:dh_ameth.obj
 0005:00000218       $unwind$dh_copy_parameters 00000000000b08d8     OpensslLib:dh_ameth.obj
 0005:00000218       $unwind$int_dh_param_copy  00000000000b08d8     OpensslLib:dh_ameth.obj
 0005:00000218       $unwind$d2i_DHxparams      00000000000b08d8     OpensslLib:dh_asn1.obj
 0005:00000218       $unwind$pkey_dh_ctrl       00000000000b08d8     OpensslLib:dh_pmeth.obj
 0005:00000218       $unwind$pt_to_pniels       00000000000b08d8     OpensslLib:curve448.obj
 0005:00000218       $unwind$EC_KEY_set_group   00000000000b08d8     OpensslLib:ec_key.obj
 0005:00000218       $unwind$ecx_get_priv_key   00000000000b08d8     OpensslLib:ecx_meth.obj
 0005:00000218       $unwind$ecx_get_pub_key    00000000000b08d8     OpensslLib:ecx_meth.obj
 0005:00000218       $unwind$err_set_error_data_int 00000000000b08d8     OpensslLib:err.obj
 0005:00000218       $unwind$enc_free           00000000000b08d8     OpensslLib:bio_enc.obj
 0005:00000218       $unwind$EVP_DigestFinal_ex 00000000000b08d8     OpensslLib:digest.obj
 0005:00000218       $unwind$cleanup_old_md_data 00000000000b08d8     OpensslLib:digest.obj
 0005:00000218       $unwind$aes_gcm_init_key   00000000000b08d8     OpensslLib:e_aes.obj
 0005:00000218       $unwind$update             00000000000b08d8     OpensslLib:m_md5_sha1.obj
 0005:00000218       $unwind$EVP_PKEY_CTX_hex2ctrl 00000000000b08d8     OpensslLib:pmeth_lib.obj
 0005:00000218       $unwind$pkey_hmac_cleanup  00000000000b08d8     OpensslLib:hm_pmeth.obj
 0005:00000218       $unwind$pkey_hmac_copy     00000000000b08d8     OpensslLib:hm_pmeth.obj
 0005:00000218       $unwind$pkey_hmac_ctrl_str 00000000000b08d8     OpensslLib:hm_pmeth.obj
 0005:00000218       $unwind$OPENSSL_LH_new     00000000000b08d8     OpensslLib:lhash.obj
 0005:00000218       $unwind$CRYPTO_strndup     00000000000b08d8     OpensslLib:o_str.obj
 0005:00000218       $unwind$drbg_ctr_uninstantiate 00000000000b08d8     OpensslLib:drbg_ctr.obj
 0005:00000218       $unwind$rsa_md_to_algor    00000000000b08d8     OpensslLib:rsa_ameth.obj
 0005:00000218       $unwind$rsa_cb             00000000000b08d8     OpensslLib:rsa_asn1.obj
 0005:00000218       $unwind$rsa_get_blinding   00000000000b08d8     OpensslLib:rsa_ossl.obj
 0005:00000218       $unwind$rsa_ossl_finish    00000000000b08d8     OpensslLib:rsa_ossl.obj
 0005:00000218       $unwind$siphash_set_priv_key 00000000000b08d8     OpensslLib:siphash_ameth.obj
 0005:00000218       $unwind$pkey_siphash_cleanup 00000000000b08d8     OpensslLib:siphash_pmeth.obj
 0005:00000218       $unwind$pkey_siphash_copy  00000000000b08d8     OpensslLib:siphash_pmeth.obj
 0005:00000218       $unwind$pkey_siphash_ctrl_str 00000000000b08d8     OpensslLib:siphash_pmeth.obj
 0005:00000218       $unwind$OPENSSL_sk_new_reserve 00000000000b08d8     OpensslLib:stack.obj
 0005:00000218       $unwind$check_revocation   00000000000b08d8     OpensslLib:x509_vfy.obj
 0005:00000218       $unwind$X509_NAME_delete_entry 00000000000b08d8     OpensslLib:x509name.obj
 0005:00000218       $unwind$x509_name_ex_i2d   00000000000b08d8     OpensslLib:x_name.obj
 0005:00000218       $unwind$tree_add_auth_node 00000000000b08d8     OpensslLib:pcy_tree.obj
 0005:00000218       $unwind$nc_match_single    00000000000b08d8     OpensslLib:v3_ncons.obj
 0005:00000218       $unwind$X509_check_purpose 00000000000b08d8     OpensslLib:v3_purp.obj
 0005:00000218       $unwind$X509V3_add_value_int 00000000000b08d8     OpensslLib:v3_utl.obj
 0005:00000218       $unwind$rand_pool_acquire_entropy 00000000000b08d8     OpensslLib:rand_pool.obj
 0005:00000218       $unwind$DivU64x32Remainder 00000000000b08d8     BaseLib:DivU64x32Remainder.obj
 0005:00000218       $unwind$AsciiStrnCmp       00000000000b08d8     BaseLib:String.obj
 0005:00000218       $unwind$StrCmp             00000000000b08d8     BaseLib:String.obj
 0005:00000218       $unwind$StrLen             00000000000b08d8     BaseLib:String.obj
 0005:00000218       $unwind$ScanMem8           00000000000b08d8     BaseMemoryLibRepStr:ScanMem8Wrapper.obj
 0005:00000218       $unwind$SetMem             00000000000b08d8     BaseMemoryLibRepStr:SetMemWrapper.obj
 0005:00000218       $unwind$PciCf8Read32       00000000000b08d8     BasePciCf8Lib:PciCf8Lib.obj
 0005:00000218       $unwind$InternalAcpiDelay  00000000000b08d8     DxeAcpiTimerLib:AcpiTimerLib.obj
 0005:00000228       $unwind$nc_match           00000000000b08e8     OpensslLib:v3_ncons.obj
 0005:00000228       $unwind$CompareGuid        00000000000b08e8     BaseMemoryLibRepStr:MemLibGuid.obj
 0005:00000240       $unwind$strcpy             00000000000b0900     BaseCryptLib:CrtWrapper.obj
 0005:00000240       $unwind$BIO_free           00000000000b0900     OpensslLib:bio_lib.obj
 0005:00000240       $unwind$pkey_ecd_digestsign448 00000000000b0900     OpensslLib:ecx_meth.obj
 0005:00000240       $unwind$aes_ctr_cipher     00000000000b0900     OpensslLib:e_aes.obj
 0005:00000240       $unwind$AsciiStrCatS       00000000000b0900     BaseLib:SafeString.obj
 0005:00000240       $unwind$AsciiStrDecimalToUintnS 00000000000b0900     BaseLib:SafeString.obj
 0005:00000240       $unwind$AsciiStrnCpyS      00000000000b0900     BaseLib:SafeString.obj
 0005:00000248       $unwind$AsciiSPrint        00000000000b0908     BasePrintLib:PrintLib.obj
 0005:00000250       $unwind$rsa_pss_decode     00000000000b0910     OpensslLib:rsa_ameth.obj
 0005:00000250       $unwind$BasePrintLibValueToString 00000000000b0910     BasePrintLib:PrintLibInternal.obj
 0005:0000025c       $unwind$BasePrintLibSPrintMarker 00000000000b091c     BasePrintLib:PrintLibInternal.obj
 0005:00000278       $unwind$i2d_X509_NAME      00000000000b0938     OpensslLib:x_name.obj
 0005:00000278       $unwind$BasePrintLibSPrint 00000000000b0938     BasePrintLib:PrintLibInternal.obj
 0005:00000280       $unwind$GetFileBufferByFilePath 00000000000b0940     DxeServicesLib:DxeServicesLib.obj
 0005:000002a0       $unwind$PeCoffLoaderGetPeHeader 00000000000b0960     BasePeCoffLib:BasePeCoff.obj
 0005:000002bc       $unwind$PeCoffLoaderGetImageInfo 00000000000b097c     BasePeCoffLib:BasePeCoff.obj
 0005:000002dc       $unwind$WrapPkcs7Data      00000000000b099c     BaseCryptLib:CryptPkcs7VerifyCommon.obj
 0005:000002dc       $unwind$bn_mul_normal      00000000000b099c     OpensslLib:bn_mul.obj
 0005:000002dc       $unwind$BN_hex2bn          00000000000b099c     OpensslLib:bn_print.obj
 0005:000002dc       $unwind$ec_GFp_simple_get_Jprojective_coordinates_GFp 00000000000b099c     OpensslLib:ecp_smpl.obj
 0005:000002dc       $unwind$ec_GFp_simple_set_Jprojective_coordinates_GFp 00000000000b099c     OpensslLib:ecp_smpl.obj
 0005:000002dc       $unwind$CRYPTO_cfb128_encrypt 00000000000b099c     OpensslLib:cfb128.obj
 0005:000002dc       $unwind$CRYPTO_gcm128_finish 00000000000b099c     OpensslLib:gcm128.obj
 0005:000002dc       $unwind$CRYPTO_ofb128_encrypt 00000000000b099c     OpensslLib:ofb128.obj
 0005:000002dc       $unwind$OBJ_bsearch_ex_    00000000000b099c     OpensslLib:obj_dat.obj
 0005:000002dc       $unwind$add_attribute      00000000000b099c     OpensslLib:pk7_doit.obj
 0005:000002dc       $unwind$SHA512_Final       00000000000b099c     OpensslLib:sha512.obj
 0005:000002dc       $unwind$tree_evaluate      00000000000b099c     OpensslLib:pcy_tree.obj
 0005:000002dc       $unwind$set_reasons        00000000000b099c     OpensslLib:v3_crld.obj
 0005:000002dc       $unwind$nc_email           00000000000b099c     OpensslLib:v3_ncons.obj
 0005:000002dc       $unwind$valid_star         00000000000b099c     OpensslLib:v3_utl.obj
 0005:000002f8       $unwind$X509PopCertificate 00000000000b09b8     BaseCryptLib:CryptPkcs7VerifyCommon.obj
 0005:00000310       $unwind$Pkcs7GetSigners    00000000000b09d0     BaseCryptLib:CryptPkcs7VerifyCommon.obj
 0005:00000328       $unwind$Pkcs7Verify        00000000000b09e8     BaseCryptLib:CryptPkcs7VerifyCommon.obj
 0005:00000340       $unwind$AuthenticodeVerify 00000000000b0a00     BaseCryptLib:CryptAuthenticode.obj
 0005:00000358       $unwind$CheckTSTInfo       00000000000b0a18     BaseCryptLib:CryptTs.obj
 0005:00000374       $unwind$TimestampTokenVerify 00000000000b0a34     BaseCryptLib:CryptTs.obj
 0005:00000390       $unwind$ImageTimestampVerify 00000000000b0a50     BaseCryptLib:CryptTs.obj
 0005:000003a8       $unwind$free               00000000000b0a68     BaseCryptLib:BaseMemAllocation.obj
 0005:000003a8       $unwind$ASN1_OBJECT_free   00000000000b0a68     OpensslLib:a_object.obj
 0005:000003a8       $unwind$ASN1_STRING_clear_free 00000000000b0a68     OpensslLib:asn1_lib.obj
 0005:000003a8       $unwind$asn1_ex_i2c        00000000000b0a68     OpensslLib:tasn_enc.obj
 0005:000003a8       $unwind$BN_BLINDING_free   00000000000b0a68     OpensslLib:bn_blind.obj
 0005:000003a8       $unwind$BN_clear_free      00000000000b0a68     OpensslLib:bn_lib.obj
 0005:000003a8       $unwind$BN_MONT_CTX_free   00000000000b0a68     OpensslLib:bn_mont.obj
 0005:000003a8       $unwind$EC_GROUP_free      00000000000b0a68     OpensslLib:ec_lib.obj
 0005:000003a8       $unwind$EC_POINT_clear_free 00000000000b0a68     OpensslLib:ec_lib.obj
 0005:000003a8       $unwind$EC_POINT_free      00000000000b0a68     OpensslLib:ec_lib.obj
 0005:000003a8       $unwind$EVP_PKEY_free      00000000000b0a68     OpensslLib:p_lib.obj
 0005:000003a8       $unwind$EVP_PKEY_CTX_free  00000000000b0a68     OpensslLib:pmeth_lib.obj
 0005:000003a8       $unwind$RAND_DRBG_free     00000000000b0a68     OpensslLib:drbg_lib.obj
 0005:000003a8       $unwind$rand_drbg_cleanup_nonce 00000000000b0a68     OpensslLib:rand_lib.obj
 0005:000003a8       $unwind$OPENSSL_sk_sort    00000000000b0a68     OpensslLib:stack.obj
 0005:000003a8       $unwind$X509_VERIFY_PARAM_free 00000000000b0a68     OpensslLib:x509_vpm.obj
 0005:000003a8       $unwind$local_sk_X509_NAME_ENTRY_free 00000000000b0a68     OpensslLib:x_name.obj
 0005:000003a8       $unwind$policy_data_free   00000000000b0a68     OpensslLib:pcy_data.obj
 0005:000003a8       $unwind$i2v_BASIC_CONSTRAINTS 00000000000b0a68     OpensslLib:v3_bcons.obj
 0005:000003a8       $unwind$i2v_POLICY_CONSTRAINTS 00000000000b0a68     OpensslLib:v3_pcons.obj
 0005:000003a8       $unwind$X509V3_conf_free   00000000000b0a68     OpensslLib:v3_utl.obj
 0005:000003b0       $unwind$asn1_check_tlen    00000000000b0a70     OpensslLib:tasn_dec.obj
 0005:000003b0       $unwind$sha1_block_data_order 00000000000b0a70     OpensslLib:sha1dgst.obj
 0005:000003cc       $unwind$SHA512             00000000000b0a8c     OpensslLib:sha512.obj
 0005:000003d8       $unwind$sha512_block_data_order 00000000000b0a98     OpensslLib:sha512.obj
 0005:000003f0       $unwind$CRYPTO_ccm128_aad  00000000000b0ab0     OpensslLib:ccm128.obj
 0005:000003f0       $unwind$X509_STORE_free    00000000000b0ab0     OpensslLib:x509_lu.obj
 0005:00000408       $unwind$ASN1_BIT_STRING_set_bit 00000000000b0ac8     OpensslLib:a_bitstr.obj
 0005:00000408       $unwind$BN_usub            00000000000b0ac8     OpensslLib:bn_add.obj
 0005:00000408       $unwind$BN_mod_mul_reciprocal 00000000000b0ac8     OpensslLib:bn_recp.obj
 0005:00000408       $unwind$DH_check_pub_key   00000000000b0ac8     OpensslLib:dh_check.obj
 0005:00000408       $unwind$ec_field_inverse_mod_ord 00000000000b0ac8     OpensslLib:ec_lib.obj
 0005:00000408       $unwind$ec_guess_cofactor  00000000000b0ac8     OpensslLib:ec_lib.obj
 0005:00000408       $unwind$ec_GFp_mont_field_inv 00000000000b0ac8     OpensslLib:ecp_mont.obj
 0005:00000408       $unwind$ec_GFp_nist_field_mul 00000000000b0ac8     OpensslLib:ecp_nist.obj
 0005:00000408       $unwind$ec_GFp_nist_group_set_curve 00000000000b0ac8     OpensslLib:ecp_nist.obj
 0005:00000408       $unwind$ec_GFp_simple_field_inv 00000000000b0ac8     OpensslLib:ecp_smpl.obj
 0005:00000408       $unwind$ec_GFp_simple_make_affine 00000000000b0ac8     OpensslLib:ecp_smpl.obj
 0005:00000408       $unwind$X509_STORE_CTX_get_by_subject 00000000000b0ac8     OpensslLib:x509_lu.obj
 0005:00000408       $unwind$v2i_issuer_alt     00000000000b0ac8     OpensslLib:v3_alt.obj
 0005:00000408       $unwind$v2i_subject_alt    00000000000b0ac8     OpensslLib:v3_alt.obj
 0005:00000408       $unwind$x509v3_add_len_value 00000000000b0ac8     OpensslLib:v3_utl.obj
 0005:00000424       $unwind$asn1_get_uint64    00000000000b0ae4     OpensslLib:a_int.obj
 0005:00000424       $unwind$bitstr_cb          00000000000b0ae4     OpensslLib:asn1_gen.obj
 0005:00000424       $unwind$parse_tagging      00000000000b0ae4     OpensslLib:asn1_gen.obj
 0005:00000424       $unwind$BN_CTX_new         00000000000b0ae4     OpensslLib:bn_ctx.obj
 0005:00000424       $unwind$BN_mod_exp         00000000000b0ae4     OpensslLib:bn_exp.obj
 0005:00000424       $unwind$BN_new             00000000000b0ae4     OpensslLib:bn_lib.obj
 0005:00000424       $unwind$BN_MONT_CTX_new    00000000000b0ae4     OpensslLib:bn_mont.obj
 0005:00000424       $unwind$BUF_MEM_new        00000000000b0ae4     OpensslLib:buffer.obj
 0005:00000424       $unwind$DH_new_by_nid      00000000000b0ae4     OpensslLib:dh_rfc7919.obj
 0005:00000424       $unwind$ec_pkey_check      00000000000b0ae4     OpensslLib:ec_ameth.obj
 0005:00000424       $unwind$ec_pkey_param_check 00000000000b0ae4     OpensslLib:ec_ameth.obj
 0005:00000424       $unwind$EC_GROUP_new_from_ecpkparameters 00000000000b0ae4     OpensslLib:ec_asn1.obj
 0005:00000424       $unwind$EC_KEY_check_key   00000000000b0ae4     OpensslLib:ec_key.obj
 0005:00000424       $unwind$ec_key_simple_generate_public_key 00000000000b0ae4     OpensslLib:ec_key.obj
 0005:00000424       $unwind$EC_POINT_add       00000000000b0ae4     OpensslLib:ec_lib.obj
 0005:00000424       $unwind$EC_POINT_cmp       00000000000b0ae4     OpensslLib:ec_lib.obj
 0005:00000424       $unwind$EC_POINT_copy      00000000000b0ae4     OpensslLib:ec_lib.obj
 0005:00000424       $unwind$EC_POINT_dbl       00000000000b0ae4     OpensslLib:ec_lib.obj
 0005:00000424       $unwind$EC_POINT_invert    00000000000b0ae4     OpensslLib:ec_lib.obj
 0005:00000424       $unwind$EC_POINT_is_at_infinity 00000000000b0ae4     OpensslLib:ec_lib.obj
 0005:00000424       $unwind$EC_POINT_is_on_curve 00000000000b0ae4     OpensslLib:ec_lib.obj
 0005:00000424       $unwind$EC_POINT_set_to_infinity 00000000000b0ae4     OpensslLib:ec_lib.obj
 0005:00000424       $unwind$EC_POINT_oct2point 00000000000b0ae4     OpensslLib:ec_oct.obj
 0005:00000424       $unwind$EC_POINT_point2oct 00000000000b0ae4     OpensslLib:ec_oct.obj
 0005:00000424       $unwind$EC_POINT_set_compressed_coordinates 00000000000b0ae4     OpensslLib:ec_oct.obj
 0005:00000424       $unwind$ossl_ecdh_compute_key 00000000000b0ae4     OpensslLib:ecdh_ossl.obj
 0005:00000424       $unwind$ossl_ecdsa_sign_setup 00000000000b0ae4     OpensslLib:ecdsa_ossl.obj
 0005:00000424       $unwind$ecx_priv_print     00000000000b0ae4     OpensslLib:ecx_meth.obj
 0005:00000424       $unwind$ecx_pub_decode     00000000000b0ae4     OpensslLib:ecx_meth.obj
 0005:00000424       $unwind$ecx_pub_print      00000000000b0ae4     OpensslLib:ecx_meth.obj
 0005:00000424       $unwind$ecx_set_priv_key   00000000000b0ae4     OpensslLib:ecx_meth.obj
 0005:00000424       $unwind$ecx_set_pub_key    00000000000b0ae4     OpensslLib:ecx_meth.obj
 0005:00000424       $unwind$pkey_ecd_ctrl      00000000000b0ae4     OpensslLib:ecx_meth.obj
 0005:00000424       $unwind$pkey_ecx_keygen    00000000000b0ae4     OpensslLib:ecx_meth.obj
 0005:00000424       $unwind$validate_ecx_derive 00000000000b0ae4     OpensslLib:ecx_meth.obj
 0005:00000424       $unwind$aria_init_key      00000000000b0ae4     OpensslLib:e_aria.obj
 0005:00000424       $unwind$EVP_CIPHER_CTX_ctrl 00000000000b0ae4     OpensslLib:evp_enc.obj
 0005:00000424       $unwind$EVP_CIPHER_CTX_set_key_length 00000000000b0ae4     OpensslLib:evp_enc.obj
 0005:00000424       $unwind$update             00000000000b0ae4     OpensslLib:m_sigver.obj
 0005:00000424       $unwind$EVP_PKEY_verify    00000000000b0ae4     OpensslLib:pmeth_fn.obj
 0005:00000424       $unwind$pkey_hmac_ctrl     00000000000b0ae4     OpensslLib:hm_pmeth.obj
 0005:00000424       $unwind$rand_pool_add_end  00000000000b0ae4     OpensslLib:rand_lib.obj
 0005:00000424       $unwind$RSA_pkey_ctx_ctrl  00000000000b0ae4     OpensslLib:rsa_lib.obj
 0005:00000424       $unwind$check_padding_md   00000000000b0ae4     OpensslLib:rsa_pmeth.obj
 0005:00000424       $unwind$siphash_signctx_init 00000000000b0ae4     OpensslLib:siphash_pmeth.obj
 0005:00000424       $unwind$X509_OBJECT_new    00000000000b0ae4     OpensslLib:x509_lu.obj
 0005:00000424       $unwind$def_crl_verify     00000000000b0ae4     OpensslLib:x_crl.obj
 0005:00000424       $unwind$GENERAL_NAME_print 00000000000b0ae4     OpensslLib:v3_alt.obj
 0005:00000424       $unwind$X509V3_get_section 00000000000b0ae4     OpensslLib:v3_conf.obj
 0005:0000042c       $unwind$ED25519_sign       00000000000b0aec     OpensslLib:curve25519.obj
 0005:0000042c       $unwind$x509_object_idx_cnt 00000000000b0aec     OpensslLib:x509_lu.obj
 0005:00000448       $unwind$X509_STORE_CTX_get1_certs 00000000000b0b08     OpensslLib:x509_lu.obj
 0005:00000464       $unwind$X509_STORE_CTX_get1_crls 00000000000b0b24     OpensslLib:x509_lu.obj
 0005:00000480       $unwind$X509_OBJECT_retrieve_match 00000000000b0b40     OpensslLib:x509_lu.obj
 0005:00000498       $unwind$X509_STORE_CTX_get1_issuer 00000000000b0b58     OpensslLib:x509_lu.obj
 0005:000004b4       $unwind$X509_find_by_issuer_and_serial 00000000000b0b74     OpensslLib:x509_cmp.obj
 0005:000004d0       $unwind$find_issuer        00000000000b0b90     OpensslLib:x509_vfy.obj
 0005:000004e8       $unwind$rsa_multip_calc_product 00000000000b0ba8     OpensslLib:rsa_mp.obj
 0005:000004e8       $unwind$check_chain_extensions 00000000000b0ba8     OpensslLib:x509_vfy.obj
 0005:00000500       $unwind$EC_GROUP_new_from_ecparameters 00000000000b0bc0     OpensslLib:ec_asn1.obj
 0005:00000500       $unwind$ec_asn1_group2curve 00000000000b0bc0     OpensslLib:ec_asn1.obj
 0005:00000500       $unwind$ec_GFp_mont_group_set_curve 00000000000b0bc0     OpensslLib:ecp_mont.obj
 0005:00000500       $unwind$ec_GFp_simple_group_check_discriminant 00000000000b0bc0     OpensslLib:ecp_smpl.obj
 0005:00000500       $unwind$enc_write          00000000000b0bc0     OpensslLib:bio_enc.obj
 0005:00000500       $unwind$rand_drbg_restart  00000000000b0bc0     OpensslLib:drbg_lib.obj
 0005:00000500       $unwind$check_name_constraints 00000000000b0bc0     OpensslLib:x509_vfy.obj
 0005:0000051c       $unwind$asn1_multi         00000000000b0bdc     OpensslLib:asn1_gen.obj
 0005:0000051c       $unwind$probable_prime     00000000000b0bdc     OpensslLib:bn_prime.obj
 0005:0000051c       $unwind$BN_bn2dec          00000000000b0bdc     OpensslLib:bn_print.obj
 0005:0000051c       $unwind$ec_GFp_simple_group_set_curve 00000000000b0bdc     OpensslLib:ecp_smpl.obj
 0005:0000051c       $unwind$aria_128_cbc_cipher 00000000000b0bdc     OpensslLib:e_aria.obj
 0005:0000051c       $unwind$aria_192_cbc_cipher 00000000000b0bdc     OpensslLib:e_aria.obj
 0005:0000051c       $unwind$aria_256_cbc_cipher 00000000000b0bdc     OpensslLib:e_aria.obj
 0005:0000051c       $unwind$sm4_cbc_cipher     00000000000b0bdc     OpensslLib:e_sm4.obj
 0005:0000051c       $unwind$EVP_DecryptUpdate  00000000000b0bdc     OpensslLib:evp_enc.obj
 0005:0000051c       $unwind$check_hosts        00000000000b0bdc     OpensslLib:x509_vfy.obj
 0005:0000051c       $unwind$X509V3_NAME_from_section 00000000000b0bdc     OpensslLib:v3_utl.obj
 0005:00000538       $unwind$qsort              00000000000b0bf8     BaseCryptLib:CrtWrapper.obj
 0005:00000538       $unwind$ASN1_STRING_set    00000000000b0bf8     OpensslLib:asn1_lib.obj
 0005:00000538       $unwind$ASN1_item_pack     00000000000b0bf8     OpensslLib:asn_pack.obj
 0005:00000538       $unwind$bn_secure_c2i      00000000000b0bf8     OpensslLib:x_bignum.obj
 0005:00000538       $unwind$mem_write          00000000000b0bf8     OpensslLib:bss_mem.obj
 0005:00000538       $unwind$witness            00000000000b0bf8     OpensslLib:bn_prime.obj
 0005:00000538       $unwind$CONF_parse_list    00000000000b0bf8     OpensslLib:conf_mod.obj
 0005:00000538       $unwind$ec_asn1_group2fieldid 00000000000b0bf8     OpensslLib:ec_asn1.obj
 0005:00000538       $unwind$EC_GROUP_new_curve_GFp 00000000000b0bf8     OpensslLib:ec_cvt.obj
 0005:00000538       $unwind$ec_key_simple_check_key 00000000000b0bf8     OpensslLib:ec_key.obj
 0005:00000538       $unwind$EC_GROUP_set_generator 00000000000b0bf8     OpensslLib:ec_lib.obj
 0005:00000538       $unwind$pkey_ec_keygen     00000000000b0bf8     OpensslLib:ec_pmeth.obj
 0005:00000538       $unwind$ecx_key_print      00000000000b0bf8     OpensslLib:ecx_meth.obj
 0005:00000538       $unwind$EVP_CipherInit_ex  00000000000b0bf8     OpensslLib:evp_enc.obj
 0005:00000538       $unwind$PKCS7_get0_signers 00000000000b0bf8     OpensslLib:pk7_smime.obj
 0005:00000538       $unwind$RSA_padding_add_PKCS1_type_2 00000000000b0bf8     OpensslLib:rsa_pk1.obj
 0005:00000538       $unwind$RSA_padding_add_SSLv23 00000000000b0bf8     OpensslLib:rsa_ssl.obj
 0005:00000538       $unwind$ec_field_size      00000000000b0bf8     OpensslLib:sm2_crypt.obj
 0005:00000538       $unwind$check_id           00000000000b0bf8     OpensslLib:x509_vfy.obj
 0005:00000538       $unwind$level_add_node     00000000000b0bf8     OpensslLib:pcy_node.obj
 0005:00000538       $unwind$copy_issuer        00000000000b0bf8     OpensslLib:v3_alt.obj
 0005:00000538       $unwind$v2i_GENERAL_NAME_ex 00000000000b0bf8     OpensslLib:v3_alt.obj
 0005:00000538       $unwind$NAME_CONSTRAINTS_check 00000000000b0bf8     OpensslLib:v3_ncons.obj
 0005:00000538       $unwind$do_i2r_name_constraints 00000000000b0bf8     OpensslLib:v3_ncons.obj
 0005:00000550       $unwind$CRYPTO_gcm128_decrypt 00000000000b0c10     OpensslLib:gcm128.obj
 0005:00000550       $unwind$CRYPTO_gcm128_encrypt 00000000000b0c10     OpensslLib:gcm128.obj
 0005:00000550       $unwind$CRYPTO_gcm128_setiv 00000000000b0c10     OpensslLib:gcm128.obj
 0005:00000550       $unwind$check_dane_pkeys   00000000000b0c10     OpensslLib:x509_vfy.obj
 0005:00000550       $unwind$check_trust        00000000000b0c10     OpensslLib:x509_vfy.obj
 0005:00000550       $unwind$tree_calculate_authority_set 00000000000b0c10     OpensslLib:pcy_tree.obj
 0005:0000056c       $unwind$check_cert         00000000000b0c2c     OpensslLib:x509_vfy.obj
 0005:00000580       $unwind$get_crl_sk         00000000000b0c40     OpensslLib:x509_vfy.obj
 0005:00000598       $unwind$check_crl_path     00000000000b0c58     OpensslLib:x509_vfy.obj
 0005:000005a8       $unwind$bn_mod_sub_fixed_top 00000000000b0c68     OpensslLib:bn_mod.obj
 0005:000005a8       $unwind$idp_check_dp       00000000000b0c68     OpensslLib:x509_vfy.obj
 0005:000005c0       $unwind$crl_crldp_check    00000000000b0c80     OpensslLib:x509_vfy.obj
 0005:000005d8       $unwind$cert_crl           00000000000b0c98     OpensslLib:x509_vfy.obj
 0005:000005d8       $unwind$check_leaf_suiteb  00000000000b0c98     OpensslLib:x509_vfy.obj
 0005:000005d8       $unwind$check_sig_alg_match 00000000000b0c98     OpensslLib:v3_purp.obj
 0005:000005e8       $unwind$c2i_ibuf           00000000000b0ca8     OpensslLib:a_int.obj
 0005:000005e8       $unwind$BIO_new            00000000000b0ca8     OpensslLib:bio_lib.obj
 0005:000005e8       $unwind$bn_expand2         00000000000b0ca8     OpensslLib:bn_lib.obj
 0005:000005e8       $unwind$BN_mod_sqr         00000000000b0ca8     OpensslLib:bn_mod.obj
 0005:000005e8       $unwind$BN_bn2hex          00000000000b0ca8     OpensslLib:bn_print.obj
 0005:000005e8       $unwind$BUF_MEM_grow       00000000000b0ca8     OpensslLib:buffer.obj
 0005:000005e8       $unwind$BUF_MEM_grow_clean 00000000000b0ca8     OpensslLib:buffer.obj
 0005:000005e8       $unwind$DH_new             00000000000b0ca8     OpensslLib:dh_lib.obj
 0005:000005e8       $unwind$d2i_ECParameters   00000000000b0ca8     OpensslLib:ec_asn1.obj
 0005:000005e8       $unwind$EC_KEY_copy        00000000000b0ca8     OpensslLib:ec_key.obj
 0005:000005e8       $unwind$EC_KEY_oct2key     00000000000b0ca8     OpensslLib:ec_key.obj
 0005:000005e8       $unwind$ec_key_simple_oct2priv 00000000000b0ca8     OpensslLib:ec_key.obj
 0005:000005e8       $unwind$EC_GROUP_copy      00000000000b0ca8     OpensslLib:ec_lib.obj
 0005:000005e8       $unwind$EC_GROUP_set_seed  00000000000b0ca8     OpensslLib:ec_lib.obj
 0005:000005e8       $unwind$EC_POINT_set_affine_coordinates 00000000000b0ca8     OpensslLib:ec_lib.obj
 0005:000005e8       $unwind$pkey_ec_ctrl       00000000000b0ca8     OpensslLib:ec_pmeth.obj
 0005:000005e8       $unwind$pkey_ec_ctrl_str   00000000000b0ca8     OpensslLib:ec_pmeth.obj
 0005:000005e8       $unwind$pkey_ec_paramgen   00000000000b0ca8     OpensslLib:ec_pmeth.obj
 0005:000005e8       $unwind$ecx_ctrl           00000000000b0ca8     OpensslLib:ecx_meth.obj
 0005:000005e8       $unwind$EVP_DigestFinalXOF 00000000000b0ca8     OpensslLib:digest.obj
 0005:000005e8       $unwind$EVP_MD_CTX_copy_ex 00000000000b0ca8     OpensslLib:digest.obj
 0005:000005e8       $unwind$aes_ccm_init_key   00000000000b0ca8     OpensslLib:e_aes.obj
 0005:000005e8       $unwind$EVP_PKEY_assign    00000000000b0ca8     OpensslLib:p_lib.obj
 0005:000005e8       $unwind$EVP_PKEY_CTX_md    00000000000b0ca8     OpensslLib:pmeth_lib.obj
 0005:000005e8       $unwind$OPENSSL_init_crypto 00000000000b0ca8     OpensslLib:init.obj
 0005:000005e8       $unwind$pkey_hkdf_ctrl_str 00000000000b0ca8     OpensslLib:hkdf.obj
 0005:000005e8       $unwind$pkey_tls1_prf_ctrl_str 00000000000b0ca8     OpensslLib:tls1_prf.obj
 0005:000005e8       $unwind$OPENSSL_hexstr2buf 00000000000b0ca8     OpensslLib:o_str.obj
 0005:000005e8       $unwind$PKCS7_bio_add_digest 00000000000b0ca8     OpensslLib:pk7_doit.obj
 0005:000005e8       $unwind$PKCS7_find_digest  00000000000b0ca8     OpensslLib:pk7_doit.obj
 0005:000005e8       $unwind$rsa_param_decode   00000000000b0ca8     OpensslLib:rsa_ameth.obj
 0005:000005e8       $unwind$pkey_sm2_copy      00000000000b0ca8     OpensslLib:sm2_pmeth.obj
 0005:000005e8       $unwind$pkey_sm2_ctrl_str  00000000000b0ca8     OpensslLib:sm2_pmeth.obj
 0005:000005e8       $unwind$pkey_sm2_encrypt   00000000000b0ca8     OpensslLib:sm2_pmeth.obj
 0005:000005e8       $unwind$check_policy       00000000000b0ca8     OpensslLib:x509_vfy.obj
 0005:000005e8       $unwind$X509_NAME_ENTRY_create_by_OBJ 00000000000b0ca8     OpensslLib:x509name.obj
 0005:000005e8       $unwind$x509_pubkey_decode 00000000000b0ca8     OpensslLib:x_pubkey.obj
 0005:000005e8       $unwind$i2s_ASN1_ENUMERATED_TABLE 00000000000b0ca8     OpensslLib:v3_enum.obj
 0005:000005e8       $unwind$i2r_NAME_CONSTRAINTS 00000000000b0ca8     OpensslLib:v3_ncons.obj
 0005:000005e8       $unwind$i2r_pci            00000000000b0ca8     OpensslLib:v3_pci.obj
 0005:000005e8       $unwind$bignum_to_string   00000000000b0ca8     OpensslLib:v3_utl.obj
 0005:000005f8       $unwind$X509_cmp_time      00000000000b0cb8     OpensslLib:x509_vfy.obj
 0005:00000608       $unwind$bn_mod_add_fixed_top 00000000000b0cc8     OpensslLib:bn_mod.obj
 0005:00000608       $unwind$dane_match         00000000000b0cc8     OpensslLib:x509_vfy.obj
 0005:00000624       $unwind$build_chain        00000000000b0ce4     OpensslLib:x509_vfy.obj
 0005:0000063c       $unwind$x509_cb            00000000000b0cfc     OpensslLib:x_x509.obj
 0005:00000650       $unwind$ctrl               00000000000b0d10     OpensslLib:m_sha1.obj
 0005:00000660       $unwind$ERR_STATE_free     00000000000b0d20     OpensslLib:err.obj
 0005:00000660       $unwind$OPENSSL_sk_pop_free 00000000000b0d20     OpensslLib:stack.obj
 0005:00000674       $unwind$bio_call_callback  00000000000b0d34     OpensslLib:bio_lib.obj
 0005:00000674       $unwind$aes_cfb8_cipher    00000000000b0d34     OpensslLib:e_aes.obj
 0005:00000674       $unwind$X509V3_get_value_bool 00000000000b0d34     OpensslLib:v3_utl.obj
 0005:00000684       $unwind$BIO_ctrl           00000000000b0d44     OpensslLib:bio_lib.obj
 0005:00000684       $unwind$bio_read_intern    00000000000b0d44     OpensslLib:bio_lib.obj
 0005:00000684       $unwind$bio_write_intern   00000000000b0d44     OpensslLib:bio_lib.obj
 0005:00000684       $unwind$ossl_ecdsa_verify  00000000000b0d44     OpensslLib:ecdsa_ossl.obj
 0005:00000684       $unwind$rand_drbg_get_nonce 00000000000b0d44     OpensslLib:rand_lib.obj
 0005:00000698       $unwind$BIO_puts           00000000000b0d58     OpensslLib:bio_lib.obj
 0005:000006a8       $unwind$BIO_callback_ctrl  00000000000b0d68     OpensslLib:bio_lib.obj
 0005:000006b0       $unwind$ASN1_STRING_free   00000000000b0d70     OpensslLib:asn1_lib.obj
 0005:000006b0       $unwind$BIO_free_all       00000000000b0d70     OpensslLib:bio_lib.obj
 0005:000006b0       $unwind$BN_free            00000000000b0d70     OpensslLib:bn_lib.obj
 0005:000006b0       $unwind$BUF_MEM_free       00000000000b0d70     OpensslLib:buffer.obj
 0005:000006b0       $unwind$EC_ec_pre_comp_free 00000000000b0d70     OpensslLib:ec_mult.obj
 0005:000006b0       $unwind$HMAC_CTX_free      00000000000b0d70     OpensslLib:hmac.obj
 0005:000006b0       $unwind$rand_pool_free     00000000000b0d70     OpensslLib:rand_lib.obj
 0005:000006b0       $unwind$x509_name_ex_free  00000000000b0d70     OpensslLib:x_name.obj
 0005:000006b0       $unwind$i2v_ASN1_BIT_STRING 00000000000b0d70     OpensslLib:v3_bitst.obj
 0005:000006bc       $unwind$BN_div_recp        00000000000b0d7c     OpensslLib:bn_recp.obj
 0005:000006bc       $unwind$PKCS7_verify       00000000000b0d7c     OpensslLib:pk7_smime.obj
 0005:000006d4       $unwind$c2i_uint64_int     00000000000b0d94     OpensslLib:a_int.obj
 0005:000006d4       $unwind$OBJ_NAME_get       00000000000b0d94     OpensslLib:o_names.obj
 0005:000006d4       $unwind$equal_wildcard     00000000000b0d94     OpensslLib:v3_utl.obj
 0005:000006ec       $unwind$uint32_i2c         00000000000b0dac     OpensslLib:x_int64.obj
 0005:000006ec       $unwind$X509_verify        00000000000b0dac     OpensslLib:x_all.obj
 0005:000006fc       $unwind$asn1_time_from_tm  00000000000b0dbc     OpensslLib:a_time.obj
 0005:000006fc       $unwind$OBJ_add_object     00000000000b0dbc     OpensslLib:obj_dat.obj
 0005:00000714       $unwind$OBJ_nid2ln         00000000000b0dd4     OpensslLib:obj_dat.obj
 0005:00000714       $unwind$OBJ_nid2obj        00000000000b0dd4     OpensslLib:obj_dat.obj
 0005:00000714       $unwind$OBJ_nid2sn         00000000000b0dd4     OpensslLib:obj_dat.obj
 0005:0000071c       $unwind$OBJ_obj2nid        00000000000b0ddc     OpensslLib:obj_dat.obj
 0005:00000724       $unwind$OBJ_txt2obj        00000000000b0de4     OpensslLib:obj_dat.obj
 0005:00000724       $unwind$sxnet_v2i          00000000000b0de4     OpensslLib:v3_sxnet.obj
 0005:00000738       $unwind$CRYPTO_ccm128_decrypt_ccm64 00000000000b0df8     OpensslLib:ccm128.obj
 0005:00000738       $unwind$CRYPTO_ccm128_encrypt_ccm64 00000000000b0df8     OpensslLib:ccm128.obj
 0005:00000738       $unwind$OBJ_obj2txt        00000000000b0df8     OpensslLib:obj_dat.obj
 0005:00000750       $unwind$OBJ_ln2nid         00000000000b0e10     OpensslLib:obj_dat.obj
 0005:00000750       $unwind$OBJ_sn2nid         00000000000b0e10     OpensslLib:obj_dat.obj
 0005:00000758       $unwind$x509_name_ex_d2i   00000000000b0e18     OpensslLib:x_name.obj
 0005:00000774       $unwind$x509_name_encode   00000000000b0e34     OpensslLib:x_name.obj
 0005:0000078c       $unwind$x509_name_canon    00000000000b0e4c     OpensslLib:x_name.obj
 0005:000007a4       $unwind$asn1_string_canon  00000000000b0e64     OpensslLib:x_name.obj
 0005:000007b4       $unwind$BN_BLINDING_create_param 00000000000b0e74     OpensslLib:bn_blind.obj
 0005:000007b4       $unwind$pkey_dh_derive     00000000000b0e74     OpensslLib:dh_pmeth.obj
 0005:000007b4       $unwind$aes_wrap_cipher    00000000000b0e74     OpensslLib:e_aes.obj
 0005:000007b4       $unwind$RAND_DRBG_reseed   00000000000b0e74     OpensslLib:drbg_lib.obj
 0005:000007b4       $unwind$i2d_name_canon     00000000000b0e74     OpensslLib:x_name.obj
 0005:000007b4       $unwind$do_check_string    00000000000b0e74     OpensslLib:v3_utl.obj
 0005:000007c8       $unwind$X509_NAME_print    00000000000b0e88     OpensslLib:x_name.obj
 0005:000007e0       $unwind$X509v3_get_ext_by_OBJ 00000000000b0ea0     OpensslLib:x509_v3.obj
 0005:000007e0       $unwind$X509_NAME_get_index_by_OBJ 00000000000b0ea0     OpensslLib:x509name.obj
 0005:000007f4       $unwind$CRYPTO_128_wrap_pad 00000000000b0eb4     OpensslLib:wrap128.obj
 0005:000007f4       $unwind$RAND_DRBG_generate 00000000000b0eb4     OpensslLib:drbg_lib.obj
 0005:000007f4       $unwind$X509_NAME_add_entry 00000000000b0eb4     OpensslLib:x509name.obj
 0005:00000810       $unwind$i2c_ibuf           00000000000b0ed0     OpensslLib:a_int.obj
 0005:00000810       $unwind$ASN1_put_object    00000000000b0ed0     OpensslLib:asn1_lib.obj
 0005:00000810       $unwind$make_kn            00000000000b0ed0     OpensslLib:cmac.obj
 0005:00000810       $unwind$gf_mulw_unsigned   00000000000b0ed0     OpensslLib:f_impl.obj
 0005:00000810       $unwind$sc_subx            00000000000b0ed0     OpensslLib:scalar.obj
 0005:00000810       $unwind$gcm_gmult_4bit     00000000000b0ed0     OpensslLib:gcm128.obj
 0005:00000810       $unwind$julian_to_date     00000000000b0ed0     OpensslLib:o_time.obj
 0005:00000810       $unwind$SipHash_Final      00000000000b0ed0     OpensslLib:siphash.obj
 0005:00000820       $unwind$do_esc_char        00000000000b0ee0     OpensslLib:a_strex.obj
 0005:00000828       $unwind$do_buf             00000000000b0ee8     OpensslLib:a_strex.obj
 0005:00000840       $unwind$do_hex_dump        00000000000b0f00     OpensslLib:a_strex.obj
 0005:00000854       $unwind$do_dump            00000000000b0f14     OpensslLib:a_strex.obj
 0005:00000864       $unwind$do_print_ex        00000000000b0f24     OpensslLib:a_strex.obj
 0005:0000087c       $unwind$do_indent          00000000000b0f3c     OpensslLib:a_strex.obj
 0005:0000088c       $unwind$do_name_ex         00000000000b0f4c     OpensslLib:a_strex.obj
 0005:000008a8       $unwind$ASN1_STRING_to_UTF8 00000000000b0f68     OpensslLib:a_strex.obj
 0005:000008a8       $unwind$ASN1_item_d2i      00000000000b0f68     OpensslLib:tasn_dec.obj
 0005:000008b0       $unwind$sha256_block_data_order 00000000000b0f70     OpensslLib:sha256.obj
 0005:000008c8       $unwind$stbl_module_init   00000000000b0f88     OpensslLib:asn_mstbl.obj
 0005:000008c8       $unwind$ASN1_item_ex_d2i   00000000000b0f88     OpensslLib:tasn_dec.obj
 0005:000008c8       $unwind$ctr_BCC_blocks     00000000000b0f88     OpensslLib:drbg_ctr.obj
 0005:000008d8       $unwind$asn1_item_embed_d2i 00000000000b0f98     OpensslLib:tasn_dec.obj
 0005:000008f0       $unwind$asn1_template_ex_d2i 00000000000b0fb0     OpensslLib:tasn_dec.obj
 0005:00000908       $unwind$asn1_template_noexp_d2i 00000000000b0fc8     OpensslLib:tasn_dec.obj
 0005:00000920       $unwind$asn1_d2i_ex_primitive 00000000000b0fe0     OpensslLib:tasn_dec.obj
 0005:00000940       $unwind$asn1_ex_c2i        00000000000b1000     OpensslLib:tasn_dec.obj
 0005:00000940       $unwind$ec_GFp_simple_point2oct 00000000000b1000     OpensslLib:ecp_oct.obj
 0005:00000940       $unwind$ec_GFp_simple_set_compressed_coordinates 00000000000b1000     OpensslLib:ecp_oct.obj
 0005:00000940       $unwind$pkey_rsa_print     00000000000b1000     OpensslLib:rsa_ameth.obj
 0005:0000095c       $unwind$asn1_find_end      00000000000b101c     OpensslLib:tasn_dec.obj
 0005:0000096c       $unwind$asn1_collect       00000000000b102c     OpensslLib:tasn_dec.obj
 0005:00000984       $unwind$asn1_primitive_new 00000000000b1044     OpensslLib:tasn_new.obj
 0005:00000998       $unwind$c2i_ASN1_INTEGER   00000000000b1058     OpensslLib:a_int.obj
 0005:000009ac       $unwind$asn1_string_get_int64 00000000000b106c     OpensslLib:a_int.obj
 0005:000009ac       $unwind$ec_pkey_ctrl       00000000000b106c     OpensslLib:ec_ameth.obj
 0005:000009bc       $unwind$ASN1_buf_print     00000000000b107c     OpensslLib:t_pkey.obj
 0005:000009bc       $unwind$X509at_get_attr_by_OBJ 00000000000b107c     OpensslLib:x509_att.obj
 0005:000009d0       $unwind$asn1_item_embed_free 00000000000b1090     OpensslLib:tasn_fre.obj
 0005:000009e8       $unwind$asn1_template_free 00000000000b10a8     OpensslLib:tasn_fre.obj
 0005:000009fc       $unwind$asn1_item_flags_i2d 00000000000b10bc     OpensslLib:tasn_enc.obj
 0005:00000a10       $unwind$ASN1_item_ex_i2d   00000000000b10d0     OpensslLib:tasn_enc.obj
 0005:00000a2c       $unwind$asn1_template_ex_i2d 00000000000b10ec     OpensslLib:tasn_enc.obj
 0005:00000a48       $unwind$asn1_set_seq_out   00000000000b1108     OpensslLib:tasn_enc.obj
 0005:00000a48       $unwind$BN_generate_prime_ex 00000000000b1108     OpensslLib:bn_prime.obj
 0005:00000a48       $unwind$rsa_ossl_private_encrypt 00000000000b1108     OpensslLib:rsa_ossl.obj
 0005:00000a60       $unwind$asn1_i2d_ex_primitive 00000000000b1120     OpensslLib:tasn_enc.obj
 0005:00000a78       $unwind$ERR_get_state      00000000000b1138     OpensslLib:err.obj
 0005:00000a8c       $unwind$ERR_add_error_data 00000000000b114c     OpensslLib:err.obj
 0005:00000aa0       $unwind$determine_days     00000000000b1160     OpensslLib:a_time.obj
 0005:00000aa0       $unwind$BN_rshift1         00000000000b1160     OpensslLib:bn_shift.obj
 0005:00000aa0       $unwind$int_x509_param_set1 00000000000b1160     OpensslLib:x509_vpm.obj
 0005:00000ab4       $unwind$X509_VERIFY_PARAM_lookup 00000000000b1174     OpensslLib:x509_vpm.obj
 0005:00000ac0       $unwind$crl_cb             00000000000b1180     OpensslLib:x_crl.obj
 0005:00000ad8       $unwind$def_crl_lookup     00000000000b1198     OpensslLib:x_crl.obj
 0005:00000af0       $unwind$get_and_lock       00000000000b11b0     OpensslLib:ex_data.obj
 0005:00000af8       $unwind$CRYPTO_new_ex_data 00000000000b11b8     OpensslLib:ex_data.obj
 0005:00000b10       $unwind$CRYPTO_dup_ex_data 00000000000b11d0     OpensslLib:ex_data.obj
 0005:00000b2c       $unwind$CRYPTO_free_ex_data 00000000000b11ec     OpensslLib:ex_data.obj
 0005:00000b48       $unwind$ECDSA_size         00000000000b1208     OpensslLib:ec_asn1.obj
 0005:00000b48       $unwind$EC_GROUP_new_by_curve_name 00000000000b1208     OpensslLib:ec_curve.obj
 0005:00000b48       $unwind$X509_TRUST_get_by_id 00000000000b1208     OpensslLib:x509_trs.obj
 0005:00000b48       $unwind$X509_PURPOSE_get_by_id 00000000000b1208     OpensslLib:v3_purp.obj
 0005:00000b50       $unwind$x509v3_cache_extensions 00000000000b1210     OpensslLib:v3_purp.obj
 0005:00000b68       $unwind$X509_NAME_oneline  00000000000b1228     OpensslLib:x509_obj.obj
 0005:00000b84       $unwind$DH_free            00000000000b1244     OpensslLib:dh_lib.obj
 0005:00000b84       $unwind$EC_KEY_free        00000000000b1244     OpensslLib:ec_key.obj
 0005:00000b84       $unwind$RSA_free           00000000000b1244     OpensslLib:rsa_lib.obj
 0005:00000b8c       $unwind$eckey_param2type   00000000000b124c     OpensslLib:ec_ameth.obj
 0005:00000b8c       $unwind$EC_KEY_priv2buf    00000000000b124c     OpensslLib:ec_key.obj
 0005:00000b8c       $unwind$CRYPTO_gcm128_init 00000000000b124c     OpensslLib:gcm128.obj
 0005:00000ba0       $unwind$CMAC_CTX_free      00000000000b1260     OpensslLib:cmac.obj
 0005:00000ba0       $unwind$EC_GROUP_clear_free 00000000000b1260     OpensslLib:ec_lib.obj
 0005:00000bac       $unwind$EC_GROUP_cmp       00000000000b126c     OpensslLib:ec_lib.obj
 0005:00000bc4       $unwind$EC_POINT_mul       00000000000b1284     OpensslLib:ec_lib.obj
 0005:00000bdc       $unwind$asn1_time_to_tm    00000000000b129c     OpensslLib:a_time.obj
 0005:00000bf4       $unwind$ASN1_TIME_adj      00000000000b12b4     OpensslLib:a_time.obj
 0005:00000bfc       $unwind$ASN1_TIME_diff     00000000000b12bc     OpensslLib:a_time.obj
 0005:00000c10       $unwind$ASN1_TIME_print    00000000000b12d0     OpensslLib:a_time.obj
 0005:00000c28       $unwind$s2i_ASN1_INTEGER   00000000000b12e8     OpensslLib:v3_utl.obj
 0005:00000c38       $unwind$OBJ_find_sigid_algs 00000000000b12f8     OpensslLib:obj_xref.obj
 0005:00000c38       $unwind$drbg_ctr_reseed    00000000000b12f8     OpensslLib:drbg_ctr.obj
 0005:00000c38       $unwind$X509V3_get_value_int 00000000000b12f8     OpensslLib:v3_utl.obj
 0005:00000c44       $unwind$bn_print           00000000000b1304     OpensslLib:x_bignum.obj
 0005:00000c44       $unwind$X509V3_parse_list  00000000000b1304     OpensslLib:v3_utl.obj
 0005:00000c5c       $unwind$wildcard_match     00000000000b131c     OpensslLib:v3_utl.obj
 0005:00000c78       $unwind$BN_is_prime_fasttest_ex 00000000000b1338     OpensslLib:bn_prime.obj
 0005:00000c78       $unwind$BN_mod_sqrt        00000000000b1338     OpensslLib:bn_sqrt.obj
 0005:00000c78       $unwind$do_x509_check      00000000000b1338     OpensslLib:v3_utl.obj
 0005:00000c90       $unwind$a2i_IPADDRESS_NC   00000000000b1350     OpensslLib:v3_utl.obj
 0005:00000ca4       $unwind$ipv4_from_asc      00000000000b1364     OpensslLib:v3_utl.obj
 0005:00000cac       $unwind$ipv6_from_asc      00000000000b136c     OpensslLib:v3_utl.obj
 0005:00000cbc       $unwind$RSA_check_key_ex   00000000000b137c     OpensslLib:rsa_chk.obj
 0005:00000cbc       $unwind$tree_init          00000000000b137c     OpensslLib:pcy_tree.obj
 0005:00000cd4       $unwind$rsa_ossl_public_encrypt 00000000000b1394     OpensslLib:rsa_ossl.obj
 0005:00000cd4       $unwind$RSA_padding_add_PKCS1_PSS_mgf1 00000000000b1394     OpensslLib:rsa_pss.obj
 0005:00000cd4       $unwind$tree_link_nodes    00000000000b1394     OpensslLib:pcy_tree.obj
 0005:00000cec       $unwind$CRYPTO_ccm128_decrypt 00000000000b13ac     OpensslLib:ccm128.obj
 0005:00000cec       $unwind$tree_link_any      00000000000b13ac     OpensslLib:pcy_tree.obj
 0005:00000d04       $unwind$c2i_ASN1_OBJECT    00000000000b13c4     OpensslLib:a_object.obj
 0005:00000d04       $unwind$BN_nist_mod_256    00000000000b13c4     OpensslLib:bn_nist.obj
 0005:00000d04       $unwind$ec_GFp_simple_dbl  00000000000b13c4     OpensslLib:ecp_smpl.obj
 0005:00000d04       $unwind$tree_calculate_user_set 00000000000b13c4     OpensslLib:pcy_tree.obj
 0005:00000d20       $unwind$X509_policy_tree_free 00000000000b13e0     OpensslLib:pcy_tree.obj
 0005:00000d30       $unwind$X509_policy_check  00000000000b13f0     OpensslLib:pcy_tree.obj
 0005:00000d48       $unwind$v2i_NAME_CONSTRAINTS 00000000000b1408     OpensslLib:v3_ncons.obj
 0005:00000d60       $unwind$NAME_CONSTRAINTS_check_CN 00000000000b1420     OpensslLib:v3_ncons.obj
 0005:00000d78       $unwind$set_dist_point_name 00000000000b1438     OpensslLib:v3_crld.obj
 0005:00000d90       $unwind$c2i_ASN1_BIT_STRING 00000000000b1450     OpensslLib:a_bitstr.obj
 0005:00000d90       $unwind$v2i_crld           00000000000b1450     OpensslLib:v3_crld.obj
 0005:00000dac       $unwind$ASN1_item_verify   00000000000b146c     OpensslLib:a_verify.obj
 0005:00000dac       $unwind$ASN1_bn_print      00000000000b146c     OpensslLib:t_pkey.obj
 0005:00000dac       $unwind$aes_cfb1_cipher    00000000000b146c     OpensslLib:e_aes.obj
 0005:00000dac       $unwind$aria_128_ofb_cipher 00000000000b146c     OpensslLib:e_aria.obj
 0005:00000dac       $unwind$aria_192_ofb_cipher 00000000000b146c     OpensslLib:e_aria.obj
 0005:00000dac       $unwind$aria_256_ofb_cipher 00000000000b146c     OpensslLib:e_aria.obj
 0005:00000dac       $unwind$sm4_ofb_cipher     00000000000b146c     OpensslLib:e_sm4.obj
 0005:00000dac       $unwind$tls1_prf_alg       00000000000b146c     OpensslLib:tls1_prf.obj
 0005:00000dac       $unwind$int_rsa_verify     00000000000b146c     OpensslLib:rsa_sign.obj
 0005:00000dac       $unwind$policy_cache_set_mapping 00000000000b146c     OpensslLib:pcy_map.obj
 0005:00000dac       $unwind$policy_section     00000000000b146c     OpensslLib:v3_cpols.obj
 0005:00000dac       $unwind$r2i_certpol        00000000000b146c     OpensslLib:v3_cpols.obj
 0005:00000dac       $unwind$v2i_idp            00000000000b146c     OpensslLib:v3_crld.obj
 0005:00000dac       $unwind$v2i_POLICY_MAPPINGS 00000000000b146c     OpensslLib:v3_pmaps.obj
 0005:00000dac       $unwind$v2i_TLS_FEATURE    00000000000b146c     OpensslLib:v3_tlsf.obj
 0005:00000dc8       $unwind$print_distpoint    00000000000b1488     OpensslLib:v3_crld.obj
 0005:00000dd0       $unwind$DIST_POINT_set_dpname 00000000000b1490     OpensslLib:v3_crld.obj
 0005:00000de4       $unwind$policy_cache_create 00000000000b14a4     OpensslLib:pcy_cache.obj
 0005:00000e00       $unwind$policy_cache_new   00000000000b14c0     OpensslLib:pcy_cache.obj
 0005:00000e14       $unwind$pkcs7_encode_rinfo 00000000000b14d4     OpensslLib:pk7_doit.obj
 0005:00000e30       $unwind$PKCS7_dataInit     00000000000b14f0     OpensslLib:pk7_doit.obj
 0005:00000e4c       $unwind$do_pkcs7_signed_attrib 00000000000b150c     OpensslLib:pk7_doit.obj
 0005:00000e60       $unwind$ec_curve_nid_from_params 00000000000b1520     OpensslLib:ec_curve.obj
 0005:00000e60       $unwind$PKCS7_dataFinal    00000000000b1520     OpensslLib:pk7_doit.obj
 0005:00000e78       $unwind$PKCS7_SIGNER_INFO_sign 00000000000b1538     OpensslLib:pk7_doit.obj
 0005:00000e8c       $unwind$PKCS7_signatureVerify 00000000000b154c     OpensslLib:pk7_doit.obj
 0005:00000ea8       $unwind$ossl_init_get_thread_local 00000000000b1568     OpensslLib:init.obj
 0005:00000eb0       $unwind$OBJ_find_sigid_by_algs 00000000000b1570     OpensslLib:obj_xref.obj
 0005:00000eb8       $unwind$int_ctx_new        00000000000b1578     OpensslLib:pmeth_lib.obj
 0005:00000ecc       $unwind$OPENSSL_LH_insert  00000000000b158c     OpensslLib:lhash.obj
 0005:00000ee0       $unwind$UTF8_getc          00000000000b15a0     OpensslLib:a_utf8.obj
 0005:00000ee0       $unwind$bn_add_words       00000000000b15a0     OpensslLib:bn_asm.obj
 0005:00000ee0       $unwind$MOD_EXP_CTIME_COPY_TO_PREBUF 00000000000b15a0     OpensslLib:bn_exp.obj
 0005:00000ee0       $unwind$cmov               00000000000b15a0     OpensslLib:curve25519.obj
 0005:00000ee0       $unwind$OPENSSL_LH_strhash 00000000000b15a0     OpensslLib:lhash.obj
 0005:00000ee0       $unwind$ctr_XOR            00000000000b15a0     OpensslLib:drbg_ctr.obj
 0005:00000ee8       $unwind$EC_GROUP_get_ecparameters 00000000000b15a8     OpensslLib:ec_asn1.obj
 0005:00000ef8       $unwind$d2i_ECPKParameters 00000000000b15b8     OpensslLib:ec_asn1.obj
 0005:00000ef8       $unwind$d2i_ECPrivateKey   00000000000b15b8     OpensslLib:ec_asn1.obj
 0005:00000f08       $unwind$i2d_ECPrivateKey   00000000000b15c8     OpensslLib:ec_asn1.obj
 0005:00000f20       $unwind$i2d_ECParameters   00000000000b15e0     OpensslLib:ec_asn1.obj
 0005:00000f30       $unwind$ASN1_item_i2d_bio  00000000000b15f0     OpensslLib:a_i2d_fp.obj
 0005:00000f40       $unwind$RSA_new_method     00000000000b1600     OpensslLib:rsa_lib.obj
 0005:00000f4c       $unwind$md5_block_data_order 00000000000b160c     OpensslLib:md5_dgst.obj
 0005:00000f64       $unwind$BN_dec2bn          00000000000b1624     OpensslLib:bn_print.obj
 0005:00000f7c       $unwind$aria_encrypt       00000000000b163c     OpensslLib:aria.obj
 0005:00000f7c       $unwind$bn2binpad          00000000000b163c     OpensslLib:bn_lib.obj
 0005:00000f7c       $unwind$aria_128_cfb1_cipher 00000000000b163c     OpensslLib:e_aria.obj
 0005:00000f7c       $unwind$aria_128_cfb8_cipher 00000000000b163c     OpensslLib:e_aria.obj
 0005:00000f7c       $unwind$aria_192_cfb1_cipher 00000000000b163c     OpensslLib:e_aria.obj
 0005:00000f7c       $unwind$aria_192_cfb8_cipher 00000000000b163c     OpensslLib:e_aria.obj
 0005:00000f7c       $unwind$aria_256_cfb1_cipher 00000000000b163c     OpensslLib:e_aria.obj
 0005:00000f7c       $unwind$aria_256_cfb8_cipher 00000000000b163c     OpensslLib:e_aria.obj
 0005:00000f7c       $unwind$pkey_rsa_encrypt   00000000000b163c     OpensslLib:rsa_pmeth.obj
 0005:00000f7c       $unwind$RSA_sign           00000000000b163c     OpensslLib:rsa_sign.obj
 0005:00000f7c       $unwind$a2i_GENERAL_NAME   00000000000b163c     OpensslLib:v3_alt.obj
 0005:00000f7c       $unwind$v2i_EXTENDED_KEY_USAGE 00000000000b163c     OpensslLib:v3_extku.obj
 0005:00000f94       $unwind$BN_consttime_swap  00000000000b1654     OpensslLib:bn_lib.obj
 0005:00000fa0       $unwind$a2d_ASN1_OBJECT    00000000000b1660     OpensslLib:a_object.obj
 0005:00000fb8       $unwind$i2a_ASN1_OBJECT    00000000000b1678     OpensslLib:a_object.obj
 0005:00000fcc       $unwind$d2i_ASN1_OBJECT    00000000000b168c     OpensslLib:a_object.obj
 0005:00000fd4       $unwind$EVP_PKEY_asn1_find 00000000000b1694     OpensslLib:ameth_lib.obj
 0005:00000fe0       $unwind$CMAC_Init          00000000000b16a0     OpensslLib:cmac.obj
 0005:00000ff8       $unwind$ASN1_STRING_set_by_NID 00000000000b16b8     OpensslLib:a_strnid.obj
 0005:00000ff8       $unwind$aes_cfb_cipher     00000000000b16b8     OpensslLib:e_aes.obj
 0005:00000ff8       $unwind$aes_ofb_cipher     00000000000b16b8     OpensslLib:e_aes.obj
 0005:00000ff8       $unwind$aria_ctr_cipher    00000000000b16b8     OpensslLib:e_aria.obj
 0005:00000ff8       $unwind$sm4_ctr_cipher     00000000000b16b8     OpensslLib:e_sm4.obj
 0005:00001004       $unwind$ASN1_STRING_TABLE_get 00000000000b16c4     OpensslLib:a_strnid.obj
 0005:0000100c       $unwind$ASN1_STRING_print  00000000000b16cc     OpensslLib:a_print.obj
 0005:00001020       $unwind$ASN1_mbstring_ncopy 00000000000b16e0     OpensslLib:a_mbstr.obj
 0005:00001038       $unwind$traverse_string    00000000000b16f8     OpensslLib:a_mbstr.obj
 0005:00001038       $unwind$md_read            00000000000b16f8     OpensslLib:bio_md.obj
 0005:0000104c       $unwind$uint32_c2i         00000000000b170c     OpensslLib:x_int64.obj
 0005:00001060       $unwind$ASN1_TYPE_set      00000000000b1720     OpensslLib:a_type.obj
 0005:0000106c       $unwind$evp_EncryptDecryptUpdate 00000000000b172c     OpensslLib:evp_enc.obj
 0005:00001088       $unwind$dh_priv_encode     00000000000b1748     OpensslLib:dh_ameth.obj
 0005:00001088       $unwind$aria_128_cfb128_cipher 00000000000b1748     OpensslLib:e_aria.obj
 0005:00001088       $unwind$aria_192_cfb128_cipher 00000000000b1748     OpensslLib:e_aria.obj
 0005:00001088       $unwind$aria_256_cfb128_cipher 00000000000b1748     OpensslLib:e_aria.obj
 0005:00001088       $unwind$sm4_cfb128_cipher  00000000000b1748     OpensslLib:e_sm4.obj
 0005:00001088       $unwind$v2i_BASIC_CONSTRAINTS 00000000000b1748     OpensslLib:v3_bcons.obj
 0005:00001088       $unwind$v2i_POLICY_CONSTRAINTS 00000000000b1748     OpensslLib:v3_pcons.obj
 0005:0000109c       $unwind$BN_CTX_free        00000000000b175c     OpensslLib:bn_ctx.obj
 0005:000010ac       $unwind$ec_group_new_from_data 00000000000b176c     OpensslLib:ec_curve.obj
 0005:000010c4       $unwind$bn_compute_wNAF    00000000000b1784     OpensslLib:bn_intern.obj
 0005:000010dc       $unwind$bnrand             00000000000b179c     OpensslLib:bn_rand.obj
 0005:000010f4       $unwind$BN_generate_dsa_nonce 00000000000b17b4     OpensslLib:bn_rand.obj
 0005:00001114       $unwind$BN_mod_mul         00000000000b17d4     OpensslLib:bn_mod.obj
 0005:00001114       $unwind$bn_mul_mont_fixed_top 00000000000b17d4     OpensslLib:bn_mont.obj
 0005:0000112c       $unwind$bn_from_montgomery_word 00000000000b17ec     OpensslLib:bn_mont.obj
 0005:00001144       $unwind$BN_MONT_CTX_set    00000000000b1804     OpensslLib:bn_mont.obj
 0005:00001160       $unwind$ec_scalar_mul_ladder 00000000000b1820     OpensslLib:ec_mult.obj
 0005:00001160       $unwind$ec_GFp_simple_ladder_post 00000000000b1820     OpensslLib:ecp_smpl.obj
 0005:00001160       $unwind$ec_GFp_simple_points_make_affine 00000000000b1820     OpensslLib:ecp_smpl.obj
 0005:00001178       $unwind$ec_wNAF_mul        00000000000b1838     OpensslLib:ec_mult.obj
 0005:00001194       $unwind$bn_div_fixed_top   00000000000b1854     OpensslLib:bn_div.obj
 0005:000011ac       $unwind$BN_mod_exp_recp    00000000000b186c     OpensslLib:bn_exp.obj
 0005:000011c8       $unwind$BN_mod_exp_mont    00000000000b1888     OpensslLib:bn_exp.obj
 0005:000011e8       $unwind$MOD_EXP_CTIME_COPY_FROM_PREBUF 00000000000b18a8     OpensslLib:bn_exp.obj
 0005:00001200       $unwind$BN_mod_exp_mont_consttime 00000000000b18c0     OpensslLib:bn_exp.obj
 0005:00001200       $unwind$bn_mod_inverse_no_branch 00000000000b18c0     OpensslLib:bn_gcd.obj
 0005:00001218       $unwind$BN_mod_exp_mont_word 00000000000b18d8     OpensslLib:bn_exp.obj
 0005:00001218       $unwind$ec_GFp_simple_ladder_step 00000000000b18d8     OpensslLib:ecp_smpl.obj
 0005:00001230       $unwind$OPENSSL_gmtime_adj 00000000000b18f0     OpensslLib:o_time.obj
 0005:00001238       $unwind$OPENSSL_gmtime_diff 00000000000b18f8     OpensslLib:o_time.obj
 0005:00001248       $unwind$bn_sub_words       00000000000b1908     OpensslLib:bn_asm.obj
 0005:00001248       $unwind$curve448_scalar_halve 00000000000b1908     OpensslLib:scalar.obj
 0005:00001248       $unwind$julian_adj         00000000000b1908     OpensslLib:o_time.obj
 0005:00001254       $unwind$i2v_AUTHORITY_INFO_ACCESS 00000000000b1914     OpensslLib:v3_info.obj
 0005:00001270       $unwind$v2i_AUTHORITY_INFO_ACCESS 00000000000b1930     OpensslLib:v3_info.obj
 0005:0000128c       $unwind$X509V3_EXT_get_nid 00000000000b194c     OpensslLib:v3_lib.obj
 0005:00001298       $unwind$i2v_GENERAL_NAME   00000000000b1958     OpensslLib:v3_alt.obj
 0005:000012a8       $unwind$notice_section     00000000000b1968     OpensslLib:v3_cpols.obj
 0005:000012c0       $unwind$BN_gcd             00000000000b1980     OpensslLib:bn_gcd.obj
 0005:000012c0       $unwind$ec_GFp_simple_oct2point 00000000000b1980     OpensslLib:ecp_oct.obj
 0005:000012c0       $unwind$ec_GFp_simple_ladder_pre 00000000000b1980     OpensslLib:ecp_smpl.obj
 0005:000012c0       $unwind$CRYPTO_ctr128_encrypt_ctr32 00000000000b1980     OpensslLib:ctr128.obj
 0005:000012c0       $unwind$print_qualifiers   00000000000b1980     OpensslLib:v3_cpols.obj
 0005:000012d8       $unwind$rand_drbg_get_entropy 00000000000b1998     OpensslLib:rand_lib.obj
 0005:000012ec       $unwind$enc_read           00000000000b19ac     OpensslLib:bio_enc.obj
 0005:000012ec       $unwind$v2i_AUTHORITY_KEYID 00000000000b19ac     OpensslLib:v3_akey.obj
 0005:00001304       $unwind$enc_ctrl           00000000000b19c4     OpensslLib:bio_enc.obj
 0005:00001304       $unwind$rsa_pss_get_param  00000000000b19c4     OpensslLib:rsa_ameth.obj
 0005:0000131c       $unwind$do_sigver_init     00000000000b19dc     OpensslLib:m_sigver.obj
 0005:00001330       $unwind$EVP_DigestSignFinal 00000000000b19f0     OpensslLib:m_sigver.obj
 0005:00001330       $unwind$EVP_DigestVerifyFinal 00000000000b19f0     OpensslLib:m_sigver.obj
 0005:00001330       $unwind$EVP_VerifyFinal    00000000000b19f0     OpensslLib:p_verify.obj
 0005:00001348       $unwind$md_write           00000000000b1a08     OpensslLib:bio_md.obj
 0005:00001348       $unwind$rsa_sig_print      00000000000b1a08     OpensslLib:rsa_ameth.obj
 0005:0000135c       $unwind$EVP_SignFinal      00000000000b1a1c     OpensslLib:p_sign.obj
 0005:00001370       $unwind$RAND_DRBG_instantiate 00000000000b1a30     OpensslLib:drbg_lib.obj
 0005:00001384       $unwind$BN_nist_mod_192    00000000000b1a44     OpensslLib:bn_nist.obj
 0005:00001384       $unwind$generate_key       00000000000b1a44     OpensslLib:dh_key.obj
 0005:00001384       $unwind$aes_ccm_cipher     00000000000b1a44     OpensslLib:e_aes.obj
 0005:00001384       $unwind$aes_ccm_tls_cipher 00000000000b1a44     OpensslLib:e_aes.obj
 0005:00001384       $unwind$aria_ccm_cipher    00000000000b1a44     OpensslLib:e_aria.obj
 0005:00001384       $unwind$aria_ccm_tls_cipher 00000000000b1a44     OpensslLib:e_aria.obj
 0005:00001384       $unwind$drbg_ctr_instantiate 00000000000b1a44     OpensslLib:drbg_ctr.obj
 0005:00001384       $unwind$RAND_DRBG_bytes    00000000000b1a44     OpensslLib:drbg_lib.obj
 0005:000013a0       $unwind$drbg_add           00000000000b1a60     OpensslLib:drbg_lib.obj
 0005:000013b0       $unwind$RAND_DRBG_get0_private 00000000000b1a70     OpensslLib:drbg_lib.obj
 0005:000013c0       $unwind$pkey_dh_ctrl_str   00000000000b1a80     OpensslLib:dh_pmeth.obj
 0005:000013d4       $unwind$ecx_key_op         00000000000b1a94     OpensslLib:ecx_meth.obj
 0005:000013f4       $unwind$ecx_priv_decode    00000000000b1ab4     OpensslLib:ecx_meth.obj
 0005:00001404       $unwind$ecx_priv_encode    00000000000b1ac4     OpensslLib:ecx_meth.obj
 0005:00001414       $unwind$pkey_ecx_derive25519 00000000000b1ad4     OpensslLib:ecx_meth.obj
 0005:00001414       $unwind$pkey_ecx_derive448 00000000000b1ad4     OpensslLib:ecx_meth.obj
 0005:00001414       $unwind$rsa_pkey_ctrl      00000000000b1ad4     OpensslLib:rsa_ameth.obj
 0005:00001420       $unwind$pkey_ecd_digestverify448 00000000000b1ae0     OpensslLib:ecx_meth.obj
 0005:00001420       $unwind$pkey_tls1_prf_derive 00000000000b1ae0     OpensslLib:tls1_prf.obj
 0005:00001428       $unwind$pkey_rsa_sign      00000000000b1ae8     OpensslLib:rsa_pmeth.obj
 0005:00001428       $unwind$SXNET_add_id_INTEGER 00000000000b1ae8     OpensslLib:v3_sxnet.obj
 0005:00001440       $unwind$pkey_ec_sign       00000000000b1b00     OpensslLib:ec_pmeth.obj
 0005:00001440       $unwind$pkey_rsa_verifyrecover 00000000000b1b00     OpensslLib:rsa_pmeth.obj
 0005:00001454       $unwind$pkey_rsa_verify    00000000000b1b14     OpensslLib:rsa_pmeth.obj
 0005:00001468       $unwind$pkey_rsa_decrypt   00000000000b1b28     OpensslLib:rsa_pmeth.obj
 0005:0000147c       $unwind$pkey_rsa_ctrl_str  00000000000b1b3c     OpensslLib:rsa_pmeth.obj
 0005:00001494       $unwind$pkey_pss_init      00000000000b1b54     OpensslLib:rsa_pmeth.obj
 0005:000014a4       $unwind$tls1_prf_P_hash    00000000000b1b64     OpensslLib:tls1_prf.obj
 0005:000014c0       $unwind$pkey_hkdf_derive   00000000000b1b80     OpensslLib:hkdf.obj
 0005:000014d8       $unwind$HKDF_Extract       00000000000b1b98     OpensslLib:hkdf.obj
 0005:000014f0       $unwind$HKDF_Expand        00000000000b1bb0     OpensslLib:hkdf.obj
 0005:00001508       $unwind$dh_pkey_param_check 00000000000b1bc8     OpensslLib:dh_ameth.obj
 0005:00001508       $unwind$pkey_sm2_sign      00000000000b1bc8     OpensslLib:sm2_pmeth.obj
 0005:0000151c       $unwind$pkey_sm2_verify    00000000000b1bdc     OpensslLib:sm2_pmeth.obj
 0005:00001530       $unwind$pkey_sm2_digest_custom 00000000000b1bf0     OpensslLib:sm2_pmeth.obj
 0005:00001548       $unwind$pkey_ec_kdf_derive 00000000000b1c08     OpensslLib:ec_pmeth.obj
 0005:00001548       $unwind$drbg_ctr_generate  00000000000b1c08     OpensslLib:drbg_ctr.obj
 0005:00001560       $unwind$BIO_dump_indent_cb 00000000000b1c20     OpensslLib:b_dump.obj
 0005:0000157c       $unwind$rsa_ossl_private_decrypt 00000000000b1c3c     OpensslLib:rsa_ossl.obj
 0005:00001594       $unwind$rsa_ossl_mod_exp   00000000000b1c54     OpensslLib:rsa_ossl.obj
 0005:000015b0       $unwind$bn_mul_add_words   00000000000b1c70     OpensslLib:bn_asm.obj
 0005:000015b0       $unwind$gf_deserialize     00000000000b1c70     OpensslLib:f_generic.obj
 0005:000015c4       $unwind$bn_mul_words       00000000000b1c84     OpensslLib:bn_asm.obj
 0005:000015dc       $unwind$compute_key        00000000000b1c9c     OpensslLib:dh_key.obj
 0005:000015f4       $unwind$eckey_pub_encode   00000000000b1cb4     OpensslLib:ec_ameth.obj
 0005:00001608       $unwind$eckey_priv_decode  00000000000b1cc8     OpensslLib:ec_ameth.obj
 0005:00001608       $unwind$eckey_pub_decode   00000000000b1cc8     OpensslLib:ec_ameth.obj
 0005:00001620       $unwind$eckey_priv_encode  00000000000b1ce0     OpensslLib:ec_ameth.obj
 0005:00001634       $unwind$do_EC_KEY_print    00000000000b1cf4     OpensslLib:ec_ameth.obj
 0005:00001650       $unwind$dh_pub_decode      00000000000b1d10     OpensslLib:dh_ameth.obj
 0005:00001650       $unwind$rsa_pub_encode     00000000000b1d10     OpensslLib:rsa_ameth.obj
 0005:00001660       $unwind$FO                 00000000000b1d20     OpensslLib:aria.obj
 0005:00001660       $unwind$rsa_priv_decode    00000000000b1d20     OpensslLib:rsa_ameth.obj
 0005:00001660       $unwind$rsa_pub_decode     00000000000b1d20     OpensslLib:rsa_ameth.obj
 0005:00001670       $unwind$rsa_priv_encode    00000000000b1d30     OpensslLib:rsa_ameth.obj
 0005:00001680       $unwind$rsa_md_to_mgf1     00000000000b1d40     OpensslLib:rsa_ameth.obj
 0005:00001690       $unwind$rsa_ctx_to_pss_string 00000000000b1d50     OpensslLib:rsa_ameth.obj
 0005:000016a0       $unwind$rsa_pss_to_ctx     00000000000b1d60     OpensslLib:rsa_ameth.obj
 0005:000016b8       $unwind$rsa_item_sign      00000000000b1d78     OpensslLib:rsa_ameth.obj
 0005:000016c8       $unwind$rsa_sig_info_set   00000000000b1d88     OpensslLib:rsa_ameth.obj
 0005:000016d8       $unwind$i2d_dhp            00000000000b1d98     OpensslLib:dh_ameth.obj
 0005:000016e0       $unwind$dh_pub_encode      00000000000b1da0     OpensslLib:dh_ameth.obj
 0005:000016f4       $unwind$dh_priv_decode     00000000000b1db4     OpensslLib:dh_ameth.obj
 0005:00001708       $unwind$do_dh_print        00000000000b1dc8     OpensslLib:dh_ameth.obj
 0005:00001720       $unwind$bn_mul_fixed_top   00000000000b1de0     OpensslLib:bn_mul.obj
 0005:0000173c       $unwind$hash_init_with_dom 00000000000b1dfc     OpensslLib:eddsa.obj
 0005:0000173c       $unwind$ossl_ecdsa_sign    00000000000b1dfc     OpensslLib:ecdsa_ossl.obj
 0005:00001744       $unwind$ecdsa_sign_setup   00000000000b1e04     OpensslLib:ecdsa_ossl.obj
 0005:0000175c       $unwind$int_bn_mod_inverse 00000000000b1e1c     OpensslLib:bn_gcd.obj
 0005:0000175c       $unwind$ossl_ecdsa_sign_sig 00000000000b1e1c     OpensslLib:ecdsa_ossl.obj
 0005:00001774       $unwind$ossl_ecdsa_verify_sig 00000000000b1e34     OpensslLib:ecdsa_ossl.obj
 0005:0000178c       $unwind$ecdh_simple_compute_key 00000000000b1e4c     OpensslLib:ecdh_ossl.obj
 0005:000017a4       $unwind$bn_sqr_fixed_top   00000000000b1e64     OpensslLib:bn_sqr.obj
 0005:000017c4       $unwind$bn_sqr_normal      00000000000b1e84     OpensslLib:bn_sqr.obj
 0005:000017dc       $unwind$i2v_EXTENDED_KEY_USAGE 00000000000b1e9c     OpensslLib:v3_extku.obj
 0005:000017ec       $unwind$v2i_ASN1_BIT_STRING 00000000000b1eac     OpensslLib:v3_bitst.obj
 0005:00001808       $unwind$i2r_ocsp_crlid     00000000000b1ec8     OpensslLib:v3_ocsp.obj
 0005:0000181c       $unwind$i2v_AUTHORITY_KEYID 00000000000b1edc     OpensslLib:v3_akey.obj
 0005:0000182c       $unwind$i2r_NAMING_AUTHORITY 00000000000b1eec     OpensslLib:v3_admis.obj
 0005:00001848       $unwind$i2r_ADMISSION_SYNTAX 00000000000b1f08     OpensslLib:v3_admis.obj
 0005:00001868       $unwind$s2i_skey_id        00000000000b1f28     OpensslLib:v3_skey.obj
 0005:00001878       $unwind$i2v_POLICY_MAPPINGS 00000000000b1f38     OpensslLib:v3_pmaps.obj
 0005:00001890       $unwind$process_pci_value  00000000000b1f50     OpensslLib:v3_pci.obj
 0005:000018ac       $unwind$r2i_pci            00000000000b1f6c     OpensslLib:v3_pci.obj
 0005:000018c4       $unwind$i2v_TLS_FEATURE    00000000000b1f84     OpensslLib:v3_tlsf.obj
 0005:000018d8       $unwind$generate_v3        00000000000b1f98     OpensslLib:asn1_gen.obj
 0005:000018f8       $unwind$asn1_cb            00000000000b1fb8     OpensslLib:asn1_gen.obj
 0005:00001910       $unwind$asn1_str2type      00000000000b1fd0     OpensslLib:asn1_gen.obj
 0005:00001924       $unwind$RandGetBytes       00000000000b1fe4     OpensslLib:rand_pool.obj
 0005:00001934       $unwind$HMAC_Init_ex       00000000000b1ff4     OpensslLib:hmac.obj
 0005:00001954       $unwind$HMAC_Final         00000000000b2014     OpensslLib:hmac.obj
 0005:00001964       $unwind$aes_gcm_ctrl       00000000000b2024     OpensslLib:e_aes.obj
 0005:00001964       $unwind$aria_gcm_ctrl      00000000000b2024     OpensslLib:e_aria.obj
 0005:0000197c       $unwind$ctr_df             00000000000b203c     OpensslLib:drbg_ctr.obj
 0005:00001994       $unwind$ctr_update         00000000000b2054     OpensslLib:drbg_ctr.obj
 0005:000019b4       $unwind$drbg_ctr_init      00000000000b2074     OpensslLib:drbg_ctr.obj
 0005:000019cc       $unwind$ctrl               00000000000b208c     OpensslLib:m_md5_sha1.obj
 0005:000019e4       $unwind$dh_builtin_genparams 00000000000b20a4     OpensslLib:dh_gen.obj
 0005:00001a00       $unwind$c448_ed448_sign    00000000000b20c0     OpensslLib:eddsa.obj
 0005:00001a20       $unwind$c448_ed448_verify  00000000000b20e0     OpensslLib:eddsa.obj
 0005:00001a40       $unwind$ED448_public_from_private 00000000000b2100     OpensslLib:eddsa.obj
 0005:00001a5c       $unwind$fe_frombytes       00000000000b211c     OpensslLib:curve25519.obj
 0005:00001a74       $unwind$fe_tobytes         00000000000b2134     OpensslLib:curve25519.obj
 0005:00001a90       $unwind$fe_mul             00000000000b2150     OpensslLib:curve25519.obj
 0005:00001aa8       $unwind$fe_sq              00000000000b2168     OpensslLib:curve25519.obj
 0005:00001aa8       $unwind$fe_sq2             00000000000b2168     OpensslLib:curve25519.obj
 0005:00001ac0       $unwind$fe_invert          00000000000b2180     OpensslLib:curve25519.obj
 0005:00001adc       $unwind$fe_pow22523        00000000000b219c     OpensslLib:curve25519.obj
 0005:00001af8       $unwind$ge_p3_tobytes      00000000000b21b8     OpensslLib:curve25519.obj
 0005:00001b08       $unwind$ge_frombytes_vartime 00000000000b21c8     OpensslLib:curve25519.obj
 0005:00001b24       $unwind$ge_p2_dbl          00000000000b21e4     OpensslLib:curve25519.obj
 0005:00001b24       $unwind$cfbr_encrypt_block 00000000000b21e4     OpensslLib:cfb128.obj
 0005:00001b3c       $unwind$ge_p3_dbl          00000000000b21fc     OpensslLib:curve25519.obj
 0005:00001b50       $unwind$ge_add             00000000000b2210     OpensslLib:curve25519.obj
 0005:00001b50       $unwind$ge_madd            00000000000b2210     OpensslLib:curve25519.obj
 0005:00001b6c       $unwind$table_select       00000000000b222c     OpensslLib:curve25519.obj
 0005:00001b8c       $unwind$ge_scalarmult_base 00000000000b224c     OpensslLib:curve25519.obj
 0005:00001ba8       $unwind$x25519_scalar_mult_generic 00000000000b2268     OpensslLib:curve25519.obj
 0005:00001bc4       $unwind$slide              00000000000b2284     OpensslLib:curve25519.obj
 0005:00001bdc       $unwind$ge_double_scalarmult_vartime 00000000000b229c     OpensslLib:curve25519.obj
 0005:00001bfc       $unwind$x25519_sc_reduce   00000000000b22bc     OpensslLib:curve25519.obj
 0005:00001c14       $unwind$sc_muladd          00000000000b22d4     OpensslLib:curve25519.obj
 0005:00001c2c       $unwind$ED25519_verify     00000000000b22ec     OpensslLib:curve25519.obj
 0005:00001c4c       $unwind$X25519_public_from_private 00000000000b230c     OpensslLib:curve25519.obj
 0005:00001c5c       $unwind$gf_cond_neg        00000000000b231c     OpensslLib:curve448.obj
 0005:00001c5c       $unwind$gf_sqrn            00000000000b231c     OpensslLib:f_generic.obj
 0005:00001c68       $unwind$gf_invert          00000000000b2328     OpensslLib:curve448.obj
 0005:00001c7c       $unwind$point_double_internal 00000000000b233c     OpensslLib:curve448.obj
 0005:00001c9c       $unwind$add_pniels_to_pt   00000000000b235c     OpensslLib:curve448.obj
 0005:00001c9c       $unwind$pniels_to_pt       00000000000b235c     OpensslLib:curve448.obj
 0005:00001c9c       $unwind$gf_serialize       00000000000b235c     OpensslLib:f_generic.obj
 0005:00001cb0       $unwind$add_niels_to_pt    00000000000b2370     OpensslLib:curve448.obj
 0005:00001cb0       $unwind$sub_niels_from_pt  00000000000b2370     OpensslLib:curve448.obj
 0005:00001cd0       $unwind$curve448_precomputed_scalarmul 00000000000b2390     OpensslLib:curve448.obj
 0005:00001cec       $unwind$curve448_point_mul_by_ratio_and_encode_like_eddsa 00000000000b23ac     OpensslLib:curve448.obj
 0005:00001d00       $unwind$curve448_point_decode_like_eddsa_and_mul_by_ratio 00000000000b23c0     OpensslLib:curve448.obj
 0005:00001d20       $unwind$x448_int           00000000000b23e0     OpensslLib:curve448.obj
 0005:00001d40       $unwind$recode_wnaf        00000000000b2400     OpensslLib:curve448.obj
 0005:00001d5c       $unwind$curve448_base_double_scalarmul_non_secret 00000000000b241c     OpensslLib:curve448.obj
 0005:00001d7c       $unwind$X448_public_from_private 00000000000b243c     OpensslLib:curve448.obj
 0005:00001d94       $unwind$RSA_sign_ASN1_OCTET_STRING 00000000000b2454     OpensslLib:rsa_saos.obj
 0005:00001dac       $unwind$RSA_padding_add_PKCS1_OAEP_mgf1 00000000000b246c     OpensslLib:rsa_oaep.obj
 0005:00001dc4       $unwind$RSA_padding_check_PKCS1_OAEP_mgf1 00000000000b2484     OpensslLib:rsa_oaep.obj
 0005:00001de0       $unwind$PKCS1_MGF1         00000000000b24a0     OpensslLib:rsa_oaep.obj
 0005:00001df8       $unwind$rsa_builtin_keygen 00000000000b24b8     OpensslLib:rsa_gen.obj
 0005:00001e14       $unwind$encode_pkcs1       00000000000b24d4     OpensslLib:rsa_sign.obj
 0005:00001e28       $unwind$RSA_verify_PKCS1_PSS_mgf1 00000000000b24e8     OpensslLib:rsa_pss.obj
 0005:00001e44       $unwind$sm2_compute_z_digest 00000000000b2504     OpensslLib:sm2_sign.obj
 0005:00001e60       $unwind$sm2_sig_gen        00000000000b2520     OpensslLib:sm2_sign.obj
 0005:00001e78       $unwind$sm2_sig_verify     00000000000b2538     OpensslLib:sm2_sign.obj
 0005:00001e90       $unwind$sm2_sign           00000000000b2550     OpensslLib:sm2_sign.obj
 0005:00001ea4       $unwind$sm2_encrypt        00000000000b2564     OpensslLib:sm2_crypt.obj
 0005:00001ec0       $unwind$sm2_decrypt        00000000000b2580     OpensslLib:sm2_crypt.obj
 0005:00001edc       $unwind$ecdh_KDF_X9_63     00000000000b259c     OpensslLib:ecdh_kdf.obj
 0005:00001ef4       $unwind$BN_nist_mod_224    00000000000b25b4     OpensslLib:bn_nist.obj
 0005:00001f10       $unwind$BN_nist_mod_384    00000000000b25d0     OpensslLib:bn_nist.obj
 0005:00001f28       $unwind$BN_nist_mod_521    00000000000b25e8     OpensslLib:bn_nist.obj
 0005:00001f44       $unwind$RSA_padding_check_PKCS1_type_2 00000000000b2604     OpensslLib:rsa_pk1.obj
 0005:00001f60       $unwind$RSA_padding_check_SSLv23 00000000000b2620     OpensslLib:rsa_ssl.obj
 0005:00001f7c       $unwind$ECPKParameters_print 00000000000b263c     OpensslLib:eck_prn.obj
 0005:00001f94       $unwind$print_bin          00000000000b2654     OpensslLib:eck_prn.obj
 0005:00001fb0       $unwind$X509_signature_dump 00000000000b2670     OpensslLib:t_x509.obj
 0005:00001fcc       $unwind$i2a_ASN1_INTEGER   00000000000b268c     OpensslLib:f_int.obj
 0005:00001fe0       $unwind$i2a_ASN1_STRING    00000000000b26a0     OpensslLib:f_string.obj
 0005:00001ff4       $unwind$SM4_set_key        00000000000b26b4     OpensslLib:sm4.obj
 0005:00002004       $unwind$CRYPTO_cbc128_encrypt 00000000000b26c4     OpensslLib:cbc128.obj
 0005:0000201c       $unwind$CRYPTO_cbc128_decrypt 00000000000b26dc     OpensslLib:cbc128.obj
 0005:00002034       $unwind$CRYPTO_cfb128_1_encrypt 00000000000b26f4     OpensslLib:cfb128.obj
 0005:0000204c       $unwind$CRYPTO_cfb128_8_encrypt 00000000000b270c     OpensslLib:cfb128.obj
 0005:00002068       $unwind$CRYPTO_ccm128_encrypt 00000000000b2728     OpensslLib:ccm128.obj
 0005:00002080       $unwind$rotnr              00000000000b2740     OpensslLib:aria.obj
 0005:0000208c       $unwind$aria_set_encrypt_key 00000000000b274c     OpensslLib:aria.obj
 0005:000020b0       $unwind$aria_set_decrypt_key 00000000000b2770     OpensslLib:aria.obj
 0005:000020c8       $unwind$CRYPTO_xts128_encrypt 00000000000b2788     OpensslLib:xts128.obj
 0005:000020e4       $unwind$AES_set_encrypt_key 00000000000b27a4     OpensslLib:aes_core.obj
 0005:00002100       $unwind$AES_decrypt        00000000000b27c0     OpensslLib:aes_core.obj
 0005:00002100       $unwind$AES_encrypt        00000000000b27c0     OpensslLib:aes_core.obj
 0005:0000211c       $unwind$CRYPTO_128_wrap    00000000000b27dc     OpensslLib:wrap128.obj
 0005:00002138       $unwind$crypto_128_unwrap_raw 00000000000b27f8     OpensslLib:wrap128.obj
 0005:00002150       $unwind$CRYPTO_128_unwrap_pad 00000000000b2810     OpensslLib:wrap128.obj
 0005:00002168       $unwind$alg_module_init    00000000000b2828     OpensslLib:evp_cnf.obj
 0005:0000217c       $unwind$do_tcreate         00000000000b283c     OpensslLib:asn_mstbl.obj
 0005:00002194       $unwind$ssl_module_init    00000000000b2854     OpensslLib:conf_ssl.obj
 0005:000021ac       $unwind$oid_module_init    00000000000b286c     OpensslLib:asn_moid.obj
 0005:000021ac       $unwind$ec_GFp_simple_is_on_curve 00000000000b286c     OpensslLib:ecp_smpl.obj
 0005:000021ac       $unwind$ec_GFp_simple_point_get_affine_coordinates 00000000000b286c     OpensslLib:ecp_smpl.obj
 0005:000021c8       $unwind$Round              00000000000b2888     OpensslLib:keccak1600.obj
 0005:000021e0       $unwind$KeccakF1600        00000000000b28a0     OpensslLib:keccak1600.obj
 0005:000021f0       $unwind$SHA3_squeeze       00000000000b28b0     OpensslLib:keccak1600.obj
 0005:00002204       $unwind$sm3_block_data_order 00000000000b28c4     OpensslLib:sm3.obj
 0005:0000221c       $unwind$probable_prime_dh  00000000000b28dc     OpensslLib:bn_prime.obj
 0005:00002234       $unwind$sc_montmul         00000000000b28f4     OpensslLib:scalar.obj
 0005:0000224c       $unwind$curve448_scalar_decode_long 00000000000b290c     OpensslLib:scalar.obj
 0005:00002268       $unwind$gf_eq              00000000000b2928     OpensslLib:f_generic.obj
 0005:00002270       $unwind$gf_isr             00000000000b2930     OpensslLib:f_generic.obj
 0005:00002284       $unwind$gf_mul             00000000000b2944     OpensslLib:f_impl.obj
 0005:0000229c       $unwind$ec_GFp_simple_add  00000000000b295c     OpensslLib:ecp_smpl.obj
 0005:000022b4       $unwind$ec_GFp_simple_cmp  00000000000b2974     OpensslLib:ecp_smpl.obj
 0005:000022d0       $unwind$QuickSortWorker    00000000000b2990     BaseCryptLib:CrtWrapper.obj
