 TlsDxe

 Timestamp is 62c3c33c (Tue Jul  5 12:51:08 2022)

 Preferred load address is 0000000000000000

 Start         Length     Name                   Class
 0001:00000000 00000278H .text                   CODE
 0001:00000278 0009c9b9H .text$mn                CODE
 0002:00000000 00044eb4H .rdata                  DATA
 0002:00044eb4 000007e0H .rdata$voltmd           DATA
 0002:00045694 0000012cH .rdata$zzzdbg           DATA
 0003:00000000 00003570H .data                   DATA
 0003:00003570 00000d30H .bss                    DATA
 0004:00000000 000056dcH .pdata                  DATA
 0005:00000000 00002d5cH .xdata                  DATA

  Address         Publics by Value              Rva+Base               Lib:Object

 0000:00000000       __guard_longjmp_count      0000000000000000     <absolute>
 0000:00000000       __dynamic_value_reloc_table 0000000000000000     <absolute>
 0000:00000000       __guard_iat_table          0000000000000000     <absolute>
 0000:00000000       __hybrid_auxiliary_iat     0000000000000000     <absolute>
 0000:00000000       __arm64x_redirection_metadata 0000000000000000     <absolute>
 0000:00000000       __hybrid_auxiliary_iat_copy 0000000000000000     <absolute>
 0000:00000000       __x64_code_ranges_to_entry_points_count 0000000000000000     <absolute>
 0000:00000000       __AbsoluteZero             0000000000000000     <absolute>
 0000:00000000       __guard_iat_count          0000000000000000     <absolute>
 0000:00000000       __guard_check_icall_a64n_fptr 0000000000000000     <absolute>
 0000:00000000       __guard_longjmp_table      0000000000000000     <absolute>
 0000:00000000       __x64_code_ranges_to_entry_points 0000000000000000     <absolute>
 0000:00000000       __guard_fids_table         0000000000000000     <absolute>
 0000:00000000       __guard_fids_count         0000000000000000     <absolute>
 0000:00000000       __arm64x_extra_rfe_table   0000000000000000     <absolute>
 0000:00000000       __hybrid_code_map          0000000000000000     <absolute>
 0000:00000000       __arm64x_extra_rfe_table_size 0000000000000000     <absolute>
 0000:00000000       __arm64x_redirection_metadata_count 0000000000000000     <absolute>
 0000:00000000       __enclave_config           0000000000000000     <absolute>
 0000:00000000       __guard_eh_cont_table      0000000000000000     <absolute>
 0000:00000000       __guard_flags              0000000000000000     <absolute>
 0000:00000000       __guard_eh_cont_count      0000000000000000     <absolute>
 0000:00000000       __arm64x_native_entrypoint 0000000000000000     <absolute>
 0000:00000000       __hybrid_code_map_count    0000000000000000     <absolute>
 0000:00000000       __ImageBase                0000000000000000     <linker-defined>
 0001:00000000       InternalMemCopyMem         00000000000002c0     BaseMemoryLibRepStr:CopyMem.obj
 0001:00000040       CpuPause                   0000000000000300     BaseLib:CpuPause.obj
 0001:00000050       InternalMemSetMem          0000000000000310     BaseMemoryLibRepStr:SetMem.obj
 0001:00000070       InternalMemZeroMem         0000000000000330     BaseMemoryLibRepStr:ZeroMem.obj
 0001:00000090       InternalMemSetMem64        0000000000000350     BaseMemoryLibRepStr:SetMem64.obj
 0001:000000b0       InternalMemSetMem32        0000000000000370     BaseMemoryLibRepStr:SetMem32.obj
 0001:000000d0       TdVmCall                   0000000000000390     BaseLib:TdVmcall.obj
 0001:00000160       AsmReadTsc                 0000000000000420     BaseLib:ReadTsc.obj
 0001:00000170       EnableInterrupts           0000000000000430     BaseLib:EnableInterrupts.obj
 0001:00000180       DisableInterrupts          0000000000000440     BaseLib:DisableInterrupts.obj
 0001:00000190       AsmReadEflags              0000000000000450     BaseLib:ReadEflags.obj
 0001:000001a0       InternalMemCompareMem      0000000000000460     BaseMemoryLibRepStr:CompareMem.obj
 0001:000001c0       InternalMemScanMem8        0000000000000480     BaseMemoryLibRepStr:ScanMem8.obj
 0001:000001e0       InternalMemScanMem64       00000000000004a0     BaseMemoryLibRepStr:ScanMem64.obj
 0001:00000200       InternalMemScanMem32       00000000000004c0     BaseMemoryLibRepStr:ScanMem32.obj
 0001:00000220       TdCall                     00000000000004e0     BaseLib:TdCall.obj
 0001:00000278       _DriverUnloadHandler       0000000000000538 f   UefiDriverEntryPoint:DriverEntryPoint.obj
 0001:000003a4       _ModuleEntryPoint          0000000000000664 f   UefiDriverEntryPoint:DriverEntryPoint.obj
 0001:00000420       ProcessLibraryConstructorList 00000000000006e0 f   TlsDxe:AutoGen.obj
 0001:00000730       TlsCreateInstance          00000000000009f0 f   TlsDxe:TlsDriver.obj
 0001:000007ec       TlsDriverEntryPoint        0000000000000aac f   TlsDxe:TlsDriver.obj
 0001:0000099c       TlsServiceBindingCreateChild 0000000000000c5c f   TlsDxe:TlsDriver.obj
 0001:00000b4c       TlsServiceBindingDestroyChild 0000000000000e0c f   TlsDxe:TlsDriver.obj
 0001:00000cfc       TlsSetSessionData          0000000000000fbc f   TlsDxe:TlsProtocol.obj
 0001:000010ac       TlsGetSessionData          000000000000136c f   TlsDxe:TlsProtocol.obj
 0001:000014b8       TlsBuildResponsePacket     0000000000001778 f   TlsDxe:TlsProtocol.obj
 0001:0000170c       TlsProcessPacket           00000000000019cc f   TlsDxe:TlsProtocol.obj
 0001:000017f8       TlsConfigurationSetData    0000000000001ab8 f   TlsDxe:TlsConfigProtocol.obj
 0001:000018e8       TlsConfigurationGetData    0000000000001ba8 f   TlsDxe:TlsConfigProtocol.obj
 0001:000019c8       TlsEncryptPacket           0000000000001c88 f   TlsDxe:TlsImpl.obj
 0001:00001bf8       TlsDecryptPacket           0000000000001eb8 f   TlsDxe:TlsImpl.obj
 0001:00001e8c       InternalBaseLibIsListValid 000000000000214c f   BaseLib:LinkedList.obj
 0001:00001ef8       InsertTailList             00000000000021b8 f   BaseLib:LinkedList.obj
 0001:00001f4c       RemoveEntryList            000000000000220c f   BaseLib:LinkedList.obj
 0001:00001fb4       CopyMem                    0000000000002274 f   BaseMemoryLibRepStr:CopyMemWrapper.obj
 0001:00002050       DebugPrint                 0000000000002310 f   BaseDebugLibSerialPort:DebugLib.obj
 0001:00002074       DebugPrintMarker           0000000000002334 f   BaseDebugLibSerialPort:DebugLib.obj
 0001:00002124       DebugAssert                00000000000023e4 f   BaseDebugLibSerialPort:DebugLib.obj
 0001:0000219c       InternalAllocatePool       000000000000245c f   UefiMemoryAllocationLib:MemoryAllocationLib.obj
 0001:000021cc       AllocateZeroPool           000000000000248c f   UefiMemoryAllocationLib:MemoryAllocationLib.obj
 0001:000021f4       FreePool                   00000000000024b4 f   UefiMemoryAllocationLib:MemoryAllocationLib.obj
 0001:00002238       GetHobList                 00000000000024f8 f   DxeHobLib:HobLib.obj
 0001:00002318       TlsNew                     00000000000025d8 f   TlsLib:TlsInit.obj
 0001:00002efc       TlsSetConnectionEnd        00000000000031bc f   TlsLib:TlsConfig.obj
 0001:00002f58       TlsSetCipherList           0000000000003218 f   TlsLib:TlsConfig.obj
 0001:00003250       TlsSetVerifyHost           0000000000003510 f   TlsLib:TlsConfig.obj
 0001:00003388       TlsSetCaCertificate        0000000000003648 f   TlsLib:TlsConfig.obj
 0001:000034fc       TlsSetHostPublicCert       00000000000037bc f   TlsLib:TlsConfig.obj
 0001:00003634       TlsGetHostPublicCert       00000000000038f4 f   TlsLib:TlsConfig.obj
 0001:00003720       TlsDoHandshake             00000000000039e0 f   TlsLib:TlsProcess.obj
 0001:0000399c       TlsHandleAlert             0000000000003c5c f   TlsLib:TlsProcess.obj
 0001:00003b1c       TlsCloseNotify             0000000000003ddc f   TlsLib:TlsProcess.obj
 0001:00003c90       GetPcdProtocol             0000000000003f50 f   DxePcdLib:DxePcdLib.obj
 0001:00003d1c       AsciiStrLen                0000000000003fdc f   BaseLib:String.obj
 0001:00003d88       AsciiStrCmp                0000000000004048 f   BaseLib:String.obj
 0001:00003e14       AsciiStriCmp               00000000000040d4 f   BaseLib:String.obj
 0001:00003f00       AsciiStrnCmp               00000000000041c0 f   BaseLib:String.obj
 0001:00003fcc       StrnLenS                   000000000000428c f   BaseLib:SafeString.obj
 0001:00004024       AsciiStrnCpyS              00000000000042e4 f   BaseLib:SafeString.obj
 0001:00004174       AsciiStrCatS               0000000000004434 f   BaseLib:SafeString.obj
 0001:000042e8       AsciiStrDecimalToUintnS    00000000000045a8 f   BaseLib:SafeString.obj
 0001:00004400       SetMem                     00000000000046c0 f   BaseMemoryLibRepStr:SetMemWrapper.obj
 0001:00004464       ZeroMem                    0000000000004724 f   BaseMemoryLibRepStr:ZeroMemWrapper.obj
 0001:000044d4       CompareGuid                0000000000004794 f   BaseMemoryLibRepStr:MemLibGuid.obj
 0001:00004598       IoRead32                   0000000000004858 f   BaseIoLibIntrinsicSev:IoLibMsc.obj
 0001:000045cc       AsciiSPrint                000000000000488c f   BasePrintLib:PrintLib.obj
 0001:000045f8       BasePrintLibFillBuffer     00000000000048b8 f   BasePrintLib:PrintLibInternal.obj
 0001:0000462c       BasePrintLibValueToString  00000000000048ec f   BasePrintLib:PrintLibInternal.obj
 0001:0000467c       BasePrintLibSPrintMarker   000000000000493c f   BasePrintLib:PrintLibInternal.obj
 0001:00005588       BasePrintLibSPrint         0000000000005848 f   BasePrintLib:PrintLibInternal.obj
 0001:000055ac       PciExpressRead32           000000000000586c f   BasePciExpressLib:PciExpressLib.obj
 0001:000055fc       PciCf8Read32               00000000000058bc f   BasePciCf8Lib:PciCf8Lib.obj
 0001:00005904       SSL_clear                  0000000000005bc4 f   OpensslLib:ssl_lib.obj
 0001:00005ad0       SSL_new                    0000000000005d90 f   OpensslLib:ssl_lib.obj
 0001:00006410       SSL_has_matching_session_id 00000000000066d0 f   OpensslLib:ssl_lib.obj
 0001:0000646c       SSL_free                   000000000000672c f   OpensslLib:ssl_lib.obj
 0001:0000679c       SSL_set0_wbio              0000000000006a5c f   OpensslLib:ssl_lib.obj
 0001:000068f8       ssl_read_internal          0000000000006bb8 f   OpensslLib:ssl_lib.obj
 0001:00006a14       ssl_write_internal         0000000000006cd4 f   OpensslLib:ssl_lib.obj
 0001:00006b2c       SSL_ctrl                   0000000000006dec f   OpensslLib:ssl_lib.obj
 0001:00006dd0       SSL_CTX_ctrl               0000000000007090 f   OpensslLib:ssl_lib.obj
 0001:00007108       ssl_cipher_ptr_id_cmp      00000000000073c8 f   OpensslLib:ssl_lib.obj
 0001:00007120       SSL_get_ciphers            00000000000073e0 f   OpensslLib:ssl_lib.obj
 0001:0000714c       SSL_get1_supported_ciphers 000000000000740c f   OpensslLib:ssl_lib.obj
 0001:0000721c       SSL_set_cipher_list        00000000000074dc f   OpensslLib:ssl_lib.obj
 0001:00007364       SSL_CTX_new                0000000000007624 f   OpensslLib:ssl_lib.obj
 0001:00007898       SSL_CTX_free               0000000000007b58 f   OpensslLib:ssl_lib.obj
 0001:00007a44       ssl_set_masks              0000000000007d04 f   OpensslLib:ssl_lib.obj
 0001:00007c30       ssl_update_cache           0000000000007ef0 f   OpensslLib:ssl_lib.obj
 0001:00007db8       SSL_get_error              0000000000008078 f   OpensslLib:ssl_lib.obj
 0001:00007ed0       SSL_do_handshake           0000000000008190 f   OpensslLib:ssl_lib.obj
 0001:00007f80       ssl_undefined_function     0000000000008240 f   OpensslLib:ssl_lib.obj
 0001:00007fa0       ssl_undefined_void_function 0000000000008260 f   OpensslLib:ssl_lib.obj
 0001:00007fc0       ssl_free_wbio_buffer       0000000000008280 f   OpensslLib:ssl_lib.obj
 0001:00007ff8       ssl_replace_hash           00000000000082b8 f   OpensslLib:ssl_lib.obj
 0001:0000803c       ssl_handshake_hash         00000000000082fc f   OpensslLib:ssl_lib.obj
 0001:000082c4       ssl_cache_cipherlist       0000000000008584 f   OpensslLib:ssl_lib.obj
 0001:0000854c       bytes_to_cipher_list       000000000000880c f   OpensslLib:ssl_lib.obj
 0001:0000894c       OPENSSL_init_ssl           0000000000008c0c f   OpensslLib:ssl_init.obj
 0001:00008a24       CRYPTO_malloc              0000000000008ce4 f   OpensslLib:mem.obj
 0001:00008a6c       CRYPTO_zalloc              0000000000008d2c f   OpensslLib:mem.obj
 0001:00008aac       CRYPTO_realloc             0000000000008d6c f   OpensslLib:mem.obj
 0001:00008b70       CRYPTO_clear_realloc       0000000000008e30 f   OpensslLib:mem.obj
 0001:00009198       tlsv1_3_server_method      0000000000009458 f   OpensslLib:methods.obj
 0001:000091a0       tlsv1_2_server_method      0000000000009460 f   OpensslLib:methods.obj
 0001:000091a8       tlsv1_1_server_method      0000000000009468 f   OpensslLib:methods.obj
 0001:000091b0       tlsv1_server_method        0000000000009470 f   OpensslLib:methods.obj
 0001:000091b8       tlsv1_3_client_method      0000000000009478 f   OpensslLib:methods.obj
 0001:000091c0       tlsv1_2_client_method      0000000000009480 f   OpensslLib:methods.obj
 0001:000091c8       tlsv1_1_client_method      0000000000009488 f   OpensslLib:methods.obj
 0001:000091d0       tlsv1_client_method        0000000000009490 f   OpensslLib:methods.obj
 0001:000091d8       X509_LOOKUP_ctrl           0000000000009498 f   OpensslLib:x509_lu.obj
 0001:00009268       X509_STORE_new             0000000000009528 f   OpensslLib:x509_lu.obj
 0001:0000937c       X509_STORE_free            000000000000963c f   OpensslLib:x509_lu.obj
 0001:000094a0       X509_STORE_add_lookup      0000000000009760 f   OpensslLib:x509_lu.obj
 0001:000095bc       X509_STORE_CTX_get_by_subject 000000000000987c f   OpensslLib:x509_lu.obj
 0001:000097d4       X509_OBJECT_new            0000000000009a94 f   OpensslLib:x509_lu.obj
 0001:00009804       X509_OBJECT_free           0000000000009ac4 f   OpensslLib:x509_lu.obj
 0001:00009938       X509_STORE_CTX_get1_certs  0000000000009bf8 f   OpensslLib:x509_lu.obj
 0001:00009bb4       X509_STORE_CTX_get1_crls   0000000000009e74 f   OpensslLib:x509_lu.obj
 0001:00009d88       X509_OBJECT_retrieve_match 000000000000a048 f   OpensslLib:x509_lu.obj
 0001:00009e90       X509_STORE_CTX_get1_issuer 000000000000a150 f   OpensslLib:x509_lu.obj
 0001:0000a144       BIO_new                    000000000000a404 f   OpensslLib:bio_lib.obj
 0001:0000a250       BIO_free                   000000000000a510 f   OpensslLib:bio_lib.obj
 0001:0000a52c       BIO_puts                   000000000000a7ec f   OpensslLib:bio_lib.obj
 0001:0000a660       BIO_gets                   000000000000a920 f   OpensslLib:bio_lib.obj
 0001:0000a794       BIO_indent                 000000000000aa54 f   OpensslLib:bio_lib.obj
 0001:0000a7e0       BIO_ctrl                   000000000000aaa0 f   OpensslLib:bio_lib.obj
 0001:0000a8c8       BIO_callback_ctrl          000000000000ab88 f   OpensslLib:bio_lib.obj
 0001:0000a9ac       BIO_push                   000000000000ac6c f   OpensslLib:bio_lib.obj
 0001:0000a9f8       BIO_pop                    000000000000acb8 f   OpensslLib:bio_lib.obj
 0001:0000aa5c       BIO_free_all               000000000000ad1c f   OpensslLib:bio_lib.obj
 0001:0000aa94       ssl_load_ciphers           000000000000ad54 f   OpensslLib:ssl_ciph.obj
 0001:0000ad9c       ssl_cipher_get_evp         000000000000b05c f   OpensslLib:ssl_ciph.obj
 0001:0000b058       ssl_handshake_md           000000000000b318 f   OpensslLib:ssl_ciph.obj
 0001:0000be38       SSL_CTX_set_ciphersuites   000000000000c0f8 f   OpensslLib:ssl_ciph.obj
 0001:0000be74       ssl_create_cipher_list     000000000000c134 f   OpensslLib:ssl_ciph.obj
 0001:0000c5f8       policy_node_free           000000000000c8b8 f   OpensslLib:pcy_node.obj
 0001:0000c600       SSL_COMP_add_compression_method 000000000000c8c0 f   OpensslLib:ssl_ciph.obj
 0001:0000c6f4       SSL_SESSION_new            000000000000c9b4 f   OpensslLib:ssl_sess.obj
 0001:0000c7d4       ssl_session_dup            000000000000ca94 f   OpensslLib:ssl_sess.obj
 0001:0000cc94       ssl_generate_session_id    000000000000cf54 f   OpensslLib:ssl_sess.obj
 0001:0000ce08       ssl_get_new_session        000000000000d0c8 f   OpensslLib:ssl_sess.obj
 0001:0000cf40       lookup_sess_in_cache       000000000000d200 f   OpensslLib:ssl_sess.obj
 0001:0000d078       ssl_get_prev_session       000000000000d338 f   OpensslLib:ssl_sess.obj
 0001:0000d3ac       SSL_CTX_add_session        000000000000d66c f   OpensslLib:ssl_sess.obj
 0001:0000d55c       SSL_SESSION_free           000000000000d81c f   OpensslLib:ssl_sess.obj
 0001:0000d6c8       SSL_CTX_flush_sessions     000000000000d988 f   OpensslLib:ssl_sess.obj
 0001:0000d724       ssl_clear_bad_session      000000000000d9e4 f   OpensslLib:ssl_sess.obj
 0001:0000d8c0       SSL_use_certificate        000000000000db80 f   OpensslLib:ssl_rsa.obj
 0001:0000da08       SSL_use_PrivateKey_file    000000000000dcc8 f   OpensslLib:ssl_rsa.obj
 0001:0000dacc       SSL_CTX_use_certificate    000000000000dd8c f   OpensslLib:ssl_rsa.obj
 0001:0000dc5c       SSL_CTX_use_PrivateKey_file 000000000000df1c f   OpensslLib:ssl_rsa.obj
 0001:0000e22c       SSL_CTX_use_serverinfo_ex  000000000000e4ec f   OpensslLib:ssl_rsa.obj
 0001:0000e330       SSL_CTX_use_serverinfo_file 000000000000e5f0 f   OpensslLib:ssl_rsa.obj
 0001:0000ebe8       d2i_X509                   000000000000eea8 f   OpensslLib:x_x509.obj
 0001:0000ebf4       X509_free                  000000000000eeb4 f   OpensslLib:x_x509.obj
 0001:0000ec18       d2i_X509_AUX               000000000000eed8 f   OpensslLib:x_x509.obj
 0001:0000efcc       X509_VERIFY_PARAM_new      000000000000f28c f   OpensslLib:x509_vpm.obj
 0001:0000f008       X509_VERIFY_PARAM_free     000000000000f2c8 f   OpensslLib:x509_vpm.obj
 0001:0000f060       X509_VERIFY_PARAM_inherit  000000000000f320 f   OpensslLib:x509_vpm.obj
 0001:0000f2e8       X509_VERIFY_PARAM_set1_policies 000000000000f5a8 f   OpensslLib:x509_vpm.obj
 0001:0000f440       X509_VERIFY_PARAM_lookup   000000000000f700 f   OpensslLib:x509_vpm.obj
 0001:0000f5fc       ERR_put_error              000000000000f8bc f   OpensslLib:err.obj
 0001:0000f700       ERR_clear_error            000000000000f9c0 f   OpensslLib:err.obj
 0001:0000f794       ERR_peek_last_error        000000000000fa54 f   OpensslLib:err.obj
 0001:0000fa88       ERR_error_string_n         000000000000fd48 f   OpensslLib:err.obj
 0001:0000fc3c       ERR_get_state              000000000000fefc f   OpensslLib:err.obj
 0001:0000fd98       ERR_add_error_data         0000000000010058 f   OpensslLib:err.obj
 0001:0000fea4       ERR_set_mark               0000000000010164 f   OpensslLib:err.obj
 0001:0000fed4       ERR_pop_to_mark            0000000000010194 f   OpensslLib:err.obj
 0001:0000ffc4       err_clear_last_constant_time 0000000000010284 f   OpensslLib:err.obj
 0001:00010010       ossl_statem_fatal          00000000000102d0 f   OpensslLib:statem.obj
 0001:0001006c       ossl_statem_check_finish_init 000000000001032c f   OpensslLib:statem.obj
 0001:000100e0       ossl_statem_connect        00000000000103a0 f   OpensslLib:statem.obj
 0001:000100e8       ossl_statem_accept         00000000000103a8 f   OpensslLib:statem.obj
 0001:00010aec       statem_flush               0000000000010dac f   OpensslLib:statem.obj
 0001:00010b28       EVP_CIPHER_CTX_reset       0000000000010de8 f   OpensslLib:evp_enc.obj
 0001:00010b94       EVP_CipherInit_ex          0000000000010e54 f   OpensslLib:evp_enc.obj
 0001:00011034       EVP_EncryptFinal_ex        00000000000112f4 f   OpensslLib:evp_enc.obj
 0001:00011100       EVP_DecryptUpdate          00000000000113c0 f   OpensslLib:evp_enc.obj
 0001:0001133c       EVP_DecryptFinal_ex        00000000000115fc f   OpensslLib:evp_enc.obj
 0001:0001144c       EVP_CIPHER_CTX_set_key_length 000000000001170c f   OpensslLib:evp_enc.obj
 0001:000114a4       EVP_CIPHER_CTX_ctrl        0000000000011764 f   OpensslLib:evp_enc.obj
 0001:000114ec       EVP_CIPHER_CTX_copy        00000000000117ac f   OpensslLib:evp_enc.obj
 0001:0001163c       EVP_MD_CTX_reset           00000000000118fc f   OpensslLib:digest.obj
 0001:00011680       EVP_DigestInit_ex          0000000000011940 f   OpensslLib:digest.obj
 0001:00011738       EVP_DigestFinal_ex         00000000000119f8 f   OpensslLib:digest.obj
 0001:000117a4       EVP_DigestFinalXOF         0000000000011a64 f   OpensslLib:digest.obj
 0001:0001183c       EVP_MD_CTX_copy_ex         0000000000011afc f   OpensslLib:digest.obj
 0001:0001195c       EVP_Digest                 0000000000011c1c f   OpensslLib:digest.obj
 0001:00011a00       OPENSSL_sk_dup             0000000000011cc0 f   OpensslLib:stack.obj
 0001:00011b7c       OPENSSL_sk_new_reserve     0000000000011e3c f   OpensslLib:stack.obj
 0001:00011be8       OPENSSL_sk_insert          0000000000011ea8 f   OpensslLib:stack.obj
 0001:00011d94       OPENSSL_sk_pop_free        0000000000012054 f   OpensslLib:stack.obj
 0001:00011dfc       OPENSSL_sk_sort            00000000000120bc f   OpensslLib:stack.obj
 0001:00011f64       ssl_cert_new               0000000000012224 f   OpensslLib:ssl_cert.obj
 0001:00012008       ssl_cert_dup               00000000000122c8 f   OpensslLib:ssl_cert.obj
 0001:00012464       ssl_cert_clear_certs       0000000000012724 f   OpensslLib:ssl_cert.obj
 0001:000124d4       ssl_cert_free              0000000000012794 f   OpensslLib:ssl_cert.obj
 0001:00012580       ssl_cert_set0_chain        0000000000012840 f   OpensslLib:ssl_cert.obj
 0001:00012654       ssl_cert_set1_chain        0000000000012914 f   OpensslLib:ssl_cert.obj
 0001:000126c4       ssl_cert_add0_chain_cert   0000000000012984 f   OpensslLib:ssl_cert.obj
 0001:00012750       ssl_cert_select_current    0000000000012a10 f   OpensslLib:ssl_cert.obj
 0001:000127e4       ssl_cert_set_current       0000000000012aa4 f   OpensslLib:ssl_cert.obj
 0001:00012864       ssl_verify_cert_chain      0000000000012b24 f   OpensslLib:ssl_cert.obj
 0001:00012ca4       SSL_add_file_cert_subjects_to_stack 0000000000012f64 f   OpensslLib:ssl_cert.obj
 0001:00012de8       ssl_build_cert_chain       00000000000130a8 f   OpensslLib:ssl_cert.obj
 0001:00013334       ssl_security               00000000000135f4 f   OpensslLib:ssl_cert.obj
 0001:00013370       RECORD_LAYER_clear         0000000000013630 f   OpensslLib:rec_layer_s3.obj
 0001:00013430       RECORD_LAYER_release       00000000000136f0 f   OpensslLib:rec_layer_s3.obj
 0001:00013498       RECORD_LAYER_processed_read_pending 0000000000013758 f   OpensslLib:rec_layer_s3.obj
 0001:000134c8       ssl3_pending               0000000000013788 f   OpensslLib:rec_layer_s3.obj
 0001:00013504       ssl3_read_n                00000000000137c4 f   OpensslLib:rec_layer_s3.obj
 0001:000137fc       ssl3_write_bytes           0000000000013abc f   OpensslLib:rec_layer_s3.obj
 0001:00013b80       do_ssl3_write              0000000000013e40 f   OpensslLib:rec_layer_s3.obj
 0001:00014638       ssl3_write_pending         00000000000148f8 f   OpensslLib:rec_layer_s3.obj
 0001:000147bc       ssl3_read_bytes            0000000000014a7c f   OpensslLib:rec_layer_s3.obj
 0001:0001513c       OPENSSL_LH_new             00000000000153fc f   OpensslLib:lhash.obj
 0001:000151e4       OPENSSL_LH_free            00000000000154a4 f   OpensslLib:lhash.obj
 0001:00015248       OPENSSL_LH_insert          0000000000015508 f   OpensslLib:lhash.obj
 0001:000152fc       OPENSSL_LH_delete          00000000000155bc f   OpensslLib:lhash.obj
 0001:00015400       OPENSSL_LH_retrieve        00000000000156c0 f   OpensslLib:lhash.obj
 0001:00015650       OPENSSL_LH_strhash         0000000000015910 f   OpensslLib:lhash.obj
 0001:000156c8       openssl_lh_strcasehash     0000000000015988 f   OpensslLib:lhash.obj
 0001:0001576c       tls1_default_timeout       0000000000015a2c f   OpensslLib:t1_lib.obj
 0001:00015774       tls1_new                   0000000000015a34 f   OpensslLib:t1_lib.obj
 0001:000157c0       tls1_free                  0000000000015a80 f   OpensslLib:t1_lib.obj
 0001:000157e4       tls1_clear                 0000000000015aa4 f   OpensslLib:t1_lib.obj
 0001:00015818       tls1_get_supported_groups  0000000000015ad8 f   OpensslLib:t1_lib.obj
 0001:0001588c       tls_curve_allowed          0000000000015b4c f   OpensslLib:t1_lib.obj
 0001:000158f0       tls1_shared_group          0000000000015bb0 f   OpensslLib:t1_lib.obj
 0001:00015a48       tls1_set_groups            0000000000015d08 f   OpensslLib:t1_lib.obj
 0001:00015bf4       tls1_set_groups_list       0000000000015eb4 f   OpensslLib:t1_lib.obj
 0001:00015e44       tls1_check_group_id        0000000000016104 f   OpensslLib:t1_lib.obj
 0001:00016030       tls1_lookup_md             00000000000162f0 f   OpensslLib:t1_lib.obj
 0001:00016224       tls1_set_peer_legacy_sigalg 00000000000164e4 f   OpensslLib:t1_lib.obj
 0001:00016280       tls12_get_psigalgs         0000000000016540 f   OpensslLib:t1_lib.obj
 0001:0001637c       tls12_check_peer_sigalg    000000000001663c f   OpensslLib:t1_lib.obj
 0001:00016658       ssl_set_client_disabled    0000000000016918 f   OpensslLib:t1_lib.obj
 0001:000166f0       ssl_cipher_disabled        00000000000169b0 f   OpensslLib:t1_lib.obj
 0001:000167e8       tls_use_ticket             0000000000016aa8 f   OpensslLib:t1_lib.obj
 0001:00016818       tls1_set_server_sigalgs    0000000000016ad8 f   OpensslLib:t1_lib.obj
 0001:00016944       tls_decrypt_ticket         0000000000016c04 f   OpensslLib:t1_lib.obj
 0001:00016ff0       ssl_set_sig_mask           00000000000172b0 f   OpensslLib:t1_lib.obj
 0001:000170b4       tls12_copy_sigalgs         0000000000017374 f   OpensslLib:t1_lib.obj
 0001:00017284       tls1_save_u16              0000000000017544 f   OpensslLib:t1_lib.obj
 0001:00017360       tls1_save_sigalgs          0000000000017620 f   OpensslLib:t1_lib.obj
 0001:000173bc       tls1_process_sigalgs       000000000001767c f   OpensslLib:t1_lib.obj
 0001:00017804       tls1_set_sigalgs_list      0000000000017ac4 f   OpensslLib:t1_lib.obj
 0001:00017878       tls1_set_raw_sigalgs       0000000000017b38 f   OpensslLib:t1_lib.obj
 0001:00017938       tls1_set_sigalgs           0000000000017bf8 f   OpensslLib:t1_lib.obj
 0001:00017bd8       tls1_check_chain           0000000000017e98 f   OpensslLib:t1_lib.obj
 0001:00018090       ssl_get_auto_dh            0000000000018350 f   OpensslLib:t1_lib.obj
 0001:00018314       ssl_security_cert          00000000000185d4 f   OpensslLib:t1_lib.obj
 0001:00018428       ssl_security_cert_chain    00000000000186e8 f   OpensslLib:t1_lib.obj
 0001:00018794       tls_choose_sigalg          0000000000018a54 f   OpensslLib:t1_lib.obj
 0001:00018bec       ASYNC_start_job            0000000000018eac f   OpensslLib:async.obj
 0001:00018eec       ASYNC_init_thread          00000000000191ac f   OpensslLib:async.obj
 0001:00018fd0       ASYNC_get_current_job      0000000000019290 f   OpensslLib:async.obj
 0001:00019124       X509_PUBKEY_get0           00000000000193e4 f   OpensslLib:x_pubkey.obj
 0001:000191f8       X509_PUBKEY_set0_param     00000000000194b8 f   OpensslLib:x_pubkey.obj
 0001:0001925c       COMP_CTX_new               000000000001951c f   OpensslLib:comp_lib.obj
 0001:000192bc       OCSP_RESPID_free           000000000001957c f   OpensslLib:ocsp_asn.obj
 0001:000192e0       X509_cmp                   00000000000195a0 f   OpensslLib:x509_cmp.obj
 0001:00019378       X509_NAME_cmp              0000000000019638 f   OpensslLib:x509_cmp.obj
 0001:00019420       X509_NAME_hash             00000000000196e0 f   OpensslLib:x509_cmp.obj
 0001:00019498       X509_check_private_key     0000000000019758 f   OpensslLib:x509_cmp.obj
 0001:00019598       X509_chain_check_suiteb    0000000000019858 f   OpensslLib:x509_cmp.obj
 0001:00019724       X509_chain_up_ref          00000000000199e4 f   OpensslLib:x509_cmp.obj
 0001:000197bc       BUF_MEM_new                0000000000019a7c f   OpensslLib:buffer.obj
 0001:000197e8       BUF_MEM_free               0000000000019aa8 f   OpensslLib:buffer.obj
 0001:000198bc       BUF_MEM_grow               0000000000019b7c f   OpensslLib:buffer.obj
 0001:000199a4       BUF_MEM_grow_clean         0000000000019c64 f   OpensslLib:buffer.obj
 0001:00019a98       X509_get_signature_info    0000000000019d58 f   OpensslLib:x509_set.obj
 0001:00019b08       CRYPTO_strdup              0000000000019dc8 f   OpensslLib:o_str.obj
 0001:00019b70       CRYPTO_strndup             0000000000019e30 f   OpensslLib:o_str.obj
 0001:00019be4       CRYPTO_memdup              0000000000019ea4 f   OpensslLib:o_str.obj
 0001:00019c4c       OPENSSL_strlcpy            0000000000019f0c f   OpensslLib:o_str.obj
 0001:00019ca0       OPENSSL_hexchar2int        0000000000019f60 f   OpensslLib:o_str.obj
 0001:00019d60       OPENSSL_hexstr2buf         000000000001a020 f   OpensslLib:o_str.obj
 0001:00019e58       OPENSSL_buf2hexstr         000000000001a118 f   OpensslLib:o_str.obj
 0001:0001a114       rand_drbg_get_entropy      000000000001a3d4 f   OpensslLib:rand_lib.obj
 0001:0001a278       rand_drbg_cleanup_entropy  000000000001a538 f   OpensslLib:rand_lib.obj
 0001:0001a2b4       rand_drbg_get_nonce        000000000001a574 f   OpensslLib:rand_lib.obj
 0001:0001a378       rand_drbg_cleanup_nonce    000000000001a638 f   OpensslLib:rand_lib.obj
 0001:0001a414       rand_pool_new              000000000001a6d4 f   OpensslLib:rand_lib.obj
 0001:0001a50c       rand_pool_free             000000000001a7cc f   OpensslLib:rand_lib.obj
 0001:0001a668       rand_pool_bytes_needed     000000000001a928 f   OpensslLib:rand_lib.obj
 0001:0001a6f0       rand_pool_add              000000000001a9b0 f   OpensslLib:rand_lib.obj
 0001:0001a784       rand_pool_add_begin        000000000001aa44 f   OpensslLib:rand_lib.obj
 0001:0001a7dc       rand_pool_add_end          000000000001aa9c f   OpensslLib:rand_lib.obj
 0001:0001a820       RAND_get_rand_method       000000000001aae0 f   OpensslLib:rand_lib.obj
 0001:0001a86c       RAND_priv_bytes            000000000001ab2c f   OpensslLib:rand_lib.obj
 0001:0001a8c4       RAND_bytes                 000000000001ab84 f   OpensslLib:rand_lib.obj
 0001:0001a910       EVP_CIPHER_asn1_to_param   000000000001abd0 f   OpensslLib:evp_lib.obj
 0001:0001a9a4       EVP_CIPHER_get_asn1_iv     000000000001ac64 f   OpensslLib:evp_lib.obj
 0001:0001aa44       EVP_CIPHER_set_asn1_iv     000000000001ad04 f   OpensslLib:evp_lib.obj
 0001:0001aad4       EVP_CIPHER_CTX_iv_length   000000000001ad94 f   OpensslLib:evp_lib.obj
 0001:0001ab0c       EVP_PKEY_copy_parameters   000000000001adcc f   OpensslLib:p_lib.obj
 0001:0001abf8       EVP_PKEY_cmp               000000000001aeb8 f   OpensslLib:p_lib.obj
 0001:0001ac58       EVP_PKEY_new               000000000001af18 f   OpensslLib:p_lib.obj
 0001:0001ad78       EVP_PKEY_new_raw_private_key 000000000001b038 f   OpensslLib:p_lib.obj
 0001:0001ae08       EVP_PKEY_assign            000000000001b0c8 f   OpensslLib:p_lib.obj
 0001:0001ae50       EVP_PKEY_get0_RSA          000000000001b110 f   OpensslLib:p_lib.obj
 0001:0001ae80       EVP_PKEY_get0_EC_KEY       000000000001b140 f   OpensslLib:p_lib.obj
 0001:0001aec4       EVP_PKEY_get0_DH           000000000001b184 f   OpensslLib:p_lib.obj
 0001:0001aef4       EVP_PKEY_free              000000000001b1b4 f   OpensslLib:p_lib.obj
 0001:0001af58       EVP_PKEY_set1_tls_encodedpoint 000000000001b218 f   OpensslLib:p_lib.obj
 0001:0001af98       EVP_PKEY_get1_tls_encodedpoint 000000000001b258 f   OpensslLib:p_lib.obj
 0001:0001afd0       OPENSSL_showfatal          000000000001b290 f   OpensslLib:cryptlib.obj
 0001:0001b210       ossl_statem_server_read_transition 000000000001b4d0 f   OpensslLib:statem_srvr.obj
 0001:0001b3f8       send_certificate_request   000000000001b6b8 f   OpensslLib:statem_srvr.obj
 0001:0001b668       ossl_statem_server_write_transition 000000000001b928 f   OpensslLib:statem_srvr.obj
 0001:0001b91c       ossl_statem_server_pre_work 000000000001bbdc f   OpensslLib:statem_srvr.obj
 0001:0001baf4       ossl_statem_server_post_work 000000000001bdb4 f   OpensslLib:statem_srvr.obj
 0001:0001bddc       ossl_statem_server_construct_message 000000000001c09c f   OpensslLib:statem_srvr.obj
 0001:0001bfb4       ossl_statem_server_max_message_size 000000000001c274 f   OpensslLib:statem_srvr.obj
 0001:0001c010       ossl_statem_server_process_message 000000000001c2d0 f   OpensslLib:statem_srvr.obj
 0001:0001c164       ossl_statem_server_post_process_message 000000000001c424 f   OpensslLib:statem_srvr.obj
 0001:0001c1f8       dtls_construct_hello_verify_request 000000000001c4b8 f   OpensslLib:statem_srvr.obj
 0001:0001c3b4       tls_process_client_hello   000000000001c674 f   OpensslLib:statem_srvr.obj
 0001:0001d4f8       tls_handle_alpn            000000000001d7b8 f   OpensslLib:statem_srvr.obj
 0001:0001d8ac       tls_post_process_client_hello 000000000001db6c f   OpensslLib:statem_srvr.obj
 0001:0001da94       tls_construct_server_hello 000000000001dd54 f   OpensslLib:statem_srvr.obj
 0001:0001dce8       tls_construct_server_done  000000000001dfa8 f   OpensslLib:statem_srvr.obj
 0001:0001dd14       tls_construct_server_key_exchange 000000000001dfd4 f   OpensslLib:statem_srvr.obj
 0001:0001e5a8       tls_construct_certificate_request 000000000001e868 f   OpensslLib:statem_srvr.obj
 0001:0001ef14       tls_process_client_key_exchange 000000000001f1d4 f   OpensslLib:statem_srvr.obj
 0001:0001f05c       tls_process_client_certificate 000000000001f31c f   OpensslLib:statem_srvr.obj
 0001:0001f630       tls_construct_server_certificate 000000000001f8f0 f   OpensslLib:statem_srvr.obj
 0001:0001fcac       tls_construct_new_session_ticket 000000000001ff6c f   OpensslLib:statem_srvr.obj
 0001:00020070       tls_construct_cert_status_body 0000000000020330 f   OpensslLib:statem_srvr.obj
 0001:000200e4       tls_construct_cert_status  00000000000203a4 f   OpensslLib:statem_srvr.obj
 0001:000200fc       tls_process_next_proto     00000000000203bc f   OpensslLib:statem_srvr.obj
 0001:000201e0       X509_check_purpose         00000000000204a0 f   OpensslLib:v3_purp.obj
 0001:0002025c       X509_PURPOSE_get_by_id     000000000002051c f   OpensslLib:v3_purp.obj
 0001:00020dcc       x509_likely_issued         000000000002108c f   OpensslLib:v3_purp.obj
 0001:00020e54       X509_check_akid            0000000000021114 f   OpensslLib:v3_purp.obj
 0001:00020f04       X509_STORE_load_locations  00000000000211c4 f   OpensslLib:x509_d2.obj
 0001:00020f94       X509_NAME_ENTRY_free       0000000000021254 f   OpensslLib:x_name.obj
 0001:00020fb8       X509_NAME_free             0000000000021278 f   OpensslLib:x_name.obj
 0001:00021a08       X509_NAME_print            0000000000021cc8 f   OpensslLib:x_name.obj
 0001:00021b9c       custom_ext_find            0000000000021e5c f   OpensslLib:extensions_cust.obj
 0001:00021be4       custom_ext_parse           0000000000021ea4 f   OpensslLib:extensions_cust.obj
 0001:00021cf8       custom_ext_add             0000000000021fb8 f   OpensslLib:extensions_cust.obj
 0001:00021fe4       custom_exts_copy           00000000000222a4 f   OpensslLib:extensions_cust.obj
 0001:000220ec       custom_exts_free           00000000000223ac f   OpensslLib:extensions_cust.obj
 0001:0002256c       OBJ_add_object             000000000002282c f   OpensslLib:obj_dat.obj
 0001:000226f0       OBJ_nid2obj                00000000000229b0 f   OpensslLib:obj_dat.obj
 0001:0002277c       OBJ_nid2sn                 0000000000022a3c f   OpensslLib:obj_dat.obj
 0001:0002280c       OBJ_nid2ln                 0000000000022acc f   OpensslLib:obj_dat.obj
 0001:000228d8       OBJ_obj2nid                0000000000022b98 f   OpensslLib:obj_dat.obj
 0001:00022974       OBJ_txt2obj                0000000000022c34 f   OpensslLib:obj_dat.obj
 0001:00022a68       OBJ_obj2txt                0000000000022d28 f   OpensslLib:obj_dat.obj
 0001:00022d8c       OBJ_ln2nid                 000000000002304c f   OpensslLib:obj_dat.obj
 0001:00022e20       OBJ_sn2nid                 00000000000230e0 f   OpensslLib:obj_dat.obj
 0001:00022eb4       OBJ_bsearch_ex_            0000000000023174 f   OpensslLib:obj_dat.obj
 0001:00022f8c       OBJ_create                 000000000002324c f   OpensslLib:obj_dat.obj
 0001:00023128       CRYPTO_new_ex_data         00000000000233e8 f   OpensslLib:ex_data.obj
 0001:00023288       CRYPTO_dup_ex_data         0000000000023548 f   OpensslLib:ex_data.obj
 0001:0002346c       CRYPTO_free_ex_data        000000000002372c f   OpensslLib:ex_data.obj
 0001:000235f0       CRYPTO_set_ex_data         00000000000238b0 f   OpensslLib:ex_data.obj
 0001:00023694       ssl3_setup_read_buffer     0000000000023954 f   OpensslLib:ssl3_buffer.obj
 0001:00023740       ssl3_setup_write_buffer    0000000000023a00 f   OpensslLib:ssl3_buffer.obj
 0001:00023880       ssl3_setup_buffers         0000000000023b40 f   OpensslLib:ssl3_buffer.obj
 0001:000238b4       ssl3_release_write_buffer  0000000000023b74 f   OpensslLib:ssl3_buffer.obj
 0001:00024228       EVP_add_cipher             00000000000244e8 f   OpensslLib:names.obj
 0001:00024278       EVP_add_digest             0000000000024538 f   OpensslLib:names.obj
 0001:0002430c       EVP_get_cipherbyname       00000000000245cc f   OpensslLib:names.obj
 0001:00024340       EVP_get_digestbyname       0000000000024600 f   OpensslLib:names.obj
 0001:00024c38       X509_EXTENSION_free        0000000000024ef8 f   OpensslLib:x_exten.obj
 0001:00024c5c       tls13_hkdf_expand          0000000000024f1c f   OpensslLib:tls13_enc.obj
 0001:00024fa8       tls13_generate_secret      0000000000025268 f   OpensslLib:tls13_enc.obj
 0001:00025260       tls13_generate_handshake_secret 0000000000025520 f   OpensslLib:tls13_enc.obj
 0001:000252a0       tls13_generate_master_secret 0000000000025560 f   OpensslLib:tls13_enc.obj
 0001:00025320       tls13_final_finish_mac     00000000000255e0 f   OpensslLib:tls13_enc.obj
 0001:000254f0       tls13_setup_key_block      00000000000257b0 f   OpensslLib:tls13_enc.obj
 0001:00025820       tls13_change_cipher_state  0000000000025ae0 f   OpensslLib:tls13_enc.obj
 0001:00025fb4       tls13_update_key           0000000000026274 f   OpensslLib:tls13_enc.obj
 0001:00026104       tls13_alert_code           00000000000263c4 f   OpensslLib:tls13_enc.obj
 0001:00026118       tls13_export_keying_material 00000000000263d8 f   OpensslLib:tls13_enc.obj
 0001:0002631c       ssl3_do_write              00000000000265dc f   OpensslLib:statem_lib.obj
 0001:0002643c       tls_close_construct_packet 00000000000266fc f   OpensslLib:statem_lib.obj
 0001:000264bc       tls_setup_handshake        000000000002677c f   OpensslLib:statem_lib.obj
 0001:00026838       tls_construct_cert_verify  0000000000026af8 f   OpensslLib:statem_lib.obj
 0001:00026c04       tls_process_cert_verify    0000000000026ec4 f   OpensslLib:statem_lib.obj
 0001:000270bc       tls_construct_finished     000000000002737c f   OpensslLib:statem_lib.obj
 0001:00027288       tls_construct_key_update   0000000000027548 f   OpensslLib:statem_lib.obj
 0001:000272d8       tls_process_key_update     0000000000027598 f   OpensslLib:statem_lib.obj
 0001:0002736c       ssl3_take_mac              000000000002762c f   OpensslLib:statem_lib.obj
 0001:000273dc       tls_process_change_cipher_spec 000000000002769c f   OpensslLib:statem_lib.obj
 0001:00027530       tls_process_finished       00000000000277f0 f   OpensslLib:statem_lib.obj
 0001:0002777c       tls_construct_change_cipher_spec 0000000000027a3c f   OpensslLib:statem_lib.obj
 0001:00027b04       ssl3_output_cert_chain     0000000000027dc4 f   OpensslLib:statem_lib.obj
 0001:00027b90       tls_finish_handshake       0000000000027e50 f   OpensslLib:statem_lib.obj
 0001:00027e24       tls_get_message_header     00000000000280e4 f   OpensslLib:statem_lib.obj
 0001:00028084       tls_get_message_body       0000000000028344 f   OpensslLib:statem_lib.obj
 0001:000282b8       ssl_allow_compression      0000000000028578 f   OpensslLib:statem_lib.obj
 0001:00028580       ssl_version_supported      0000000000028840 f   OpensslLib:statem_lib.obj
 0001:00028670       ssl_set_version_bound      0000000000028930 f   OpensslLib:statem_lib.obj
 0001:0002874c       ssl_choose_server_version  0000000000028a0c f   OpensslLib:statem_lib.obj
 0001:000289d0       ssl_choose_client_version  0000000000028c90 f   OpensslLib:statem_lib.obj
 0001:00028bc0       ssl_get_min_max_version    0000000000028e80 f   OpensslLib:statem_lib.obj
 0001:00028ccc       check_in_list              0000000000028f8c f   OpensslLib:statem_lib.obj
 0001:00028d50       create_synthetic_message_hash 0000000000029010 f   OpensslLib:statem_lib.obj
 0001:00028e80       parse_ca_names             0000000000029140 f   OpensslLib:statem_lib.obj
 0001:0002903c       get_ca_names               00000000000292fc f   OpensslLib:statem_lib.obj
 0001:00029084       construct_ca_names         0000000000029344 f   OpensslLib:statem_lib.obj
 0001:000291ac       construct_key_exchange_tbs 000000000002946c f   OpensslLib:statem_lib.obj
 0001:0002926c       tls13_save_handshake_digest_for_pha 000000000002952c f   OpensslLib:statem_lib.obj
 0001:0002932c       tls13_restore_handshake_digest_for_pha 00000000000295ec f   OpensslLib:statem_lib.obj
 0001:000293e8       X509_load_cert_file        00000000000296a8 f   OpensslLib:by_file.obj
 0001:0002c6c8       OBJ_NAME_get               000000000002c988 f   OpensslLib:o_names.obj
 0001:0002c780       OBJ_NAME_add               000000000002ca40 f   OpensslLib:o_names.obj
 0001:0002cb84       ossl_init_thread_start     000000000002ce44 f   OpensslLib:init.obj
 0001:0002cbcc       OPENSSL_init_crypto        000000000002ce8c f   OpensslLib:init.obj
 0001:0002ce48       bwrite_conv                000000000002d108 f   OpensslLib:bio_meth.obj
 0001:0002ce84       bread_conv                 000000000002d144 f   OpensslLib:bio_meth.obj
 0001:0002cec0       dtls1_clear_received_buffer 000000000002d180 f   OpensslLib:d1_lib.obj
 0001:0002cf08       dtls1_clear_sent_buffer    000000000002d1c8 f   OpensslLib:d1_lib.obj
 0001:0002cf50       dtls1_start_timer          000000000002d210 f   OpensslLib:d1_lib.obj
 0001:0002d048       dtls1_stop_timer           000000000002d308 f   OpensslLib:d1_lib.obj
 0001:0002d0c4       dtls1_query_mtu            000000000002d384 f   OpensslLib:d1_lib.obj
 0001:0002d1f4       dtls1_min_mtu              000000000002d4b4 f   OpensslLib:d1_lib.obj
 0001:0002d22c       DTLS_RECORD_LAYER_clear    000000000002d4ec f   OpensslLib:rec_layer_d1.obj
 0001:0002d320       do_dtls1_write             000000000002d5e0 f   OpensslLib:rec_layer_d1.obj
 0001:0002d704       dtls1_reset_seq_numbers    000000000002d9c4 f   OpensslLib:rec_layer_d1.obj
 0001:0002d7b4       ssl3_num_ciphers           000000000002da74 f   OpensslLib:s3_lib.obj
 0001:0002d7bc       ssl3_get_cipher            000000000002da7c f   OpensslLib:s3_lib.obj
 0001:0002d7dc       ssl3_set_handshake_header  000000000002da9c f   OpensslLib:s3_lib.obj
 0001:0002d828       ssl3_handshake_write       000000000002dae8 f   OpensslLib:s3_lib.obj
 0001:0002d834       ssl3_free                  000000000002daf4 f   OpensslLib:s3_lib.obj
 0001:0002d9a8       ssl3_clear                 000000000002dc68 f   OpensslLib:s3_lib.obj
 0001:0002dafc       ssl3_ctrl                  000000000002ddbc f   OpensslLib:s3_lib.obj
 0001:0002e294       ssl3_callback_ctrl         000000000002e554 f   OpensslLib:s3_lib.obj
 0001:0002e2c4       ssl3_ctx_ctrl              000000000002e584 f   OpensslLib:s3_lib.obj
 0001:0002e7e4       ssl3_ctx_callback_ctrl     000000000002eaa4 f   OpensslLib:s3_lib.obj
 0001:0002e838       ssl3_get_cipher_by_id      000000000002eaf8 f   OpensslLib:s3_lib.obj
 0001:0002e8c8       ssl3_get_cipher_by_std_name 000000000002eb88 f   OpensslLib:s3_lib.obj
 0001:0002e974       ssl3_get_cipher_by_char    000000000002ec34 f   OpensslLib:s3_lib.obj
 0001:0002e98c       ssl3_put_cipher_by_char    000000000002ec4c f   OpensslLib:s3_lib.obj
 0001:0002e9d8       ssl3_choose_cipher         000000000002ec98 f   OpensslLib:s3_lib.obj
 0001:0002edcc       ssl3_get_req_cert_type     000000000002f08c f   OpensslLib:s3_lib.obj
 0001:0002ef20       ssl3_shutdown              000000000002f1e0 f   OpensslLib:s3_lib.obj
 0001:0002eff4       ssl3_write                 000000000002f2b4 f   OpensslLib:s3_lib.obj
 0001:0002f150       ssl3_read                  000000000002f410 f   OpensslLib:s3_lib.obj
 0001:0002f168       ssl3_peek                  000000000002f428 f   OpensslLib:s3_lib.obj
 0001:0002f184       ssl3_renegotiate           000000000002f444 f   OpensslLib:s3_lib.obj
 0001:0002f1a4       ssl3_renegotiate_check     000000000002f464 f   OpensslLib:s3_lib.obj
 0001:0002f21c       ssl_get_algorithm2         000000000002f4dc f   OpensslLib:s3_lib.obj
 0001:0002f274       ssl_fill_hello_random      000000000002f534 f   OpensslLib:s3_lib.obj
 0001:0002f314       ssl_generate_master_secret 000000000002f5d4 f   OpensslLib:s3_lib.obj
 0001:0002f568       ssl_generate_pkey          000000000002f828 f   OpensslLib:s3_lib.obj
 0001:0002f65c       ssl_generate_pkey_group    000000000002f91c f   OpensslLib:s3_lib.obj
 0001:0002f80c       ssl_generate_param_group   000000000002facc f   OpensslLib:s3_lib.obj
 0001:0002fa28       ssl_derive                 000000000002fce8 f   OpensslLib:s3_lib.obj
 0001:0002fc68       ssl_dh_to_pkey             000000000002ff28 f   OpensslLib:s3_lib.obj
 0001:0002fcc4       ssl3_send_alert            000000000002ff84 f   OpensslLib:s3_msg.obj
 0001:0002fdd4       ssl3_dispatch_alert        0000000000030094 f   OpensslLib:s3_msg.obj
 0001:00030614       d2i_X509_CRL               00000000000308d4 f   OpensslLib:x_crl.obj
 0001:00030620       X509_CRL_free              00000000000308e0 f   OpensslLib:x_crl.obj
 0001:00030ac4       X509_verify_cert           0000000000030d84 f   OpensslLib:x509_vfy.obj
 0001:00032ddc       x509_check_cert_time       000000000003309c f   OpensslLib:x509_vfy.obj
 0001:00033184       X509_cmp_time              0000000000033444 f   OpensslLib:x509_vfy.obj
 0001:00033280       X509_get_pubkey_parameters 0000000000033540 f   OpensslLib:x509_vfy.obj
 0001:00033378       X509_STORE_CTX_init        0000000000033638 f   OpensslLib:x509_vfy.obj
 0001:00033604       X509_STORE_CTX_cleanup     00000000000338c4 f   OpensslLib:x509_vfy.obj
 0001:00034864       EVP_PKEY_asn1_find         0000000000034b24 f   OpensslLib:ameth_lib.obj
 0001:000348f8       EVP_PKEY_asn1_find_str     0000000000034bb8 f   OpensslLib:ameth_lib.obj
 0001:00034abc       CONF_parse_list            0000000000034d7c f   OpensslLib:conf_mod.obj
 0001:00034be0       i2d_SSL_SESSION            0000000000034ea0 f   OpensslLib:ssl_asn1.obj
 0001:00034fa4       d2i_SSL_SESSION            0000000000035264 f   OpensslLib:ssl_asn1.obj
 0001:00035340       PEM_ASN1_read_bio          0000000000035600 f   OpensslLib:pem_oth.obj
 0001:0003540c       PEM_def_callback           00000000000356cc f   OpensslLib:pem_lib.obj
 0001:000363a4       PEM_read_bio_ex            0000000000036664 f   OpensslLib:pem_lib.obj
 0001:00036804       pem_check_suffix           0000000000036ac4 f   OpensslLib:pem_lib.obj
 0001:0003691c       tls_validate_all_contexts  0000000000036bdc f   OpensslLib:extensions.obj
 0001:00036a00       extension_is_relevant      0000000000036cc0 f   OpensslLib:extensions.obj
 0001:00036a9c       tls_collect_extensions     0000000000036d5c f   OpensslLib:extensions.obj
 0001:00036e6c       tls_parse_extension        000000000003712c f   OpensslLib:extensions.obj
 0001:00036f40       tls_parse_all_extensions   0000000000037200 f   OpensslLib:extensions.obj
 0001:00037014       tls_construct_extensions   00000000000372d4 f   OpensslLib:extensions.obj
 0001:00037c18       tls_psk_do_binder          0000000000037ed8 f   OpensslLib:extensions.obj
 0001:00038224       EC_KEY_free                00000000000384e4 f   OpensslLib:ec_key.obj
 0001:000382d0       EC_KEY_copy                0000000000038590 f   OpensslLib:ec_key.obj
 0001:00038478       EC_KEY_dup                 0000000000038738 f   OpensslLib:ec_key.obj
 0001:000384c0       ossl_ec_key_gen            0000000000038780 f   OpensslLib:ec_key.obj
 0001:000384d0       ec_key_simple_generate_key 0000000000038790 f   OpensslLib:ec_key.obj
 0001:000385c0       ec_key_simple_generate_public_key 0000000000038880 f   OpensslLib:ec_key.obj
 0001:000385ec       EC_KEY_check_key           00000000000388ac f   OpensslLib:ec_key.obj
 0001:00038640       ec_key_simple_check_key    0000000000038900 f   OpensslLib:ec_key.obj
 0001:000387e4       EC_KEY_set_group           0000000000038aa4 f   OpensslLib:ec_key.obj
 0001:0003883c       EC_KEY_oct2key             0000000000038afc f   OpensslLib:ec_key.obj
 0001:000388c0       ec_key_simple_priv2oct     0000000000038b80 f   OpensslLib:ec_key.obj
 0001:0003894c       ec_key_simple_oct2priv     0000000000038c0c f   OpensslLib:ec_key.obj
 0001:000389cc       EC_KEY_priv2buf            0000000000038c8c f   OpensslLib:ec_key.obj
 0001:00038abc       X509_verify                0000000000038d7c f   OpensslLib:x_all.obj
 0001:00038b4c       PEM_read_bio_PrivateKey    0000000000038e0c f   OpensslLib:pem_pkey.obj
 0001:00038e14       PEM_read_bio_DHparams      00000000000390d4 f   OpensslLib:pem_pkey.obj
 0001:00038f40       RSA_new_method             0000000000039200 f   OpensslLib:rsa_lib.obj
 0001:00039104       RSA_free                   00000000000393c4 f   OpensslLib:rsa_lib.obj
 0001:00039204       RSA_pkey_ctx_ctrl          00000000000394c4 f   OpensslLib:rsa_lib.obj
 0001:000392e0       d2i_PrivateKey             00000000000395a0 f   OpensslLib:d2i_pr.obj
 0001:00039440       ASN1_INTEGER_free          0000000000039700 f   OpensslLib:tasn_typ.obj
 0001:00039448       ASN1_TYPE_free             0000000000039708 f   OpensslLib:tasn_typ.obj
 0001:0003946c       ASN1_item_dup              000000000003972c f   OpensslLib:a_dup.obj
 0001:0003951c       ASN1_item_d2i              00000000000397dc f   OpensslLib:tasn_dec.obj
 0001:0003956c       ASN1_item_ex_d2i           000000000003982c f   OpensslLib:tasn_dec.obj
 0001:0003ab54       X509_ALGOR_free            000000000003ae14 f   OpensslLib:x_algor.obj
 0001:0003ab78       X509_ALGOR_set0            000000000003ae38 f   OpensslLib:x_algor.obj
 0001:0003b330       DIST_POINT_free            000000000003b5f0 f   OpensslLib:v3_crld.obj
 0001:0003b6f4       DIST_POINT_set_dpname      000000000003b9b4 f   OpensslLib:v3_crld.obj
 0001:0003b7dc       ASN1_item_new              000000000003ba9c f   OpensslLib:tasn_new.obj
 0001:0003bca8       GENERAL_NAME_free          000000000003bf68 f   OpensslLib:v3_genn.obj
 0001:0003bccc       GENERAL_NAMES_free         000000000003bf8c f   OpensslLib:v3_genn.obj
 0001:0003c3dc       NAME_CONSTRAINTS_check     000000000003c69c f   OpensslLib:v3_ncons.obj
 0001:0003c5a4       NAME_CONSTRAINTS_check_CN  000000000003c864 f   OpensslLib:v3_ncons.obj
 0001:0003cc9c       asn1_item_embed_free       000000000003cf5c f   OpensslLib:tasn_fre.obj
 0001:0003cee8       asn1_template_free         000000000003d1a8 f   OpensslLib:tasn_fre.obj
 0001:0003cfa4       asn1_primitive_free        000000000003d264 f   OpensslLib:tasn_fre.obj
 0001:0003d14c       ASN1_item_ex_i2d           000000000003d40c f   OpensslLib:tasn_enc.obj
 0001:0003dc94       X509_check_trust           000000000003df54 f   OpensslLib:x509_trs.obj
 0001:0003dd18       X509_TRUST_get_by_id       000000000003dfd8 f   OpensslLib:x509_trs.obj
 0001:0003ded0       a2d_ASN1_OBJECT            000000000003e190 f   OpensslLib:a_object.obj
 0001:0003e238       i2a_ASN1_OBJECT            000000000003e4f8 f   OpensslLib:a_object.obj
 0001:0003e378       d2i_ASN1_OBJECT            000000000003e638 f   OpensslLib:a_object.obj
 0001:0003e400       c2i_ASN1_OBJECT            000000000003e6c0 f   OpensslLib:a_object.obj
 0001:0003e5e4       ASN1_OBJECT_free           000000000003e8a4 f   OpensslLib:a_object.obj
 0001:0003e788       X509V3_add_value           000000000003ea48 f   OpensslLib:v3_utl.obj
 0001:0003e7b8       X509V3_conf_free           000000000003ea78 f   OpensslLib:v3_utl.obj
 0001:0003e8fc       i2s_ASN1_INTEGER           000000000003ebbc f   OpensslLib:v3_utl.obj
 0001:0003e960       s2i_ASN1_INTEGER           000000000003ec20 f   OpensslLib:v3_utl.obj
 0001:0003ea64       X509V3_add_value_int       000000000003ed24 f   OpensslLib:v3_utl.obj
 0001:0003eabc       X509V3_get_value_bool      000000000003ed7c f   OpensslLib:v3_utl.obj
 0001:0003ec4c       X509V3_get_value_int       000000000003ef0c f   OpensslLib:v3_utl.obj
 0001:0003ecbc       X509V3_parse_list          000000000003ef7c f   OpensslLib:v3_utl.obj
 0001:0003ef40       name_cmp                   000000000003f200 f   OpensslLib:v3_utl.obj
 0001:0003f7b0       a2i_IPADDRESS_NC           000000000003fa70 f   OpensslLib:v3_utl.obj
 0001:0003f880       a2i_ipadd                  000000000003fb40 f   OpensslLib:v3_utl.obj
 0001:0003fb14       X509V3_NAME_from_section   000000000003fdd4 f   OpensslLib:v3_utl.obj
 0001:0003fc58       OBJ_dup                    000000000003ff18 f   OpensslLib:obj_lib.obj
 0001:0003ffd8       ossl_statem_client_read_transition 0000000000040298 f   OpensslLib:statem_clnt.obj
 0001:00040454       ossl_statem_client_write_transition 0000000000040714 f   OpensslLib:statem_clnt.obj
 0001:00040674       ossl_statem_client_pre_work 0000000000040934 f   OpensslLib:statem_clnt.obj
 0001:0004071c       ossl_statem_client_post_work 00000000000409dc f   OpensslLib:statem_clnt.obj
 0001:000409fc       ossl_statem_client_construct_message 0000000000040cbc f   OpensslLib:statem_clnt.obj
 0001:00040b48       ossl_statem_client_max_message_size 0000000000040e08 f   OpensslLib:statem_clnt.obj
 0001:00040bfc       ossl_statem_client_process_message 0000000000040ebc f   OpensslLib:statem_clnt.obj
 0001:00040e60       ossl_statem_client_post_process_message 0000000000041120 f   OpensslLib:statem_clnt.obj
 0001:00040e98       tls_construct_client_hello 0000000000041158 f   OpensslLib:statem_clnt.obj
 0001:00041450       tls_process_server_hello   0000000000041710 f   OpensslLib:statem_clnt.obj
 0001:00041cac       tls_process_server_certificate 0000000000041f6c f   OpensslLib:statem_clnt.obj
 0001:00042634       tls_process_key_exchange   00000000000428f4 f   OpensslLib:statem_clnt.obj
 0001:00042ac8       tls_process_certificate_request 0000000000042d88 f   OpensslLib:statem_clnt.obj
 0001:00042ddc       tls_process_new_session_ticket 000000000004309c f   OpensslLib:statem_clnt.obj
 0001:0004324c       tls_process_cert_status_body 000000000004350c f   OpensslLib:statem_clnt.obj
 0001:00043324       tls_process_initial_server_flight 00000000000435e4 f   OpensslLib:statem_clnt.obj
 0001:00043a5c       tls_construct_client_key_exchange 0000000000043d1c f   OpensslLib:statem_clnt.obj
 0001:00043c2c       tls_prepare_client_certificate 0000000000043eec f   OpensslLib:statem_clnt.obj
 0001:00043fc4       tls_construct_client_certificate 0000000000044284 f   OpensslLib:statem_clnt.obj
 0001:000440dc       ssl3_check_cert_and_algorithm 000000000004439c f   OpensslLib:statem_clnt.obj
 0001:00044224       tls_construct_next_proto   00000000000444e4 f   OpensslLib:statem_clnt.obj
 0001:0004461c       tls_construct_end_of_early_data 00000000000448dc f   OpensslLib:statem_clnt.obj
 0001:00044688       WPACKET_allocate_bytes     0000000000044948 f   OpensslLib:packet.obj
 0001:000446bc       WPACKET_sub_allocate_bytes__ 000000000004497c f   OpensslLib:packet.obj
 0001:0004472c       WPACKET_reserve_bytes      00000000000449ec f   OpensslLib:packet.obj
 0001:00044848       WPACKET_init_static_len    0000000000044b08 f   OpensslLib:packet.obj
 0001:00044958       WPACKET_finish             0000000000044c18 f   OpensslLib:packet.obj
 0001:000449a4       WPACKET_start_sub_packet_len__ 0000000000044c64 f   OpensslLib:packet.obj
 0001:00044a6c       WPACKET_put_bytes__        0000000000044d2c f   OpensslLib:packet.obj
 0001:00044ae8       WPACKET_memcpy             0000000000044da8 f   OpensslLib:packet.obj
 0001:00044b30       WPACKET_sub_memcpy__       0000000000044df0 f   OpensslLib:packet.obj
 0001:00044ba0       WPACKET_get_total_written  0000000000044e60 f   OpensslLib:packet.obj
 0001:00044bdc       WPACKET_get_length         0000000000044e9c f   OpensslLib:packet.obj
 0001:00044c30       WPACKET_cleanup            0000000000044ef0 f   OpensslLib:packet.obj
 0001:00044d50       dtls1_hm_fragment_free     0000000000045010 f   OpensslLib:statem_dtls.obj
 0001:00044db8       dtls1_do_write             0000000000045078 f   OpensslLib:statem_dtls.obj
 0001:00045288       dtls_get_message           0000000000045548 f   OpensslLib:statem_dtls.obj
 0001:00045e50       dtls_construct_change_cipher_spec 0000000000046110 f   OpensslLib:statem_dtls.obj
 0001:00045ec0       dtls1_get_message_header   0000000000046180 f   OpensslLib:statem_dtls.obj
 0001:000460a8       EVP_PKEY_CTX_dup           0000000000046368 f   OpensslLib:pmeth_lib.obj
 0001:00046178       EVP_PKEY_CTX_free          0000000000046438 f   OpensslLib:pmeth_lib.obj
 0001:000461b8       EVP_PKEY_CTX_ctrl          0000000000046478 f   OpensslLib:pmeth_lib.obj
 0001:00046278       EVP_PKEY_CTX_str2ctrl      0000000000046538 f   OpensslLib:pmeth_lib.obj
 0001:000462b8       EVP_PKEY_CTX_hex2ctrl      0000000000046578 f   OpensslLib:pmeth_lib.obj
 0001:00046314       EVP_PKEY_CTX_md            00000000000465d4 f   OpensslLib:pmeth_lib.obj
 0001:00046380       X509_verify_cert_error_string 0000000000046640 f   OpensslLib:x509_txt.obj
 0001:000467bc       SSL3_RECORD_clear          0000000000046a7c f   OpensslLib:ssl3_record.obj
 0001:00046804       early_data_count_ok        0000000000046ac4 f   OpensslLib:ssl3_record.obj
 0001:000468bc       ssl3_get_record            0000000000046b7c f   OpensslLib:ssl3_record.obj
 0001:00047530       ssl3_do_uncompress         00000000000477f0 f   OpensslLib:ssl3_record.obj
 0001:000475d0       ssl3_do_compress           0000000000047890 f   OpensslLib:ssl3_record.obj
 0001:00047648       tls1_enc                   0000000000047908 f   OpensslLib:ssl3_record.obj
 0001:00047c94       tls1_mac                   0000000000047f54 f   OpensslLib:ssl3_record.obj
 0001:00047f54       tls1_cbc_remove_padding    0000000000048214 f   OpensslLib:ssl3_record.obj
 0001:00048094       ssl3_cbc_copy_mac          0000000000048354 f   OpensslLib:ssl3_record.obj
 0001:00048224       tls13_enc                  00000000000484e4 f   OpensslLib:ssl3_record_tls13.obj
 0001:00048894       tls1_change_cipher_state   0000000000048b54 f   OpensslLib:t1_enc.obj
 0001:00048e8c       tls1_setup_key_block       000000000004914c f   OpensslLib:t1_enc.obj
 0001:000490b8       tls1_final_finish_mac      0000000000049378 f   OpensslLib:t1_enc.obj
 0001:000491b8       tls1_generate_master_secret 0000000000049478 f   OpensslLib:t1_enc.obj
 0001:00049350       tls1_export_keying_material 0000000000049610 f   OpensslLib:t1_enc.obj
 0001:00049590       tls1_alert_code            0000000000049850 f   OpensslLib:t1_enc.obj
 0001:00049704       EC_GROUP_new               00000000000499c4 f   OpensslLib:ec_lib.obj
 0001:000497c4       EC_GROUP_free              0000000000049a84 f   OpensslLib:ec_lib.obj
 0001:0004983c       EC_GROUP_clear_free        0000000000049afc f   OpensslLib:ec_lib.obj
 0001:000498fc       EC_GROUP_copy              0000000000049bbc f   OpensslLib:ec_lib.obj
 0001:00049af4       EC_GROUP_dup               0000000000049db4 f   OpensslLib:ec_lib.obj
 0001:00049d28       EC_GROUP_set_generator     0000000000049fe8 f   OpensslLib:ec_lib.obj
 0001:00049eb4       EC_GROUP_set_seed          000000000004a174 f   OpensslLib:ec_lib.obj
 0001:00049f48       EC_GROUP_cmp               000000000004a208 f   OpensslLib:ec_lib.obj
 0001:0004a100       EC_POINT_new               000000000004a3c0 f   OpensslLib:ec_lib.obj
 0001:0004a180       EC_POINT_free              000000000004a440 f   OpensslLib:ec_lib.obj
 0001:0004a1ac       EC_POINT_clear_free        000000000004a46c f   OpensslLib:ec_lib.obj
 0001:0004a1f4       EC_POINT_copy              000000000004a4b4 f   OpensslLib:ec_lib.obj
 0001:0004a250       EC_POINT_set_to_infinity   000000000004a510 f   OpensslLib:ec_lib.obj
 0001:0004a290       EC_POINT_set_affine_coordinates 000000000004a550 f   OpensslLib:ec_lib.obj
 0001:0004a32c       EC_POINT_get_affine_coordinates 000000000004a5ec f   OpensslLib:ec_lib.obj
 0001:0004a3d8       EC_POINT_add               000000000004a698 f   OpensslLib:ec_lib.obj
 0001:0004a458       EC_POINT_dbl               000000000004a718 f   OpensslLib:ec_lib.obj
 0001:0004a4c0       EC_POINT_invert            000000000004a780 f   OpensslLib:ec_lib.obj
 0001:0004a514       EC_POINT_is_at_infinity    000000000004a7d4 f   OpensslLib:ec_lib.obj
 0001:0004a568       EC_POINT_is_on_curve       000000000004a828 f   OpensslLib:ec_lib.obj
 0001:0004a5bc       EC_POINT_cmp               000000000004a87c f   OpensslLib:ec_lib.obj
 0001:0004a624       EC_POINTs_make_affine      000000000004a8e4 f   OpensslLib:ec_lib.obj
 0001:0004a6a4       EC_POINT_mul               000000000004a964 f   OpensslLib:ec_lib.obj
 0001:0004a8e4       ec_group_simple_order_bits 000000000004aba4 f   OpensslLib:ec_lib.obj
 0001:0004a9f0       HMAC_Init_ex               000000000004acb0 f   OpensslLib:hmac.obj
 0001:0004ac10       HMAC_Final                 000000000004aed0 f   OpensslLib:hmac.obj
 0001:0004aca0       HMAC_CTX_new               000000000004af60 f   OpensslLib:hmac.obj
 0001:0004ad1c       HMAC_CTX_free              000000000004afdc f   OpensslLib:hmac.obj
 0001:0004adf8       HMAC_CTX_copy              000000000004b0b8 f   OpensslLib:hmac.obj
 0001:0004ae68       BN_num_bits_word           000000000004b128 f   OpensslLib:bn_lib.obj
 0001:0004af40       BN_num_bits                000000000004b200 f   OpensslLib:bn_lib.obj
 0001:0004b054       BN_clear_free              000000000004b314 f   OpensslLib:bn_lib.obj
 0001:0004b0a0       BN_free                    000000000004b360 f   OpensslLib:bn_lib.obj
 0001:0004b100       BN_new                     000000000004b3c0 f   OpensslLib:bn_lib.obj
 0001:0004b13c       bn_expand2                 000000000004b3fc f   OpensslLib:bn_lib.obj
 0001:0004b1f0       BN_dup                     000000000004b4b0 f   OpensslLib:bn_lib.obj
 0001:0004b254       BN_copy                    000000000004b514 f   OpensslLib:bn_lib.obj
 0001:0004b2cc       BN_set_word                000000000004b58c f   OpensslLib:bn_lib.obj
 0001:0004b318       BN_bin2bn                  000000000004b5d8 f   OpensslLib:bn_lib.obj
 0001:0004b540       BN_ucmp                    000000000004b800 f   OpensslLib:bn_lib.obj
 0001:0004b588       BN_cmp                     000000000004b848 f   OpensslLib:bn_lib.obj
 0001:0004b60c       BN_set_bit                 000000000004b8cc f   OpensslLib:bn_lib.obj
 0001:0004b69c       BN_is_bit_set              000000000004b95c f   OpensslLib:bn_lib.obj
 0001:0004b6cc       BN_consttime_swap          000000000004b98c f   OpensslLib:bn_lib.obj
 0001:0004b770       BN_security_bits           000000000004ba30 f   OpensslLib:bn_lib.obj
 0001:0004b7d8       BN_is_word                 000000000004ba98 f   OpensslLib:bn_lib.obj
 0001:0004b808       bn_correct_top             000000000004bac8 f   OpensslLib:bn_lib.obj
 0001:0004b938       RSA_setup_blinding         000000000004bbf8 f   OpensslLib:rsa_crpt.obj
 0001:0004be4c       EC_GROUP_new_by_curve_name 000000000004c10c f   OpensslLib:ec_curve.obj
 0001:0004beb8       EC_curve_nist2nid          000000000004c178 f   OpensslLib:ec_curve.obj
 0001:0004bf18       ec_curve_nid_from_params   000000000004c1d8 f   OpensslLib:ec_curve.obj
 0001:0004c1ac       DH_new                     000000000004c46c f   OpensslLib:dh_lib.obj
 0001:0004c324       DH_free                    000000000004c5e4 f   OpensslLib:dh_lib.obj
 0001:0004c3d4       ACCESS_DESCRIPTION_free    000000000004c694 f   OpensslLib:v3_info.obj
 0001:0004c760       X509_NAME_oneline          000000000004ca20 f   OpensslLib:x509_obj.obj
 0001:0004cac4       ASN1_INTEGER_cmp           000000000004cd84 f   OpensslLib:a_int.obj
 0001:0004cd44       c2i_ASN1_INTEGER           000000000004d004 f   OpensslLib:a_int.obj
 0001:0004d098       ASN1_INTEGER_get           000000000004d358 f   OpensslLib:a_int.obj
 0001:0004d0dc       ASN1_ENUMERATED_get        000000000004d39c f   OpensslLib:a_int.obj
 0001:0004d130       c2i_uint64_int             000000000004d3f0 f   OpensslLib:a_int.obj
 0001:0004d1e0       OBJ_find_sigid_algs        000000000004d4a0 f   OpensslLib:obj_xref.obj
 0001:0004d288       OBJ_find_sigid_by_algs     000000000004d548 f   OpensslLib:obj_xref.obj
 0001:0004d330       ASN1_get_object            000000000004d5f0 f   OpensslLib:asn1_lib.obj
 0001:0004d4c4       ASN1_put_object            000000000004d784 f   OpensslLib:asn1_lib.obj
 0001:0004d5bc       ASN1_object_size           000000000004d87c f   OpensslLib:asn1_lib.obj
 0001:0004d610       ASN1_STRING_copy           000000000004d8d0 f   OpensslLib:asn1_lib.obj
 0001:0004d660       ASN1_STRING_dup            000000000004d920 f   OpensslLib:asn1_lib.obj
 0001:0004d6b0       ASN1_STRING_set            000000000004d970 f   OpensslLib:asn1_lib.obj
 0001:0004d7a8       ASN1_STRING_set0           000000000004da68 f   OpensslLib:asn1_lib.obj
 0001:0004d7e0       ASN1_STRING_type_new       000000000004daa0 f   OpensslLib:asn1_lib.obj
 0001:0004d818       ASN1_STRING_free           000000000004dad8 f   OpensslLib:asn1_lib.obj
 0001:0004d85c       ASN1_STRING_clear_free     000000000004db1c f   OpensslLib:asn1_lib.obj
 0001:0004d894       ASN1_STRING_cmp            000000000004db54 f   OpensslLib:asn1_lib.obj
 0001:0004da28       asn1_time_to_tm            000000000004dce8 f   OpensslLib:a_time.obj
 0001:0004dde8       asn1_time_from_tm          000000000004e0a8 f   OpensslLib:a_time.obj
 0001:0004df00       ASN1_TIME_adj              000000000004e1c0 f   OpensslLib:a_time.obj
 0001:0004df54       ASN1_TIME_diff             000000000004e214 f   OpensslLib:a_time.obj
 0001:0004e048       ASN1_TIME_print            000000000004e308 f   OpensslLib:a_time.obj
 0001:0004eed4       SSL_CONF_cmd               000000000004f194 f   OpensslLib:ssl_conf.obj
 0001:0004f030       SSL_CONF_CTX_finish        000000000004f2f0 f   OpensslLib:ssl_conf.obj
 0001:0004f594       rand_pool_acquire_entropy  000000000004f854 f   OpensslLib:rand_pool.obj
 0001:0004f614       RAND_DRBG_set              000000000004f8d4 f   OpensslLib:drbg_lib.obj
 0001:0004f7e8       RAND_DRBG_free             000000000004faa8 f   OpensslLib:drbg_lib.obj
 0001:0004f858       RAND_DRBG_instantiate      000000000004fb18 f   OpensslLib:drbg_lib.obj
 0001:0004fa84       RAND_DRBG_reseed           000000000004fd44 f   OpensslLib:drbg_lib.obj
 0001:0004fbf0       rand_drbg_restart          000000000004feb0 f   OpensslLib:drbg_lib.obj
 0001:0004ff38       RAND_DRBG_generate         00000000000501f8 f   OpensslLib:drbg_lib.obj
 0001:000500ac       RAND_DRBG_bytes            000000000005036c f   OpensslLib:drbg_lib.obj
 0001:000505b8       RAND_DRBG_get0_master      0000000000050878 f   OpensslLib:drbg_lib.obj
 0001:000505ec       RAND_DRBG_get0_private     00000000000508ac f   OpensslLib:drbg_lib.obj
 0001:00050720       ASN1_TYPE_set              00000000000509e0 f   OpensslLib:a_type.obj
 0001:00050784       ASN1_TYPE_cmp              0000000000050a44 f   OpensslLib:a_type.obj
 0001:000507f8       ASN1_TYPE_unpack_sequence  0000000000050ab8 f   OpensslLib:a_type.obj
 0001:00050854       X509_ATTRIBUTE_free        0000000000050b14 f   OpensslLib:x_attrib.obj
 0001:000508fc       CMAC_CTX_new               0000000000050bbc f   OpensslLib:cmac.obj
 0001:00050960       CMAC_CTX_free              0000000000050c20 f   OpensslLib:cmac.obj
 0001:000509f8       CMAC_CTX_copy              0000000000050cb8 f   OpensslLib:cmac.obj
 0001:00050a94       CMAC_Init                  0000000000050d54 f   OpensslLib:cmac.obj
 0001:00050e44       EVP_DigestSignFinal        0000000000051104 f   OpensslLib:m_sigver.obj
 0001:00051024       EVP_DigestSign             00000000000512e4 f   OpensslLib:m_sigver.obj
 0001:0005109c       EVP_DigestVerifyFinal      000000000005135c f   OpensslLib:m_sigver.obj
 0001:000511cc       EVP_DigestVerify           000000000005148c f   OpensslLib:m_sigver.obj
 0001:00051240       ssl3_cleanup_key_block     0000000000051500 f   OpensslLib:s3_enc.obj
 0001:000512ac       ssl3_init_finished_mac     000000000005156c f   OpensslLib:s3_enc.obj
 0001:00051328       ssl3_free_digest_list      00000000000515e8 f   OpensslLib:s3_enc.obj
 0001:00051390       ssl3_finish_mac            0000000000051650 f   OpensslLib:s3_enc.obj
 0001:0005142c       ssl3_digest_cached_records 00000000000516ec f   OpensslLib:s3_enc.obj
 0001:00051548       X509v3_get_ext_by_NID      0000000000051808 f   OpensslLib:x509_v3.obj
 0001:00051584       X509v3_get_ext_by_OBJ      0000000000051844 f   OpensslLib:x509_v3.obj
 0001:00052378       ASN1_STRING_to_UTF8        0000000000052638 f   OpensslLib:a_strex.obj
 0001:00052400       BN_bn2hex                  00000000000526c0 f   OpensslLib:bn_print.obj
 0001:000524e0       BN_bn2dec                  00000000000527a0 f   OpensslLib:bn_print.obj
 0001:000526a0       BN_hex2bn                  0000000000052960 f   OpensslLib:bn_print.obj
 0001:00052854       BN_dec2bn                  0000000000052b14 f   OpensslLib:bn_print.obj
 0001:00052ac8       BN_mod_word                0000000000052d88 f   OpensslLib:bn_word.obj
 0001:00052b6c       BN_div_word                0000000000052e2c f   OpensslLib:bn_word.obj
 0001:00052c58       BN_add_word                0000000000052f18 f   OpensslLib:bn_word.obj
 0001:00052d2c       BN_sub_word                0000000000052fec f   OpensslLib:bn_word.obj
 0001:00052dfc       BN_mul_word                00000000000530bc f   OpensslLib:bn_word.obj
 0001:00052f08       BN_lshift1                 00000000000531c8 f   OpensslLib:bn_shift.obj
 0001:00052fb0       BN_rshift1                 0000000000053270 f   OpensslLib:bn_shift.obj
 0001:00053084       BN_lshift                  0000000000053344 f   OpensslLib:bn_shift.obj
 0001:000530c8       bn_lshift_fixed_top        0000000000053388 f   OpensslLib:bn_shift.obj
 0001:00053200       BN_rshift                  00000000000534c0 f   OpensslLib:bn_shift.obj
 0001:0005323c       bn_rshift_fixed_top        00000000000534fc f   OpensslLib:bn_shift.obj
 0001:00053344       EVP_PBE_CipherInit         0000000000053604 f   OpensslLib:evp_pbe.obj
 0001:000534d0       EVP_PBE_find               0000000000053790 f   OpensslLib:evp_pbe.obj
 0001:0005359c       EVP_PKEY_sign_init         000000000005385c f   OpensslLib:pmeth_fn.obj
 0001:000535f8       EVP_PKEY_sign              00000000000538b8 f   OpensslLib:pmeth_fn.obj
 0001:00053708       EVP_PKEY_verify_init       00000000000539c8 f   OpensslLib:pmeth_fn.obj
 0001:00053764       EVP_PKEY_verify            0000000000053a24 f   OpensslLib:pmeth_fn.obj
 0001:000537c0       EVP_PKEY_encrypt_init      0000000000053a80 f   OpensslLib:pmeth_fn.obj
 0001:00053824       EVP_PKEY_encrypt           0000000000053ae4 f   OpensslLib:pmeth_fn.obj
 0001:00053938       EVP_PKEY_derive_init       0000000000053bf8 f   OpensslLib:pmeth_fn.obj
 0001:0005399c       EVP_PKEY_derive_set_peer   0000000000053c5c f   OpensslLib:pmeth_fn.obj
 0001:00053b24       EVP_PKEY_derive            0000000000053de4 f   OpensslLib:pmeth_fn.obj
 0001:00053c20       CRYPTO_xts128_encrypt      0000000000053ee0 f   OpensslLib:xts128.obj
 0001:00053ec0       AES_set_encrypt_key        0000000000054180 f   OpensslLib:aes_core.obj
 0001:000544a8       AES_set_decrypt_key        0000000000054768 f   OpensslLib:aes_core.obj
 0001:000546e4       AES_encrypt                00000000000549a4 f   OpensslLib:aes_core.obj
 0001:00054d28       AES_decrypt                0000000000054fe8 f   OpensslLib:aes_core.obj
 0001:000554c0       CRYPTO_gcm128_init         0000000000055780 f   OpensslLib:gcm128.obj
 0001:0005569c       CRYPTO_gcm128_setiv        000000000005595c f   OpensslLib:gcm128.obj
 0001:00055860       CRYPTO_gcm128_aad          0000000000055b20 f   OpensslLib:gcm128.obj
 0001:0005599c       CRYPTO_gcm128_encrypt      0000000000055c5c f   OpensslLib:gcm128.obj
 0001:00055ae4       CRYPTO_gcm128_decrypt      0000000000055da4 f   OpensslLib:gcm128.obj
 0001:00055c2c       CRYPTO_gcm128_finish       0000000000055eec f   OpensslLib:gcm128.obj
 0001:00055db4       CRYPTO_gcm128_tag          0000000000056074 f   OpensslLib:gcm128.obj
 0001:00055dec       CRYPTO_ccm128_init         00000000000560ac f   OpensslLib:ccm128.obj
 0001:00055e54       CRYPTO_ccm128_setiv        0000000000056114 f   OpensslLib:ccm128.obj
 0001:00055ee8       CRYPTO_ccm128_aad          00000000000561a8 f   OpensslLib:ccm128.obj
 0001:00056064       CRYPTO_ccm128_encrypt      0000000000056324 f   OpensslLib:ccm128.obj
 0001:00056318       CRYPTO_ccm128_decrypt      00000000000565d8 f   OpensslLib:ccm128.obj
 0001:00056514       CRYPTO_ccm128_encrypt_ccm64 00000000000567d4 f   OpensslLib:ccm128.obj
 0001:0005675c       CRYPTO_ccm128_decrypt_ccm64 0000000000056a1c f   OpensslLib:ccm128.obj
 0001:00056954       CRYPTO_ccm128_tag          0000000000056c14 f   OpensslLib:ccm128.obj
 0001:00056990       CRYPTO_cbc128_encrypt      0000000000056c50 f   OpensslLib:cbc128.obj
 0001:00056a64       CRYPTO_cbc128_decrypt      0000000000056d24 f   OpensslLib:cbc128.obj
 0001:00056b24       CRYPTO_ofb128_encrypt      0000000000056de4 f   OpensslLib:ofb128.obj
 0001:00056bac       CRYPTO_128_wrap            0000000000056e6c f   OpensslLib:wrap128.obj
 0001:00056e2c       CRYPTO_128_wrap_pad        00000000000570ec f   OpensslLib:wrap128.obj
 0001:00056f58       CRYPTO_128_unwrap_pad      0000000000057218 f   OpensslLib:wrap128.obj
 0001:000570fc       AES_cbc_encrypt            00000000000573bc f   OpensslLib:aes_cbc.obj
 0001:00057128       CRYPTO_ctr128_encrypt      00000000000573e8 f   OpensslLib:ctr128.obj
 0001:000571d8       CRYPTO_ctr128_encrypt_ctr32 0000000000057498 f   OpensslLib:ctr128.obj
 0001:000573d0       CRYPTO_cfb128_encrypt      0000000000057690 f   OpensslLib:cfb128.obj
 0001:000575d0       CRYPTO_cfb128_1_encrypt    0000000000057890 f   OpensslLib:cfb128.obj
 0001:000576c4       CRYPTO_cfb128_8_encrypt    0000000000057984 f   OpensslLib:cfb128.obj
 0001:00057760       SHA224_Init                0000000000057a20 f   OpensslLib:sha256.obj
 0001:000577c0       SHA256_Init                0000000000057a80 f   OpensslLib:sha256.obj
 0001:00057820       SHA256_Update              0000000000057ae0 f   OpensslLib:sha256.obj
 0001:00057934       SHA256_Transform           0000000000057bf4 f   OpensslLib:sha256.obj
 0001:00057940       SHA256_Final               0000000000057c00 f   OpensslLib:sha256.obj
 0001:00057e18       SHA384_Init                00000000000580d8 f   OpensslLib:sha512.obj
 0001:00057ea8       SHA512_Init                0000000000058168 f   OpensslLib:sha512.obj
 0001:00057f38       SHA512_Final               00000000000581f8 f   OpensslLib:sha512.obj
 0001:00058278       SHA512_Update              0000000000058538 f   OpensslLib:sha512.obj
 0001:0005837c       SHA512_Transform           000000000005863c f   OpensslLib:sha512.obj
 0001:000587f0       SHA1_Update                0000000000058ab0 f   OpensslLib:sha1dgst.obj
 0001:00058904       SHA1_Transform             0000000000058bc4 f   OpensslLib:sha1dgst.obj
 0001:00058910       SHA1_Final                 0000000000058bd0 f   OpensslLib:sha1dgst.obj
 0001:00058a5c       SHA1_Init                  0000000000058d1c f   OpensslLib:sha1dgst.obj
 0001:000590d0       aria_encrypt               0000000000059390 f   OpensslLib:aria.obj
 0001:000591c4       aria_set_encrypt_key       0000000000059484 f   OpensslLib:aria.obj
 0001:000594f0       aria_set_decrypt_key       00000000000597b0 f   OpensslLib:aria.obj
 0001:000595a4       MD5_Update                 0000000000059864 f   OpensslLib:md5_dgst.obj
 0001:000596b8       MD5_Transform              0000000000059978 f   OpensslLib:md5_dgst.obj
 0001:000596c4       MD5_Final                  0000000000059984 f   OpensslLib:md5_dgst.obj
 0001:00059850       MD5_Init                   0000000000059b10 f   OpensslLib:md5_dgst.obj
 0001:0005988c       md5_block_data_order       0000000000059b4c f   OpensslLib:md5_dgst.obj
 0001:0005a334       openssl_add_all_ciphers_int 000000000005a5f4 f   OpensslLib:c_allc.obj
 0001:0005a7d0       pitem_new                  000000000005aa90 f   OpensslLib:pqueue.obj
 0001:0005a844       pqueue_insert              000000000005ab04 f   OpensslLib:pqueue.obj
 0001:0005a8c4       pqueue_find                000000000005ab84 f   OpensslLib:pqueue.obj
 0001:0005a944       EVP_PKEY_keygen_init       000000000005ac04 f   OpensslLib:pmeth_gn.obj
 0001:0005a9a0       EVP_PKEY_keygen            000000000005ac60 f   OpensslLib:pmeth_gn.obj
 0001:0005aa5c       ASN1_item_verify           000000000005ad1c f   OpensslLib:a_verify.obj
 0001:0005acdc       X509_NAME_get_index_by_NID 000000000005af9c f   OpensslLib:x509name.obj
 0001:0005ad18       X509_NAME_get_index_by_OBJ 000000000005afd8 f   OpensslLib:x509name.obj
 0001:0005adb4       X509_NAME_get_entry        000000000005b074 f   OpensslLib:x509name.obj
 0001:0005adec       X509_NAME_delete_entry     000000000005b0ac f   OpensslLib:x509name.obj
 0001:0005aefc       X509_NAME_add_entry        000000000005b1bc f   OpensslLib:x509name.obj
 0001:0005b064       X509_NAME_ENTRY_create_by_OBJ 000000000005b324 f   OpensslLib:x509name.obj
 0001:0005bdd8       X509_policy_tree_free      000000000005c098 f   OpensslLib:pcy_tree.obj
 0001:0005be84       X509_policy_check          000000000005c144 f   OpensslLib:pcy_tree.obj
 0001:0005f1a0       rsa_pss_params_create      000000000005f460 f   OpensslLib:rsa_ameth.obj
 0001:0005f6b8       rsa_pss_get_param          000000000005f978 f   OpensslLib:rsa_ameth.obj
 0001:00060c20       EVP_DecodeUpdate           0000000000060ee0 f   OpensslLib:encode.obj
 0001:00060f78       EVP_read_pw_string_min     0000000000061238 f   OpensslLib:evp_key.obj
 0001:000610fc       EVP_BytesToKey             00000000000613bc f   OpensslLib:evp_key.obj
 0001:000612b8       tls_construct_ctos_renegotiate 0000000000061578 f   OpensslLib:extensions_clnt.obj
 0001:00061378       tls_construct_ctos_server_name 0000000000061638 f   OpensslLib:extensions_clnt.obj
 0001:000614a8       tls_construct_ctos_maxfragmentlen 0000000000061768 f   OpensslLib:extensions_clnt.obj
 0001:000615e8       tls_construct_ctos_ec_pt_formats 00000000000618a8 f   OpensslLib:extensions_clnt.obj
 0001:000616e0       tls_construct_ctos_supported_groups 00000000000619a0 f   OpensslLib:extensions_clnt.obj
 0001:00061830       tls_construct_ctos_session_ticket 0000000000061af0 f   OpensslLib:extensions_clnt.obj
 0001:00061990       tls_construct_ctos_sig_algs 0000000000061c50 f   OpensslLib:extensions_clnt.obj
 0001:00061ab8       tls_construct_ctos_status_request 0000000000061d78 f   OpensslLib:extensions_clnt.obj
 0001:00061d24       tls_construct_ctos_npn     0000000000061fe4 f   OpensslLib:extensions_clnt.obj
 0001:00061dbc       tls_construct_ctos_alpn    000000000006207c f   OpensslLib:extensions_clnt.obj
 0001:00061eb4       tls_construct_ctos_use_srtp 0000000000062174 f   OpensslLib:extensions_clnt.obj
 0001:00062030       tls_construct_ctos_etm     00000000000622f0 f   OpensslLib:extensions_clnt.obj
 0001:000620a8       tls_construct_ctos_ems     0000000000062368 f   OpensslLib:extensions_clnt.obj
 0001:0006210c       tls_construct_ctos_supported_versions 00000000000623cc f   OpensslLib:extensions_clnt.obj
 0001:0006221c       tls_construct_ctos_psk_kex_modes 00000000000624dc f   OpensslLib:extensions_clnt.obj
 0001:000624dc       tls_construct_ctos_key_share 000000000006279c f   OpensslLib:extensions_clnt.obj
 0001:0006263c       tls_construct_ctos_cookie  00000000000628fc f   OpensslLib:extensions_clnt.obj
 0001:00062718       tls_construct_ctos_early_data 00000000000629d8 f   OpensslLib:extensions_clnt.obj
 0001:00062c3c       tls_construct_ctos_padding 0000000000062efc f   OpensslLib:extensions_clnt.obj
 0001:00062d74       tls_construct_ctos_psk     0000000000063034 f   OpensslLib:extensions_clnt.obj
 0001:0006323c       tls_construct_ctos_post_handshake_auth 00000000000634fc f   OpensslLib:extensions_clnt.obj
 0001:000632d8       tls_parse_stoc_renegotiate 0000000000063598 f   OpensslLib:extensions_clnt.obj
 0001:00063428       tls_parse_stoc_maxfragmentlen 00000000000636e8 f   OpensslLib:extensions_clnt.obj
 0001:00063494       tls_parse_stoc_server_name 0000000000063754 f   OpensslLib:extensions_clnt.obj
 0001:00063520       tls_parse_stoc_ec_pt_formats 00000000000637e0 f   OpensslLib:extensions_clnt.obj
 0001:0006362c       tls_parse_stoc_session_ticket 00000000000638ec f   OpensslLib:extensions_clnt.obj
 0001:000636b0       tls_parse_stoc_status_request 0000000000063970 f   OpensslLib:extensions_clnt.obj
 0001:00063758       tls_parse_stoc_npn         0000000000063a18 f   OpensslLib:extensions_clnt.obj
 0001:000638c4       tls_parse_stoc_alpn        0000000000063b84 f   OpensslLib:extensions_clnt.obj
 0001:00063ab0       tls_parse_stoc_use_srtp    0000000000063d70 f   OpensslLib:extensions_clnt.obj
 0001:00063bb4       tls_parse_stoc_etm         0000000000063e74 f   OpensslLib:extensions_clnt.obj
 0001:00063c00       tls_parse_stoc_ems         0000000000063ec0 f   OpensslLib:extensions_clnt.obj
 0001:00063c28       tls_parse_stoc_supported_versions 0000000000063ee8 f   OpensslLib:extensions_clnt.obj
 0001:00063ca4       tls_parse_stoc_key_share   0000000000063f64 f   OpensslLib:extensions_clnt.obj
 0001:00063eb8       tls_parse_stoc_cookie      0000000000064178 f   OpensslLib:extensions_clnt.obj
 0001:00063f4c       tls_parse_stoc_early_data  000000000006420c f   OpensslLib:extensions_clnt.obj
 0001:0006400c       tls_parse_stoc_psk         00000000000642cc f   OpensslLib:extensions_clnt.obj
 0001:000641b4       tls_parse_ctos_renegotiate 0000000000064474 f   OpensslLib:extensions_srvr.obj
 0001:0006425c       tls_parse_ctos_server_name 000000000006451c f   OpensslLib:extensions_srvr.obj
 0001:000643f4       tls_parse_ctos_maxfragmentlen 00000000000646b4 f   OpensslLib:extensions_srvr.obj
 0001:00064470       tls_parse_ctos_ec_pt_formats 0000000000064730 f   OpensslLib:extensions_srvr.obj
 0001:000644ec       tls_parse_ctos_session_ticket 00000000000647ac f   OpensslLib:extensions_srvr.obj
 0001:0006453c       tls_parse_ctos_sig_algs_cert 00000000000647fc f   OpensslLib:extensions_srvr.obj
 0001:000645a8       tls_parse_ctos_sig_algs    0000000000064868 f   OpensslLib:extensions_srvr.obj
 0001:00064614       tls_parse_ctos_status_request 00000000000648d4 f   OpensslLib:extensions_srvr.obj
 0001:0006488c       tls_parse_ctos_npn         0000000000064b4c f   OpensslLib:extensions_srvr.obj
 0001:000648b4       tls_parse_ctos_alpn        0000000000064b74 f   OpensslLib:extensions_srvr.obj
 0001:000649b8       tls_parse_ctos_use_srtp    0000000000064c78 f   OpensslLib:extensions_srvr.obj
 0001:00064b60       tls_parse_ctos_etm         0000000000064e20 f   OpensslLib:extensions_srvr.obj
 0001:00064b78       tls_parse_ctos_psk_kex_modes 0000000000064e38 f   OpensslLib:extensions_srvr.obj
 0001:00064c00       tls_parse_ctos_key_share   0000000000064ec0 f   OpensslLib:extensions_srvr.obj
 0001:00064e30       tls_parse_ctos_cookie      00000000000650f0 f   OpensslLib:extensions_srvr.obj
 0001:000654d0       tls_parse_ctos_supported_groups 0000000000065790 f   OpensslLib:extensions_srvr.obj
 0001:0006558c       tls_parse_ctos_ems         000000000006584c f   OpensslLib:extensions_srvr.obj
 0001:000655c4       tls_parse_ctos_early_data  0000000000065884 f   OpensslLib:extensions_srvr.obj
 0001:00065604       tls_parse_ctos_psk         00000000000658c4 f   OpensslLib:extensions_srvr.obj
 0001:00065bcc       tls_parse_ctos_post_handshake_auth 0000000000065e8c f   OpensslLib:extensions_srvr.obj
 0001:00065c08       tls_construct_stoc_renegotiate 0000000000065ec8 f   OpensslLib:extensions_srvr.obj
 0001:00065d28       tls_construct_stoc_server_name 0000000000065fe8 f   OpensslLib:extensions_srvr.obj
 0001:00065dc4       tls_construct_stoc_maxfragmentlen 0000000000066084 f   OpensslLib:extensions_srvr.obj
 0001:00065e88       tls_construct_stoc_ec_pt_formats 0000000000066148 f   OpensslLib:extensions_srvr.obj
 0001:00065f9c       tls_construct_stoc_supported_groups 000000000006625c f   OpensslLib:extensions_srvr.obj
 0001:00066134       tls_construct_stoc_session_ticket 00000000000663f4 f   OpensslLib:extensions_srvr.obj
 0001:000661b8       tls_construct_stoc_status_request 0000000000066478 f   OpensslLib:extensions_srvr.obj
 0001:000662bc       tls_construct_stoc_next_proto_neg 000000000006657c f   OpensslLib:extensions_srvr.obj
 0001:00066388       tls_construct_stoc_alpn    0000000000066648 f   OpensslLib:extensions_srvr.obj
 0001:00066484       tls_construct_stoc_use_srtp 0000000000066744 f   OpensslLib:extensions_srvr.obj
 0001:00066560       tls_construct_stoc_etm     0000000000066820 f   OpensslLib:extensions_srvr.obj
 0001:00066608       tls_construct_stoc_ems     00000000000668c8 f   OpensslLib:extensions_srvr.obj
 0001:00066680       tls_construct_stoc_supported_versions 0000000000066940 f   OpensslLib:extensions_srvr.obj
 0001:00066740       tls_construct_stoc_key_share 0000000000066a00 f   OpensslLib:extensions_srvr.obj
 0001:00066978       tls_construct_stoc_cookie  0000000000066c38 f   OpensslLib:extensions_srvr.obj
 0001:00066df4       tls_construct_stoc_cryptopro_bug 00000000000670b4 f   OpensslLib:extensions_srvr.obj
 0001:00066eb0       tls_construct_stoc_early_data 0000000000067170 f   OpensslLib:extensions_srvr.obj
 0001:00066f8c       tls_construct_stoc_psk     000000000006724c f   OpensslLib:extensions_srvr.obj
 0001:00067038       BN_CTX_new                 00000000000672f8 f   OpensslLib:bn_ctx.obj
 0001:0006707c       BN_CTX_free                000000000006733c f   OpensslLib:bn_ctx.obj
 0001:000670fc       BN_CTX_start               00000000000673bc f   OpensslLib:bn_ctx.obj
 0001:00067144       BN_CTX_end                 0000000000067404 f   OpensslLib:bn_ctx.obj
 0001:000671bc       BN_CTX_get                 000000000006747c f   OpensslLib:bn_ctx.obj
 0001:000673cc       bn_compute_wNAF            000000000006768c f   OpensslLib:bn_intern.obj
 0001:00067570       EC_POINT_set_compressed_coordinates 0000000000067830 f   OpensslLib:ec_oct.obj
 0001:000675f4       EC_POINT_point2oct         00000000000678b4 f   OpensslLib:ec_oct.obj
 0001:00067674       EC_POINT_oct2point         0000000000067934 f   OpensslLib:ec_oct.obj
 0001:000676fc       EC_POINT_point2buf         00000000000679bc f   OpensslLib:ec_oct.obj
 0001:000677b8       EC_KEY_new_method          0000000000067a78 f   OpensslLib:ec_kmeth.obj
 0001:00067920       ECDH_compute_key           0000000000067be0 f   OpensslLib:ec_kmeth.obj
 0001:00067ce4       BN_generate_dsa_nonce      0000000000067fa4 f   OpensslLib:bn_rand.obj
 0001:00067eb4       ASN1_item_d2i_bio          0000000000068174 f   OpensslLib:a_d2i_fp.obj
 0001:00067f9c       asn1_d2i_read_bio          000000000006825c f   OpensslLib:a_d2i_fp.obj
 0001:00068258       PKCS8_PRIV_KEY_INFO_free   0000000000068518 f   OpensslLib:p8_pkey.obj
 0001:0006827c       PKCS8_pkey_set0            000000000006853c f   OpensslLib:p8_pkey.obj
 0001:000682ec       EVP_PKCS82PKEY             00000000000685ac f   OpensslLib:evp_pkey.obj
 0001:0006874c       EC_GROUP_get_ecparameters  0000000000068a0c f   OpensslLib:ec_asn1.obj
 0001:000688e4       EC_GROUP_get_ecpkparameters 0000000000068ba4 f   OpensslLib:ec_asn1.obj
 0001:000689e0       EC_GROUP_new_from_ecparameters 0000000000068ca0 f   OpensslLib:ec_asn1.obj
 0001:00068ddc       EC_GROUP_new_from_ecpkparameters 000000000006909c f   OpensslLib:ec_asn1.obj
 0001:00068e58       d2i_ECPKParameters         0000000000069118 f   OpensslLib:ec_asn1.obj
 0001:00068f34       i2d_ECPKParameters         00000000000691f4 f   OpensslLib:ec_asn1.obj
 0001:00068fd0       d2i_ECPrivateKey           0000000000069290 f   OpensslLib:ec_asn1.obj
 0001:000691b4       i2d_ECPrivateKey           0000000000069474 f   OpensslLib:ec_asn1.obj
 0001:00069418       d2i_ECParameters           00000000000696d8 f   OpensslLib:ec_asn1.obj
 0001:000694a4       i2o_ECPublicKey            0000000000069764 f   OpensslLib:ec_asn1.obj
 0001:000695ac       ECDSA_SIG_new              000000000006986c f   OpensslLib:ec_asn1.obj
 0001:000695e0       ECDSA_size                 00000000000698a0 f   OpensslLib:ec_asn1.obj
 0001:00069668       ASN1_item_digest           0000000000069928 f   OpensslLib:a_digest.obj
 0001:00069774       d2i_DHxparams              0000000000069a34 f   OpensslLib:dh_asn1.obj
 0001:00069850       i2d_DHxparams              0000000000069b10 f   OpensslLib:dh_asn1.obj
 0001:000698d8       PKCS8_decrypt              0000000000069b98 f   OpensslLib:p12_p8d.obj
 0001:00069994       rsa_multip_info_free       0000000000069c54 f   OpensslLib:rsa_mp.obj
 0001:000699d0       rsa_multip_info_new        0000000000069c90 f   OpensslLib:rsa_mp.obj
 0001:00069a90       rsa_multip_calc_product    0000000000069d50 f   OpensslLib:rsa_mp.obj
 0001:0006b56c       BN_BLINDING_new            000000000006b82c f   OpensslLib:bn_blind.obj
 0001:0006b610       BN_BLINDING_free           000000000006b8d0 f   OpensslLib:bn_blind.obj
 0001:0006b660       BN_BLINDING_update         000000000006b920 f   OpensslLib:bn_blind.obj
 0001:0006b76c       BN_BLINDING_convert_ex     000000000006ba2c f   OpensslLib:bn_blind.obj
 0001:0006b82c       BN_BLINDING_invert_ex      000000000006baec f   OpensslLib:bn_blind.obj
 0001:0006b914       BN_BLINDING_create_param   000000000006bbd4 f   OpensslLib:bn_blind.obj
 0001:0006bdc4       i2c_ASN1_BIT_STRING        000000000006c084 f   OpensslLib:a_bitstr.obj
 0001:0006bedc       c2i_ASN1_BIT_STRING        000000000006c19c f   OpensslLib:a_bitstr.obj
 0001:0006c020       ASN1_BIT_STRING_set_bit    000000000006c2e0 f   OpensslLib:a_bitstr.obj
 0001:0006c128       asn1_do_lock               000000000006c3e8 f   OpensslLib:tasn_utl.obj
 0001:0006c1c8       asn1_do_adb                000000000006c488 f   OpensslLib:tasn_utl.obj
 0001:0006c27c       i2v_GENERAL_NAMES          000000000006c53c f   OpensslLib:v3_alt.obj
 0001:0006c32c       i2v_GENERAL_NAME           000000000006c5ec f   OpensslLib:v3_alt.obj
 0001:0006c598       GENERAL_NAME_print         000000000006c858 f   OpensslLib:v3_alt.obj
 0001:0006cb48       v2i_GENERAL_NAMES          000000000006ce08 f   OpensslLib:v3_alt.obj
 0001:0006cc14       a2i_GENERAL_NAME           000000000006ced4 f   OpensslLib:v3_alt.obj
 0001:0006ce48       v2i_GENERAL_NAME_ex        000000000006d108 f   OpensslLib:v3_alt.obj
 0001:0006d118       X509V3_get_section         000000000006d3d8 f   OpensslLib:v3_conf.obj
 0001:0006d2f4       policy_data_free           000000000006d5b4 f   OpensslLib:pcy_data.obj
 0001:0006d340       policy_data_new            000000000006d600 f   OpensslLib:pcy_data.obj
 0001:0006d434       POLICYINFO_free            000000000006d6f4 f   OpensslLib:v3_cpols.obj
 0001:0006d458       POLICYQUALINFO_free        000000000006d718 f   OpensslLib:v3_cpols.obj
 0001:0006e100       policy_cache_set_mapping   000000000006e3c0 f   OpensslLib:pcy_map.obj
 0001:0006e290       BIO_dump_indent_cb         000000000006e550 f   OpensslLib:b_dump.obj
 0001:0006e454       X509V3_EXT_get_nid         000000000006e714 f   OpensslLib:v3_lib.obj
 0001:0006e4e8       X509V3_EXT_d2i             000000000006e7a8 f   OpensslLib:v3_lib.obj
 0001:0006e54c       X509V3_get_d2i             000000000006e80c f   OpensslLib:v3_lib.obj
 0001:0006e618       DH_check_params            000000000006e8d8 f   OpensslLib:dh_check.obj
 0001:0006e6fc       DH_check                   000000000006e9bc f   OpensslLib:dh_check.obj
 0001:0006e8c0       DH_check_pub_key           000000000006eb80 f   OpensslLib:dh_check.obj
 0001:000735bc       ssl3_cbc_digest_record     000000000007387c f   OpensslLib:s3_cbc.obj
 0001:00073c40       bn_mul_mont_fixed_top      0000000000073f00 f   OpensslLib:bn_mont.obj
 0001:00073e94       bn_from_mont_fixed_top     0000000000074154 f   OpensslLib:bn_mont.obj
 0001:00073f18       BN_MONT_CTX_new            00000000000741d8 f   OpensslLib:bn_mont.obj
 0001:00073f8c       BN_MONT_CTX_free           000000000007424c f   OpensslLib:bn_mont.obj
 0001:00073fc8       BN_MONT_CTX_set            0000000000074288 f   OpensslLib:bn_mont.obj
 0001:0007428c       BN_MONT_CTX_copy           000000000007454c f   OpensslLib:bn_mont.obj
 0001:0007430c       BN_MONT_CTX_set_locked     00000000000745cc f   OpensslLib:bn_mont.obj
 0001:0007438c       BN_add                     000000000007464c f   OpensslLib:bn_add.obj
 0001:000743fc       BN_sub                     00000000000746bc f   OpensslLib:bn_add.obj
 0001:00074474       BN_uadd                    0000000000074734 f   OpensslLib:bn_add.obj
 0001:00074540       BN_usub                    0000000000074800 f   OpensslLib:bn_add.obj
 0001:00074630       EC_ec_pre_comp_free        00000000000748f0 f   OpensslLib:ec_mult.obj
 0001:000746a0       ec_scalar_mul_ladder       0000000000074960 f   OpensslLib:ec_mult.obj
 0001:00074ca4       ec_wNAF_mul                0000000000074f64 f   OpensslLib:ec_mult.obj
 0001:000756fc       BN_div                     00000000000759bc f   OpensslLib:bn_div.obj
 0001:00075784       bn_div_fixed_top           0000000000075a44 f   OpensslLib:bn_div.obj
 0001:00075b84       BN_mod_exp                 0000000000075e44 f   OpensslLib:bn_exp.obj
 0001:00075bf4       BN_mod_exp_recp            0000000000075eb4 f   OpensslLib:bn_exp.obj
 0001:00075fc8       BN_mod_exp_mont            0000000000076288 f   OpensslLib:bn_exp.obj
 0001:000767ac       BN_mod_exp_mont_consttime  0000000000076a6c f   OpensslLib:bn_exp.obj
 0001:00076c84       BN_mod_exp_mont_word       0000000000076f44 f   OpensslLib:bn_exp.obj
 0001:000770bc       bn_mul_fixed_top           000000000007737c f   OpensslLib:bn_mul.obj
 0001:000771c0       bn_mul_normal              0000000000077480 f   OpensslLib:bn_mul.obj
 0001:00077654       int_bn_mod_inverse         0000000000077914 f   OpensslLib:bn_gcd.obj
 0001:00077d04       BN_mod_inverse             0000000000077fc4 f   OpensslLib:bn_gcd.obj
 0001:00077da4       BN_gcd                     0000000000078064 f   OpensslLib:bn_gcd.obj
 0001:00078068       EC_GROUP_new_curve_GFp     0000000000078328 f   OpensslLib:ec_cvt.obj
 0001:000785c8       OPENSSL_gmtime_adj         0000000000078888 f   OpensslLib:o_time.obj
 0001:0007869c       OPENSSL_gmtime_diff        000000000007895c f   OpensslLib:o_time.obj
 0001:00079444       drbg_ctr_init              0000000000079704 f   OpensslLib:drbg_ctr.obj
 0001:00079644       ASN1_item_pack             0000000000079904 f   OpensslLib:asn_pack.obj
 0001:00079720       ASN1_tag2str               00000000000799e0 f   OpensslLib:asn1_par.obj
 0001:00079750       UTF8_getc                  0000000000079a10 f   OpensslLib:a_utf8.obj
 0001:00079a40       UTF8_putc                  0000000000079d00 f   OpensslLib:a_utf8.obj
 0001:00079c00       ASN1_mbstring_ncopy        0000000000079ec0 f   OpensslLib:a_mbstr.obj
 0001:0007a1b0       bn_mul_add_words           000000000007a470 f   OpensslLib:bn_asm.obj
 0001:0007a280       bn_mul_words               000000000007a540 f   OpensslLib:bn_asm.obj
 0001:0007a340       bn_div_words               000000000007a600 f   OpensslLib:bn_asm.obj
 0001:0007a4a4       bn_add_words               000000000007a764 f   OpensslLib:bn_asm.obj
 0001:0007a4fc       bn_sub_words               000000000007a7bc f   OpensslLib:bn_asm.obj
 0001:0007a55c       PKCS5_PBE_keyivgen         000000000007a81c f   OpensslLib:p5_crpt.obj
 0001:0007a878       PKCS5_PBKDF2_HMAC          000000000007ab38 f   OpensslLib:p5_crpt2.obj
 0001:0007ab14       PKCS5_v2_PBE_keyivgen      000000000007add4 f   OpensslLib:p5_crpt2.obj
 0001:0007ac54       PKCS5_v2_PBKDF2_keyivgen   000000000007af14 f   OpensslLib:p5_crpt2.obj
 0001:0007ae00       PKCS12_PBE_keyivgen        000000000007b0c0 f   OpensslLib:p12_crpt.obj
 0001:0007b740       ASN1_STRING_set_by_NID     000000000007ba00 f   OpensslLib:a_strnid.obj
 0001:0007b7d0       ASN1_STRING_TABLE_get      000000000007ba90 f   OpensslLib:a_strnid.obj
 0001:0007b85c       ASN1_STRING_print          000000000007bb1c f   OpensslLib:a_print.obj
 0001:0007b970       level_add_node             000000000007bc30 f   OpensslLib:pcy_node.obj
 0001:0007bbd0       c448_ed448_sign            000000000007be90 f   OpensslLib:eddsa.obj
 0001:0007bf38       c448_ed448_verify          000000000007c1f8 f   OpensslLib:eddsa.obj
 0001:0007c14c       ED448_public_from_private  000000000007c40c f   OpensslLib:eddsa.obj
 0001:00082254       ED25519_sign               0000000000082514 f   OpensslLib:curve25519.obj
 0001:000823f0       ED25519_verify             00000000000826b0 f   OpensslLib:curve25519.obj
 0001:0008261c       X25519_public_from_private 00000000000828dc f   OpensslLib:curve25519.obj
 0001:000826e0       ASN1_buf_print             00000000000829a0 f   OpensslLib:t_pkey.obj
 0001:000827c8       ASN1_bn_print              0000000000082a88 f   OpensslLib:t_pkey.obj
 0001:00083250       curve448_precomputed_scalarmul 0000000000083510 f   OpensslLib:curve448.obj
 0001:00083460       curve448_point_mul_by_ratio_and_encode_like_eddsa 0000000000083720 f   OpensslLib:curve448.obj
 0001:000836ec       curve448_point_decode_like_eddsa_and_mul_by_ratio 00000000000839ac f   OpensslLib:curve448.obj
 0001:000839bc       x448_int                   0000000000083c7c f   OpensslLib:curve448.obj
 0001:00083ff8       curve448_base_double_scalarmul_non_secret 00000000000842b8 f   OpensslLib:curve448.obj
 0001:000843c4       X448_public_from_private   0000000000084684 f   OpensslLib:curve448.obj
 0001:00084520       ECPKParameters_print       00000000000847e0 f   OpensslLib:eck_prn.obj
 0001:00084e48       EC_GROUP_check             0000000000085108 f   OpensslLib:ec_check.obj
 0001:00084f80       RSA_check_key_ex           0000000000085240 f   OpensslLib:rsa_chk.obj
 0001:000856c8       X509_signature_dump        0000000000085988 f   OpensslLib:t_x509.obj
 0001:000857d4       i2a_ASN1_INTEGER           0000000000085a94 f   OpensslLib:f_int.obj
 0001:00085ad4       UI_process                 0000000000085d94 f   OpensslLib:ui_lib.obj
 0001:00085c84       ec_GFp_simple_set_compressed_coordinates 0000000000085f44 f   OpensslLib:ecp_oct.obj
 0001:00086014       ec_GFp_simple_point2oct    00000000000862d4 f   OpensslLib:ecp_oct.obj
 0001:000862a4       ec_GFp_simple_oct2point    0000000000086564 f   OpensslLib:ecp_oct.obj
 0001:000864a0       ossl_ecdsa_sign            0000000000086760 f   OpensslLib:ecdsa_ossl.obj
 0001:000867f8       ossl_ecdsa_sign_setup      0000000000086ab8 f   OpensslLib:ecdsa_ossl.obj
 0001:00086814       ossl_ecdsa_sign_sig        0000000000086ad4 f   OpensslLib:ecdsa_ossl.obj
 0001:00086bb4       ossl_ecdsa_verify          0000000000086e74 f   OpensslLib:ecdsa_ossl.obj
 0001:00086ce8       ossl_ecdsa_verify_sig      0000000000086fa8 f   OpensslLib:ecdsa_ossl.obj
 0001:0008701c       ossl_ecdh_compute_key      00000000000872dc f   OpensslLib:ecdh_ossl.obj
 0001:00087054       ecdh_simple_compute_key    0000000000087314 f   OpensslLib:ecdh_ossl.obj
 0001:00087284       PKCS12_pbe_crypt           0000000000087544 f   OpensslLib:p12_decr.obj
 0001:000873ec       RSA_X931_hash_id           00000000000876ac f   OpensslLib:rsa_x931.obj
 0001:00087420       RSA_padding_check_PKCS1_type_1 00000000000876e0 f   OpensslLib:rsa_pk1.obj
 0001:000874f0       RSA_padding_add_PKCS1_type_2 00000000000877b0 f   OpensslLib:rsa_pk1.obj
 0001:000875a8       RSA_padding_check_PKCS1_type_2 0000000000087868 f   OpensslLib:rsa_pk1.obj
 0001:000878bc       RSA_padding_add_SSLv23     0000000000087b7c f   OpensslLib:rsa_ssl.obj
 0001:00087988       RSA_padding_check_SSLv23   0000000000087c48 f   OpensslLib:rsa_ssl.obj
 0001:00087d78       BN_nnmod                   0000000000088038 f   OpensslLib:bn_mod.obj
 0001:00087ddc       bn_mod_add_fixed_top       000000000008809c f   OpensslLib:bn_mod.obj
 0001:00087f7c       bn_mod_sub_fixed_top       000000000008823c f   OpensslLib:bn_mod.obj
 0001:000880fc       BN_mod_sub_quick           00000000000883bc f   OpensslLib:bn_mod.obj
 0001:0008813c       BN_mod_mul                 00000000000883fc f   OpensslLib:bn_mod.obj
 0001:000881f4       BN_mod_sqr                 00000000000884b4 f   OpensslLib:bn_mod.obj
 0001:0008824c       BN_mod_lshift1_quick       000000000008850c f   OpensslLib:bn_mod.obj
 0001:00088294       BN_mod_lshift_quick        0000000000088554 f   OpensslLib:bn_mod.obj
 0001:00088354       RSA_padding_add_PKCS1_OAEP_mgf1 0000000000088614 f   OpensslLib:rsa_oaep.obj
 0001:000885d8       RSA_padding_check_PKCS1_OAEP_mgf1 0000000000088898 f   OpensslLib:rsa_oaep.obj
 0001:00088afc       PKCS1_MGF1                 0000000000088dbc f   OpensslLib:rsa_oaep.obj
 0001:00088c88       ASN1_generate_v3           0000000000088f48 f   OpensslLib:asn1_gen.obj
 0001:00089a40       POLICY_MAPPING_free        0000000000089d00 f   OpensslLib:v3_pmaps.obj
 0001:00089eac       i2v_ASN1_BIT_STRING        000000000008a16c f   OpensslLib:v3_bitst.obj
 0001:00089f40       v2i_ASN1_BIT_STRING        000000000008a200 f   OpensslLib:v3_bitst.obj
 0001:0008a900       i2s_ASN1_IA5STRING         000000000008abc0 f   OpensslLib:v3_ia5.obj
 0001:0008a970       s2i_ASN1_IA5STRING         000000000008ac30 f   OpensslLib:v3_ia5.obj
 0001:0008afdc       i2s_ASN1_OCTET_STRING      000000000008b29c f   OpensslLib:v3_skey.obj
 0001:0008b138       i2s_ASN1_ENUMERATED_TABLE  000000000008b3f8 f   OpensslLib:v3_enum.obj
 0001:0008b3e4       SXNET_add_id_INTEGER       000000000008b6a4 f   OpensslLib:v3_sxnet.obj
 0001:0008b5ac       SXNET_get_id_INTEGER       000000000008b86c f   OpensslLib:v3_sxnet.obj
 0001:0008c17c       BN_GENCB_call              000000000008c43c f   OpensslLib:bn_prime.obj
 0001:0008c1d0       BN_generate_prime_ex       000000000008c490 f   OpensslLib:bn_prime.obj
 0001:0008c438       BN_is_prime_fasttest_ex    000000000008c6f8 f   OpensslLib:bn_prime.obj
 0001:0008ccd4       DH_new_by_nid              000000000008cf94 f   OpensslLib:dh_rfc7919.obj
 0001:0008cf0c       RSA_sign_ASN1_OCTET_STRING 000000000008d1cc f   OpensslLib:rsa_saos.obj
 0001:0008dac0       RSA_sign                   000000000008dd80 f   OpensslLib:rsa_sign.obj
 0001:0008dc28       int_rsa_verify             000000000008dee8 f   OpensslLib:rsa_sign.obj
 0001:0008dfcc       RSA_verify_PKCS1_PSS_mgf1  000000000008e28c f   OpensslLib:rsa_pss.obj
 0001:0008e2a0       RSA_padding_add_PKCS1_PSS_mgf1 000000000008e560 f   OpensslLib:rsa_pss.obj
 0001:0008e594       sm2_compute_z_digest       000000000008e854 f   OpensslLib:sm2_sign.obj
 0001:0008ef4c       sm2_sign                   000000000008f20c f   OpensslLib:sm2_sign.obj
 0001:0008f0d8       sm2_encrypt                000000000008f398 f   OpensslLib:sm2_crypt.obj
 0001:0008f58c       sm2_decrypt                000000000008f84c f   OpensslLib:sm2_crypt.obj
 0001:0008fa98       SipHash_Init               000000000008fd58 f   OpensslLib:siphash.obj
 0001:0008fbd4       SipHash_Update             000000000008fe94 f   OpensslLib:siphash.obj
 0001:0008fdf0       SipHash_Final              00000000000900b0 f   OpensslLib:siphash.obj
 0001:00090034       ecdh_KDF_X9_63             00000000000902f4 f   OpensslLib:ecdh_kdf.obj
 0001:00090218       bn_sqr_fixed_top           00000000000904d8 f   OpensslLib:bn_sqr.obj
 0001:00090344       bn_sqr_normal              0000000000090604 f   OpensslLib:bn_sqr.obj
 0001:0009047c       BN_mod_mul_reciprocal      000000000009073c f   OpensslLib:bn_recp.obj
 0001:0009053c       BN_div_recp                00000000000907fc f   OpensslLib:bn_recp.obj
 0001:000909b8       ec_GFp_nist_group_copy     0000000000090c78 f   OpensslLib:ecp_nist.obj
 0001:000909cc       ec_GFp_nist_group_set_curve 0000000000090c8c f   OpensslLib:ecp_nist.obj
 0001:00090b10       ec_GFp_nist_field_mul      0000000000090dd0 f   OpensslLib:ecp_nist.obj
 0001:00090be4       ec_GFp_nist_field_sqr      0000000000090ea4 f   OpensslLib:ecp_nist.obj
 0001:00090cf0       BN_nist_mod_192            0000000000090fb0 f   OpensslLib:bn_nist.obj
 0001:00090f3c       BN_nist_mod_224            00000000000911fc f   OpensslLib:bn_nist.obj
 0001:00091290       BN_nist_mod_256            0000000000091550 f   OpensslLib:bn_nist.obj
 0001:000915e0       BN_nist_mod_384            00000000000918a0 f   OpensslLib:bn_nist.obj
 0001:000919a4       BN_nist_mod_521            0000000000091c64 f   OpensslLib:bn_nist.obj
 0001:00091b78       ec_GFp_mont_group_init     0000000000091e38 f   OpensslLib:ecp_mont.obj
 0001:00091b9c       ec_GFp_mont_group_finish   0000000000091e5c f   OpensslLib:ecp_mont.obj
 0001:00091bd4       ec_GFp_mont_group_clear_finish 0000000000091e94 f   OpensslLib:ecp_mont.obj
 0001:00091c0c       ec_GFp_mont_group_copy     0000000000091ecc f   OpensslLib:ecp_mont.obj
 0001:00091d08       ec_GFp_mont_group_set_curve 0000000000091fc8 f   OpensslLib:ecp_mont.obj
 0001:00091f2c       ec_GFp_mont_field_mul      00000000000921ec f   OpensslLib:ecp_mont.obj
 0001:00091f84       ec_GFp_mont_field_sqr      0000000000092244 f   OpensslLib:ecp_mont.obj
 0001:00091fd0       ec_GFp_mont_field_inv      0000000000092290 f   OpensslLib:ecp_mont.obj
 0001:000920e0       ec_GFp_mont_field_encode   00000000000923a0 f   OpensslLib:ecp_mont.obj
 0001:00092134       ec_GFp_mont_field_decode   00000000000923f4 f   OpensslLib:ecp_mont.obj
 0001:0009217c       ec_GFp_mont_field_set_to_one 000000000009243c f   OpensslLib:ecp_mont.obj
 0001:000921c0       PKCS12_key_gen_utf8        0000000000092480 f   OpensslLib:p12_key.obj
 0001:000922d0       PKCS12_key_gen_uni         0000000000092590 f   OpensslLib:p12_key.obj
 0001:00092710       SM4_set_key                00000000000929d0 f   OpensslLib:sm4.obj
 0001:000928cc       SM4_encrypt                0000000000092b8c f   OpensslLib:sm4.obj
 0001:0009317c       SM4_decrypt                000000000009343c f   OpensslLib:sm4.obj
 0001:000945f8       SHA3_absorb                00000000000948b8 f   OpensslLib:keccak1600.obj
 0001:000946c0       SHA3_squeeze               0000000000094980 f   OpensslLib:keccak1600.obj
 0001:0009479c       sm3_final                  0000000000094a5c f   OpensslLib:sm3.obj
 0001:000949cc       sm3_block_data_order       0000000000094c8c f   OpensslLib:sm3.obj
 0001:00097244       curve448_scalar_add        0000000000097504 f   OpensslLib:scalar.obj
 0001:00097298       curve448_scalar_decode_long 0000000000097558 f   OpensslLib:scalar.obj
 0001:0009745c       curve448_scalar_halve      000000000009771c f   OpensslLib:scalar.obj
 0001:00097570       gf_serialize               0000000000097830 f   OpensslLib:f_generic.obj
 0001:00097600       gf_deserialize             00000000000978c0 f   OpensslLib:f_generic.obj
 0001:000976cc       gf_strong_reduce           000000000009798c f   OpensslLib:f_generic.obj
 0001:00097750       gf_sub                     0000000000097a10 f   OpensslLib:f_generic.obj
 0001:000977a0       gf_add                     0000000000097a60 f   OpensslLib:f_generic.obj
 0001:000977cc       gf_eq                      0000000000097a8c f   OpensslLib:f_generic.obj
 0001:0009783c       gf_isr                     0000000000097afc f   OpensslLib:f_generic.obj
 0001:00097a60       gf_mul                     0000000000097d20 f   OpensslLib:f_impl.obj
 0001:00097c78       gf_mulw_unsigned           0000000000097f38 f   OpensslLib:f_impl.obj
 0001:00097d1c       ERR_print_errors_cb        0000000000097fdc f   OpensslLib:err_prn.obj
 0001:00097e14       BN_mod_sqrt                00000000000980d4 f   OpensslLib:bn_sqrt.obj
 0001:00098550       BN_kronecker               0000000000098810 f   OpensslLib:bn_kron.obj
 0001:000987d8       i2a_ASN1_STRING            0000000000098a98 f   OpensslLib:f_string.obj
 0001:000988f8       ec_GFp_simple_group_init   0000000000098bb8 f   OpensslLib:ecp_smpl.obj
 0001:0009895c       ec_GFp_simple_group_finish 0000000000098c1c f   OpensslLib:ecp_smpl.obj
 0001:00098988       ec_GFp_simple_group_clear_finish 0000000000098c48 f   OpensslLib:ecp_smpl.obj
 0001:000989b4       ec_GFp_simple_group_copy   0000000000098c74 f   OpensslLib:ecp_smpl.obj
 0001:00098a14       ec_GFp_simple_group_set_curve 0000000000098cd4 f   OpensslLib:ecp_smpl.obj
 0001:00098bb8       ec_GFp_simple_group_get_curve 0000000000098e78 f   OpensslLib:ecp_smpl.obj
 0001:00098cc4       ec_GFp_simple_group_get_degree 0000000000098f84 f   OpensslLib:ecp_smpl.obj
 0001:00098cd0       ec_GFp_simple_group_check_discriminant 0000000000098f90 f   OpensslLib:ecp_smpl.obj
 0001:00098ed8       ec_GFp_simple_point_init   0000000000099198 f   OpensslLib:ecp_smpl.obj
 0001:00098f3c       ec_GFp_simple_point_finish 00000000000991fc f   OpensslLib:ecp_smpl.obj
 0001:00098f68       ec_GFp_simple_point_clear_finish 0000000000099228 f   OpensslLib:ecp_smpl.obj
 0001:00098f98       ec_GFp_simple_point_copy   0000000000099258 f   OpensslLib:ecp_smpl.obj
 0001:00099000       ec_GFp_simple_point_set_to_infinity 00000000000992c0 f   OpensslLib:ecp_smpl.obj
 0001:00099014       ec_GFp_simple_set_Jprojective_coordinates_GFp 00000000000992d4 f   OpensslLib:ecp_smpl.obj
 0001:00099198       ec_GFp_simple_get_Jprojective_coordinates_GFp 0000000000099458 f   OpensslLib:ecp_smpl.obj
 0001:000992cc       ec_GFp_simple_point_set_affine_coordinates 000000000009958c f   OpensslLib:ecp_smpl.obj
 0001:00099358       ec_GFp_simple_point_get_affine_coordinates 0000000000099618 f   OpensslLib:ecp_smpl.obj
 0001:00099610       ec_GFp_simple_add          00000000000998d0 f   OpensslLib:ecp_smpl.obj
 0001:00099b84       ec_GFp_simple_dbl          0000000000099e44 f   OpensslLib:ecp_smpl.obj
 0001:00099fb8       ec_GFp_simple_invert       000000000009a278 f   OpensslLib:ecp_smpl.obj
 0001:00099ff8       ec_GFp_simple_is_at_infinity 000000000009a2b8 f   OpensslLib:ecp_smpl.obj
 0001:0009a008       ec_GFp_simple_is_on_curve  000000000009a2c8 f   OpensslLib:ecp_smpl.obj
 0001:0009a2dc       ec_GFp_simple_cmp          000000000009a59c f   OpensslLib:ecp_smpl.obj
 0001:0009a570       ec_GFp_simple_make_affine  000000000009a830 f   OpensslLib:ecp_smpl.obj
 0001:0009a678       ec_GFp_simple_points_make_affine 000000000009a938 f   OpensslLib:ecp_smpl.obj
 0001:0009aa98       ec_GFp_simple_field_inv    000000000009ad58 f   OpensslLib:ecp_smpl.obj
 0001:0009abbc       ec_GFp_simple_blind_coordinates 000000000009ae7c f   OpensslLib:ecp_smpl.obj
 0001:0009ad24       ec_GFp_simple_ladder_pre   000000000009afe4 f   OpensslLib:ecp_smpl.obj
 0001:0009afc8       ec_GFp_simple_ladder_step  000000000009b288 f   OpensslLib:ecp_smpl.obj
 0001:0009b554       ec_GFp_simple_ladder_post  000000000009b814 f   OpensslLib:ecp_smpl.obj
 0001:0009ba44       OPENSSL_asc2uni            000000000009bd04 f   OpensslLib:p12_utl.obj
 0001:0009bb28       OPENSSL_utf82uni           000000000009bde8 f   OpensslLib:p12_utl.obj
 0001:0009bcc4       SafeUint64Mult             000000000009bf84 f   BaseSafeIntLib:SafeIntLib.obj
 0001:0009c1a4       strchr                     000000000009c464 f   BaseCryptLib:CrtWrapper.obj
 0001:0009c1d4       strncasecmp                000000000009c494 f   BaseCryptLib:CrtWrapper.obj
 0001:0009c27c       BIO_printf                 000000000009c53c f   BaseCryptLib:CrtWrapper.obj
 0001:0009c27c       sscanf                     000000000009c53c f   BaseCryptLib:CrtWrapper.obj
 0001:0009c28c       strspn                     000000000009c54c f   BaseCryptLib:CrtWrapper.obj
 0001:0009c31c       strcpy                     000000000009c5dc f   BaseCryptLib:CrtWrapper.obj
 0001:0009c440       qsort                      000000000009c700 f   BaseCryptLib:CrtWrapper.obj
 0001:0009c514       BIO_snprintf               000000000009c7d4 f   BaseCryptLib:CrtWrapper.obj
 0001:0009c51c       time                       000000000009c7dc f   BaseCryptLib:TimerWrapper.obj
 0001:0009c678       gmtime                     000000000009c938 f   BaseCryptLib:TimerWrapper.obj
 0001:0009c904       free                       000000000009cbc4 f   BaseCryptLib:BaseMemAllocation.obj
 0001:0009c940       DivU64x32Remainder         000000000009cc00 f   BaseLib:DivU64x32Remainder.obj
 0001:0009c9a0       SaveAndDisableInterrupts   000000000009cc60 f   BaseLib:Cpu.obj
 0001:0009c9c4       CompareMem                 000000000009cc84 f   BaseMemoryLibRepStr:CompareMemWrapper.obj
 0001:0009ca9c       ScanMem8                   000000000009cd5c f   BaseMemoryLibRepStr:ScanMem8Wrapper.obj
 0001:0009cb20       MmioRead32                 000000000009cde0 f   BaseIoLibIntrinsicSev:IoLib.obj
 0001:0009cb50       GetRandomNumber64          000000000009ce10 f   BaseRngLibTimerLib:RngLibTimer.obj
 0001:0009cbb0       InternalAcpiDelay          000000000009ce70 f   DxeAcpiTimerLib:AcpiTimerLib.obj
 0001:0009cc14       memset                     000000000009ced4 f   BaseIntrinsicLib:MemoryIntrinsics.obj
 0001:0009cc2c       strcmp                     000000000009ceec f   BaseIntrinsicLib:MemoryIntrinsics.obj
 0002:00000000       ??_C@_0CB@DMEJJJHA@?6ASSERT_EFI_ERROR?5?$CIStatus?5?$DN?5?$CFr?$CJ@ 000000000009cf00     UefiDriverEntryPoint:DriverEntryPoint.obj
 0002:00000028       ??_C@_0CH@BBNBJKHK@?$CB?$CI?$CI?$CIINTN?$CJ?$CIRETURN_STATUS?$CJ?$CIStatus@ 000000000009cf28     UefiDriverEntryPoint:DriverEntryPoint.obj
 0002:00000050       ??_C@_0EG@HIPMDNNL@d?3?2myedk2?2edk2?2MdePkg?2Library?2U@ 000000000009cf50     UefiDriverEntryPoint:DriverEntryPoint.obj
 0002:00000098       ??_C@_06CCFDNBHL@TlsDxe@   000000000009cf98     TlsDxe:AutoGen.obj
 0002:000000a0       ??_C@_0CE@IBFOBMLB@?6ASSERT_RETURN_ERROR?5?$CIStatus?5?$DN?5@ 000000000009cfa0     TlsDxe:AutoGen.obj
 0002:000000d0       ??_C@_0FH@JJPOMLAB@d?3?2myedk2?2edk2?2Build?2OvmfX64?2DE@ 000000000009cfd0     TlsDxe:AutoGen.obj
 0002:00000128       ??_C@_0CN@PDOFGPEN@d?3?2myedk2?2edk2?2NetworkPkg?2TlsDx@ 000000000009d028     TlsDxe:TlsDriver.obj
 0002:00000158       ??_C@_0BF@NDBIKIKC@CR?5has?5Bad?5Signature@ 000000000009d058     TlsDxe:TlsDriver.obj
 0002:00000170       ??_C@_0BM@IFJAIBAA@TlsInstance?5?$CB?$DN?5?$CI?$CIvoid?5?$CK?$CJ?50?$CJ@ 000000000009d070     TlsDxe:TlsDriver.obj
 0002:00000190       ??_C@_0CP@JKMDMLIL@d?3?2myedk2?2edk2?2NetworkPkg?2TlsDx@ 000000000009d090     TlsDxe:TlsProtocol.obj
 0002:000001c0       ??_C@_0EJ@OOCLDONO@?$CI?$CITLS_RECORD_HEADER?5?$CK?$CJRequestBu@ 000000000009d0c0     TlsDxe:TlsProtocol.obj
 0002:00000210       ??_C@_0DF@JAMBKDAM@d?3?2myedk2?2edk2?2NetworkPkg?2TlsDx@ 000000000009d110     TlsDxe:TlsConfigProtocol.obj
 0002:00000248       ??_C@_0DB@PLHCOEEF@TlsEncryptPacket?3?5No?5data?5read?5@ 000000000009d148     TlsDxe:TlsImpl.obj
 0002:00000280       ??_C@_0DB@KHJGFAOE@TlsDecryptPacket?3?5No?5data?5read?5@ 000000000009d180     TlsDxe:TlsImpl.obj
 0002:000002b8       ??_C@_0BF@NJNGJMPC@List?5?$CB?$DN?5?$CI?$CIvoid?5?$CK?$CJ?50?$CJ@ 000000000009d1b8     BaseLib:LinkedList.obj
 0002:000002d0       ??_C@_0DD@DMMJEGIP@d?3?2myedk2?2edk2?2MdePkg?2Library?2B@ 000000000009d1d0     BaseLib:LinkedList.obj
 0002:00000308       ??_C@_0CC@KDLPLAED@List?9?$DOForwardLink?5?$CB?$DN?5?$CI?$CIvoid?5?$CK?$CJ?5@ 000000000009d208     BaseLib:LinkedList.obj
 0002:00000330       ??_C@_0BP@IJJCCMAK@List?9?$DOBackLink?5?$CB?$DN?5?$CI?$CIvoid?5?$CK?$CJ?50?$CJ@ 000000000009d230     BaseLib:LinkedList.obj
 0002:00000350       ??_C@_0BJ@NJABNCDK@ListHead?5?$CB?$DN?5?$CI?$CIvoid?5?$CK?$CJ?50?$CJ@ 000000000009d250     BaseLib:LinkedList.obj
 0002:00000370       ??_C@_0CG@LGIALJFK@InternalBaseLibIsListValid?5?$CILis@ 000000000009d270     BaseLib:LinkedList.obj
 0002:00000398       ??_C@_0BF@NMBJJECB@?$CBIsListEmpty?5?$CIEntry?$CJ@ 000000000009d298     BaseLib:LinkedList.obj
 0002:000003b0       ??_C@_0ED@MKGCMJG@?$CILength?5?9?51?$CJ?5?$DM?$DN?5?$CI0xFFFFFFFFFFFF@ 000000000009d2b0     BaseMemoryLibRepStr:CopyMemWrapper.obj
 0002:00000400       ??_C@_0ED@JAIIHABO@d?3?2myedk2?2edk2?2MdePkg?2Library?2B@ 000000000009d300     BaseMemoryLibRepStr:CopyMemWrapper.obj
 0002:00000448       ??_C@_0DO@MAOBOFEG@?$CILength?5?9?51?$CJ?5?$DM?$DN?5?$CI0xFFFFFFFFFFFF@ 000000000009d348     BaseMemoryLibRepStr:CopyMemWrapper.obj
 0002:00000488       ??_C@_0BH@LKMBFCBF@Format?5?$CB?$DN?5?$CI?$CIvoid?5?$CK?$CJ?50?$CJ@ 000000000009d388     BaseDebugLibSerialPort:DebugLib.obj
 0002:000004a0       ??_C@_0EA@MCEJFCHO@d?3?2myedk2?2edk2?2MdePkg?2Library?2B@ 000000000009d3a0     BaseDebugLibSerialPort:DebugLib.obj
 0002:000004e0       ??_C@_0BI@NOCKJDBJ@ASSERT?5?$FL?$CFa?$FN?5?$CFa?$CI?$CFd?$CJ?3?5?$CFa?6@ 000000000009d3e0     BaseDebugLibSerialPort:DebugLib.obj
 0002:000004f8       ??_C@_0BH@IACGKAP@Buffer?5?$CB?$DN?5?$CI?$CIvoid?5?$CK?$CJ?50?$CJ@ 000000000009d3f8     BaseDebugLibSerialPort:DebugLib.obj
 0002:00000510       ??_C@_0BN@COECPDCC@gImageHandle?5?$CB?$DN?5?$CI?$CIvoid?5?$CK?$CJ?50?$CJ@ 000000000009d410     UefiBootServicesTableLib:UefiBootServicesTableLib.obj
 0002:00000530       ??_C@_0FC@HJEJKBBP@d?3?2myedk2?2edk2?2MdePkg?2Library?2U@ 000000000009d430     UefiBootServicesTableLib:UefiBootServicesTableLib.obj
 0002:00000588       ??_C@_0BE@DGNHAHIL@gST?5?$CB?$DN?5?$CI?$CIvoid?5?$CK?$CJ?50?$CJ@ 000000000009d488     UefiBootServicesTableLib:UefiBootServicesTableLib.obj
 0002:000005a0       ??_C@_0BE@BDFJLGLN@gBS?5?$CB?$DN?5?$CI?$CIvoid?5?$CK?$CJ?50?$CJ@ 000000000009d4a0     UefiBootServicesTableLib:UefiBootServicesTableLib.obj
 0002:000005c0       ??_C@_0EM@BLKCBDHP@d?3?2myedk2?2edk2?2MdePkg?2Library?2U@ 000000000009d4c0     UefiMemoryAllocationLib:MemoryAllocationLib.obj
 0002:00000610       ??_C@_0FG@PKIHNGDJ@d?3?2myedk2?2edk2?2MdePkg?2Library?2U@ 000000000009d510     UefiDevicePathLibDevicePathProtocol:UefiDevicePathLib.obj
 0002:00000668       ??_C@_0DC@CNNBPJA@mDevicePathLibDevicePathUtiliti@ 000000000009d568     UefiDevicePathLibDevicePathProtocol:UefiDevicePathLib.obj
 0002:000006a0       ??_C@_0BE@OBDFIHND@gRT?5?$CB?$DN?5?$CI?$CIvoid?5?$CK?$CJ?50?$CJ@ 000000000009d5a0     UefiRuntimeServicesTableLib:UefiRuntimeServicesTableLib.obj
 0002:000006c0       ??_C@_0FI@ELFALICJ@d?3?2myedk2?2edk2?2MdePkg?2Library?2U@ 000000000009d5c0     UefiRuntimeServicesTableLib:UefiRuntimeServicesTableLib.obj
 0002:00000718       ??_C@_0DB@IMLKCNBK@d?3?2myedk2?2edk2?2MdePkg?2Library?2D@ 000000000009d618     DxeHobLib:HobLib.obj
 0002:00000750       ??_C@_0BJ@OBFMLLDO@mHobList?5?$CB?$DN?5?$CI?$CIvoid?5?$CK?$CJ?50?$CJ@ 000000000009d650     DxeHobLib:HobLib.obj
 0002:00000770       ??_C@_0BJ@NOLLDKJB@HobStart?5?$CB?$DN?5?$CI?$CIvoid?5?$CK?$CJ?50?$CJ@ 000000000009d670     DxeHobLib:HobLib.obj
 0002:00000790       ??_C@_0BC@FEDIJHFF@?$CI?$CIBOOLEAN?$CJ?$CI0?$DN?$DN1?$CJ?$CJ@ 000000000009d690     DxeHobLib:HobLib.obj
 0002:000007a8       ??_C@_0BP@LHBKJBMC@PlatformInfoHob?5is?5not?5found?4?6@ 000000000009d6a8     DxeAcpiTimerLib:DxeAcpiTimerLib.obj
 0002:000007c8       ??_C@_0DO@DECBCOF@d?3?2myedk2?2edk2?2OvmfPkg?2Library?2@ 000000000009d6c8     DxeAcpiTimerLib:DxeAcpiTimerLib.obj
 0002:00000808       ??_C@_0BI@HAGPDMHJ@AcpiTimerLibConstructor@ 000000000009d708     DxeAcpiTimerLib:DxeAcpiTimerLib.obj
 0002:00000820       ??_C@_0CL@DGCOIACG@?$CFa?3?5Unknown?5Host?5Bridge?5Device?5@ 000000000009d720     DxeAcpiTimerLib:DxeAcpiTimerLib.obj
 0002:0000084b       ??_C@_00CNPNBAHC@@         000000000009d74b     TlsLib:TlsInit.obj
 0002:00000850       ??_C@_0GC@IDGCEDIP@TlsConn?9?$DOSsl?5?$CB?$DN?5?$CI?$CIvoid?5?$CK?$CJ?50?$CJ?5?$CG?$CG@ 000000000009d750     TlsLib:TlsInit.obj
 0002:000008b8       ??_C@_0DC@MACKNNKE@d?3?2myedk2?2edk2?2CryptoPkg?2Librar@ 000000000009d7b8     TlsLib:TlsInit.obj
 0002:000008f0       ??_C@_08GMNMJHID@NULL?9MD5@ 000000000009d7f0     TlsLib:TlsConfig.obj
 0002:00000900       ??_C@_08JOFDPCLJ@NULL?9SHA@ 000000000009d800     TlsLib:TlsConfig.obj
 0002:00000910       ??_C@_07OCFLHCIN@RC4?9MD5@ 000000000009d810     TlsLib:TlsConfig.obj
 0002:00000918       ??_C@_07BANEBHLH@RC4?9SHA@ 000000000009d818     TlsLib:TlsConfig.obj
 0002:00000920       ??_C@_0N@HCCILIJF@DES?9CBC3?9SHA@ 000000000009d820     TlsLib:TlsConfig.obj
 0002:00000930       ??_C@_0BF@NJCIKKPF@DHE?9RSA?9DES?9CBC3?9SHA@ 000000000009d830     TlsLib:TlsConfig.obj
 0002:00000948       ??_C@_0L@FJECLCPG@AES128?9SHA@ 000000000009d848     TlsLib:TlsConfig.obj
 0002:00000958       ??_C@_0BC@GIOLAJIO@DH?9DSS?9AES128?9SHA@ 000000000009d858     TlsLib:TlsConfig.obj
 0002:00000970       ??_C@_0BC@NKCIFBKC@DH?9RSA?9AES128?9SHA@ 000000000009d870     TlsLib:TlsConfig.obj
 0002:00000988       ??_C@_0BD@MNBMGMFC@DHE?9RSA?9AES128?9SHA@ 000000000009d888     TlsLib:TlsConfig.obj
 0002:000009a0       ??_C@_0L@CIGAOKOL@AES256?9SHA@ 000000000009d8a0     TlsLib:TlsConfig.obj
 0002:000009b0       ??_C@_0BC@BJMJFBJD@DH?9DSS?9AES256?9SHA@ 000000000009d8b0     TlsLib:TlsConfig.obj
 0002:000009c8       ??_C@_0BC@KLAKAJLP@DH?9RSA?9AES256?9SHA@ 000000000009d8c8     TlsLib:TlsConfig.obj
 0002:000009e0       ??_C@_0BD@LMDODEEP@DHE?9RSA?9AES256?9SHA@ 000000000009d8e0     TlsLib:TlsConfig.obj
 0002:000009f8       ??_C@_0M@OPPJMAFE@NULL?9SHA256@ 000000000009d8f8     TlsLib:TlsConfig.obj
 0002:00000a08       ??_C@_0O@OPGGFJJ@AES128?9SHA256@ 000000000009d908     TlsLib:TlsConfig.obj
 0002:00000a18       ??_C@_0O@LNAKMDHD@AES256?9SHA256@ 000000000009d918     TlsLib:TlsConfig.obj
 0002:00000a28       ??_C@_0BF@PMCPDAHP@DH?9DSS?9AES128?9SHA256@ 000000000009d928     TlsLib:TlsConfig.obj
 0002:00000a40       ??_C@_0BF@LNHHMLBP@DH?9RSA?9AES128?9SHA256@ 000000000009d940     TlsLib:TlsConfig.obj
 0002:00000a58       ??_C@_0BG@EDOPAEND@DHE?9RSA?9AES128?9SHA256@ 000000000009d958     TlsLib:TlsConfig.obj
 0002:00000a70       ??_C@_0BF@EPNDJGJF@DH?9DSS?9AES256?9SHA256@ 000000000009d970     TlsLib:TlsConfig.obj
 0002:00000a88       ??_C@_0BF@OILGNPF@DH?9RSA?9AES256?9SHA256@ 000000000009d988     TlsLib:TlsConfig.obj
 0002:00000aa0       ??_C@_0BG@PABDKCDJ@DHE?9RSA?9AES256?9SHA256@ 000000000009d9a0     TlsLib:TlsConfig.obj
 0002:00000ab8       ??_C@_0BB@CBOPIGCD@TlsSetCipherList@ 000000000009d9b8     TlsLib:TlsConfig.obj
 0002:00000ad0       ??_C@_0CB@OIOGIHFE@?$CFa?3?$CFa?3?5skipping?5CipherId?$DN0x?$CF04x@ 000000000009d9d0     TlsLib:TlsConfig.obj
 0002:00000af8       ??_C@_0CE@OEDNPFCG@?$CFa?3?$CFa?3?5no?5CipherId?5could?5be?5map@ 000000000009d9f8     TlsLib:TlsConfig.obj
 0002:00000b20       ??_C@_0DI@NEPBFHAK@CipherStringPosition?5?$DN?$DN?5CipherS@ 000000000009da20     TlsLib:TlsConfig.obj
 0002:00000b58       ??_C@_0DE@PJIGEADA@d?3?2myedk2?2edk2?2CryptoPkg?2Librar@ 000000000009da58     TlsLib:TlsConfig.obj
 0002:00000b90       ??_C@_0BH@LDKGBPBD@?$CFa?3?$CFa?3?5CipherString?$DN?$HL?6@ 000000000009da90     TlsLib:TlsConfig.obj
 0002:00000ba8       ??_C@_05BLNIFNHL@?$CF?4?$CKa?6@ 000000000009daa8     TlsLib:TlsConfig.obj
 0002:00000bb0       ??_C@_02KGHIDFGE@?$HN?6@   000000000009dab0     TlsLib:TlsConfig.obj
 0002:00000bb8       ??_C@_0BM@MGMPMNDL@VerifyParam?5?$CB?$DN?5?$CI?$CIvoid?5?$CK?$CJ?50?$CJ@ 000000000009dab8     TlsLib:TlsConfig.obj
 0002:00000bd8       ??_C@_0BB@INOKDFHO@TlsSetVerifyHost@ 000000000009dad8     TlsLib:TlsConfig.obj
 0002:00000bf0       ??_C@_0DA@JOPDGBIL@?$CFa?3?$CFa?3?5parsed?5?$CC?$CFa?$CC?5as?5an?5IPv?$CFc?5@ 000000000009daf0     TlsLib:TlsConfig.obj
 0002:00000c20       ??_C@_0BI@OEPAJMP@TlsConn?5?$CB?$DN?5?$CI?$CIvoid?5?$CK?$CJ?50?$CJ@ 000000000009db20     TlsLib:TlsConfig.obj
 0002:00000e68       ??_C@_03DFDFBAEP@SSL@      000000000009dd68     TlsLib:TlsProcess.obj
 0002:00000e70       ??_C@_07GEJEGLOC@SYSCALL@  000000000009dd70     TlsLib:TlsProcess.obj
 0002:00000e78       ??_C@_0M@BOOICIBG@ZERO_RETURN@ 000000000009dd78     TlsLib:TlsProcess.obj
 0002:00000e88       ??_C@_0P@PKBNPNBM@TlsDoHandshake@ 000000000009dd88     TlsLib:TlsProcess.obj
 0002:00000e98       ??_C@_0DA@GIDGNHJM@?$CFa?5SSL_HANDSHAKE_ERROR?5State?$DN0x@ 000000000009dd98     TlsLib:TlsProcess.obj
 0002:00000ec8       ??_C@_0BL@GHCEOKHJ@?$CFa?5ERROR?50x?$CFx?$DNL?$CFx?3F?$CFx?3R?$CFx?6@ 000000000009ddc8     TlsLib:TlsProcess.obj
 0002:00000ee8       ??_C@_0DE@IBFOALAL@d?3?2myedk2?2edk2?2MdePkg?2Library?2D@ 000000000009dde8     DxePcdLib:DxePcdLib.obj
 0002:00000f20       ??_C@_0BF@OOKDELHM@mPcd?5?$CB?$DN?5?$CI?$CIvoid?5?$CK?$CJ?50?$CJ@ 000000000009de20     DxePcdLib:DxePcdLib.obj
 0002:00000f38       ??_C@_0BH@MAAHKCPC@String?5?$CB?$DN?5?$CI?$CIvoid?5?$CK?$CJ?50?$CJ@ 000000000009de38     BaseLib:String.obj
 0002:00000f50       ??_C@_0CP@DJBLNMJI@d?3?2myedk2?2edk2?2MdePkg?2Library?2B@ 000000000009de50     BaseLib:String.obj
 0002:00000f80       ??_C@_0CC@GFNLNIOC@?$CI?$CIUINTN?$CJString?5?$CG?50x00000001?$CJ?5?$DN?$DN@ 000000000009de80     BaseLib:String.obj
 0002:00000fa8       ??_C@_0DI@MDIKFADO@Length?5?$DM?5_gPcd_FixedAtBuild_Pcd@ 000000000009dea8     BaseLib:String.obj
 0002:00000fe0       ??_C@_0BL@IKFBNFIL@AsciiStrSize?5?$CIFirstString?$CJ@ 000000000009dee0     BaseLib:String.obj
 0002:00001000       ??_C@_0BM@EDNOKLLE@AsciiStrSize?5?$CISecondString?$CJ@ 000000000009df00     BaseLib:String.obj
 0002:00001020       ??_C@_0DJ@JJHGIFMP@Length?5?$DM?$DN?5_gPcd_FixedAtBuild_Pc@ 000000000009df20     BaseLib:String.obj
 0002:00001060       ??_C@_0DC@DDBICJIK@d?3?2myedk2?2edk2?2MdePkg?2Library?2B@ 000000000009df60     BaseLib:Unaligned.obj
 0002:00001098       ??_C@_0DD@OKIGPFG@d?3?2myedk2?2edk2?2MdePkg?2Library?2B@ 000000000009df98     BaseLib:SafeString.obj
 0002:000010d0       ??_C@_0BO@ECNIOIHG@?$CIDestination?5?$CB?$DN?5?$CI?$CIvoid?5?$CK?$CJ?50?$CJ?$CJ@ 000000000009dfd0     BaseLib:SafeString.obj
 0002:000010f0       ??_C@_0EA@PDPDJJNN@?$CFa?$CI?$CFd?$CJ?5?$CFa?3?5SAFE_STRING_CONSTRAI@ 000000000009dff0     BaseLib:SafeString.obj
 0002:00001130       ??_C@_0BJ@EAEEJIP@?$CISource?5?$CB?$DN?5?$CI?$CIvoid?5?$CK?$CJ?50?$CJ?$CJ@ 000000000009e030     BaseLib:SafeString.obj
 0002:00001150       ??_C@_0BG@EEGIIOKH@?$CIDestMax?5?$DO?5SourceLen?$CJ@ 000000000009e050     BaseLib:SafeString.obj
 0002:00001168       ??_C@_0P@BHOOOJPD@?$CICopyLen?5?$CB?$DN?50?$CJ@ 000000000009e068     BaseLib:SafeString.obj
 0002:00001178       ??_C@_0BG@BPGICNPK@?$CICopyLen?5?$DO?5SourceLen?$CJ@ 000000000009e078     BaseLib:SafeString.obj
 0002:00001190       ??_C@_0BJ@MBBOBCLN@?$CIString?5?$CB?$DN?5?$CI?$CIvoid?5?$CK?$CJ?50?$CJ?$CJ@ 000000000009e090     BaseLib:SafeString.obj
 0002:000011b0       ??_C@_0BH@JPMEDPAI@?$CIData?5?$CB?$DN?5?$CI?$CIvoid?5?$CK?$CJ?50?$CJ?$CJ@ 000000000009e0b0     BaseLib:SafeString.obj
 0002:000011c8       ??_C@_0BJ@CNKJJNE@?$CIBuffer?5?$CB?$DN?5?$CI?$CIvoid?5?$CK?$CJ?50?$CJ?$CJ@ 000000000009e0c8     BaseLib:SafeString.obj
 0002:000011e8       ??_C@_0N@OMPODJLB@AsciiStrCpyS@ 000000000009e0e8     BaseLib:SafeString.obj
 0002:00001200       ??_C@_0FL@CDANCHFO@InternalSafeStringNoAsciiStrOve@ 000000000009e100     BaseLib:SafeString.obj
 0002:00001260       ??_C@_0O@DIHNCLLG@AsciiStrnCpyS@ 000000000009e160     BaseLib:SafeString.obj
 0002:00001270       ??_C@_0DN@DLAADCJE@?$CILength?5?$DM?$DN?5?$CI_gPcd_FixedAtBuild_@ 000000000009e170     BaseLib:SafeString.obj
 0002:000012b0       ??_C@_0N@MIDJKBI@AsciiStrCatS@ 000000000009e1b0     BaseLib:SafeString.obj
 0002:000012c0       ??_C@_0BI@GIIHIIN@AsciiStrDecimalToUintnS@ 000000000009e1c0     BaseLib:SafeString.obj
 0002:000012e0       ??_C@_0ID@JMCCGBLD@?$CIAsciiStrnLenS?5?$CIString?0?5?$CI_gPcd_@ 000000000009e1e0     BaseLib:SafeString.obj
 0002:00001368       ??_C@_0N@KGHEHMDL@Divisor?5?$CB?$DN?50@ 000000000009e268     BaseLib:DivU64x32.obj
 0002:00001378       ??_C@_0DI@DAGDPLPG@?$CILength?5?9?51?$CJ?5?$DM?$DN?5?$CI0xFFFFFFFFFFFF@ 000000000009e278     BaseMemoryLibRepStr:SetMemWrapper.obj
 0002:000013b0       ??_C@_0EC@NJPJFNGD@d?3?2myedk2?2edk2?2MdePkg?2Library?2B@ 000000000009e2b0     BaseMemoryLibRepStr:SetMemWrapper.obj
 0002:00001400       ??_C@_0ED@CECKBBNJ@d?3?2myedk2?2edk2?2MdePkg?2Library?2B@ 000000000009e300     BaseMemoryLibRepStr:ZeroMemWrapper.obj
 0002:00001448       ??_C@_0DG@EEENIGGL@Length?5?$DM?$DN?5?$CI0xFFFFFFFFFFFFFFFFUL@ 000000000009e348     BaseMemoryLibRepStr:ZeroMemWrapper.obj
 0002:00001480       ??_C@_0DM@HGIGHENF@d?3?2myedk2?2edk2?2MdePkg?2Library?2B@ 000000000009e380     BaseIoLibIntrinsicSev:IoLibMsc.obj
 0002:000014c0       ??_C@_0BA@HCECIDGN@?$CIPort?5?$CG?53?$CJ?5?$DN?$DN?50@ 000000000009e3c0     BaseIoLibIntrinsicSev:IoLibMsc.obj
 0002:000014d0       ??_C@_0BD@OMMAJMCK@?$CIAddress?5?$CG?53?$CJ?5?$DN?$DN?50@ 000000000009e3d0     BaseIoLibIntrinsicSev:IoLibInternalTdx.obj
 0002:000014e8       ??_C@_0DO@DLJLNPNA@d?3?2myedk2?2edk2?2MdePkg?2Library?2B@ 000000000009e3e8     BasePrintLib:PrintLibInternal.obj
 0002:00001530       ??_C@_0EB@HDGIDCIO@?$CIBufferSize?5?$DM?$DN?5?$CI_gPcd_FixedAtBu@ 000000000009e430     BasePrintLib:PrintLibInternal.obj
 0002:00001578       ??_C@_0BJ@PPAKKDJG@?$CIFormat?5?$CB?$DN?5?$CI?$CIvoid?5?$CK?$CJ?50?$CJ?$CJ@ 000000000009e478     BasePrintLib:PrintLibInternal.obj
 0002:000015a0       ??_C@_0ED@LPDDCECB@?$CIBufferSize?5?$DM?$DN?5?$CI_gPcd_FixedAtBu@ 000000000009e4a0     BasePrintLib:PrintLibInternal.obj
 0002:000015f0       ??_C@_0IM@BFJJFLGB@?$CIStrnLenS?5?$CI?$CICHAR16?5?$CK?$CJFormat?0?5?$CI_@ 000000000009e4f0     BasePrintLib:PrintLibInternal.obj
 0002:00001680       ??_C@_0ID@PLGJGION@?$CIAsciiStrnLenS?5?$CIFormat?0?5?$CI_gPcd_@ 000000000009e580     BasePrintLib:PrintLibInternal.obj
 0002:00001708       ??_C@_0O@MLOLIMFM@?$DMnull?5string?$DO@ 000000000009e608     BasePrintLib:PrintLibInternal.obj
 0002:00001718       ??_C@_0M@BJJDNPHK@?$DMnull?5guid?$DO@ 000000000009e618     BasePrintLib:PrintLibInternal.obj
 0002:00001728       ??_C@_0DB@PMLHLBMO@?$CF08x?9?$CF04x?9?$CF04x?9?$CF02x?$CF02x?9?$CF02x?$CF02@ 000000000009e628     BasePrintLib:PrintLibInternal.obj
 0002:00001760       ??_C@_0M@LHGBCIKM@?$DMnull?5time?$DO@ 000000000009e660     BasePrintLib:PrintLibInternal.obj
 0002:00001770       ??_C@_0BK@FCPKCIDD@?$CF02d?1?$CF02d?1?$CF04d?5?5?$CF02d?3?$CF02d@ 000000000009e670     BasePrintLib:PrintLibInternal.obj
 0002:0000178c       ??_C@_04JIMNDDED@?$CF08X@  000000000009e68c     BasePrintLib:PrintLibInternal.obj
 0002:00001794       ??_C@_02PCIJFNDE@?$AN?6@   000000000009e694     BasePrintLib:PrintLibInternal.obj
 0002:00001798       ??_C@_01LIIJDEN@?$AN@      000000000009e698     BasePrintLib:PrintLibInternal.obj
 0002:000017a0       mWarningString             000000000009e6a0     BasePrintLib:PrintLibInternal.obj
 0002:00001840       mErrorString               000000000009e740     BasePrintLib:PrintLibInternal.obj
 0002:00001b00       mHexStr                    000000000009ea00     BasePrintLib:PrintLibInternal.obj
 0002:00001b10       ??_C@_0BO@BAKALPJK@?$CI?$CIAddress?$CJ?5?$CG?5?$HO0xfffffff?$CJ?5?$DN?$DN?50@ 000000000009ea10     BasePciExpressLib:PciExpressLib.obj
 0002:00001b30       ??_C@_0EA@GAFEKIHN@d?3?2myedk2?2edk2?2MdePkg?2Library?2B@ 000000000009ea30     BasePciExpressLib:PciExpressLib.obj
 0002:00001b70       ??_C@_0DI@EGELJHOH@d?3?2myedk2?2edk2?2MdePkg?2Library?2B@ 000000000009ea70     BasePciCf8Lib:PciCf8Lib.obj
 0002:00001ba8       ??_C@_0CG@EDKLCMBO@?$CI?$CIAddress?$CJ?5?$CG?5?$CI?$HO0xffff0ff?5?$HM?5?$CI3?$CJ?$CJ@ 000000000009eaa8     BasePciCf8Lib:PciCf8Lib.obj
 0002:00001bd0       ??_C@_0CO@LADCLDOA@TLS_AES_256_GCM_SHA384?3TLS_AES_@ 000000000009ead0     OpensslLib:ssl_lib.obj
 0002:00001c00       ??_C@_0CA@NLKFJLJB@ALL?3?$CBCOMPLEMENTOFDEFAULT?3?$CBeNULL@ 000000000009eb00     OpensslLib:ssl_lib.obj
 0002:00001c20       ??_C@_08CBANLEIB@ssl3?9md5@ 000000000009eb20     OpensslLib:ssl_lib.obj
 0002:00001c30       ??_C@_09KCHAKJIH@ssl3?9sha1@ 000000000009eb30     OpensslLib:ssl_lib.obj
 0002:00001c40       ??_C@_07LKLNDMIP@TLSv1?43@ 000000000009eb40     OpensslLib:ssl_lib.obj
 0002:00001c48       ??_C@_07KDKGANMO@TLSv1?42@ 000000000009eb48     OpensslLib:ssl_lib.obj
 0002:00001c50       ??_C@_07IIILFOAN@TLSv1?41@ 000000000009eb50     OpensslLib:ssl_lib.obj
 0002:00001c58       ??_C@_05LLIBCOJ@TLSv1@     000000000009eb58     OpensslLib:ssl_lib.obj
 0002:00001c60       ??_C@_05MOEBAHEJ@SSLv3@    000000000009eb60     OpensslLib:ssl_lib.obj
 0002:00001c68       ??_C@_06JHFCDNFO@DTLSv1@   000000000009eb68     OpensslLib:ssl_lib.obj
 0002:00001c70       ??_C@_08KDPDJEAC@DTLSv1?42@ 000000000009eb70     OpensslLib:ssl_lib.obj
 0002:00001c7c       ??_C@_04NOJCDH@?$CF02x@    000000000009eb7c     OpensslLib:ssl_lib.obj
 0002:00001c84       ??_C@_03DICHAJGH@RSA@      000000000009eb84     OpensslLib:ssl_lib.obj
 0002:00001c88       ??_C@_03GCGHEHKJ@MD5@      000000000009eb88     OpensslLib:ssl_init.obj
 0002:00001c8c       ??_C@_04KPMLCNGO@SHA1@     000000000009eb8c     OpensslLib:ssl_init.obj
 0002:00001c98       ??_C@_08FBKDDLCN@RSA?9SHA1@ 000000000009eb98     OpensslLib:ssl_init.obj
 0002:00001ca8       ??_C@_0L@EMMEGDKK@RSA?9SHA1?92@ 000000000009eba8     OpensslLib:ssl_init.obj
 0002:00001cb8       ??_C@_0O@DIEIKEFB@memory?5buffer@ 000000000009ebb8     OpensslLib:bss_mem.obj
 0002:00001cc8       ??_C@_0BF@GBLHBJLI@secure?5memory?5buffer@ 000000000009ebc8     OpensslLib:bss_mem.obj
 0002:00002580       ??_C@_01CLKCMJKC@?5@       000000000009f480     OpensslLib:bio_lib.obj
 0002:00002584       ??_C@_03NIFPGLBG@ALL@      000000000009f484     OpensslLib:ssl_ciph.obj
 0002:00002588       ??_C@_0BA@NMKLDIMD@COMPLEMENTOFALL@ 000000000009f488     OpensslLib:ssl_ciph.obj
 0002:00002598       ??_C@_0BE@MOOCAEFB@COMPLEMENTOFDEFAULT@ 000000000009f498     OpensslLib:ssl_ciph.obj
 0002:000025ac       ??_C@_04DBKDGHDK@kRSA@     000000000009f4ac     OpensslLib:ssl_ciph.obj
 0002:000025b4       ??_C@_04DEMGAGKA@kEDH@     000000000009f4b4     OpensslLib:ssl_ciph.obj
 0002:000025bc       ??_C@_04DAMOOGOM@kDHE@     000000000009f4bc     OpensslLib:ssl_ciph.obj
 0002:000025c4       ??_C@_02EPINMGPM@DH@       000000000009f4c4     OpensslLib:ssl_ciph.obj
 0002:000025c8       ??_C@_06OCDGGDLK@kEECDH@   000000000009f4c8     OpensslLib:ssl_ciph.obj
 0002:000025d0       ??_C@_06EMBFCJIK@kECDHE@   000000000009f4d0     OpensslLib:ssl_ciph.obj
 0002:000025d8       ??_C@_04GPFMMIBJ@ECDH@     000000000009f4d8     OpensslLib:ssl_ciph.obj
 0002:000025e0       ??_C@_04GBEFEHDL@kPSK@     000000000009f4e0     OpensslLib:ssl_ciph.obj
 0002:000025e8       ??_C@_07PKOFGGMA@kRSAPSK@  000000000009f4e8     OpensslLib:ssl_ciph.obj
 0002:000025f0       ??_C@_09HDEDOMJP@kECDHEPSK@ 000000000009f4f0     OpensslLib:ssl_ciph.obj
 0002:00002600       ??_C@_07GCHKJLKM@kDHEPSK@  000000000009f500     OpensslLib:ssl_ciph.obj
 0002:00002608       ??_C@_04NLAEEJHI@kSRP@     000000000009f508     OpensslLib:ssl_ciph.obj
 0002:00002610       ??_C@_05LFIHGFEO@kGOST@    000000000009f510     OpensslLib:ssl_ciph.obj
 0002:00002618       ??_C@_04HLBDHPJL@aRSA@     000000000009f518     OpensslLib:ssl_ciph.obj
 0002:00002620       ??_C@_04HGJFAHAL@aDSS@     000000000009f520     OpensslLib:ssl_ciph.obj
 0002:00002628       ??_C@_03DFKBHBPH@DSS@      000000000009f528     OpensslLib:ssl_ciph.obj
 0002:0000262c       ??_C@_05LDMJOPLG@aNULL@    000000000009f52c     OpensslLib:ssl_ciph.obj
 0002:00002634       ??_C@_06JMHKPPFB@aECDSA@   000000000009f534     OpensslLib:ssl_ciph.obj
 0002:0000263c       ??_C@_05JNBFMGNN@ECDSA@    000000000009f53c     OpensslLib:ssl_ciph.obj
 0002:00002644       ??_C@_04CLPFFPJK@aPSK@     000000000009f544     OpensslLib:ssl_ciph.obj
 0002:00002650       ??_C@_07CANELMDB@aGOST01@  000000000009f550     OpensslLib:ssl_ciph.obj
 0002:00002658       ??_C@_07KDLIFMF@aGOST12@   000000000009f558     OpensslLib:ssl_ciph.obj
 0002:00002660       ??_C@_05BEBMEGCI@aGOST@    000000000009f560     OpensslLib:ssl_ciph.obj
 0002:00002668       ??_C@_04JBLEFBNJ@aSRP@     000000000009f568     OpensslLib:ssl_ciph.obj
 0002:00002670       ??_C@_03DNECGIPN@EDH@      000000000009f570     OpensslLib:ssl_ciph.obj
 0002:00002674       ??_C@_03DJEKIILB@DHE@      000000000009f574     OpensslLib:ssl_ciph.obj
 0002:00002678       ??_C@_05EHCJAFHI@EECDH@    000000000009f578     OpensslLib:ssl_ciph.obj
 0002:00002680       ??_C@_05OJAKEPEI@ECDHE@    000000000009f580     OpensslLib:ssl_ciph.obj
 0002:00002688       ??_C@_04HIBGFPH@NULL@      000000000009f588     OpensslLib:ssl_ciph.obj
 0002:00002690       ??_C@_03LCCAPPKK@ADH@      000000000009f590     OpensslLib:ssl_ciph.obj
 0002:00002694       ??_C@_05NMLIEHGO@AECDH@    000000000009f594     OpensslLib:ssl_ciph.obj
 0002:0000269c       ??_C@_03GIMBCJGG@PSK@      000000000009f59c     OpensslLib:ssl_ciph.obj
 0002:000026a0       ??_C@_03NCIACHCF@SRP@      000000000009f5a0     OpensslLib:ssl_ciph.obj
 0002:000026a4       ??_C@_04CMONEEGC@3DES@     000000000009f5a4     OpensslLib:ssl_ciph.obj
 0002:000026ac       ??_C@_03HGEJCHKE@RC4@      000000000009f5ac     OpensslLib:ssl_ciph.obj
 0002:000026b0       ??_C@_03CABDIACC@RC2@      000000000009f5b0     OpensslLib:ssl_ciph.obj
 0002:000026b4       ??_C@_04OHHLMMNP@IDEA@     000000000009f5b4     OpensslLib:ssl_ciph.obj
 0002:000026bc       ??_C@_04IOANANM@SEED@      000000000009f5bc     OpensslLib:ssl_ciph.obj
 0002:000026c4       ??_C@_05CIFIKNKA@eNULL@    000000000009f5c4     OpensslLib:ssl_ciph.obj
 0002:000026cc       ??_C@_06CBBMHLD@GOST89@    000000000009f5cc     OpensslLib:ssl_ciph.obj
 0002:000026d4       ??_C@_06NICOGCEJ@AES128@   000000000009f5d4     OpensslLib:ssl_ciph.obj
 0002:000026dc       ??_C@_06FBFHPGKM@AES256@   000000000009f5dc     OpensslLib:ssl_ciph.obj
 0002:000026e4       ??_C@_03BKNEFOAH@AES@      000000000009f5e4     OpensslLib:ssl_ciph.obj
 0002:000026e8       ??_C@_06JBABBCNN@AESGCM@   000000000009f5e8     OpensslLib:ssl_ciph.obj
 0002:000026f0       ??_C@_06BOGDIFIK@AESCCM@   000000000009f5f0     OpensslLib:ssl_ciph.obj
 0002:000026f8       ??_C@_07BKOMLFEA@AESCCM8@  000000000009f5f8     OpensslLib:ssl_ciph.obj
 0002:00002700       ??_C@_0M@ODOKKANE@CAMELLIA128@ 000000000009f600     OpensslLib:ssl_ciph.obj
 0002:00002710       ??_C@_0M@GKJDDEDB@CAMELLIA256@ 000000000009f610     OpensslLib:ssl_ciph.obj
 0002:00002720       ??_C@_08LLHPADEA@CAMELLIA@ 000000000009f620     OpensslLib:ssl_ciph.obj
 0002:00002730       ??_C@_08NMKDCABJ@CHACHA20@ 000000000009f630     OpensslLib:ssl_ciph.obj
 0002:0000273c       ??_C@_04KLGDHGDJ@ARIA@     000000000009f63c     OpensslLib:ssl_ciph.obj
 0002:00002748       ??_C@_07LHKMFCHD@ARIAGCM@  000000000009f648     OpensslLib:ssl_ciph.obj
 0002:00002750       ??_C@_07POIDCCOH@ARIA128@  000000000009f650     OpensslLib:ssl_ciph.obj
 0002:00002758       ??_C@_07HHPKLGAC@ARIA256@  000000000009f658     OpensslLib:ssl_ciph.obj
 0002:00002760       ??_C@_03JAOICCJD@SHA@      000000000009f660     OpensslLib:ssl_ciph.obj
 0002:00002764       ??_C@_06LGHNNDMJ@GOST94@   000000000009f664     OpensslLib:ssl_ciph.obj
 0002:00002770       ??_C@_09OKGBFKOB@GOST89MAC@ 000000000009f670     OpensslLib:ssl_ciph.obj
 0002:0000277c       ??_C@_06HKIKMHH@SHA256@    000000000009f67c     OpensslLib:ssl_ciph.obj
 0002:00002784       ??_C@_06IFPKDKMD@SHA384@   000000000009f684     OpensslLib:ssl_ciph.obj
 0002:0000278c       ??_C@_06OODECFPH@GOST12@   000000000009f68c     OpensslLib:ssl_ciph.obj
 0002:00002798       ??_C@_07JBJAGPEM@TLSv1?40@ 000000000009f698     OpensslLib:ssl_ciph.obj
 0002:000027a0       ??_C@_03IBEFMGAI@LOW@      000000000009f6a0     OpensslLib:ssl_ciph.obj
 0002:000027a4       ??_C@_06HMBFJLMK@MEDIUM@   000000000009f6a4     OpensslLib:ssl_ciph.obj
 0002:000027ac       ??_C@_04PKDHFCJF@HIGH@     000000000009f6ac     OpensslLib:ssl_ciph.obj
 0002:000027b4       ??_C@_04PFFIJCJL@FIPS@     000000000009f6b4     OpensslLib:ssl_ciph.obj
 0002:000027c0       ??_C@_0BF@POGOIEBE@EDH?9DSS?9DES?9CBC3?9SHA@ 000000000009f6c0     OpensslLib:ssl_ciph.obj
 0002:000027d8       ??_C@_0BF@KCOPIELP@EDH?9RSA?9DES?9CBC3?9SHA@ 000000000009f6d8     OpensslLib:ssl_ciph.obj
 0002:000027f0       ??_C@_08JCNEGNFC@gost?9mac@ 000000000009f6f0     OpensslLib:ssl_ciph.obj
 0002:00002800       ??_C@_0M@KEFEFFFO@gost?9mac?912@ 000000000009f700     OpensslLib:ssl_ciph.obj
 0002:00002810       ??_C@_08KMPAMBCP@gost2001@ 000000000009f710     OpensslLib:ssl_ciph.obj
 0002:00002820       ??_C@_0N@MINOOKEF@gost2012_256@ 000000000009f720     OpensslLib:ssl_ciph.obj
 0002:00002830       ??_C@_0N@DGGMLPCE@gost2012_512@ 000000000009f730     OpensslLib:ssl_ciph.obj
 0002:00002840       ??_C@_0N@MFFPBCGK@RC4?9HMAC?9MD5@ 000000000009f740     OpensslLib:ssl_ciph.obj
 0002:00002850       ??_C@_0BG@OKEPPAEE@AES?9128?9CBC?9HMAC?9SHA1@ 000000000009f750     OpensslLib:ssl_ciph.obj
 0002:00002868       ??_C@_0BG@NJKHMG@AES?9256?9CBC?9HMAC?9SHA1@ 000000000009f768     OpensslLib:ssl_ciph.obj
 0002:00002880       ??_C@_0BI@JAKBILLC@AES?9128?9CBC?9HMAC?9SHA256@ 000000000009f780     OpensslLib:ssl_ciph.obj
 0002:00002898       ??_C@_0BI@GMBLFPLK@AES?9256?9CBC?9HMAC?9SHA256@ 000000000009f798     OpensslLib:ssl_ciph.obj
 0002:000028b0       ??_C@_08NKIPMNFC@STRENGTH@ 000000000009f7b0     OpensslLib:ssl_ciph.obj
 0002:000028c0       ??_C@_09KJIOADCI@SECLEVEL?$DN@ 000000000009f7c0     OpensslLib:ssl_ciph.obj
 0002:000028d0       ??_C@_0O@KBPCDIMJ@SUITEB128ONLY@ 000000000009f7d0     OpensslLib:ssl_ciph.obj
 0002:000028e0       ??_C@_0M@IHCKNMIL@SUITEB128C2@ 000000000009f7e0     OpensslLib:ssl_ciph.obj
 0002:000028f0       ??_C@_09JCJKDIKO@SUITEB128@ 000000000009f7f0     OpensslLib:ssl_ciph.obj
 0002:00002900       ??_C@_09GECADPMF@SUITEB192@ 000000000009f800     OpensslLib:ssl_ciph.obj
 0002:00002910       ??_C@_0BO@MAHEHKAF@ECDHE?9ECDSA?9AES256?9GCM?9SHA384@ 000000000009f810     OpensslLib:ssl_ciph.obj
 0002:00002930       ??_C@_0DM@CNGFGEEL@ECDHE?9ECDSA?9AES128?9GCM?9SHA256?3E@ 000000000009f830     OpensslLib:ssl_ciph.obj
 0002:00002970       ??_C@_0BO@MMHACALI@ECDHE?9ECDSA?9AES128?9GCM?9SHA256@ 000000000009f870     OpensslLib:ssl_ciph.obj
 0002:00002990       ??_C@_07MGCPDNLD@DEFAULT@  000000000009f890     OpensslLib:ssl_ciph.obj
 0002:00002998       ??_C@_03OBJFJEBA@any@      000000000009f898     OpensslLib:ssl_ciph.obj
 0002:0000299c       ??_C@_04OHJIHAFH@None@     000000000009f89c     OpensslLib:ssl_ciph.obj
 0002:00004280       ??_C@_0BA@CMCLEKJO@SERVERINFO?5FOR?5@ 00000000000a1180     OpensslLib:ssl_rsa.obj
 0002:00004290       ??_C@_0BC@POOIPKPK@SERVERINFOV2?5FOR?5@ 00000000000a1190     OpensslLib:ssl_rsa.obj
 0002:000042a8       ??_C@_07CPCPJPKL@version@  00000000000a11a8     OpensslLib:x_x509.obj
 0002:000042b0       ??_C@_0N@OMOHFKCJ@serialNumber@ 00000000000a11b0     OpensslLib:x_x509.obj
 0002:000042c0       ??_C@_09CMIIOJHF@signature@ 00000000000a11c0     OpensslLib:x_x509.obj
 0002:000042cc       ??_C@_06EAINIONG@issuer@   00000000000a11cc     OpensslLib:x_x509.obj
 0002:000042d8       ??_C@_08GCHKOCBP@validity@ 00000000000a11d8     OpensslLib:x_x509.obj
 0002:000042e8       ??_C@_07JNNGEGGO@subject@  00000000000a11e8     OpensslLib:x_x509.obj
 0002:000042f0       ??_C@_03ICHNJLJF@key@      00000000000a11f0     OpensslLib:x_x509.obj
 0002:000042f8       ??_C@_09KIIAMAEE@issuerUID@ 00000000000a11f8     OpensslLib:x_x509.obj
 0002:00004308       ??_C@_0L@JMFHLKAL@subjectUID@ 00000000000a1208     OpensslLib:x_x509.obj
 0002:00004318       ??_C@_0L@ICCCPLKC@extensions@ 00000000000a1218     OpensslLib:x_x509.obj
 0002:00004328       ??_C@_09LCJGKABB@X509_CINF@ 00000000000a1228     OpensslLib:x_x509.obj
 0002:00004338       ??_C@_09NKDPGBBA@cert_info@ 00000000000a1238     OpensslLib:x_x509.obj
 0002:00004348       ??_C@_07OBHFIHGJ@sig_alg@  00000000000a1248     OpensslLib:x_x509.obj
 0002:00004350       ??_C@_04NMKEOMFB@X509@     00000000000a1250     OpensslLib:x_x509.obj
 0002:00004500       X509_it                    00000000000a1400     OpensslLib:x_x509.obj
 0002:00004580       X509_CINF_it               00000000000a1480     OpensslLib:x_x509.obj
 0002:000045b0       ??_C@_0M@BFIJENPO@CERTIFICATE@ 00000000000a14b0     OpensslLib:pem_x509.obj
 0002:000045c0       ??_C@_07DLHCIBDH@default@  00000000000a14c0     OpensslLib:x509_vpm.obj
 0002:000045c8       ??_C@_05EENODLBB@pkcs7@    00000000000a14c8     OpensslLib:x509_vpm.obj
 0002:000045d0       ??_C@_0L@GGDBHMO@smime_sign@ 00000000000a14d0     OpensslLib:x509_vpm.obj
 0002:000045e0       ??_C@_0L@IMDPAGCM@ssl_client@ 00000000000a14e0     OpensslLib:x509_vpm.obj
 0002:000045f0       ??_C@_0L@MDHNNNKP@ssl_server@ 00000000000a14f0     OpensslLib:x509_vpm.obj
 0002:00004808       ??_C@_02JDNIPIGD@NA@       00000000000a1708     OpensslLib:err.obj
 0002:00004810       ??_C@_0BF@IKLBHEFA@error?3?$CF08lX?3?$CFs?3?$CFs?3?$CFs@ 00000000000a1710     OpensslLib:err.obj
 0002:00004828       ??_C@_06CBHGEMFM@?$DMNULL?$DO@ 00000000000a1728     OpensslLib:err.obj
 0002:00004830       ??_C@_07FELGDGBG@?$CIundef?$CJ@ 00000000000a1730     OpensslLib:c_zlib.obj
 0002:00004838       ??_C@_0BI@GCIOAHAF@SSL?5for?5verify?5callback@ 00000000000a1738     OpensslLib:ssl_cert.obj
 0002:00004850       ??_C@_02HJPKOJGD@?8?$CJ@   00000000000a1750     OpensslLib:ssl_cert.obj
 0002:00004858       ??_C@_0BJ@LMCDNAEM@OPENSSL_DIR_read?$CI?$CGctx?0?5?8@ 00000000000a1758     OpensslLib:ssl_cert.obj
 0002:00004878       ??_C@_0O@HFNJECFC@Verify?5error?3@ 00000000000a1778     OpensslLib:ssl_cert.obj
 0002:000048e8       ??_C@_0BC@PCIPMNJJ@SSL?5alert?5number?5@ 00000000000a17e8     OpensslLib:rec_layer_s3.obj
 0002:00004900       TLSv1_enc_data             00000000000a1800     OpensslLib:t1_lib.obj
 0002:00004980       TLSv1_1_enc_data           00000000000a1880     OpensslLib:t1_lib.obj
 0002:00004a00       TLSv1_3_enc_data           00000000000a1900     OpensslLib:t1_lib.obj
 0002:00004a80       TLSv1_2_enc_data           00000000000a1980     OpensslLib:t1_lib.obj
 0002:00004b00       ??_C@_0BA@OOFGCNEE@client?5finished@ 00000000000a1a00     OpensslLib:t1_lib.obj
 0002:00004b10       ??_C@_0BA@MHGDKHGN@server?5finished@ 00000000000a1a10     OpensslLib:t1_lib.obj
 0002:00004b20       ??_C@_0BH@GIADEPJE@ecdsa_secp256r1_sha256@ 00000000000a1a20     OpensslLib:t1_lib.obj
 0002:00004b38       ??_C@_0BH@PBAELIIK@ecdsa_secp384r1_sha384@ 00000000000a1a38     OpensslLib:t1_lib.obj
 0002:00004b50       ??_C@_0BH@LGGBOAKB@ecdsa_secp521r1_sha512@ 00000000000a1a50     OpensslLib:t1_lib.obj
 0002:00004b68       ??_C@_07LBIEHNGB@ed25519@  00000000000a1a68     OpensslLib:t1_lib.obj
 0002:00004b70       ??_C@_05DBACIPHJ@ed448@    00000000000a1a70     OpensslLib:t1_lib.obj
 0002:00004b78       ??_C@_0BE@LNIMFGKM@rsa_pss_rsae_sha256@ 00000000000a1a78     OpensslLib:t1_lib.obj
 0002:00004b90       ??_C@_0BE@DPNOMABI@rsa_pss_rsae_sha384@ 00000000000a1a90     OpensslLib:t1_lib.obj
 0002:00004ba8       ??_C@_0BE@EDDOADMN@rsa_pss_rsae_sha512@ 00000000000a1aa8     OpensslLib:t1_lib.obj
 0002:00004bc0       ??_C@_0BD@KLIPJPCB@rsa_pss_pss_sha256@ 00000000000a1ac0     OpensslLib:t1_lib.obj
 0002:00004bd8       ??_C@_0BD@CJNNAJJF@rsa_pss_pss_sha384@ 00000000000a1ad8     OpensslLib:t1_lib.obj
 0002:00004bf0       ??_C@_0BD@FFDNMKEA@rsa_pss_pss_sha512@ 00000000000a1af0     OpensslLib:t1_lib.obj
 0002:00004c08       ??_C@_0BB@BELHGGPO@rsa_pkcs1_sha256@ 00000000000a1b08     OpensslLib:t1_lib.obj
 0002:00004c20       ??_C@_0BB@JGOFPAEK@rsa_pkcs1_sha384@ 00000000000a1b20     OpensslLib:t1_lib.obj
 0002:00004c38       ??_C@_0BB@OKAFDDJP@rsa_pkcs1_sha512@ 00000000000a1b38     OpensslLib:t1_lib.obj
 0002:00004c50       ??_C@_0BB@CDMOBCPJ@rsa_pkcs1_sha224@ 00000000000a1b50     OpensslLib:t1_lib.obj
 0002:00004c68       ??_C@_0P@CBACLGOJ@rsa_pkcs1_sha1@ 00000000000a1b68     OpensslLib:t1_lib.obj
 0002:00004c78       ??_C@_0BD@NJKDCLI@rsa_pkcs1_md5_sha1@ 00000000000a1b78     OpensslLib:t1_lib.obj
 0002:00004c90       ??_C@_07FGNHIEKH@RSA?9PSS@ 00000000000a1b90     OpensslLib:t1_lib.obj
 0002:00004c98       ??_C@_03OKNKLBDP@PSS@      00000000000a1b98     OpensslLib:t1_lib.obj
 0002:00004c9c       ??_C@_03ENFFABCE@DSA@      00000000000a1b9c     OpensslLib:t1_lib.obj
 0002:00005168       X509_PUBKEY_it             00000000000a2068     OpensslLib:x_pubkey.obj
 0002:00005198       ??_C@_05CJCEEADM@algor@    00000000000a2098     OpensslLib:x_pubkey.obj
 0002:000051a0       ??_C@_0L@PJCANJEE@public_key@ 00000000000a20a0     OpensslLib:x_pubkey.obj
 0002:000051b0       ??_C@_0M@INJPOKDH@X509_PUBKEY@ 00000000000a20b0     OpensslLib:x_pubkey.obj
 0002:00005230       ??_C@_0O@DHJLLKEK@hashAlgorithm@ 00000000000a2130     OpensslLib:ocsp_asn.obj
 0002:00005240       ??_C@_0N@OFBDHEPF@value?4byName@ 00000000000a2140     OpensslLib:ocsp_asn.obj
 0002:00005250       ??_C@_0M@OFGLOCKB@value?4byKey@ 00000000000a2150     OpensslLib:ocsp_asn.obj
 0002:00005260       ??_C@_0M@JBDPBGBO@OCSP_RESPID@ 00000000000a2160     OpensslLib:ocsp_asn.obj
 0002:00005270       ??_C@_0L@BMOABHOK@nextUpdate@ 00000000000a2170     OpensslLib:ocsp_asn.obj
 0002:0000527c       ??_C@_06KAALCHHK@crlUrl@   00000000000a217c     OpensslLib:ocsp_asn.obj
 0002:00005284       ??_C@_06DLEHNACA@crlNum@   00000000000a2184     OpensslLib:ocsp_asn.obj
 0002:00005290       ??_C@_07BDEAJPPO@crlTime@  00000000000a2190     OpensslLib:ocsp_asn.obj
 0002:00005298       ??_C@_0L@JOKCDHBA@OCSP_CRLID@ 00000000000a2198     OpensslLib:ocsp_asn.obj
 0002:000052a8       ??_C@_07PAIKCKMF@locator@  00000000000a21a8     OpensslLib:ocsp_asn.obj
 0002:000052b0       ??_C@_0BA@JLGHGCLL@OCSP_SERVICELOC@ 00000000000a21b0     OpensslLib:ocsp_asn.obj
 0002:00005360       OCSP_RESPID_it             00000000000a2260     OpensslLib:ocsp_asn.obj
 0002:00005390       OCSP_SERVICELOC_it         00000000000a2290     OpensslLib:ocsp_asn.obj
 0002:00005400       OCSP_CRLID_it              00000000000a2300     OpensslLib:ocsp_asn.obj
 0002:00005430       ??_C@_0BB@JGGOGLEG@0123456789ABCDEF@ 00000000000a2330     OpensslLib:f_int.obj
 0002:00005448       ??_C@_0P@FCJIDALF@system_default@ 00000000000a2348     OpensslLib:ssl_mcnf.obj
 0002:00005458       ??_C@_05DFCJAACA@name?$DN@ 00000000000a2358     OpensslLib:ssl_mcnf.obj
 0002:00005460       ??_C@_06CPDGNFKO@?0?5arg?$DN@ 00000000000a2360     OpensslLib:ssl_mcnf.obj
 0002:00005468       ??_C@_06FPMKHPFO@?0?5cmd?$DN@ 00000000000a2368     OpensslLib:ssl_mcnf.obj
 0002:00005470       ??_C@_08LNPIPPMM@section?$DN@ 00000000000a2370     OpensslLib:ssl_mcnf.obj
 0002:00005480       ??_C@_0CD@IHNGKLPO@?$CFs?3?$CFd?3?5OpenSSL?5internal?5error?3?5@ 00000000000a2380     OpensslLib:cryptlib.obj
 0002:000054e0       ??_C@_0L@LCHPILLE@SSL?5client@ 00000000000a23e0     OpensslLib:v3_purp.obj
 0002:000054f0       ??_C@_09BLMJDCHK@sslclient@ 00000000000a23f0     OpensslLib:v3_purp.obj
 0002:00005500       ??_C@_0L@PNDNFADH@SSL?5server@ 00000000000a2400     OpensslLib:v3_purp.obj
 0002:00005510       ??_C@_09FEILOJPJ@sslserver@ 00000000000a2410     OpensslLib:v3_purp.obj
 0002:00005520       ??_C@_0BE@BPEJPGJG@Netscape?5SSL?5server@ 00000000000a2420     OpensslLib:v3_purp.obj
 0002:00005538       ??_C@_0M@GKHHMMAE@nssslserver@ 00000000000a2438     OpensslLib:v3_purp.obj
 0002:00005548       ??_C@_0P@LNDEBCCO@S?1MIME?5signing@ 00000000000a2448     OpensslLib:v3_purp.obj
 0002:00005558       ??_C@_09JPGBHOKH@smimesign@ 00000000000a2458     OpensslLib:v3_purp.obj
 0002:00005568       ??_C@_0BC@DOGNOPGC@S?1MIME?5encryption@ 00000000000a2468     OpensslLib:v3_purp.obj
 0002:00005580       ??_C@_0N@BPFJELMP@smimeencrypt@ 00000000000a2480     OpensslLib:v3_purp.obj
 0002:00005590       ??_C@_0M@MEKLJHLA@CRL?5signing@ 00000000000a2490     OpensslLib:v3_purp.obj
 0002:000055a0       ??_C@_07IOMCDAPH@crlsign@  00000000000a24a0     OpensslLib:v3_purp.obj
 0002:000055a8       ??_C@_0M@NMNFLNDB@Any?5Purpose@ 00000000000a24a8     OpensslLib:v3_purp.obj
 0002:000055b8       ??_C@_0M@NEPIMEJA@OCSP?5helper@ 00000000000a24b8     OpensslLib:v3_purp.obj
 0002:000055c8       ??_C@_0L@IMHCEJBK@ocsphelper@ 00000000000a24c8     OpensslLib:v3_purp.obj
 0002:000055d8       ??_C@_0BD@HLGKGIIB@Time?5Stamp?5signing@ 00000000000a24d8     OpensslLib:v3_purp.obj
 0002:000055f0       ??_C@_0O@MABGKINF@timestampsign@ 00000000000a24f0     OpensslLib:v3_purp.obj
 0002:00005630       X509_NAME_it               00000000000a2530     OpensslLib:x_name.obj
 0002:00005660       ??_C@_06IEOJBDIK@object@   00000000000a2560     OpensslLib:x_name.obj
 0002:00005668       ??_C@_05MFEJDJP@value@     00000000000a2568     OpensslLib:x_name.obj
 0002:00005670       ??_C@_0BA@KEPIIMOE@X509_NAME_ENTRY@ 00000000000a2570     OpensslLib:x_name.obj
 0002:00005680       ??_C@_04IEOKPFHO@RDNS@     00000000000a2580     OpensslLib:x_name.obj
 0002:00005688       ??_C@_0BC@GJMCELDI@X509_NAME_ENTRIES@ 00000000000a2588     OpensslLib:x_name.obj
 0002:0000569c       ??_C@_04FABLJDN@Name@      00000000000a259c     OpensslLib:x_name.obj
 0002:000056a8       ??_C@_0BD@FDNDONGH@X509_NAME_INTERNAL@ 00000000000a25a8     OpensslLib:x_name.obj
 0002:000056c0       ??_C@_09KGNJKBNF@X509_NAME@ 00000000000a25c0     OpensslLib:x_name.obj
 0002:000056cc       ??_C@_02KEGNLNML@?0?5@     00000000000a25cc     OpensslLib:x_name.obj
 0002:00005730       X509_NAME_ENTRY_it         00000000000a2630     OpensslLib:x_name.obj
 0002:00005818       ??_C@_05ODGEMCD@cmcRA@     00000000000a2718     OpensslLib:obj_dat.obj
 0002:00005820       ??_C@_0BL@NBGEGOFM@CMC?5Registration?5Authority@ 00000000000a2720     OpensslLib:obj_dat.obj
 0002:00005840       ??_C@_07NOELNIBF@SM4?9ECB@ 00000000000a2740     OpensslLib:obj_dat.obj
 0002:00005848       ??_C@_07OFHLEOKD@sm4?9ecb@ 00000000000a2748     OpensslLib:obj_dat.obj
 0002:00005850       ??_C@_07ODPJNMLP@SM4?9CBC@ 00000000000a2750     OpensslLib:obj_dat.obj
 0002:00005858       ??_C@_07NIMJEKAJ@sm4?9cbc@ 00000000000a2758     OpensslLib:obj_dat.obj
 0002:00005860       ??_C@_07LHDNPKJK@SM4?9OFB@ 00000000000a2760     OpensslLib:obj_dat.obj
 0002:00005868       ??_C@_07IMANGMCM@sm4?9ofb@ 00000000000a2768     OpensslLib:obj_dat.obj
 0002:00005870       ??_C@_08BDMAKNBD@SM4?9CFB1@ 00000000000a2770     OpensslLib:obj_dat.obj
 0002:00005880       ??_C@_08DBPJILDM@sm4?9cfb1@ 00000000000a2780     OpensslLib:obj_dat.obj
 0002:00005890       ??_C@_07PNOLEFCC@SM4?9CFB@ 00000000000a2790     OpensslLib:obj_dat.obj
 0002:00005898       ??_C@_07MGNLNDJE@sm4?9cfb@ 00000000000a2798     OpensslLib:obj_dat.obj
 0002:000058a0       ??_C@_08MCACBGFK@SM4?9CFB8@ 00000000000a27a0     OpensslLib:obj_dat.obj
 0002:000058b0       ??_C@_08OADLDAHF@sm4?9cfb8@ 00000000000a27b0     OpensslLib:obj_dat.obj
 0002:000058c0       ??_C@_07KIILCAGN@SM4?9CTR@ 00000000000a27c0     OpensslLib:obj_dat.obj
 0002:000058c8       ??_C@_07JDLLLGNL@sm4?9ctr@ 00000000000a27c8     OpensslLib:obj_dat.obj
 0002:000058d0       ??_C@_06KNMHIDBL@ISO?9CN@  00000000000a27d0     OpensslLib:obj_dat.obj
 0002:000058d8       ??_C@_0BD@GLPDOOPB@ISO?5CN?5Member?5Body@ 00000000000a27d8     OpensslLib:obj_dat.obj
 0002:000058ec       ??_C@_05BGAJAOLO@oscca@    00000000000a27ec     OpensslLib:obj_dat.obj
 0002:000058f8       ??_C@_09GAILPDAI@sm?9scheme@ 00000000000a27f8     OpensslLib:obj_dat.obj
 0002:00005904       ??_C@_03ILCKPLAM@SM3@      00000000000a2804     OpensslLib:obj_dat.obj
 0002:00005908       ??_C@_03BDFFBCNC@sm3@      00000000000a2808     OpensslLib:obj_dat.obj
 0002:00005910       ??_C@_07DHCHMOJE@RSA?9SM3@ 00000000000a2810     OpensslLib:obj_dat.obj
 0002:00005918       ??_C@_0BF@LJEMNFBJ@sm3WithRSAEncryption@ 00000000000a2818     OpensslLib:obj_dat.obj
 0002:00005930       ??_C@_0P@BJPJCBFP@RSA?9SHA512?1224@ 00000000000a2830     OpensslLib:obj_dat.obj
 0002:00005940       ??_C@_0BM@OAMEHMHD@sha512?9224WithRSAEncryption@ 00000000000a2840     OpensslLib:obj_dat.obj
 0002:00005960       ??_C@_0P@COIAFFFI@RSA?9SHA512?1256@ 00000000000a2860     OpensslLib:obj_dat.obj
 0002:00005970       ??_C@_0BM@HFDENMBB@sha512?9256WithRSAEncryption@ 00000000000a2870     OpensslLib:obj_dat.obj
 0002:00005990       ??_C@_0CF@ELFGJJJE@id?9tc26?9gost?93410?92012?9256?9cons@ 00000000000a2890     OpensslLib:obj_dat.obj
 0002:000059b8       ??_C@_0CF@FBBBLKKL@id?9tc26?9gost?93410?92012?9256?9para@ 00000000000a28b8     OpensslLib:obj_dat.obj
 0002:000059e0       ??_C@_0CH@KHJMDINL@GOST?5R?534?410?92012?5?$CI256?5bit?$CJ?5Par@ 00000000000a28e0     OpensslLib:obj_dat.obj
 0002:00005a08       ??_C@_0CF@MFFFCDAA@id?9tc26?9gost?93410?92012?9512?9para@ 00000000000a2908     OpensslLib:obj_dat.obj
 0002:00005a30       ??_C@_0CH@JGCOCGCO@GOST?5R?534?410?92012?5?$CI512?5bit?$CJ?5Par@ 00000000000a2930     OpensslLib:obj_dat.obj
 0002:00005a58       ??_C@_06DCPEEABG@ISO?9UA@  00000000000a2958     OpensslLib:obj_dat.obj
 0002:00005a60       ??_C@_06LNLILMPE@ua?9pki@  00000000000a2960     OpensslLib:obj_dat.obj
 0002:00005a68       ??_C@_09LIAMILCI@dstu28147@ 00000000000a2968     OpensslLib:obj_dat.obj
 0002:00005a78       ??_C@_0BF@BOFOAMLJ@DSTU?5Gost?528147?92009@ 00000000000a2978     OpensslLib:obj_dat.obj
 0002:00005a90       ??_C@_0O@KAGMLFFF@dstu28147?9ofb@ 00000000000a2990     OpensslLib:obj_dat.obj
 0002:00005aa0       ??_C@_0BO@NJFBFPDF@DSTU?5Gost?528147?92009?5OFB?5mode@ 00000000000a29a0     OpensslLib:obj_dat.obj
 0002:00005ac0       ??_C@_0O@OKLKAKON@dstu28147?9cfb@ 00000000000a29c0     OpensslLib:obj_dat.obj
 0002:00005ad0       ??_C@_0BO@DPGFKMCB@DSTU?5Gost?528147?92009?5CFB?5mode@ 00000000000a29d0     OpensslLib:obj_dat.obj
 0002:00005af0       ??_C@_0P@LJDDBCOK@dstu28147?9wrap@ 00000000000a29f0     OpensslLib:obj_dat.obj
 0002:00005b00       ??_C@_0BO@GCIMDMBJ@DSTU?5Gost?528147?92009?5key?5wrap@ 00000000000a2a00     OpensslLib:obj_dat.obj
 0002:00005b20       ??_C@_0BC@NEKEGBFA@hmacWithDstu34311@ 00000000000a2a20     OpensslLib:obj_dat.obj
 0002:00005b38       ??_C@_0BI@PPEFMJDF@HMAC?5DSTU?5Gost?534311?995@ 00000000000a2a38     OpensslLib:obj_dat.obj
 0002:00005b50       ??_C@_09EMDIBIGK@dstu34311@ 00000000000a2a50     OpensslLib:obj_dat.obj
 0002:00005b60       ??_C@_0BD@KEGEMFDO@DSTU?5Gost?534311?995@ 00000000000a2a60     OpensslLib:obj_dat.obj
 0002:00005b78       ??_C@_0L@HJONHGCF@dstu4145le@ 00000000000a2a78     OpensslLib:obj_dat.obj
 0002:00005b88       ??_C@_0BN@DLDIMCIJ@DSTU?54145?92002?5little?5endian@ 00000000000a2a88     OpensslLib:obj_dat.obj
 0002:00005ba8       ??_C@_0L@HDHDFLCP@dstu4145be@ 00000000000a2aa8     OpensslLib:obj_dat.obj
 0002:00005bb8       ??_C@_0BK@JAHDELLE@DSTU?54145?92002?5big?5endian@ 00000000000a2ab8     OpensslLib:obj_dat.obj
 0002:00005bd8       ??_C@_08CCOHEDD@uacurve0@  00000000000a2ad8     OpensslLib:obj_dat.obj
 0002:00005be8       ??_C@_0N@OIEODNOG@DSTU?5curve?50@ 00000000000a2ae8     OpensslLib:obj_dat.obj
 0002:00005bf8       ??_C@_08BLDFEFHC@uacurve1@ 00000000000a2af8     OpensslLib:obj_dat.obj
 0002:00005c08       ??_C@_0N@PBFFAMKH@DSTU?5curve?51@ 00000000000a2b08     OpensslLib:obj_dat.obj
 0002:00005c18       ??_C@_08DABIBGLB@uacurve2@ 00000000000a2b18     OpensslLib:obj_dat.obj
 0002:00005c28       ??_C@_0N@NKHIFPGE@DSTU?5curve?52@ 00000000000a2b28     OpensslLib:obj_dat.obj
 0002:00005c38       ??_C@_08CJADCHPA@uacurve3@ 00000000000a2b38     OpensslLib:obj_dat.obj
 0002:00005c48       ??_C@_0N@MDGDGOCF@DSTU?5curve?53@ 00000000000a2b48     OpensslLib:obj_dat.obj
 0002:00005c58       ??_C@_08GGECLBDH@uacurve4@ 00000000000a2b58     OpensslLib:obj_dat.obj
 0002:00005c68       ??_C@_0N@IMCCPIOC@DSTU?5curve?54@ 00000000000a2b68     OpensslLib:obj_dat.obj
 0002:00005c78       ??_C@_08HPFJIAHG@uacurve5@ 00000000000a2b78     OpensslLib:obj_dat.obj
 0002:00005c88       ??_C@_0N@JFDJMJKD@DSTU?5curve?55@ 00000000000a2b88     OpensslLib:obj_dat.obj
 0002:00005c98       ??_C@_08FEHENDLF@uacurve6@ 00000000000a2b98     OpensslLib:obj_dat.obj
 0002:00005ca8       ??_C@_0N@LOBEJKGA@DSTU?5curve?56@ 00000000000a2ba8     OpensslLib:obj_dat.obj
 0002:00005cb8       ??_C@_08ENGPOCPE@uacurve7@ 00000000000a2bb8     OpensslLib:obj_dat.obj
 0002:00005cc8       ??_C@_0N@KHAPKLCB@DSTU?5curve?57@ 00000000000a2bc8     OpensslLib:obj_dat.obj
 0002:00005cd8       ??_C@_08MKPHPODL@uacurve8@ 00000000000a2bd8     OpensslLib:obj_dat.obj
 0002:00005ce8       ??_C@_0N@CAJHLHOO@DSTU?5curve?58@ 00000000000a2be8     OpensslLib:obj_dat.obj
 0002:00005cf8       ??_C@_08NDOMMPHK@uacurve9@ 00000000000a2bf8     OpensslLib:obj_dat.obj
 0002:00005d08       ??_C@_0N@DJIMIGKP@DSTU?5curve?59@ 00000000000a2c08     OpensslLib:obj_dat.obj
 0002:00005d18       ??_C@_04PHJBIMMG@ieee@     00000000000a2c18     OpensslLib:obj_dat.obj
 0002:00005d20       ??_C@_0L@LDKGPNGG@ieee?9siswg@ 00000000000a2c20     OpensslLib:obj_dat.obj
 0002:00005d30       ??_C@_0CH@DHDAMGDO@IEEE?5Security?5in?5Storage?5Workin@ 00000000000a2c30     OpensslLib:obj_dat.obj
 0002:00005d58       ??_C@_03JCDBMKEN@SM2@      00000000000a2c58     OpensslLib:obj_dat.obj
 0002:00005d5c       ??_C@_03KEOCDJD@sm2@       00000000000a2c5c     OpensslLib:obj_dat.obj
 0002:00005d60       ??_C@_0CE@MLINIGJF@id?9tc26?9cipher?9gostr3412?92015?9m@ 00000000000a2c60     OpensslLib:obj_dat.obj
 0002:00005d88       ??_C@_0CN@OJMMMFNF@id?9tc26?9cipher?9gostr3412?92015?9m@ 00000000000a2c88     OpensslLib:obj_dat.obj
 0002:00005db8       ??_C@_0DC@HJFGIJEF@id?9tc26?9cipher?9gostr3412?92015?9m@ 00000000000a2cb8     OpensslLib:obj_dat.obj
 0002:00005df0       ??_C@_0CJ@OIMAFCDH@id?9tc26?9cipher?9gostr3412?92015?9k@ 00000000000a2cf0     OpensslLib:obj_dat.obj
 0002:00005e20       ??_C@_0DC@FCNHEHI@id?9tc26?9cipher?9gostr3412?92015?9k@ 00000000000a2d20     OpensslLib:obj_dat.obj
 0002:00005e58       ??_C@_0DH@OMEPNOK@id?9tc26?9cipher?9gostr3412?92015?9k@ 00000000000a2d58     OpensslLib:obj_dat.obj
 0002:00005e90       ??_C@_0N@NOHKDKEG@id?9tc26?9wrap@ 00000000000a2d90     OpensslLib:obj_dat.obj
 0002:00005ea0       ??_C@_0CC@ICCBFKEK@id?9tc26?9wrap?9gostr3412?92015?9mag@ 00000000000a2da0     OpensslLib:obj_dat.obj
 0002:00005ec8       ??_C@_0CJ@GAGBMOFA@id?9tc26?9wrap?9gostr3412?92015?9mag@ 00000000000a2dc8     OpensslLib:obj_dat.obj
 0002:00005ef8       ??_C@_0CH@HODOOMNG@id?9tc26?9wrap?9gostr3412?92015?9kuz@ 00000000000a2df8     OpensslLib:obj_dat.obj
 0002:00005f20       ??_C@_0CO@KKJKILDM@id?9tc26?9wrap?9gostr3412?92015?9kuz@ 00000000000a2e20     OpensslLib:obj_dat.obj
 0002:00005f50       ??_C@_0CF@HKDMOJGI@id?9tc26?9gost?93410?92012?9256?9para@ 00000000000a2e50     OpensslLib:obj_dat.obj
 0002:00005f78       ??_C@_0CH@IMLBGLBI@GOST?5R?534?410?92012?5?$CI256?5bit?$CJ?5Par@ 00000000000a2e78     OpensslLib:obj_dat.obj
 0002:00005fa0       ??_C@_0CF@GDCHNICJ@id?9tc26?9gost?93410?92012?9256?9para@ 00000000000a2ea0     OpensslLib:obj_dat.obj
 0002:00005fc8       ??_C@_0CH@JFKKFKFJ@GOST?5R?534?410?92012?5?$CI256?5bit?$CJ?5Par@ 00000000000a2ec8     OpensslLib:obj_dat.obj
 0002:00005ff0       ??_C@_0CF@CMGGEOOO@id?9tc26?9gost?93410?92012?9256?9para@ 00000000000a2ef0     OpensslLib:obj_dat.obj
 0002:00006018       ??_C@_0CH@NKOLMMJO@GOST?5R?534?410?92012?5?$CI256?5bit?$CJ?5Par@ 00000000000a2f18     OpensslLib:obj_dat.obj
 0002:00006040       ??_C@_09KIGAEFAO@magma?9ecb@ 00000000000a2f40     OpensslLib:obj_dat.obj
 0002:00006050       ??_C@_09NOKALNHG@magma?9ctr@ 00000000000a2f50     OpensslLib:obj_dat.obj
 0002:00006060       ??_C@_09MBBGGHIB@magma?9ofb@ 00000000000a2f60     OpensslLib:obj_dat.obj
 0002:00006070       ??_C@_09JFNCEBKE@magma?9cbc@ 00000000000a2f70     OpensslLib:obj_dat.obj
 0002:00006080       ??_C@_09ILMANIDJ@magma?9cfb@ 00000000000a2f80     OpensslLib:obj_dat.obj
 0002:00006090       ??_C@_09HHELIIMO@magma?9mac@ 00000000000a2f90     OpensslLib:obj_dat.obj
 0002:000060a0       ??_C@_0BD@EJFCDPF@hmacWithSHA512?9224@ 00000000000a2fa0     OpensslLib:obj_dat.obj
 0002:000060b8       ??_C@_0BD@DDOMFHPC@hmacWithSHA512?9256@ 00000000000a2fb8     OpensslLib:obj_dat.obj
 0002:00016fc8       ??_C@_05DBLJEJPC@UNDEF@    00000000000b3ec8     OpensslLib:obj_dat.obj
 0002:00016fd0       ??_C@_09MLGAJAED@undefined@ 00000000000b3ed0     OpensslLib:obj_dat.obj
 0002:00016fdc       ??_C@_06GGEMKGKC@rsadsi@   00000000000b3edc     OpensslLib:obj_dat.obj
 0002:00016fe8       ??_C@_0BI@MPBNCOIB@RSA?5Data?5Security?0?5Inc?4@ 00000000000b3ee8     OpensslLib:obj_dat.obj
 0002:00017000       ??_C@_04GCKLMHGD@pkcs@     00000000000b3f00     OpensslLib:obj_dat.obj
 0002:00017008       ??_C@_0BN@EBHJCEC@RSA?5Data?5Security?0?5Inc?4?5PKCS@ 00000000000b3f08     OpensslLib:obj_dat.obj
 0002:00017028       ??_C@_03CNCGNBGO@MD2@      00000000000b3f28     OpensslLib:obj_dat.obj
 0002:0001702c       ??_C@_03LFFJDILA@md2@      00000000000b3f2c     OpensslLib:obj_dat.obj
 0002:00017030       ??_C@_03PKBIKOHH@md5@      00000000000b3f30     OpensslLib:obj_dat.obj
 0002:00017034       ??_C@_03OODGMOHK@rc4@      00000000000b3f34     OpensslLib:obj_dat.obj
 0002:00017038       ??_C@_0O@PCHNMHJE@rsaEncryption@ 00000000000b3f38     OpensslLib:obj_dat.obj
 0002:00017048       ??_C@_07JBCLOEPG@RSA?9MD2@ 00000000000b3f48     OpensslLib:obj_dat.obj
 0002:00017050       ??_C@_0BF@ODJKGOJ@md2WithRSAEncryption@ 00000000000b3f50     OpensslLib:obj_dat.obj
 0002:00017068       ??_C@_07NOGKHCDB@RSA?9MD5@ 00000000000b3f68     OpensslLib:obj_dat.obj
 0002:00017070       ??_C@_0BF@EEAHCNKC@md5WithRSAEncryption@ 00000000000b3f70     OpensslLib:obj_dat.obj
 0002:00017088       ??_C@_0M@LMNGCPDB@PBE?9MD2?9DES@ 00000000000b3f88     OpensslLib:obj_dat.obj
 0002:00017098       ??_C@_0BF@EEAPBBEF@pbeWithMD2AndDES?9CBC@ 00000000000b3f98     OpensslLib:obj_dat.obj
 0002:000170b0       ??_C@_0M@KBNDBPIJ@PBE?9MD5?9DES@ 00000000000b3fb0     OpensslLib:obj_dat.obj
 0002:000170c0       ??_C@_0BF@DAJHPIMK@pbeWithMD5AndDES?9CBC@ 00000000000b3fc0     OpensslLib:obj_dat.obj
 0002:000170d8       ??_C@_04NGGFHBI@X500@      00000000000b3fd8     OpensslLib:obj_dat.obj
 0002:000170e0       ??_C@_0BL@NJHHPHOL@directory?5services?5?$CIX?4500?$CJ@ 00000000000b3fe0     OpensslLib:obj_dat.obj
 0002:000170fc       ??_C@_02BMJIHHPP@CN@       00000000000b3ffc     OpensslLib:obj_dat.obj
 0002:00017100       ??_C@_0L@OILMNBLH@commonName@ 00000000000b4000     OpensslLib:obj_dat.obj
 0002:0001710c       ??_C@_01GFHCPBMG@C@        00000000000b400c     OpensslLib:obj_dat.obj
 0002:00017110       ??_C@_0M@NPBHECMC@countryName@ 00000000000b4010     OpensslLib:obj_dat.obj
 0002:0001711c       ??_C@_01OCOKONAJ@L@        00000000000b401c     OpensslLib:obj_dat.obj
 0002:00017120       ??_C@_0N@LEDCGGBI@localityName@ 00000000000b4020     OpensslLib:obj_dat.obj
 0002:00017130       ??_C@_02LAJDCOFE@ST@       00000000000b4030     OpensslLib:obj_dat.obj
 0002:00017138       ??_C@_0BE@NKDCJFMD@stateOrProvinceName@ 00000000000b4038     OpensslLib:obj_dat.obj
 0002:0001714c       ??_C@_01MJMHLOMK@O@        00000000000b404c     OpensslLib:obj_dat.obj
 0002:00017150       ??_C@_0BB@GBCNPHLL@organizationName@ 00000000000b4050     OpensslLib:obj_dat.obj
 0002:00017164       ??_C@_02LMLEEFAB@OU@       00000000000b4064     OpensslLib:obj_dat.obj
 0002:00017168       ??_C@_0BH@LAMMAAM@organizationalUnitName@ 00000000000b4068     OpensslLib:obj_dat.obj
 0002:00017180       ??_C@_03DFNMMEBL@rsa@      00000000000b4080     OpensslLib:obj_dat.obj
 0002:00017188       ??_C@_0L@BCKMJOMA@pkcs7?9data@ 00000000000b4088     OpensslLib:obj_dat.obj
 0002:00017198       ??_C@_0BB@PEKKHBEJ@pkcs7?9signedData@ 00000000000b4098     OpensslLib:obj_dat.obj
 0002:000171b0       ??_C@_0BE@FAIIHMP@pkcs7?9envelopedData@ 00000000000b40b0     OpensslLib:obj_dat.obj
 0002:000171c8       ??_C@_0BN@LMEEMCPG@pkcs7?9signedAndEnvelopedData@ 00000000000b40c8     OpensslLib:obj_dat.obj
 0002:000171e8       ??_C@_0BB@CJNFBHDI@pkcs7?9digestData@ 00000000000b40e8     OpensslLib:obj_dat.obj
 0002:00017200       ??_C@_0BE@CAMKAFJN@pkcs7?9encryptedData@ 00000000000b4100     OpensslLib:obj_dat.obj
 0002:00017214       ??_C@_05CALCPOBF@pkcs3@    00000000000b4114     OpensslLib:obj_dat.obj
 0002:00017220       ??_C@_0P@HCMIBBEB@dhKeyAgreement@ 00000000000b4120     OpensslLib:obj_dat.obj
 0002:00017230       ??_C@_07IOCLJBKC@DES?9ECB@ 00000000000b4130     OpensslLib:obj_dat.obj
 0002:00017238       ??_C@_07LCLHACCC@des?9ecb@ 00000000000b4138     OpensslLib:obj_dat.obj
 0002:00017240       ??_C@_07KNILAMJF@DES?9CFB@ 00000000000b4140     OpensslLib:obj_dat.obj
 0002:00017248       ??_C@_07JBBHJPBF@des?9cfb@ 00000000000b4148     OpensslLib:obj_dat.obj
 0002:00017250       ??_C@_07LDJJJFAI@DES?9CBC@ 00000000000b4150     OpensslLib:obj_dat.obj
 0002:00017258       ??_C@_07IPAFAGII@des?9cbc@ 00000000000b4158     OpensslLib:obj_dat.obj
 0002:00017260       ??_C@_07MECFBBOA@DES?9EDE@ 00000000000b4160     OpensslLib:obj_dat.obj
 0002:00017268       ??_C@_07PILJICGA@des?9ede@ 00000000000b4168     OpensslLib:obj_dat.obj
 0002:00017270       ??_C@_08FEKFKCFJ@DES?9EDE3@ 00000000000b4170     OpensslLib:obj_dat.obj
 0002:00017280       ??_C@_08LJCBLNOK@des?9ede3@ 00000000000b4180     OpensslLib:obj_dat.obj
 0002:00017290       ??_C@_08MJNEIAD@IDEA?9CBC@ 00000000000b4190     OpensslLib:obj_dat.obj
 0002:000172a0       ??_C@_08LCPAFJCA@idea?9cbc@ 00000000000b41a0     OpensslLib:obj_dat.obj
 0002:000172b0       ??_C@_08BCIPNBJO@IDEA?9CFB@ 00000000000b41b0     OpensslLib:obj_dat.obj
 0002:000172c0       ??_C@_08KMOCMALN@idea?9cfb@ 00000000000b41c0     OpensslLib:obj_dat.obj
 0002:000172d0       ??_C@_08DBCPEMKJ@IDEA?9ECB@ 00000000000b41d0     OpensslLib:obj_dat.obj
 0002:000172e0       ??_C@_08IPECFNIK@idea?9ecb@ 00000000000b41e0     OpensslLib:obj_dat.obj
 0002:000172f0       ??_C@_07KJDFEEGB@RC2?9CBC@ 00000000000b41f0     OpensslLib:obj_dat.obj
 0002:000172f8       ??_C@_07JCAFNCNH@rc2?9cbc@ 00000000000b41f8     OpensslLib:obj_dat.obj
 0002:00017300       ??_C@_07JEIHEAML@RC2?9ECB@ 00000000000b4200     OpensslLib:obj_dat.obj
 0002:00017308       ??_C@_07KPLHNGHN@rc2?9ecb@ 00000000000b4208     OpensslLib:obj_dat.obj
 0002:00017310       ??_C@_07LHCHNNPM@RC2?9CFB@ 00000000000b4210     OpensslLib:obj_dat.obj
 0002:00017318       ??_C@_07IMBHELEK@rc2?9cfb@ 00000000000b4218     OpensslLib:obj_dat.obj
 0002:00017320       ??_C@_07PNPBGCEE@RC2?9OFB@ 00000000000b4220     OpensslLib:obj_dat.obj
 0002:00017328       ??_C@_07MGMBPEPC@rc2?9ofb@ 00000000000b4228     OpensslLib:obj_dat.obj
 0002:00017330       ??_C@_03JNBDOPOP@sha@      00000000000b4230     OpensslLib:obj_dat.obj
 0002:00017338       ??_C@_07CMOFBHAL@RSA?9SHA@ 00000000000b4238     OpensslLib:obj_dat.obj
 0002:00017340       ??_C@_0BF@LIDINENF@shaWithRSAEncryption@ 00000000000b4240     OpensslLib:obj_dat.obj
 0002:00017358       ??_C@_0M@KHNLAHDP@DES?9EDE?9CBC@ 00000000000b4258     OpensslLib:obj_dat.obj
 0002:00017368       ??_C@_0M@EKLHMDEA@des?9ede?9cbc@ 00000000000b4268     OpensslLib:obj_dat.obj
 0002:00017378       ??_C@_0N@MLDFENGJ@DES?9EDE3?9CBC@ 00000000000b4278     OpensslLib:obj_dat.obj
 0002:00017388       ??_C@_0N@FPCHEGKG@des?9ede3?9cbc@ 00000000000b4288     OpensslLib:obj_dat.obj
 0002:00017398       ??_C@_07OHFNLDCN@DES?9OFB@ 00000000000b4298     OpensslLib:obj_dat.obj
 0002:000173a0       ??_C@_07NLMBCAKN@des?9ofb@ 00000000000b42a0     OpensslLib:obj_dat.obj
 0002:000173a8       ??_C@_08FIFJGOCG@IDEA?9OFB@ 00000000000b42a8     OpensslLib:obj_dat.obj
 0002:000173b8       ??_C@_08OGDEHPAF@idea?9ofb@ 00000000000b42b8     OpensslLib:obj_dat.obj
 0002:000173c4       ??_C@_05NKFNBGJP@pkcs9@    00000000000b42c4     OpensslLib:obj_dat.obj
 0002:000173d0       ??_C@_0N@IHLBAGEP@emailAddress@ 00000000000b42d0     OpensslLib:obj_dat.obj
 0002:000173e0       ??_C@_0BB@CJIILOEM@unstructuredName@ 00000000000b42e0     OpensslLib:obj_dat.obj
 0002:000173f8       ??_C@_0M@DOEFOEJD@contentType@ 00000000000b42f8     OpensslLib:obj_dat.obj
 0002:00017408       ??_C@_0O@JDGJDGC@messageDigest@ 00000000000b4308     OpensslLib:obj_dat.obj
 0002:00017418       ??_C@_0M@IJBJCCMP@signingTime@ 00000000000b4318     OpensslLib:obj_dat.obj
 0002:00017428       ??_C@_0BB@IPFGMODP@countersignature@ 00000000000b4328     OpensslLib:obj_dat.obj
 0002:00017440       ??_C@_0BC@OKHONEEM@challengePassword@ 00000000000b4340     OpensslLib:obj_dat.obj
 0002:00017458       ??_C@_0BE@MACPCAPF@unstructuredAddress@ 00000000000b4358     OpensslLib:obj_dat.obj
 0002:00017470       ??_C@_0BO@LDCCNBPE@extendedCertificateAttributes@ 00000000000b4370     OpensslLib:obj_dat.obj
 0002:00017490       ??_C@_08BDEPHMAF@Netscape@ 00000000000b4390     OpensslLib:obj_dat.obj
 0002:000174a0       ??_C@_0BO@IAIBEBGO@Netscape?5Communications?5Corp?4@ 00000000000b43a0     OpensslLib:obj_dat.obj
 0002:000174c0       ??_C@_09JDCKDNMG@nsCertExt@ 00000000000b43c0     OpensslLib:obj_dat.obj
 0002:000174d0       ??_C@_0BP@LHPGKGFM@Netscape?5Certificate?5Extension@ 00000000000b43d0     OpensslLib:obj_dat.obj
 0002:000174f0       ??_C@_0L@FIMLGGPA@nsDataType@ 00000000000b43f0     OpensslLib:obj_dat.obj
 0002:00017500       ??_C@_0BD@JJEILMNP@Netscape?5Data?5Type@ 00000000000b4400     OpensslLib:obj_dat.obj
 0002:00017518       ??_C@_0M@LJMJJOKC@DES?9EDE?9CFB@ 00000000000b4418     OpensslLib:obj_dat.obj
 0002:00017528       ??_C@_0M@FEKFFKNN@des?9ede?9cfb@ 00000000000b4428     OpensslLib:obj_dat.obj
 0002:00017538       ??_C@_0N@NFCHNEPE@DES?9EDE3?9CFB@ 00000000000b4438     OpensslLib:obj_dat.obj
 0002:00017548       ??_C@_0N@EBDFNPDL@des?9ede3?9cfb@ 00000000000b4448     OpensslLib:obj_dat.obj
 0002:00017558       ??_C@_0M@PDBPCBBK@DES?9EDE?9OFB@ 00000000000b4458     OpensslLib:obj_dat.obj
 0002:00017568       ??_C@_0M@BOHDOFGF@des?9ede?9ofb@ 00000000000b4468     OpensslLib:obj_dat.obj
 0002:00017578       ??_C@_0N@JPPBGLEM@DES?9EDE3?9OFB@ 00000000000b4478     OpensslLib:obj_dat.obj
 0002:00017588       ??_C@_0N@LODGAID@des?9ede3?9ofb@ 00000000000b4488     OpensslLib:obj_dat.obj
 0002:00017598       ??_C@_04PGHFOLLE@sha1@     00000000000b4498     OpensslLib:obj_dat.obj
 0002:000175a0       ??_C@_0BG@DALFFFBE@sha1WithRSAEncryption@ 00000000000b44a0     OpensslLib:obj_dat.obj
 0002:000175b8       ??_C@_07JGDBCPKH@DSA?9SHA@ 00000000000b44b8     OpensslLib:obj_dat.obj
 0002:000175c0       ??_C@_0L@BEHMICBH@dsaWithSHA@ 00000000000b44c0     OpensslLib:obj_dat.obj
 0002:000175d0       ??_C@_07PLHLFGGF@DSA?9old@ 00000000000b44d0     OpensslLib:obj_dat.obj
 0002:000175d8       ??_C@_0BC@FFHHBCCH@dsaEncryption?9old@ 00000000000b44d8     OpensslLib:obj_dat.obj
 0002:000175f0       ??_C@_0BA@KKPEMNGH@PBE?9SHA1?9RC2?964@ 00000000000b44f0     OpensslLib:obj_dat.obj
 0002:00017600       ??_C@_0BG@IBNNJING@pbeWithSHA1AndRC2?9CBC@ 00000000000b4500     OpensslLib:obj_dat.obj
 0002:00017618       ??_C@_06KBOEGBGA@PBKDF2@   00000000000b4518     OpensslLib:obj_dat.obj
 0002:00017620       ??_C@_0N@ONIKBKNK@DSA?9SHA1?9old@ 00000000000b4520     OpensslLib:obj_dat.obj
 0002:00017630       ??_C@_0BA@DDLLDHEM@dsaWithSHA1?9old@ 00000000000b4530     OpensslLib:obj_dat.obj
 0002:00017640       ??_C@_0L@IICLKDNB@nsCertType@ 00000000000b4540     OpensslLib:obj_dat.obj
 0002:00017650       ??_C@_0BD@NFPBEMEE@Netscape?5Cert?5Type@ 00000000000b4550     OpensslLib:obj_dat.obj
 0002:00017668       ??_C@_09OCIGDOMM@nsBaseUrl@ 00000000000b4568     OpensslLib:obj_dat.obj
 0002:00017678       ??_C@_0BC@DIHCABP@Netscape?5Base?5Url@ 00000000000b4578     OpensslLib:obj_dat.obj
 0002:00017690       ??_C@_0BA@DKPGPAKK@nsRevocationUrl@ 00000000000b4590     OpensslLib:obj_dat.obj
 0002:000176a0       ??_C@_0BI@BCDINENC@Netscape?5Revocation?5Url@ 00000000000b45a0     OpensslLib:obj_dat.obj
 0002:000176b8       ??_C@_0BC@IKAPCMGG@nsCaRevocationUrl@ 00000000000b45b8     OpensslLib:obj_dat.obj
 0002:000176d0       ??_C@_0BL@EMOMOFDB@Netscape?5CA?5Revocation?5Url@ 00000000000b45d0     OpensslLib:obj_dat.obj
 0002:000176f0       ??_C@_0N@JILHKMLM@nsRenewalUrl@ 00000000000b45f0     OpensslLib:obj_dat.obj
 0002:00017700       ??_C@_0BF@FKENIIHB@Netscape?5Renewal?5Url@ 00000000000b4600     OpensslLib:obj_dat.obj
 0002:00017718       ??_C@_0O@DHDIMJD@nsCaPolicyUrl@ 00000000000b4618     OpensslLib:obj_dat.obj
 0002:00017728       ??_C@_0BH@EMEFHLC@Netscape?5CA?5Policy?5Url@ 00000000000b4628     OpensslLib:obj_dat.obj
 0002:00017740       ??_C@_0BA@KNOKNJNE@nsSslServerName@ 00000000000b4640     OpensslLib:obj_dat.obj
 0002:00017750       ??_C@_0BJ@GMBLEMAL@Netscape?5SSL?5Server?5Name@ 00000000000b4650     OpensslLib:obj_dat.obj
 0002:00017770       ??_C@_09BALDFHMJ@nsComment@ 00000000000b4670     OpensslLib:obj_dat.obj
 0002:00017780       ??_C@_0BB@DCFBGIOA@Netscape?5Comment@ 00000000000b4680     OpensslLib:obj_dat.obj
 0002:00017798       ??_C@_0P@OCCBBJKK@nsCertSequence@ 00000000000b4698     OpensslLib:obj_dat.obj
 0002:000177a8       ??_C@_0BO@KKKBMKBD@Netscape?5Certificate?5Sequence@ 00000000000b46a8     OpensslLib:obj_dat.obj
 0002:000177c8       ??_C@_08BBKPFFGN@DESX?9CBC@ 00000000000b46c8     OpensslLib:obj_dat.obj
 0002:000177d8       ??_C@_08KPMCEEEO@desx?9cbc@ 00000000000b46d8     OpensslLib:obj_dat.obj
 0002:000177e4       ??_C@_05NDHEMDL@id?9ce@    00000000000b46e4     OpensslLib:obj_dat.obj
 0002:000177f0       ??_C@_0BF@MOEDIMBI@subjectKeyIdentifier@ 00000000000b46f0     OpensslLib:obj_dat.obj
 0002:00017808       ??_C@_0BO@ILPNOINJ@X509v3?5Subject?5Key?5Identifier@ 00000000000b4708     OpensslLib:obj_dat.obj
 0002:00017828       ??_C@_08BCICBOHF@keyUsage@ 00000000000b4728     OpensslLib:obj_dat.obj
 0002:00017838       ??_C@_0BB@BPPOKNBO@X509v3?5Key?5Usage@ 00000000000b4738     OpensslLib:obj_dat.obj
 0002:00017850       ??_C@_0BG@JOIAJOMN@privateKeyUsagePeriod@ 00000000000b4750     OpensslLib:obj_dat.obj
 0002:00017868       ??_C@_0CA@CLGHAMIP@X509v3?5Private?5Key?5Usage?5Period@ 00000000000b4768     OpensslLib:obj_dat.obj
 0002:00017888       ??_C@_0P@EOFJHHKD@subjectAltName@ 00000000000b4788     OpensslLib:obj_dat.obj
 0002:00017898       ??_C@_0CA@OPCJJLNF@X509v3?5Subject?5Alternative?5Name@ 00000000000b4798     OpensslLib:obj_dat.obj
 0002:000178b8       ??_C@_0O@DLIFHFCD@issuerAltName@ 00000000000b47b8     OpensslLib:obj_dat.obj
 0002:000178c8       ??_C@_0BP@FMJCGPCG@X509v3?5Issuer?5Alternative?5Name@ 00000000000b47c8     OpensslLib:obj_dat.obj
 0002:000178e8       ??_C@_0BB@IKNGJCLO@basicConstraints@ 00000000000b47e8     OpensslLib:obj_dat.obj
 0002:00017900       ??_C@_0BJ@FBHDAJML@X509v3?5Basic?5Constraints@ 00000000000b4800     OpensslLib:obj_dat.obj
 0002:00017920       ??_C@_09JDPHHKMA@crlNumber@ 00000000000b4820     OpensslLib:obj_dat.obj
 0002:00017930       ??_C@_0BC@PCPNBDDJ@X509v3?5CRL?5Number@ 00000000000b4830     OpensslLib:obj_dat.obj
 0002:00017948       ??_C@_0BE@OLMJNPEP@certificatePolicies@ 00000000000b4848     OpensslLib:obj_dat.obj
 0002:00017960       ??_C@_0BM@OOFGKLPK@X509v3?5Certificate?5Policies@ 00000000000b4860     OpensslLib:obj_dat.obj
 0002:00017980       ??_C@_0BH@ICHFALGD@authorityKeyIdentifier@ 00000000000b4880     OpensslLib:obj_dat.obj
 0002:00017998       ??_C@_0CA@GODCHEHD@X509v3?5Authority?5Key?5Identifier@ 00000000000b4898     OpensslLib:obj_dat.obj
 0002:000179b8       ??_C@_06HALMPEKO@BF?9CBC@  00000000000b48b8     OpensslLib:obj_dat.obj
 0002:000179c0       ??_C@_06LFFGAFHI@bf?9cbc@  00000000000b48c0     OpensslLib:obj_dat.obj
 0002:000179c8       ??_C@_06ENAOPAAE@BF?9ECB@  00000000000b48c8     OpensslLib:obj_dat.obj
 0002:000179d0       ??_C@_06IIOEABNC@bf?9ecb@  00000000000b48d0     OpensslLib:obj_dat.obj
 0002:000179d8       ??_C@_06GOKOGNDD@BF?9CFB@  00000000000b48d8     OpensslLib:obj_dat.obj
 0002:000179e0       ??_C@_06KLEEJMOF@bf?9cfb@  00000000000b48e0     OpensslLib:obj_dat.obj
 0002:000179e8       ??_C@_06CEHINCIL@BF?9OFB@  00000000000b48e8     OpensslLib:obj_dat.obj
 0002:000179f0       ??_C@_06OBJCCDFN@bf?9ofb@  00000000000b48f0     OpensslLib:obj_dat.obj
 0002:000179f8       ??_C@_04BCGEDMJI@MDC2@     00000000000b48f8     OpensslLib:obj_dat.obj
 0002:00017a00       ??_C@_04ELNKPKEC@mdc2@     00000000000b4900     OpensslLib:obj_dat.obj
 0002:00017a08       ??_C@_08OMAMCKNL@RSA?9MDC2@ 00000000000b4908     OpensslLib:obj_dat.obj
 0002:00017a18       ??_C@_0M@HGGNEPNN@mdc2WithRSA@ 00000000000b4918     OpensslLib:obj_dat.obj
 0002:00017a24       ??_C@_06KFMILCMH@RC4?940@  00000000000b4924     OpensslLib:obj_dat.obj
 0002:00017a2c       ??_C@_06GNNJIOGN@rc4?940@  00000000000b492c     OpensslLib:obj_dat.obj
 0002:00017a38       ??_C@_0L@ODHPNGGE@RC2?940?9CBC@ 00000000000b4938     OpensslLib:obj_dat.obj
 0002:00017a48       ??_C@_0L@CHEFJHBP@rc2?940?9cbc@ 00000000000b4948     OpensslLib:obj_dat.obj
 0002:00017a54       ??_C@_02BLJBNPCD@GN@       00000000000b4954     OpensslLib:obj_dat.obj
 0002:00017a58       ??_C@_09GCBNJLNP@givenName@ 00000000000b4958     OpensslLib:obj_dat.obj
 0002:00017a64       ??_C@_02LONEIP@SN@         00000000000b4964     OpensslLib:obj_dat.obj
 0002:00017a68       ??_C@_07LNKFHLHI@surname@  00000000000b4968     OpensslLib:obj_dat.obj
 0002:00017a70       ??_C@_08PAKNLFON@initials@ 00000000000b4970     OpensslLib:obj_dat.obj
 0002:00017a7c       ??_C@_03MEMNCOEB@uid@      00000000000b497c     OpensslLib:obj_dat.obj
 0002:00017a80       ??_C@_0BB@HJMGPENC@uniqueIdentifier@ 00000000000b4980     OpensslLib:obj_dat.obj
 0002:00017a98       ??_C@_0BG@CCHGOEBE@crlDistributionPoints@ 00000000000b4998     OpensslLib:obj_dat.obj
 0002:00017ab0       ??_C@_0BP@EGHJGANM@X509v3?5CRL?5Distribution?5Points@ 00000000000b49b0     OpensslLib:obj_dat.obj
 0002:00017ad0       ??_C@_0L@NACEPNFC@RSA?9NP?9MD5@ 00000000000b49d0     OpensslLib:obj_dat.obj
 0002:00017ae0       ??_C@_0L@CNDCBNIN@md5WithRSA@ 00000000000b49e0     OpensslLib:obj_dat.obj
 0002:00017aec       ??_C@_05PHLGJONK@title@    00000000000b49ec     OpensslLib:obj_dat.obj
 0002:00017af8       ??_C@_0M@PPJNHBMP@description@ 00000000000b49f8     OpensslLib:obj_dat.obj
 0002:00017b08       ??_C@_09OACPMKPP@CAST5?9CBC@ 00000000000b4a08     OpensslLib:obj_dat.obj
 0002:00017b18       ??_C@_09BGLDNNDK@cast5?9cbc@ 00000000000b4a18     OpensslLib:obj_dat.obj
 0002:00017b28       ??_C@_09NNJNMOFF@CAST5?9ECB@ 00000000000b4a28     OpensslLib:obj_dat.obj
 0002:00017b38       ??_C@_09CLABNJJA@cast5?9ecb@ 00000000000b4a38     OpensslLib:obj_dat.obj
 0002:00017b48       ??_C@_09PODNFDGC@CAST5?9CFB@ 00000000000b4a48     OpensslLib:obj_dat.obj
 0002:00017b58       ??_C@_09IKBEEKH@cast5?9cfb@ 00000000000b4a58     OpensslLib:obj_dat.obj
 0002:00017b68       ??_C@_09LEOLOMNK@CAST5?9OFB@ 00000000000b4a68     OpensslLib:obj_dat.obj
 0002:00017b78       ??_C@_09ECHHPLBP@cast5?9ofb@ 00000000000b4a78     OpensslLib:obj_dat.obj
 0002:00017b88       ??_C@_0BG@JCFINJGL@pbeWithMD5AndCast5CBC@ 00000000000b4a88     OpensslLib:obj_dat.obj
 0002:00017ba0       ??_C@_08IOHJAANG@DSA?9SHA1@ 00000000000b4aa0     OpensslLib:obj_dat.obj
 0002:00017bb0       ??_C@_0M@EFJKPOPH@dsaWithSHA1@ 00000000000b4ab0     OpensslLib:obj_dat.obj
 0002:00017bc0       ??_C@_08EMIDHKIH@MD5?9SHA1@ 00000000000b4ac0     OpensslLib:obj_dat.obj
 0002:00017bd0       ??_C@_08GOLKFMKI@md5?9sha1@ 00000000000b4ad0     OpensslLib:obj_dat.obj
 0002:00017be0       ??_C@_0M@KECGAPAA@sha1WithRSA@ 00000000000b4ae0     OpensslLib:obj_dat.obj
 0002:00017bf0       ??_C@_0O@GMANLAEO@dsaEncryption@ 00000000000b4af0     OpensslLib:obj_dat.obj
 0002:00017c00       ??_C@_09DJDCAKJG@RIPEMD160@ 00000000000b4b00     OpensslLib:obj_dat.obj
 0002:00017c10       ??_C@_09EDIPKBN@ripemd160@ 00000000000b4b10     OpensslLib:obj_dat.obj
 0002:00017c20       ??_C@_0O@JPOIHGOH@RSA?9RIPEMD160@ 00000000000b4b20     OpensslLib:obj_dat.obj
 0002:00017c30       ??_C@_0BB@DCJDAKFH@ripemd160WithRSA@ 00000000000b4b30     OpensslLib:obj_dat.obj
 0002:00017c48       ??_C@_07LEDAHENJ@RC5?9CBC@ 00000000000b4b48     OpensslLib:obj_dat.obj
 0002:00017c50       ??_C@_07IPAAOCGP@rc5?9cbc@ 00000000000b4b50     OpensslLib:obj_dat.obj
 0002:00017c58       ??_C@_07IJICHAHD@RC5?9ECB@ 00000000000b4b58     OpensslLib:obj_dat.obj
 0002:00017c60       ??_C@_07LCLCOGMF@rc5?9ecb@ 00000000000b4b60     OpensslLib:obj_dat.obj
 0002:00017c68       ??_C@_07KKCCONEE@RC5?9CFB@ 00000000000b4b68     OpensslLib:obj_dat.obj
 0002:00017c70       ??_C@_07JBBCHLPC@rc5?9cfb@ 00000000000b4b70     OpensslLib:obj_dat.obj
 0002:00017c78       ??_C@_07OAPEFCPM@RC5?9OFB@ 00000000000b4b78     OpensslLib:obj_dat.obj
 0002:00017c80       ??_C@_07NLMEMEEK@rc5?9ofb@ 00000000000b4b80     OpensslLib:obj_dat.obj
 0002:00017c88       ??_C@_04CHLIKDMF@ZLIB@     00000000000b4b88     OpensslLib:obj_dat.obj
 0002:00017c90       ??_C@_0BB@KGNEOBKL@zlib?5compression@ 00000000000b4b90     OpensslLib:obj_dat.obj
 0002:00017ca8       ??_C@_0BB@DGDLKPHD@extendedKeyUsage@ 00000000000b4ba8     OpensslLib:obj_dat.obj
 0002:00017cc0       ??_C@_0BK@KFMGFBEG@X509v3?5Extended?5Key?5Usage@ 00000000000b4bc0     OpensslLib:obj_dat.obj
 0002:00017cdc       ??_C@_04EAPCHJAG@PKIX@     00000000000b4bdc     OpensslLib:obj_dat.obj
 0002:00017ce4       ??_C@_05DEJBPLJH@id?9kp@   00000000000b4be4     OpensslLib:obj_dat.obj
 0002:00017cf0       ??_C@_0L@CINGAJGN@serverAuth@ 00000000000b4bf0     OpensslLib:obj_dat.obj
 0002:00017d00       ??_C@_0BO@HPFOJNNE@TLS?5Web?5Server?5Authentication@ 00000000000b4c00     OpensslLib:obj_dat.obj
 0002:00017d20       ??_C@_0L@HCMKLLOP@clientAuth@ 00000000000b4c20     OpensslLib:obj_dat.obj
 0002:00017d30       ??_C@_0BO@FEMCBEOF@TLS?5Web?5Client?5Authentication@ 00000000000b4c30     OpensslLib:obj_dat.obj
 0002:00017d50       ??_C@_0M@OJNCNGJ@codeSigning@ 00000000000b4c50     OpensslLib:obj_dat.obj
 0002:00017d60       ??_C@_0N@CHJHLHFC@Code?5Signing@ 00000000000b4c60     OpensslLib:obj_dat.obj
 0002:00017d70       ??_C@_0BA@NPCFDPCO@emailProtection@ 00000000000b4c70     OpensslLib:obj_dat.obj
 0002:00017d80       ??_C@_0BC@BLBGFKKG@E?9mail?5Protection@ 00000000000b4c80     OpensslLib:obj_dat.obj
 0002:00017d98       ??_C@_0N@LONEBHPN@timeStamping@ 00000000000b4c98     OpensslLib:obj_dat.obj
 0002:00017da8       ??_C@_0O@GMMBLMEE@Time?5Stamping@ 00000000000b4ca8     OpensslLib:obj_dat.obj
 0002:00017db8       ??_C@_09EMNNPEBE@msCodeInd@ 00000000000b4cb8     OpensslLib:obj_dat.obj
 0002:00017dc8       ??_C@_0CC@NDDHKAMP@Microsoft?5Individual?5Code?5Signi@ 00000000000b4cc8     OpensslLib:obj_dat.obj
 0002:00017df0       ??_C@_09PDGAMFAO@msCodeCom@ 00000000000b4cf0     OpensslLib:obj_dat.obj
 0002:00017e00       ??_C@_0CC@GKFNEBFA@Microsoft?5Commercial?5Code?5Signi@ 00000000000b4d00     OpensslLib:obj_dat.obj
 0002:00017e28       ??_C@_09HGCLLDPK@msCTLSign@ 00000000000b4d28     OpensslLib:obj_dat.obj
 0002:00017e38       ??_C@_0BN@GNMCHNOI@Microsoft?5Trust?5List?5Signing@ 00000000000b4d38     OpensslLib:obj_dat.obj
 0002:00017e58       ??_C@_05DDBMPPAI@msSGC@    00000000000b4d58     OpensslLib:obj_dat.obj
 0002:00017e60       ??_C@_0BO@FBDDCLK@Microsoft?5Server?5Gated?5Crypto@ 00000000000b4d60     OpensslLib:obj_dat.obj
 0002:00017e80       ??_C@_05NGOIPCN@msEFS@     00000000000b4d80     OpensslLib:obj_dat.obj
 0002:00017e88       ??_C@_0CA@IJODBCMB@Microsoft?5Encrypted?5File?5System@ 00000000000b4d88     OpensslLib:obj_dat.obj
 0002:00017ea8       ??_C@_05LFIIINKG@nsSGC@    00000000000b4da8     OpensslLib:obj_dat.obj
 0002:00017eb0       ??_C@_0BN@MDNLHLBL@Netscape?5Server?5Gated?5Crypto@ 00000000000b4db0     OpensslLib:obj_dat.obj
 0002:00017ed0       ??_C@_08ECNAKPJJ@deltaCRL@ 00000000000b4dd0     OpensslLib:obj_dat.obj
 0002:00017ee0       ??_C@_0BL@HLNLPBHP@X509v3?5Delta?5CRL?5Indicator@ 00000000000b4de0     OpensslLib:obj_dat.obj
 0002:00017f00       ??_C@_09MCDAGILE@CRLReason@ 00000000000b4e00     OpensslLib:obj_dat.obj
 0002:00017f10       ??_C@_0BH@GODIEFKG@X509v3?5CRL?5Reason?5Code@ 00000000000b4e10     OpensslLib:obj_dat.obj
 0002:00017f28       ??_C@_0P@BKEGCOMO@invalidityDate@ 00000000000b4e28     OpensslLib:obj_dat.obj
 0002:00017f38       ??_C@_0BA@JDBEMONE@Invalidity?5Date@ 00000000000b4e38     OpensslLib:obj_dat.obj
 0002:00017f48       ??_C@_07DKMNOLMH@SXNetID@  00000000000b4e48     OpensslLib:obj_dat.obj
 0002:00017f50       ??_C@_0BD@PNDCMCDK@Strong?5Extranet?5ID@ 00000000000b4e50     OpensslLib:obj_dat.obj
 0002:00017f68       ??_C@_0BB@ILOABLNL@PBE?9SHA1?9RC4?9128@ 00000000000b4e68     OpensslLib:obj_dat.obj
 0002:00017f80       ??_C@_0BI@LBIFCLPB@pbeWithSHA1And128BitRC4@ 00000000000b4e80     OpensslLib:obj_dat.obj
 0002:00017f98       ??_C@_0BA@ECFMCJKN@PBE?9SHA1?9RC4?940@ 00000000000b4e98     OpensslLib:obj_dat.obj
 0002:00017fa8       ??_C@_0BH@OCAEJMIL@pbeWithSHA1And40BitRC4@ 00000000000b4ea8     OpensslLib:obj_dat.obj
 0002:00017fc0       ??_C@_0O@EDBOMBNM@PBE?9SHA1?93DES@ 00000000000b4ec0     OpensslLib:obj_dat.obj
 0002:00017fd0       ??_C@_0CB@FCNCEDP@pbeWithSHA1And3?9KeyTripleDES?9CB@ 00000000000b4ed0     OpensslLib:obj_dat.obj
 0002:00017ff8       ??_C@_0O@HOHOOIGM@PBE?9SHA1?92DES@ 00000000000b4ef8     OpensslLib:obj_dat.obj
 0002:00018008       ??_C@_0CB@NCMPKEGH@pbeWithSHA1And2?9KeyTripleDES?9CB@ 00000000000b4f08     OpensslLib:obj_dat.obj
 0002:00018030       ??_C@_0BB@FNLJPIMG@PBE?9SHA1?9RC2?9128@ 00000000000b4f30     OpensslLib:obj_dat.obj
 0002:00018048       ??_C@_0BM@DOLDINME@pbeWithSHA1And128BitRC2?9CBC@ 00000000000b4f48     OpensslLib:obj_dat.obj
 0002:00018068       ??_C@_0BA@MNBMNMAN@PBE?9SHA1?9RC2?940@ 00000000000b4f68     OpensslLib:obj_dat.obj
 0002:00018078       ??_C@_0BL@CKNKIMON@pbeWithSHA1And40BitRC2?9CBC@ 00000000000b4f78     OpensslLib:obj_dat.obj
 0002:00018094       ??_C@_06BFGNOIAI@keyBag@   00000000000b4f94     OpensslLib:obj_dat.obj
 0002:000180a0       ??_C@_0BE@ELJKIANF@pkcs8ShroudedKeyBag@ 00000000000b4fa0     OpensslLib:obj_dat.obj
 0002:000180b8       ??_C@_07FDLMCII@certBag@   00000000000b4fb8     OpensslLib:obj_dat.obj
 0002:000180c0       ??_C@_06JAFBIMLO@crlBag@   00000000000b4fc0     OpensslLib:obj_dat.obj
 0002:000180c8       ??_C@_09DELDBPIE@secretBag@ 00000000000b4fc8     OpensslLib:obj_dat.obj
 0002:000180d8       ??_C@_0BA@KAKLKBBC@safeContentsBag@ 00000000000b4fd8     OpensslLib:obj_dat.obj
 0002:000180e8       ??_C@_0N@BGFMPLCM@friendlyName@ 00000000000b4fe8     OpensslLib:obj_dat.obj
 0002:000180f8       ??_C@_0L@BCMHPPAO@localKeyID@ 00000000000b4ff8     OpensslLib:obj_dat.obj
 0002:00018108       ??_C@_0BA@EMOFOCJL@x509Certificate@ 00000000000b5008     OpensslLib:obj_dat.obj
 0002:00018118       ??_C@_0BA@BFAOBDKH@sdsiCertificate@ 00000000000b5018     OpensslLib:obj_dat.obj
 0002:00018128       ??_C@_07KAOEJCFK@x509Crl@  00000000000b5028     OpensslLib:obj_dat.obj
 0002:00018130       ??_C@_05EPMADBBF@PBES2@    00000000000b5030     OpensslLib:obj_dat.obj
 0002:00018138       ??_C@_06DEJMPFNK@PBMAC1@   00000000000b5038     OpensslLib:obj_dat.obj
 0002:00018140       ??_C@_0N@KANOAIP@hmacWithSHA1@ 00000000000b5040     OpensslLib:obj_dat.obj
 0002:00018150       ??_C@_09MIPGHKGJ@id?9qt?9cps@ 00000000000b5050     OpensslLib:obj_dat.obj
 0002:00018160       ??_C@_0BF@HPKIKKPI@Policy?5Qualifier?5CPS@ 00000000000b5060     OpensslLib:obj_dat.obj
 0002:00018178       ??_C@_0O@CJFHFAHE@id?9qt?9unotice@ 00000000000b5078     OpensslLib:obj_dat.obj
 0002:00018188       ??_C@_0BN@KPMBKEE@Policy?5Qualifier?5User?5Notice@ 00000000000b5088     OpensslLib:obj_dat.obj
 0002:000181a8       ??_C@_0L@OPHBIFFL@RC2?964?9CBC@ 00000000000b50a8     OpensslLib:obj_dat.obj
 0002:000181b8       ??_C@_0L@CLELMECA@rc2?964?9cbc@ 00000000000b50b8     OpensslLib:obj_dat.obj
 0002:000181c8       ??_C@_0L@LCBJGKJG@SMIME?9CAPS@ 00000000000b50c8     OpensslLib:obj_dat.obj
 0002:000181d8       ??_C@_0BE@CEEFMCAI@S?1MIME?5Capabilities@ 00000000000b50d8     OpensslLib:obj_dat.obj
 0002:000181f0       ??_C@_0P@OHJEMJLF@PBE?9MD2?9RC2?964@ 00000000000b50f0     OpensslLib:obj_dat.obj
 0002:00018200       ??_C@_0BF@FOKDMACM@pbeWithMD2AndRC2?9CBC@ 00000000000b5100     OpensslLib:obj_dat.obj
 0002:00018218       ??_C@_0P@IDPFKEHM@PBE?9MD5?9RC2?964@ 00000000000b5118     OpensslLib:obj_dat.obj
 0002:00018228       ??_C@_0BF@CKDLCJKD@pbeWithMD5AndRC2?9CBC@ 00000000000b5128     OpensslLib:obj_dat.obj
 0002:00018240       ??_C@_0N@GOPIPBOD@PBE?9SHA1?9DES@ 00000000000b5140     OpensslLib:obj_dat.obj
 0002:00018250       ??_C@_0BG@JLHBEJLP@pbeWithSHA1AndDES?9CBC@ 00000000000b5150     OpensslLib:obj_dat.obj
 0002:00018268       ??_C@_08HCCJAOPJ@msExtReq@ 00000000000b5168     OpensslLib:obj_dat.obj
 0002:00018278       ??_C@_0BM@MEJAMAEO@Microsoft?5Extension?5Request@ 00000000000b5178     OpensslLib:obj_dat.obj
 0002:00018294       ??_C@_06EJACAMDF@extReq@   00000000000b5194     OpensslLib:obj_dat.obj
 0002:000182a0       ??_C@_0BC@GLHEKHCC@Extension?5Request@ 00000000000b51a0     OpensslLib:obj_dat.obj
 0002:000182b4       ??_C@_04MEMAJGDJ@name@     00000000000b51b4     OpensslLib:obj_dat.obj
 0002:000182c0       ??_C@_0M@DNNLEIMI@dnQualifier@ 00000000000b51c0     OpensslLib:obj_dat.obj
 0002:000182cc       ??_C@_05BDFHFBBC@id?9pe@   00000000000b51cc     OpensslLib:obj_dat.obj
 0002:000182d4       ??_C@_05BHKIKJBE@id?9ad@   00000000000b51d4     OpensslLib:obj_dat.obj
 0002:000182e0       ??_C@_0BE@PLCGCINM@authorityInfoAccess@ 00000000000b51e0     OpensslLib:obj_dat.obj
 0002:000182f8       ??_C@_0BN@EILCOJAN@Authority?5Information?5Access@ 00000000000b51f8     OpensslLib:obj_dat.obj
 0002:00018318       ??_C@_04LOJOPNBE@OCSP@     00000000000b5218     OpensslLib:obj_dat.obj
 0002:00018320       ??_C@_09GFPECPIH@caIssuers@ 00000000000b5220     OpensslLib:obj_dat.obj
 0002:00018330       ??_C@_0L@CABCENFK@CA?5Issuers@ 00000000000b5230     OpensslLib:obj_dat.obj
 0002:00018340       ??_C@_0M@HBKJLKNM@OCSPSigning@ 00000000000b5240     OpensslLib:obj_dat.obj
 0002:00018350       ??_C@_0N@CPJNIPDD@OCSP?5Signing@ 00000000000b5250     OpensslLib:obj_dat.obj
 0002:00018360       ??_C@_03CBLMPEHH@ISO@      00000000000b5260     OpensslLib:obj_dat.obj
 0002:00018364       ??_C@_03CMEHDJAL@iso@      00000000000b5264     OpensslLib:obj_dat.obj
 0002:00018368       ??_C@_0M@CMICFDOA@member?9body@ 00000000000b5268     OpensslLib:obj_dat.obj
 0002:00018378       ??_C@_0BA@BGDAEHGF@ISO?5Member?5Body@ 00000000000b5278     OpensslLib:obj_dat.obj
 0002:00018388       ??_C@_06EKAADAMF@ISO?9US@  00000000000b5288     OpensslLib:obj_dat.obj
 0002:00018390       ??_C@_0BD@NMCDOJHL@ISO?5US?5Member?5Body@ 00000000000b5290     OpensslLib:obj_dat.obj
 0002:000183a4       ??_C@_05OCCOPOJN@X9?957@   00000000000b52a4     OpensslLib:obj_dat.obj
 0002:000183ac       ??_C@_05PAJLFBHD@X9?457@   00000000000b52ac     OpensslLib:obj_dat.obj
 0002:000183b4       ??_C@_04CGFPFLFA@X9cm@     00000000000b52b4     OpensslLib:obj_dat.obj
 0002:000183c0       ??_C@_0L@DJCLIPOH@X9?457?5CM?5?$DP@ 00000000000b52c0     OpensslLib:obj_dat.obj
 0002:000183cc       ??_C@_05BCIEJMJH@pkcs1@    00000000000b52cc     OpensslLib:obj_dat.obj
 0002:000183d4       ??_C@_05HGOIFJJD@pkcs5@    00000000000b52d4     OpensslLib:obj_dat.obj
 0002:000183dc       ??_C@_05HHBEAKJJ@SMIME@    00000000000b52dc     OpensslLib:obj_dat.obj
 0002:000183e4       ??_C@_06DFGHEKNE@S?1MIME@  00000000000b52e4     OpensslLib:obj_dat.obj
 0002:000183f0       ??_C@_0N@GABIEKIN@id?9smime?9mod@ 00000000000b52f0     OpensslLib:obj_dat.obj
 0002:00018400       ??_C@_0M@EBLDBLEO@id?9smime?9ct@ 00000000000b5300     OpensslLib:obj_dat.obj
 0002:00018410       ??_C@_0M@HFICCJDE@id?9smime?9aa@ 00000000000b5310     OpensslLib:obj_dat.obj
 0002:00018420       ??_C@_0N@DKFBIKP@id?9smime?9alg@ 00000000000b5320     OpensslLib:obj_dat.obj
 0002:00018430       ??_C@_0M@LHBAJBP@id?9smime?9cd@ 00000000000b5330     OpensslLib:obj_dat.obj
 0002:00018440       ??_C@_0N@PABBGIHI@id?9smime?9spq@ 00000000000b5340     OpensslLib:obj_dat.obj
 0002:00018450       ??_C@_0N@CFBKAPGC@id?9smime?9cti@ 00000000000b5350     OpensslLib:obj_dat.obj
 0002:00018460       ??_C@_0BB@PJEIFOOP@id?9smime?9mod?9cms@ 00000000000b5360     OpensslLib:obj_dat.obj
 0002:00018478       ??_C@_0BB@MKJLIPEJ@id?9smime?9mod?9ess@ 00000000000b5378     OpensslLib:obj_dat.obj
 0002:00018490       ??_C@_0BB@LBBEMNBN@id?9smime?9mod?9oid@ 00000000000b5390     OpensslLib:obj_dat.obj
 0002:000184a8       ??_C@_0BE@PEENABNJ@id?9smime?9mod?9msg?9v3@ 00000000000b53a8     OpensslLib:obj_dat.obj
 0002:000184c0       ??_C@_0BP@HIDGBPHA@id?9smime?9mod?9ets?9eSignature?988@ 00000000000b53c0     OpensslLib:obj_dat.obj
 0002:000184e0       ??_C@_0BP@POGMGJII@id?9smime?9mod?9ets?9eSignature?997@ 00000000000b53e0     OpensslLib:obj_dat.obj
 0002:00018500       ??_C@_0BP@KEHEABPA@id?9smime?9mod?9ets?9eSigPolicy?988@ 00000000000b5400     OpensslLib:obj_dat.obj
 0002:00018520       ??_C@_0BP@CCCOHHAI@id?9smime?9mod?9ets?9eSigPolicy?997@ 00000000000b5420     OpensslLib:obj_dat.obj
 0002:00018540       ??_C@_0BE@GCHIHBHA@id?9smime?9ct?9receipt@ 00000000000b5440     OpensslLib:obj_dat.obj
 0002:00018558       ??_C@_0BF@KGEHGOF@id?9smime?9ct?9authData@ 00000000000b5458     OpensslLib:obj_dat.obj
 0002:00018570       ??_C@_0BI@DBILCLFJ@id?9smime?9ct?9publishCert@ 00000000000b5470     OpensslLib:obj_dat.obj
 0002:00018588       ??_C@_0BE@KHNGFDDI@id?9smime?9ct?9TSTInfo@ 00000000000b5488     OpensslLib:obj_dat.obj
 0002:000185a0       ??_C@_0BE@FKPPBHI@id?9smime?9ct?9TDTInfo@ 00000000000b54a0     OpensslLib:obj_dat.obj
 0002:000185b8       ??_C@_0BI@BGKPNMK@id?9smime?9ct?9contentInfo@ 00000000000b54b8     OpensslLib:obj_dat.obj
 0002:000185d0       ??_C@_0BM@MFKPCEGN@id?9smime?9ct?9DVCSRequestData@ 00000000000b54d0     OpensslLib:obj_dat.obj
 0002:000185f0       ??_C@_0BN@POKJLKJJ@id?9smime?9ct?9DVCSResponseData@ 00000000000b54f0     OpensslLib:obj_dat.obj
 0002:00018610       ??_C@_0BL@LMGNMPFD@id?9smime?9aa?9receiptRequest@ 00000000000b5510     OpensslLib:obj_dat.obj
 0002:00018630       ??_C@_0BK@DNJNJILO@id?9smime?9aa?9securityLabel@ 00000000000b5530     OpensslLib:obj_dat.obj
 0002:00018650       ??_C@_0BM@OEKGBMLE@id?9smime?9aa?9mlExpandHistory@ 00000000000b5550     OpensslLib:obj_dat.obj
 0002:00018670       ??_C@_0BI@EMGPJFHB@id?9smime?9aa?9contentHint@ 00000000000b5570     OpensslLib:obj_dat.obj
 0002:00018688       ??_C@_0BJ@LJLDKMDH@id?9smime?9aa?9msgSigDigest@ 00000000000b5588     OpensslLib:obj_dat.obj
 0002:000186a8       ??_C@_0BN@GCCNOJCG@id?9smime?9aa?9encapContentType@ 00000000000b55a8     OpensslLib:obj_dat.obj
 0002:000186c8       ??_C@_0BO@KMJGIAMK@id?9smime?9aa?9contentIdentifier@ 00000000000b55c8     OpensslLib:obj_dat.obj
 0002:000186e8       ??_C@_0BF@CFNHFPDB@id?9smime?9aa?9macValue@ 00000000000b55e8     OpensslLib:obj_dat.obj
 0002:00018700       ??_C@_0BN@NFAAOKEA@id?9smime?9aa?9equivalentLabels@ 00000000000b5600     OpensslLib:obj_dat.obj
 0002:00018720       ??_C@_0BN@LEFAEFL@id?9smime?9aa?9contentReference@ 00000000000b5620     OpensslLib:obj_dat.obj
 0002:00018740       ??_C@_0BK@LAPEFMP@id?9smime?9aa?9encrypKeyPref@ 00000000000b5640     OpensslLib:obj_dat.obj
 0002:00018760       ??_C@_0BP@LHGJLGIB@id?9smime?9aa?9signingCertificate@ 00000000000b5660     OpensslLib:obj_dat.obj
 0002:00018780       ??_C@_0BO@CEEOANBD@id?9smime?9aa?9smimeEncryptCerts@ 00000000000b5680     OpensslLib:obj_dat.obj
 0002:000187a0       ??_C@_0BL@DHJOIJNE@id?9smime?9aa?9timeStampToken@ 00000000000b56a0     OpensslLib:obj_dat.obj
 0002:000187c0       ??_C@_0BM@GKFMJCFL@id?9smime?9aa?9ets?9sigPolicyId@ 00000000000b56c0     OpensslLib:obj_dat.obj
 0002:000187e0       ??_C@_0BP@OLIFPEIM@id?9smime?9aa?9ets?9commitmentType@ 00000000000b56e0     OpensslLib:obj_dat.obj
 0002:00018800       ??_C@_0BP@EODAELPO@id?9smime?9aa?9ets?9signerLocation@ 00000000000b5700     OpensslLib:obj_dat.obj
 0002:00018820       ??_C@_0BL@KDJDAGDC@id?9smime?9aa?9ets?9signerAttr@ 00000000000b5720     OpensslLib:obj_dat.obj
 0002:00018840       ??_C@_0BN@JFIFOPBH@id?9smime?9aa?9ets?9otherSigCert@ 00000000000b5740     OpensslLib:obj_dat.obj
 0002:00018860       ??_C@_0CB@GHKINGOH@id?9smime?9aa?9ets?9contentTimestam@ 00000000000b5760     OpensslLib:obj_dat.obj
 0002:00018888       ??_C@_0CA@NKIOCHLG@id?9smime?9aa?9ets?9CertificateRefs@ 00000000000b5788     OpensslLib:obj_dat.obj
 0002:000188a8       ??_C@_0BP@BCHJHNFO@id?9smime?9aa?9ets?9RevocationRefs@ 00000000000b57a8     OpensslLib:obj_dat.obj
 0002:000188c8       ??_C@_0BL@IFKOLDIG@id?9smime?9aa?9ets?9certValues@ 00000000000b57c8     OpensslLib:obj_dat.obj
 0002:000188e8       ??_C@_0CB@GOCEFPFO@id?9smime?9aa?9ets?9revocationValue@ 00000000000b57e8     OpensslLib:obj_dat.obj
 0002:00018910       ??_C@_0BN@HGLOGOFI@id?9smime?9aa?9ets?9escTimeStamp@ 00000000000b5810     OpensslLib:obj_dat.obj
 0002:00018930       ??_C@_0CB@CJNBPJE@id?9smime?9aa?9ets?9certCRLTimestam@ 00000000000b5830     OpensslLib:obj_dat.obj
 0002:00018958       ??_C@_0CB@BEMKNJGO@id?9smime?9aa?9ets?9archiveTimeStam@ 00000000000b5858     OpensslLib:obj_dat.obj
 0002:00018980       ??_C@_0BK@HDBIPLFI@id?9smime?9aa?9signatureType@ 00000000000b5880     OpensslLib:obj_dat.obj
 0002:000189a0       ??_C@_0BF@KEMAMBKF@id?9smime?9aa?9dvcs?9dvc@ 00000000000b58a0     OpensslLib:obj_dat.obj
 0002:000189b8       ??_C@_0BK@JNJOCCCB@id?9smime?9alg?9ESDHwith3DES@ 00000000000b58b8     OpensslLib:obj_dat.obj
 0002:000189d8       ??_C@_0BJ@FIJMOHBJ@id?9smime?9alg?9ESDHwithRC2@ 00000000000b58d8     OpensslLib:obj_dat.obj
 0002:000189f8       ??_C@_0BG@HHELPNAK@id?9smime?9alg?93DESwrap@ 00000000000b58f8     OpensslLib:obj_dat.obj
 0002:00018a10       ??_C@_0BF@JNCPAJCA@id?9smime?9alg?9RC2wrap@ 00000000000b5910     OpensslLib:obj_dat.obj
 0002:00018a28       ??_C@_0BC@COOODKPD@id?9smime?9alg?9ESDH@ 00000000000b5928     OpensslLib:obj_dat.obj
 0002:00018a40       ??_C@_0BJ@FOFHEIDB@id?9smime?9alg?9CMS3DESwrap@ 00000000000b5940     OpensslLib:obj_dat.obj
 0002:00018a60       ??_C@_0BI@FIFDKKFJ@id?9smime?9alg?9CMSRC2wrap@ 00000000000b5960     OpensslLib:obj_dat.obj
 0002:00018a78       ??_C@_0BB@BMOBKAGE@id?9smime?9cd?9ldap@ 00000000000b5978     OpensslLib:obj_dat.obj
 0002:00018a90       ??_C@_0BJ@IMNKDGEG@id?9smime?9spq?9ets?9sqt?9uri@ 00000000000b5990     OpensslLib:obj_dat.obj
 0002:00018ab0       ??_C@_0BN@GPAAHNOH@id?9smime?9spq?9ets?9sqt?9unotice@ 00000000000b59b0     OpensslLib:obj_dat.obj
 0002:00018ad0       ??_C@_0BP@BCHFEGHC@id?9smime?9cti?9ets?9proofOfOrigin@ 00000000000b59d0     OpensslLib:obj_dat.obj
 0002:00018af0       ??_C@_0CA@HNGOKBGC@id?9smime?9cti?9ets?9proofOfReceipt@ 00000000000b59f0     OpensslLib:obj_dat.obj
 0002:00018b10       ??_C@_0CB@ICJGPMEP@id?9smime?9cti?9ets?9proofOfDeliver@ 00000000000b5a10     OpensslLib:obj_dat.obj
 0002:00018b38       ??_C@_0BP@ODCAFFCM@id?9smime?9cti?9ets?9proofOfSender@ 00000000000b5a38     OpensslLib:obj_dat.obj
 0002:00018b58       ??_C@_0CB@DDLMHEBC@id?9smime?9cti?9ets?9proofOfApprova@ 00000000000b5a58     OpensslLib:obj_dat.obj
 0002:00018b80       ??_C@_0CB@MICJDGGH@id?9smime?9cti?9ets?9proofOfCreatio@ 00000000000b5a80     OpensslLib:obj_dat.obj
 0002:00018ba4       ??_C@_03HLHMHGOI@MD4@      00000000000b5aa4     OpensslLib:obj_dat.obj
 0002:00018ba8       ??_C@_03ODADJPDG@md4@      00000000000b5aa8     OpensslLib:obj_dat.obj
 0002:00018bb0       ??_C@_0M@FNAFBNKE@id?9pkix?9mod@ 00000000000b5ab0     OpensslLib:obj_dat.obj
 0002:00018bbc       ??_C@_05EBEMBIDF@id?9qt@   00000000000b5abc     OpensslLib:obj_dat.obj
 0002:00018bc4       ??_C@_05FDHJOKPN@id?9it@   00000000000b5ac4     OpensslLib:obj_dat.obj
 0002:00018bd0       ??_C@_07OMHOPMIM@id?9pkip@ 00000000000b5ad0     OpensslLib:obj_dat.obj
 0002:00018bd8       ??_C@_06DOGCNAAM@id?9alg@  00000000000b5ad8     OpensslLib:obj_dat.obj
 0002:00018be0       ??_C@_06PBMFLHLE@id?9cmc@  00000000000b5ae0     OpensslLib:obj_dat.obj
 0002:00018be8       ??_C@_05OHNJGMJE@id?9on@   00000000000b5ae8     OpensslLib:obj_dat.obj
 0002:00018bf0       ??_C@_06IOIOBGMI@id?9pda@  00000000000b5af0     OpensslLib:obj_dat.obj
 0002:00018bf8       ??_C@_06GDGEDALH@id?9aca@  00000000000b5af8     OpensslLib:obj_dat.obj
 0002:00018c00       ??_C@_06ELIJBHPL@id?9qcs@  00000000000b5b00     OpensslLib:obj_dat.obj
 0002:00018c08       ??_C@_06PONIBOCI@id?9cct@  00000000000b5b08     OpensslLib:obj_dat.obj
 0002:00018c10       ??_C@_0BF@HGDNDMHO@id?9pkix1?9explicit?988@ 00000000000b5b10     OpensslLib:obj_dat.obj
 0002:00018c28       ??_C@_0BF@KMJGBJHG@id?9pkix1?9implicit?988@ 00000000000b5b28     OpensslLib:obj_dat.obj
 0002:00018c40       ??_C@_0BF@JEALIPIC@id?9pkix1?9explicit?993@ 00000000000b5b40     OpensslLib:obj_dat.obj
 0002:00018c58       ??_C@_0BF@EOKAKKIK@id?9pkix1?9implicit?993@ 00000000000b5b58     OpensslLib:obj_dat.obj
 0002:00018c70       ??_C@_0M@GHFPFJPB@id?9mod?9crmf@ 00000000000b5b70     OpensslLib:obj_dat.obj
 0002:00018c80       ??_C@_0L@KPDLDADF@id?9mod?9cmc@ 00000000000b5b80     OpensslLib:obj_dat.obj
 0002:00018c90       ??_C@_0BG@DCGANCKA@id?9mod?9kea?9profile?988@ 00000000000b5b90     OpensslLib:obj_dat.obj
 0002:00018ca8       ??_C@_0BG@NAFGGBFM@id?9mod?9kea?9profile?993@ 00000000000b5ba8     OpensslLib:obj_dat.obj
 0002:00018cc0       ??_C@_0L@MONEHBKH@id?9mod?9cmp@ 00000000000b5bc0     OpensslLib:obj_dat.obj
 0002:00018cd0       ??_C@_0BJ@GENFLKHG@id?9mod?9qualified?9cert?988@ 00000000000b5bd0     OpensslLib:obj_dat.obj
 0002:00018cf0       ??_C@_0BJ@IGODAJIK@id?9mod?9qualified?9cert?993@ 00000000000b5bf0     OpensslLib:obj_dat.obj
 0002:00018d10       ??_C@_0BG@EPPFBJNH@id?9mod?9attribute?9cert@ 00000000000b5c10     OpensslLib:obj_dat.obj
 0002:00018d28       ??_C@_0BK@GAJOODEK@id?9mod?9timestamp?9protocol@ 00000000000b5c28     OpensslLib:obj_dat.obj
 0002:00018d48       ??_C@_0M@EACKLPKH@id?9mod?9ocsp@ 00000000000b5c48     OpensslLib:obj_dat.obj
 0002:00018d58       ??_C@_0M@GHDGNJKI@id?9mod?9dvcs@ 00000000000b5c58     OpensslLib:obj_dat.obj
 0002:00018d68       ??_C@_0P@MMOAAMFD@id?9mod?9cmp2000@ 00000000000b5c68     OpensslLib:obj_dat.obj
 0002:00018d78       ??_C@_0O@MPIIPAHM@biometricInfo@ 00000000000b5c78     OpensslLib:obj_dat.obj
 0002:00018d88       ??_C@_0P@KFKDECPH@Biometric?5Info@ 00000000000b5c88     OpensslLib:obj_dat.obj
 0002:00018d98       ??_C@_0N@FPMNLLM@qcStatements@ 00000000000b5c98     OpensslLib:obj_dat.obj
 0002:00018da8       ??_C@_0P@CIOHPJGC@ac?9auditEntity@ 00000000000b5ca8     OpensslLib:obj_dat.obj
 0002:00018db8       ??_C@_0N@FPEEOJCI@ac?9targeting@ 00000000000b5cb8     OpensslLib:obj_dat.obj
 0002:00018dc8       ??_C@_0L@DLGBNBJE@aaControls@ 00000000000b5cc8     OpensslLib:obj_dat.obj
 0002:00018dd8       ??_C@_0BB@NNCKCHBC@sbgp?9ipAddrBlock@ 00000000000b5cd8     OpensslLib:obj_dat.obj
 0002:00018df0       ??_C@_0BG@OJEHJDKA@sbgp?9autonomousSysNum@ 00000000000b5cf0     OpensslLib:obj_dat.obj
 0002:00018e08       ??_C@_0BG@JCJJBMAI@sbgp?9routerIdentifier@ 00000000000b5d08     OpensslLib:obj_dat.obj
 0002:00018e20       ??_C@_0L@HLNNPJEH@textNotice@ 00000000000b5d20     OpensslLib:obj_dat.obj
 0002:00018e30       ??_C@_0P@MKBFMAPP@ipsecEndSystem@ 00000000000b5d30     OpensslLib:obj_dat.obj
 0002:00018e40       ??_C@_0BB@JEJDAICO@IPSec?5End?5System@ 00000000000b5d40     OpensslLib:obj_dat.obj
 0002:00018e58       ??_C@_0M@GMMHFFHI@ipsecTunnel@ 00000000000b5d58     OpensslLib:obj_dat.obj
 0002:00018e68       ??_C@_0N@EKDIOGLO@IPSec?5Tunnel@ 00000000000b5d68     OpensslLib:obj_dat.obj
 0002:00018e78       ??_C@_09GOHJKOFF@ipsecUser@ 00000000000b5d78     OpensslLib:obj_dat.obj
 0002:00018e88       ??_C@_0L@DECDDCGF@IPSec?5User@ 00000000000b5d88     OpensslLib:obj_dat.obj
 0002:00018e94       ??_C@_04JJICJLBL@DVCS@     00000000000b5d94     OpensslLib:obj_dat.obj
 0002:00018e9c       ??_C@_04FFLIHJGD@dvcs@     00000000000b5d9c     OpensslLib:obj_dat.obj
 0002:00018ea8       ??_C@_0BE@GJACIPND@id?9it?9caProtEncCert@ 00000000000b5da8     OpensslLib:obj_dat.obj
 0002:00018ec0       ??_C@_0BH@POCENFBA@id?9it?9signKeyPairTypes@ 00000000000b5dc0     OpensslLib:obj_dat.obj
 0002:00018ed8       ??_C@_0BG@FKIDIODL@id?9it?9encKeyPairTypes@ 00000000000b5dd8     OpensslLib:obj_dat.obj
 0002:00018ef0       ??_C@_0BH@JFBOPDCH@id?9it?9preferredSymmAlg@ 00000000000b5df0     OpensslLib:obj_dat.obj
 0002:00018f08       ??_C@_0BG@OAKEHPLC@id?9it?9caKeyUpdateInfo@ 00000000000b5e08     OpensslLib:obj_dat.obj
 0002:00018f20       ??_C@_0BB@NHKBGJFG@id?9it?9currentCRL@ 00000000000b5e20     OpensslLib:obj_dat.obj
 0002:00018f38       ??_C@_0BG@BPLKDJPD@id?9it?9unsupportedOIDs@ 00000000000b5e38     OpensslLib:obj_dat.obj
 0002:00018f50       ??_C@_0BK@MKGCMKGI@id?9it?9subscriptionRequest@ 00000000000b5e50     OpensslLib:obj_dat.obj
 0002:00018f70       ??_C@_0BL@HBPHBFLO@id?9it?9subscriptionResponse@ 00000000000b5e70     OpensslLib:obj_dat.obj
 0002:00018f90       ??_C@_0BG@LGJDGAPG@id?9it?9keyPairParamReq@ 00000000000b5e90     OpensslLib:obj_dat.obj
 0002:00018fa8       ??_C@_0BG@KPIIFBLH@id?9it?9keyPairParamRep@ 00000000000b5ea8     OpensslLib:obj_dat.obj
 0002:00018fc0       ??_C@_0BE@FOOOCPMH@id?9it?9revPassphrase@ 00000000000b5ec0     OpensslLib:obj_dat.obj
 0002:00018fd8       ??_C@_0BG@MKDHCJKF@id?9it?9implicitConfirm@ 00000000000b5ed8     OpensslLib:obj_dat.obj
 0002:00018ff0       ??_C@_0BG@KCBHNMIK@id?9it?9confirmWaitTime@ 00000000000b5ef0     OpensslLib:obj_dat.obj
 0002:00019008       ??_C@_0BF@CLCJJGFI@id?9it?9origPKIMessage@ 00000000000b5f08     OpensslLib:obj_dat.obj
 0002:00019020       ??_C@_0L@FDGKGANK@id?9regCtrl@ 00000000000b5f20     OpensslLib:obj_dat.obj
 0002:00019030       ??_C@_0L@BGHMJHOP@id?9regInfo@ 00000000000b5f30     OpensslLib:obj_dat.obj
 0002:00019040       ??_C@_0BE@JDMKCIPE@id?9regCtrl?9regToken@ 00000000000b5f40     OpensslLib:obj_dat.obj
 0002:00019058       ??_C@_0BJ@FBKKLLKP@id?9regCtrl?9authenticator@ 00000000000b5f58     OpensslLib:obj_dat.obj
 0002:00019078       ??_C@_0BO@GJKPPLPL@id?9regCtrl?9pkiPublicationInfo@ 00000000000b5f78     OpensslLib:obj_dat.obj
 0002:00019098       ??_C@_0BN@ONKHMAOP@id?9regCtrl?9pkiArchiveOptions@ 00000000000b5f98     OpensslLib:obj_dat.obj
 0002:000190b8       ??_C@_0BF@GFJPNJIG@id?9regCtrl?9oldCertID@ 00000000000b5fb8     OpensslLib:obj_dat.obj
 0002:000190d0       ??_C@_0BL@GHBPLPHM@id?9regCtrl?9protocolEncrKey@ 00000000000b5fd0     OpensslLib:obj_dat.obj
 0002:000190f0       ??_C@_0BF@FHFGHAHE@id?9regInfo?9utf8Pairs@ 00000000000b5ff0     OpensslLib:obj_dat.obj
 0002:00019108       ??_C@_0BD@EEAPBNJJ@id?9regInfo?9certReq@ 00000000000b6008     OpensslLib:obj_dat.obj
 0002:00019120       ??_C@_0N@KIJONBNA@id?9alg?9des40@ 00000000000b6020     OpensslLib:obj_dat.obj
 0002:00019130       ??_C@_0BD@LAAJOBHI@id?9alg?9noSignature@ 00000000000b6030     OpensslLib:obj_dat.obj
 0002:00019148       ??_C@_0BI@KIODNBCM@id?9alg?9dh?9sig?9hmac?9sha1@ 00000000000b6048     OpensslLib:obj_dat.obj
 0002:00019160       ??_C@_0O@OBGPPBGA@id?9alg?9dh?9pop@ 00000000000b6060     OpensslLib:obj_dat.obj
 0002:00019170       ??_C@_0BC@CMNEPEAI@id?9cmc?9statusInfo@ 00000000000b6070     OpensslLib:obj_dat.obj
 0002:00019188       ??_C@_0BG@PPIINOMK@id?9cmc?9identification@ 00000000000b6088     OpensslLib:obj_dat.obj
 0002:000191a0       ??_C@_0BF@IDAHNDCK@id?9cmc?9identityProof@ 00000000000b60a0     OpensslLib:obj_dat.obj
 0002:000191b8       ??_C@_0BC@LLJKCHEN@id?9cmc?9dataReturn@ 00000000000b60b8     OpensslLib:obj_dat.obj
 0002:000191d0       ??_C@_0BF@GEJAHBF@id?9cmc?9transactionId@ 00000000000b60d0     OpensslLib:obj_dat.obj
 0002:000191e8       ??_C@_0BD@BCMJDDMP@id?9cmc?9senderNonce@ 00000000000b60e8     OpensslLib:obj_dat.obj
 0002:00019200       ??_C@_0BG@JLHHNNCH@id?9cmc?9recipientNonce@ 00000000000b6100     OpensslLib:obj_dat.obj
 0002:00019218       ??_C@_0BF@HLOCACJF@id?9cmc?9addExtensions@ 00000000000b6118     OpensslLib:obj_dat.obj
 0002:00019230       ??_C@_0BE@NILMJFN@id?9cmc?9encryptedPOP@ 00000000000b6130     OpensslLib:obj_dat.obj
 0002:00019248       ??_C@_0BE@KBIPLENG@id?9cmc?9decryptedPOP@ 00000000000b6148     OpensslLib:obj_dat.obj
 0002:00019260       ??_C@_0BF@BMODAINP@id?9cmc?9lraPOPWitness@ 00000000000b6160     OpensslLib:obj_dat.obj
 0002:00019278       ??_C@_0P@GMDPJKDO@id?9cmc?9getCert@ 00000000000b6178     OpensslLib:obj_dat.obj
 0002:00019288       ??_C@_0O@OIGIOBJ@id?9cmc?9getCRL@ 00000000000b6188     OpensslLib:obj_dat.obj
 0002:00019298       ??_C@_0BF@BOEAJJNI@id?9cmc?9revokeRequest@ 00000000000b6198     OpensslLib:obj_dat.obj
 0002:000192b0       ??_C@_0P@PCIOIKNC@id?9cmc?9regInfo@ 00000000000b61b0     OpensslLib:obj_dat.obj
 0002:000192c0       ??_C@_0BE@CKMFMMDP@id?9cmc?9responseInfo@ 00000000000b61c0     OpensslLib:obj_dat.obj
 0002:000192d8       ??_C@_0BE@JKLJLIIH@id?9cmc?9queryPending@ 00000000000b61d8     OpensslLib:obj_dat.obj
 0002:000192f0       ??_C@_0BF@GGLCNKGO@id?9cmc?9popLinkRandom@ 00000000000b61f0     OpensslLib:obj_dat.obj
 0002:00019308       ??_C@_0BG@EEIJMDPB@id?9cmc?9popLinkWitness@ 00000000000b6208     OpensslLib:obj_dat.obj
 0002:00019320       ??_C@_0BN@MIGHDJON@id?9cmc?9confirmCertAcceptance@ 00000000000b6220     OpensslLib:obj_dat.obj
 0002:00019340       ??_C@_0BD@IGLADCFL@id?9on?9personalData@ 00000000000b6240     OpensslLib:obj_dat.obj
 0002:00019358       ??_C@_0BD@BADJMIPF@id?9pda?9dateOfBirth@ 00000000000b6258     OpensslLib:obj_dat.obj
 0002:00019370       ??_C@_0BE@NIFFDBPJ@id?9pda?9placeOfBirth@ 00000000000b6270     OpensslLib:obj_dat.obj
 0002:00019388       ??_C@_0O@JMCFNPFD@id?9pda?9gender@ 00000000000b6288     OpensslLib:obj_dat.obj
 0002:00019398       ??_C@_0BM@KMGEGNAB@id?9pda?9countryOfCitizenship@ 00000000000b6298     OpensslLib:obj_dat.obj
 0002:000193b8       ??_C@_0BK@BJMNIGCJ@id?9pda?9countryOfResidence@ 00000000000b62b8     OpensslLib:obj_dat.obj
 0002:000193d8       ??_C@_0BK@OFEDAOCA@id?9aca?9authenticationInfo@ 00000000000b62d8     OpensslLib:obj_dat.obj
 0002:000193f8       ??_C@_0BG@GFJCFEAI@id?9aca?9accessIdentity@ 00000000000b62f8     OpensslLib:obj_dat.obj
 0002:00019410       ??_C@_0BI@IDHFJBKH@id?9aca?9chargingIdentity@ 00000000000b6310     OpensslLib:obj_dat.obj
 0002:00019428       ??_C@_0N@HOPCGOGP@id?9aca?9group@ 00000000000b6328     OpensslLib:obj_dat.obj
 0002:00019438       ??_C@_0M@FBOAJIIJ@id?9aca?9role@ 00000000000b6338     OpensslLib:obj_dat.obj
 0002:00019448       ??_C@_0BH@DJONLBHI@id?9qcs?9pkixQCSyntax?9v1@ 00000000000b6348     OpensslLib:obj_dat.obj
 0002:00019460       ??_C@_0L@CDHPLMPE@id?9cct?9crs@ 00000000000b6360     OpensslLib:obj_dat.obj
 0002:00019470       ??_C@_0P@FNCPPGJO@id?9cct?9PKIData@ 00000000000b6370     OpensslLib:obj_dat.obj
 0002:00019480       ??_C@_0BD@DDALHPCH@id?9cct?9PKIResponse@ 00000000000b6380     OpensslLib:obj_dat.obj
 0002:00019498       ??_C@_0BA@PBBONLHE@ad_timestamping@ 00000000000b6398     OpensslLib:obj_dat.obj
 0002:000194a8       ??_C@_0BB@NMPPBOGK@AD?5Time?5Stamping@ 00000000000b63a8     OpensslLib:obj_dat.obj
 0002:000194c0       ??_C@_07JCCJJKFE@AD_DVCS@  00000000000b63c0     OpensslLib:obj_dat.obj
 0002:000194c8       ??_C@_07JCKMJMPC@ad?5dvcs@ 00000000000b63c8     OpensslLib:obj_dat.obj
 0002:000194d0       ??_C@_0BC@KFAFMFFF@basicOCSPResponse@ 00000000000b63d0     OpensslLib:obj_dat.obj
 0002:000194e8       ??_C@_0BE@ONEEPEOL@Basic?5OCSP?5Response@ 00000000000b63e8     OpensslLib:obj_dat.obj
 0002:000194fc       ??_C@_05OJOPLPHH@Nonce@    00000000000b63fc     OpensslLib:obj_dat.obj
 0002:00019508       ??_C@_0L@NCNDEJFL@OCSP?5Nonce@ 00000000000b6408     OpensslLib:obj_dat.obj
 0002:00019514       ??_C@_05NOENOBME@CrlID@    00000000000b6414     OpensslLib:obj_dat.obj
 0002:00019520       ??_C@_0M@LCLKJALE@OCSP?5CRL?5ID@ 00000000000b6420     OpensslLib:obj_dat.obj
 0002:00019530       ??_C@_0BE@FBPDIHIK@acceptableResponses@ 00000000000b6430     OpensslLib:obj_dat.obj
 0002:00019548       ??_C@_0BK@JKKLNLEI@Acceptable?5OCSP?5Responses@ 00000000000b6448     OpensslLib:obj_dat.obj
 0002:00019568       ??_C@_07MCKMCKHJ@noCheck@  00000000000b6468     OpensslLib:obj_dat.obj
 0002:00019570       ??_C@_0O@HFOALJCG@OCSP?5No?5Check@ 00000000000b6470     OpensslLib:obj_dat.obj
 0002:00019580       ??_C@_0O@FIEDPKGI@archiveCutoff@ 00000000000b6480     OpensslLib:obj_dat.obj
 0002:00019590       ??_C@_0BE@JAFPABJB@OCSP?5Archive?5Cutoff@ 00000000000b6490     OpensslLib:obj_dat.obj
 0002:000195a8       ??_C@_0P@LCDAPLHC@serviceLocator@ 00000000000b64a8     OpensslLib:obj_dat.obj
 0002:000195b8       ??_C@_0BF@CEIKAD@OCSP?5Service?5Locator@ 00000000000b64b8     OpensslLib:obj_dat.obj
 0002:000195d0       ??_C@_0P@EGENIBNC@extendedStatus@ 00000000000b64d0     OpensslLib:obj_dat.obj
 0002:000195e0       ??_C@_0BF@MPEDLKDP@Extended?5OCSP?5Status@ 00000000000b64e0     OpensslLib:obj_dat.obj
 0002:000195f8       ??_C@_05HDPIMK@valid@      00000000000b64f8     OpensslLib:obj_dat.obj
 0002:00019600       ??_C@_04LNEJFJGI@path@     00000000000b6500     OpensslLib:obj_dat.obj
 0002:00019608       ??_C@_09LNEPAILM@trustRoot@ 00000000000b6508     OpensslLib:obj_dat.obj
 0002:00019618       ??_C@_0L@INBPOG@Trust?5Root@ 00000000000b6518     OpensslLib:obj_dat.obj
 0002:00019628       ??_C@_09JPNFBOJG@algorithm@ 00000000000b6528     OpensslLib:obj_dat.obj
 0002:00019638       ??_C@_0N@JHANBHGC@rsaSignature@ 00000000000b6538     OpensslLib:obj_dat.obj
 0002:00019648       ??_C@_0P@NMIAKCBG@X500algorithms@ 00000000000b6548     OpensslLib:obj_dat.obj
 0002:00019658       ??_C@_0CA@FIOIBJEO@directory?5services?5?9?5algorithms@ 00000000000b6558     OpensslLib:obj_dat.obj
 0002:00019678       ??_C@_03MNMMELJE@ORG@      00000000000b6578     OpensslLib:obj_dat.obj
 0002:0001967c       ??_C@_03MADHIGOI@org@      00000000000b657c     OpensslLib:obj_dat.obj
 0002:00019680       ??_C@_03CFBOKPHF@DOD@      00000000000b6580     OpensslLib:obj_dat.obj
 0002:00019684       ??_C@_03CIOFGCAJ@dod@      00000000000b6584     OpensslLib:obj_dat.obj
 0002:00019688       ??_C@_04NMPANDAM@IANA@     00000000000b6588     OpensslLib:obj_dat.obj
 0002:00019690       ??_C@_04BAMKDBHE@iana@     00000000000b6590     OpensslLib:obj_dat.obj
 0002:00019698       ??_C@_09ELLNFDPM@directory@ 00000000000b6598     OpensslLib:obj_dat.obj
 0002:000196a8       ??_C@_09EOAFACM@Directory@ 00000000000b65a8     OpensslLib:obj_dat.obj
 0002:000196b4       ??_C@_04PFNCJACF@mgmt@     00000000000b65b4     OpensslLib:obj_dat.obj
 0002:000196c0       ??_C@_0L@ENAJINDB@Management@ 00000000000b65c0     OpensslLib:obj_dat.obj
 0002:000196d0       ??_C@_0N@OJFGCCKJ@experimental@ 00000000000b65d0     OpensslLib:obj_dat.obj
 0002:000196e0       ??_C@_0N@FKCIGJFM@Experimental@ 00000000000b65e0     OpensslLib:obj_dat.obj
 0002:000196f0       ??_C@_07NMPLPEPB@private@  00000000000b65f0     OpensslLib:obj_dat.obj
 0002:000196f8       ??_C@_07CFINJGKH@Private@  00000000000b65f8     OpensslLib:obj_dat.obj
 0002:00019700       ??_C@_08MBFLHJIB@security@ 00000000000b6600     OpensslLib:obj_dat.obj
 0002:00019710       ??_C@_08EDKKPLCC@Security@ 00000000000b6610     OpensslLib:obj_dat.obj
 0002:0001971c       ??_C@_06DKHMNHOO@snmpv2@   00000000000b661c     OpensslLib:obj_dat.obj
 0002:00019724       ??_C@_06JDJOGLHO@SNMPv2@   00000000000b6624     OpensslLib:obj_dat.obj
 0002:0001972c       ??_C@_04JEGKNAHI@Mail@     00000000000b662c     OpensslLib:obj_dat.obj
 0002:00019738       ??_C@_0M@DMHOKNAD@enterprises@ 00000000000b6638     OpensslLib:obj_dat.obj
 0002:00019748       ??_C@_0M@CEEPHGPL@Enterprises@ 00000000000b6648     OpensslLib:obj_dat.obj
 0002:00019758       ??_C@_08KAGHKPKK@dcobject@ 00000000000b6658     OpensslLib:obj_dat.obj
 0002:00019768       ??_C@_08GPNKJGDG@dcObject@ 00000000000b6668     OpensslLib:obj_dat.obj
 0002:00019774       ??_C@_02KMHJBPDH@DC@       00000000000b6674     OpensslLib:obj_dat.obj
 0002:00019778       ??_C@_0BA@DMAKFKAH@domainComponent@ 00000000000b6678     OpensslLib:obj_dat.obj
 0002:00019788       ??_C@_06LKIIGAOE@domain@   00000000000b6688     OpensslLib:obj_dat.obj
 0002:00019790       ??_C@_06HFDFFJHI@Domain@   00000000000b6690     OpensslLib:obj_dat.obj
 0002:00019798       ??_C@_0BJ@BDDNHDDA@selected?9attribute?9types@ 00000000000b6698     OpensslLib:obj_dat.obj
 0002:000197b8       ??_C@_0BJ@MAOJIBHF@Selected?5Attribute?5Types@ 00000000000b66b8     OpensslLib:obj_dat.obj
 0002:000197d8       ??_C@_09ECGCCLFI@clearance@ 00000000000b66d8     OpensslLib:obj_dat.obj
 0002:000197e8       ??_C@_07MHHBEDHA@RSA?9MD4@ 00000000000b66e8     OpensslLib:obj_dat.obj
 0002:000197f0       ??_C@_0BF@JDOFKNPK@md4WithRSAEncryption@ 00000000000b66f0     OpensslLib:obj_dat.obj
 0002:00019808       ??_C@_0M@BKAIKGEL@ac?9proxying@ 00000000000b6708     OpensslLib:obj_dat.obj
 0002:00019818       ??_C@_0BC@IEIBIKBA@subjectInfoAccess@ 00000000000b6718     OpensslLib:obj_dat.obj
 0002:00019830       ??_C@_0BL@OMFIOBLF@Subject?5Information?5Access@ 00000000000b6730     OpensslLib:obj_dat.obj
 0002:00019850       ??_C@_0BA@PEFFHNFH@id?9aca?9encAttrs@ 00000000000b6750     OpensslLib:obj_dat.obj
 0002:00019860       ??_C@_04IAMNPBLO@role@     00000000000b6760     OpensslLib:obj_dat.obj
 0002:00019868       ??_C@_0BC@IJLMCBHD@policyConstraints@ 00000000000b6768     OpensslLib:obj_dat.obj
 0002:00019880       ??_C@_0BK@DNMBLGM@X509v3?5Policy?5Constraints@ 00000000000b6780     OpensslLib:obj_dat.obj
 0002:000198a0       ??_C@_0BC@JINDJNPM@targetInformation@ 00000000000b67a0     OpensslLib:obj_dat.obj
 0002:000198b8       ??_C@_0BE@IECCFFCH@X509v3?5AC?5Targeting@ 00000000000b67b8     OpensslLib:obj_dat.obj
 0002:000198d0       ??_C@_0L@ECGDAGCK@noRevAvail@ 00000000000b67d0     OpensslLib:obj_dat.obj
 0002:000198e0       ??_C@_0BP@DEKFNCEH@X509v3?5No?5Revocation?5Available@ 00000000000b67e0     OpensslLib:obj_dat.obj
 0002:00019900       ??_C@_0L@LBMOMFCJ@ansi?9X9?962@ 00000000000b6800     OpensslLib:obj_dat.obj
 0002:00019910       ??_C@_0L@HAOKGHPF@ANSI?5X9?462@ 00000000000b6810     OpensslLib:obj_dat.obj
 0002:00019920       ??_C@_0M@LGLKIODB@prime?9field@ 00000000000b6820     OpensslLib:obj_dat.obj
 0002:00019930       ??_C@_0BJ@HECCMKCN@characteristic?9two?9field@ 00000000000b6830     OpensslLib:obj_dat.obj
 0002:00019950       ??_C@_0P@NEOBKIMO@id?9ecPublicKey@ 00000000000b6850     OpensslLib:obj_dat.obj
 0002:00019960       ??_C@_0L@FFFCIFBH@prime192v1@ 00000000000b6860     OpensslLib:obj_dat.obj
 0002:00019970       ??_C@_0L@HOHPNGNE@prime192v2@ 00000000000b6870     OpensslLib:obj_dat.obj
 0002:00019980       ??_C@_0L@GHGEOHJF@prime192v3@ 00000000000b6880     OpensslLib:obj_dat.obj
 0002:00019990       ??_C@_0L@EOHHGIBJ@prime239v1@ 00000000000b6890     OpensslLib:obj_dat.obj
 0002:000199a0       ??_C@_0L@GFFKDLNK@prime239v2@ 00000000000b68a0     OpensslLib:obj_dat.obj
 0002:000199b0       ??_C@_0L@HMEBAKJL@prime239v3@ 00000000000b68b0     OpensslLib:obj_dat.obj
 0002:000199c0       ??_C@_0L@JJFEINOP@prime256v1@ 00000000000b68c0     OpensslLib:obj_dat.obj
 0002:000199d0       ??_C@_0BA@DGJNDOPM@ecdsa?9with?9SHA1@ 00000000000b68d0     OpensslLib:obj_dat.obj
 0002:000199e0       ??_C@_07BPKAKPJK@CSPName@  00000000000b68e0     OpensslLib:obj_dat.obj
 0002:000199e8       ??_C@_0BD@HDEEGCLB@Microsoft?5CSP?5Name@ 00000000000b68e8     OpensslLib:obj_dat.obj
 0002:00019a00       ??_C@_0M@BCNEBAOB@AES?9128?9ECB@ 00000000000b6900     OpensslLib:obj_dat.obj
 0002:00019a10       ??_C@_0M@MONPIKGC@aes?9128?9ecb@ 00000000000b6910     OpensslLib:obj_dat.obj
 0002:00019a20       ??_C@_0M@CPGGBEEL@AES?9128?9CBC@ 00000000000b6920     OpensslLib:obj_dat.obj
 0002:00019a30       ??_C@_0M@PDGNIOMI@aes?9128?9cbc@ 00000000000b6930     OpensslLib:obj_dat.obj
 0002:00019a40       ??_C@_0M@HLKCDCGO@AES?9128?9OFB@ 00000000000b6940     OpensslLib:obj_dat.obj
 0002:00019a50       ??_C@_0M@KHKJKION@aes?9128?9ofb@ 00000000000b6950     OpensslLib:obj_dat.obj
 0002:00019a60       ??_C@_0M@DBHEINNG@AES?9128?9CFB@ 00000000000b6960     OpensslLib:obj_dat.obj
 0002:00019a70       ??_C@_0M@ONHPBHFF@aes?9128?9cfb@ 00000000000b6970     OpensslLib:obj_dat.obj
 0002:00019a80       ??_C@_0M@LBEIGHHN@AES?9192?9ECB@ 00000000000b6980     OpensslLib:obj_dat.obj
 0002:00019a90       ??_C@_0M@GNEDPNPO@aes?9192?9ecb@ 00000000000b6990     OpensslLib:obj_dat.obj
 0002:00019aa0       ??_C@_0M@IMPKGDNH@AES?9192?9CBC@ 00000000000b69a0     OpensslLib:obj_dat.obj
 0002:00019ab0       ??_C@_0M@FAPBPJFE@aes?9192?9cbc@ 00000000000b69b0     OpensslLib:obj_dat.obj
 0002:00019ac0       ??_C@_0M@NIDOEFPC@AES?9192?9OFB@ 00000000000b69c0     OpensslLib:obj_dat.obj
 0002:00019ad0       ??_C@_0M@EDFNPHB@aes?9192?9ofb@ 00000000000b69d0     OpensslLib:obj_dat.obj
 0002:00019ae0       ??_C@_0M@JCOIPKEK@AES?9192?9CFB@ 00000000000b69e0     OpensslLib:obj_dat.obj
 0002:00019af0       ??_C@_0M@EOODGAMJ@aes?9192?9cfb@ 00000000000b69f0     OpensslLib:obj_dat.obj
 0002:00019b00       ??_C@_0M@GDPGEIPM@AES?9256?9ECB@ 00000000000b6a00     OpensslLib:obj_dat.obj
 0002:00019b10       ??_C@_0M@LPPNNCHP@aes?9256?9ecb@ 00000000000b6a10     OpensslLib:obj_dat.obj
 0002:00019b20       ??_C@_0M@FOEEEMFG@AES?9256?9CBC@ 00000000000b6a20     OpensslLib:obj_dat.obj
 0002:00019b30       ??_C@_0M@ICEPNGNF@aes?9256?9cbc@ 00000000000b6a30     OpensslLib:obj_dat.obj
 0002:00019b40       ??_C@_0M@KIAGKHD@AES?9256?9OFB@ 00000000000b6a40     OpensslLib:obj_dat.obj
 0002:00019b50       ??_C@_0M@NGILPAPA@aes?9256?9ofb@ 00000000000b6a50     OpensslLib:obj_dat.obj
 0002:00019b60       ??_C@_0M@EAFGNFML@AES?9256?9CFB@ 00000000000b6a60     OpensslLib:obj_dat.obj
 0002:00019b70       ??_C@_0M@JMFNEPEI@aes?9256?9cfb@ 00000000000b6a70     OpensslLib:obj_dat.obj
 0002:00019b80       ??_C@_0BE@FKEPLGJO@holdInstructionCode@ 00000000000b6a80     OpensslLib:obj_dat.obj
 0002:00019b98       ??_C@_0BG@LHBPDMAN@Hold?5Instruction?5Code@ 00000000000b6a98     OpensslLib:obj_dat.obj
 0002:00019bb0       ??_C@_0BE@KPEIPHPJ@holdInstructionNone@ 00000000000b6ab0     OpensslLib:obj_dat.obj
 0002:00019bc8       ??_C@_0BG@ECBIHNGK@Hold?5Instruction?5None@ 00000000000b6ac8     OpensslLib:obj_dat.obj
 0002:00019be0       ??_C@_0BK@ENEKHHMB@holdInstructionCallIssuer@ 00000000000b6ae0     OpensslLib:obj_dat.obj
 0002:00019c00       ??_C@_0BN@IJKNPIFC@Hold?5Instruction?5Call?5Issuer@ 00000000000b6b00     OpensslLib:obj_dat.obj
 0002:00019c20       ??_C@_0BG@BDAACIJE@holdInstructionReject@ 00000000000b6b20     OpensslLib:obj_dat.obj
 0002:00019c38       ??_C@_0BI@EEABHGCD@Hold?5Instruction?5Reject@ 00000000000b6b38     OpensslLib:obj_dat.obj
 0002:00019c50       ??_C@_04PJOLNDGD@data@     00000000000b6b50     OpensslLib:obj_dat.obj
 0002:00019c58       ??_C@_03OHCBHMED@pss@      00000000000b6b58     OpensslLib:obj_dat.obj
 0002:00019c5c       ??_C@_03BIDCBJP@ucl@       00000000000b6b5c     OpensslLib:obj_dat.obj
 0002:00019c60       ??_C@_05KIBFDOPF@pilot@    00000000000b6b60     OpensslLib:obj_dat.obj
 0002:00019c68       ??_C@_0BD@NEGIHOAI@pilotAttributeType@ 00000000000b6b68     OpensslLib:obj_dat.obj
 0002:00019c80       ??_C@_0BF@CDEFHHCF@pilotAttributeSyntax@ 00000000000b6b80     OpensslLib:obj_dat.obj
 0002:00019c98       ??_C@_0BB@MJFNAIDM@pilotObjectClass@ 00000000000b6b98     OpensslLib:obj_dat.obj
 0002:00019cb0       ??_C@_0M@DLMEDAFC@pilotGroups@ 00000000000b6bb0     OpensslLib:obj_dat.obj
 0002:00019cc0       ??_C@_0BA@KPIIGILK@iA5StringSyntax@ 00000000000b6bc0     OpensslLib:obj_dat.obj
 0002:00019cd0       ??_C@_0BK@LELMGJGD@caseIgnoreIA5StringSyntax@ 00000000000b6bd0     OpensslLib:obj_dat.obj
 0002:00019cf0       ??_C@_0M@MCCFCPKP@pilotObject@ 00000000000b6bf0     OpensslLib:obj_dat.obj
 0002:00019d00       ??_C@_0M@NCGDCEIP@pilotPerson@ 00000000000b6c00     OpensslLib:obj_dat.obj
 0002:00019d10       ??_C@_07PMDLEBNF@account@  00000000000b6c10     OpensslLib:obj_dat.obj
 0002:00019d18       ??_C@_08JEEDKNPB@document@ 00000000000b6c18     OpensslLib:obj_dat.obj
 0002:00019d24       ??_C@_04EKFCMFOP@room@     00000000000b6c24     OpensslLib:obj_dat.obj
 0002:00019d30       ??_C@_0P@OAPEDDHP@documentSeries@ 00000000000b6c30     OpensslLib:obj_dat.obj
 0002:00019d40       ??_C@_0BA@KIAIOBLD@rFC822localPart@ 00000000000b6c40     OpensslLib:obj_dat.obj
 0002:00019d50       ??_C@_09BOCGGGMK@dNSDomain@ 00000000000b6c50     OpensslLib:obj_dat.obj
 0002:00019d60       ??_C@_0BE@OPAPHNCO@domainRelatedObject@ 00000000000b6c60     OpensslLib:obj_dat.obj
 0002:00019d78       ??_C@_0BA@LKHIAMBK@friendlyCountry@ 00000000000b6c78     OpensslLib:obj_dat.obj
 0002:00019d88       ??_C@_0BF@CONLNHDI@simpleSecurityObject@ 00000000000b6c88     OpensslLib:obj_dat.obj
 0002:00019da0       ??_C@_0BC@PLDKCMI@pilotOrganization@ 00000000000b6ca0     OpensslLib:obj_dat.obj
 0002:00019db8       ??_C@_08MPJGPMC@pilotDSA@  00000000000b6cb8     OpensslLib:obj_dat.obj
 0002:00019dc8       ??_C@_0BE@DDFOMMI@qualityLabelledData@ 00000000000b6cc8     OpensslLib:obj_dat.obj
 0002:00019ddc       ??_C@_03MJDGODDN@UID@      00000000000b6cdc     OpensslLib:obj_dat.obj
 0002:00019de0       ??_C@_06LPELCIKE@userId@   00000000000b6ce0     OpensslLib:obj_dat.obj
 0002:00019de8       ??_C@_0BF@HDIIKJDI@textEncodedORAddress@ 00000000000b6ce8     OpensslLib:obj_dat.obj
 0002:00019e00       ??_C@_04FFKLPPHM@mail@     00000000000b6d00     OpensslLib:obj_dat.obj
 0002:00019e08       ??_C@_0O@PDNFEOHL@rfc822Mailbox@ 00000000000b6d08     OpensslLib:obj_dat.obj
 0002:00019e18       ??_C@_04NIDJFNBE@info@     00000000000b6d18     OpensslLib:obj_dat.obj
 0002:00019e20       ??_C@_0P@PAMFCEKP@favouriteDrink@ 00000000000b6d20     OpensslLib:obj_dat.obj
 0002:00019e30       ??_C@_0L@DGKNANFO@roomNumber@ 00000000000b6d30     OpensslLib:obj_dat.obj
 0002:00019e3c       ??_C@_05DOIFDPKA@photo@    00000000000b6d3c     OpensslLib:obj_dat.obj
 0002:00019e48       ??_C@_09CCPGMHEM@userClass@ 00000000000b6d48     OpensslLib:obj_dat.obj
 0002:00019e54       ??_C@_04OODOLJMA@host@     00000000000b6d54     OpensslLib:obj_dat.obj
 0002:00019e60       ??_C@_07JPLKDPHP@manager@  00000000000b6d60     OpensslLib:obj_dat.obj
 0002:00019e68       ??_C@_0BD@MEPJGCEO@documentIdentifier@ 00000000000b6d68     OpensslLib:obj_dat.obj
 0002:00019e80       ??_C@_0O@BDIDABAC@documentTitle@ 00000000000b6d80     OpensslLib:obj_dat.obj
 0002:00019e90       ??_C@_0BA@GHOLKFM@documentVersion@ 00000000000b6d90     OpensslLib:obj_dat.obj
 0002:00019ea0       ??_C@_0P@DABDJKFB@documentAuthor@ 00000000000b6da0     OpensslLib:obj_dat.obj
 0002:00019eb0       ??_C@_0BB@COFKDFJ@documentLocation@ 00000000000b6db0     OpensslLib:obj_dat.obj
 0002:00019ec8       ??_C@_0BE@CPLAKLNE@homeTelephoneNumber@ 00000000000b6dc8     OpensslLib:obj_dat.obj
 0002:00019ee0       ??_C@_09EMBFDNKC@secretary@ 00000000000b6de0     OpensslLib:obj_dat.obj
 0002:00019ef0       ??_C@_0N@CEOKELFP@otherMailbox@ 00000000000b6df0     OpensslLib:obj_dat.obj
 0002:00019f00       ??_C@_0BB@LHLABCIP@lastModifiedTime@ 00000000000b6e00     OpensslLib:obj_dat.obj
 0002:00019f18       ??_C@_0P@ECLEJAJJ@lastModifiedBy@ 00000000000b6e18     OpensslLib:obj_dat.obj
 0002:00019f28       ??_C@_07IBNMBOJB@aRecord@  00000000000b6e28     OpensslLib:obj_dat.obj
 0002:00019f30       ??_C@_0BF@MIIMJDJB@pilotAttributeType27@ 00000000000b6e30     OpensslLib:obj_dat.obj
 0002:00019f48       ??_C@_08DFFJPLPD@mXRecord@ 00000000000b6e48     OpensslLib:obj_dat.obj
 0002:00019f58       ??_C@_08FBLONLGA@nSRecord@ 00000000000b6e58     OpensslLib:obj_dat.obj
 0002:00019f68       ??_C@_09OCFHDJJF@sOARecord@ 00000000000b6e68     OpensslLib:obj_dat.obj
 0002:00019f78       ??_C@_0M@GHEAGPOE@cNAMERecord@ 00000000000b6e78     OpensslLib:obj_dat.obj
 0002:00019f88       ??_C@_0BB@MEFMIBKO@associatedDomain@ 00000000000b6e88     OpensslLib:obj_dat.obj
 0002:00019fa0       ??_C@_0P@OJOOFNGB@associatedName@ 00000000000b6ea0     OpensslLib:obj_dat.obj
 0002:00019fb0       ??_C@_0BC@NPJKACJF@homePostalAddress@ 00000000000b6eb0     OpensslLib:obj_dat.obj
 0002:00019fc8       ??_C@_0O@CCHLDBGG@personalTitle@ 00000000000b6ec8     OpensslLib:obj_dat.obj
 0002:00019fd8       ??_C@_0BG@DCPABLLG@mobileTelephoneNumber@ 00000000000b6ed8     OpensslLib:obj_dat.obj
 0002:00019ff0       ??_C@_0BF@JICDDEFM@pagerTelephoneNumber@ 00000000000b6ef0     OpensslLib:obj_dat.obj
 0002:0001a008       ??_C@_0BE@MGDAFGCM@friendlyCountryName@ 00000000000b6f08     OpensslLib:obj_dat.obj
 0002:0001a020       ??_C@_0BF@IANLBJMF@organizationalStatus@ 00000000000b6f20     OpensslLib:obj_dat.obj
 0002:0001a038       ??_C@_0N@DGNBNBGJ@janetMailbox@ 00000000000b6f38     OpensslLib:obj_dat.obj
 0002:0001a048       ??_C@_0BF@OFOHKDCI@mailPreferenceOption@ 00000000000b6f48     OpensslLib:obj_dat.obj
 0002:0001a060       ??_C@_0N@POAALOHC@buildingName@ 00000000000b6f60     OpensslLib:obj_dat.obj
 0002:0001a070       ??_C@_0L@LMCCHBHL@dSAQuality@ 00000000000b6f70     OpensslLib:obj_dat.obj
 0002:0001a080       ??_C@_0BD@EHDOPADK@singleLevelQuality@ 00000000000b6f80     OpensslLib:obj_dat.obj
 0002:0001a098       ??_C@_0BG@HMOECBMF@subtreeMinimumQuality@ 00000000000b6f98     OpensslLib:obj_dat.obj
 0002:0001a0b0       ??_C@_0BG@FLFPEGPE@subtreeMaximumQuality@ 00000000000b6fb0     OpensslLib:obj_dat.obj
 0002:0001a0c8       ??_C@_0BC@CBOFINFC@personalSignature@ 00000000000b6fc8     OpensslLib:obj_dat.obj
 0002:0001a0e0       ??_C@_0M@KIABODOB@dITRedirect@ 00000000000b6fe0     OpensslLib:obj_dat.obj
 0002:0001a0ec       ??_C@_05KNIAAKIP@audio@    00000000000b6fec     OpensslLib:obj_dat.obj
 0002:0001a0f8       ??_C@_0BC@KCCHJGGO@documentPublisher@ 00000000000b6ff8     OpensslLib:obj_dat.obj
 0002:0001a110       ??_C@_0BF@EFCCADKK@x500UniqueIdentifier@ 00000000000b7010     OpensslLib:obj_dat.obj
 0002:0001a128       ??_C@_08HLONPBDI@mime?9mhs@ 00000000000b7028     OpensslLib:obj_dat.obj
 0002:0001a138       ??_C@_08DNBACEKK@MIME?5MHS@ 00000000000b7038     OpensslLib:obj_dat.obj
 0002:0001a148       ??_C@_0BC@NIFMCBEJ@mime?9mhs?9headings@ 00000000000b7048     OpensslLib:obj_dat.obj
 0002:0001a160       ??_C@_0BA@MOFCNIEE@mime?9mhs?9bodies@ 00000000000b7060     OpensslLib:obj_dat.obj
 0002:0001a170       ??_C@_0BH@ILCJEHBB@id?9hex?9partial?9message@ 00000000000b7070     OpensslLib:obj_dat.obj
 0002:0001a188       ??_C@_0BJ@KCNAIDP@id?9hex?9multipart?9message@ 00000000000b7088     OpensslLib:obj_dat.obj
 0002:0001a1a8       ??_C@_0BE@DAEHFOO@generationQualifier@ 00000000000b70a8     OpensslLib:obj_dat.obj
 0002:0001a1c0       ??_C@_09NNMENHIH@pseudonym@ 00000000000b70c0     OpensslLib:obj_dat.obj
 0002:0001a1cc       ??_C@_06KKEMDFAF@id?9set@  00000000000b70cc     OpensslLib:obj_dat.obj
 0002:0001a1d8       ??_C@_0BP@KEIHJPNF@Secure?5Electronic?5Transactions@ 00000000000b70d8     OpensslLib:obj_dat.obj
 0002:0001a1f8       ??_C@_09EJPBIJJA@set?9ctype@ 00000000000b70f8     OpensslLib:obj_dat.obj
 0002:0001a208       ??_C@_0O@HJGLMADJ@content?5types@ 00000000000b7108     OpensslLib:obj_dat.obj
 0002:0001a218       ??_C@_0L@PKPEIEIJ@set?9msgExt@ 00000000000b7118     OpensslLib:obj_dat.obj
 0002:0001a228       ??_C@_0BD@LEIDLLNO@message?5extensions@ 00000000000b7128     OpensslLib:obj_dat.obj
 0002:0001a240       ??_C@_08OFDIOKIA@set?9attr@ 00000000000b7140     OpensslLib:obj_dat.obj
 0002:0001a250       ??_C@_0L@LAAAKICM@set?9policy@ 00000000000b7150     OpensslLib:obj_dat.obj
 0002:0001a260       ??_C@_0M@KEIBDDC@set?9certExt@ 00000000000b7160     OpensslLib:obj_dat.obj
 0002:0001a270       ??_C@_0BH@PDPIEGPA@certificate?5extensions@ 00000000000b7170     OpensslLib:obj_dat.obj
 0002:0001a288       ??_C@_09JHODGPNO@set?9brand@ 00000000000b7188     OpensslLib:obj_dat.obj
 0002:0001a298       ??_C@_0O@EKAPGBNN@setct?9PANData@ 00000000000b7198     OpensslLib:obj_dat.obj
 0002:0001a2a8       ??_C@_0P@LAMDLEMO@setct?9PANToken@ 00000000000b71a8     OpensslLib:obj_dat.obj
 0002:0001a2b8       ??_C@_0O@PFJCCKAL@setct?9PANOnly@ 00000000000b71b8     OpensslLib:obj_dat.obj
 0002:0001a2c8       ??_C@_0N@GHLAGDMC@setct?9OIData@ 00000000000b71c8     OpensslLib:obj_dat.obj
 0002:0001a2d8       ??_C@_08MNJJNIEC@setct?9PI@ 00000000000b71d8     OpensslLib:obj_dat.obj
 0002:0001a2e8       ??_C@_0N@PGCGIPOF@setct?9PIData@ 00000000000b71e8     OpensslLib:obj_dat.obj
 0002:0001a2f8       ??_C@_0BF@BDFGFMFJ@setct?9PIDataUnsigned@ 00000000000b71f8     OpensslLib:obj_dat.obj
 0002:0001a310       ??_C@_0P@LPBKKIBL@setct?9HODInput@ 00000000000b7210     OpensslLib:obj_dat.obj
 0002:0001a320       ??_C@_0BF@EFHLGKOJ@setct?9AuthResBaggage@ 00000000000b7220     OpensslLib:obj_dat.obj
 0002:0001a338       ??_C@_0BI@DEMAFNK@setct?9AuthRevReqBaggage@ 00000000000b7238     OpensslLib:obj_dat.obj
 0002:0001a350       ??_C@_0BI@CNLKCNFM@setct?9AuthRevResBaggage@ 00000000000b7250     OpensslLib:obj_dat.obj
 0002:0001a368       ??_C@_0BC@DDFFKACM@setct?9CapTokenSeq@ 00000000000b7268     OpensslLib:obj_dat.obj
 0002:0001a380       ??_C@_0BD@GIEGHJGD@setct?9PInitResData@ 00000000000b7280     OpensslLib:obj_dat.obj
 0002:0001a398       ??_C@_0N@GIGHFPBJ@setct?9PI?9TBS@ 00000000000b7298     OpensslLib:obj_dat.obj
 0002:0001a3a8       ??_C@_0P@NGDEPBBH@setct?9PResData@ 00000000000b72a8     OpensslLib:obj_dat.obj
 0002:0001a3b8       ??_C@_0BB@OFKINDPN@setct?9AuthReqTBS@ 00000000000b72b8     OpensslLib:obj_dat.obj
 0002:0001a3d0       ??_C@_0BB@JPGIIAJN@setct?9AuthResTBS@ 00000000000b72d0     OpensslLib:obj_dat.obj
 0002:0001a3e8       ??_C@_0BC@PMEDFACF@setct?9AuthResTBSX@ 00000000000b72e8     OpensslLib:obj_dat.obj
 0002:0001a400       ??_C@_0BD@CLPECGHJ@setct?9AuthTokenTBS@ 00000000000b7300     OpensslLib:obj_dat.obj
 0002:0001a418       ??_C@_0BD@BFGEHNIL@setct?9CapTokenData@ 00000000000b7318     OpensslLib:obj_dat.obj
 0002:0001a430       ??_C@_0BC@DEDCIONA@setct?9CapTokenTBS@ 00000000000b7330     OpensslLib:obj_dat.obj
 0002:0001a448       ??_C@_0BF@LAOAGKEH@setct?9AcqCardCodeMsg@ 00000000000b7348     OpensslLib:obj_dat.obj
 0002:0001a460       ??_C@_0BE@KBFOOHGF@setct?9AuthRevReqTBS@ 00000000000b7360     OpensslLib:obj_dat.obj
 0002:0001a478       ??_C@_0BF@ODDCPHOK@setct?9AuthRevResData@ 00000000000b7378     OpensslLib:obj_dat.obj
 0002:0001a490       ??_C@_0BE@NLJOLEAF@setct?9AuthRevResTBS@ 00000000000b7390     OpensslLib:obj_dat.obj
 0002:0001a4a8       ??_C@_0BA@KCAOGCKM@setct?9CapReqTBS@ 00000000000b73a8     OpensslLib:obj_dat.obj
 0002:0001a4b8       ??_C@_0BB@KNKADGPN@setct?9CapReqTBSX@ 00000000000b73b8     OpensslLib:obj_dat.obj
 0002:0001a4d0       ??_C@_0BB@BIJNNHL@setct?9CapResData@ 00000000000b73d0     OpensslLib:obj_dat.obj
 0002:0001a4e8       ??_C@_0BD@OELDKIB@setct?9CapRevReqTBS@ 00000000000b73e8     OpensslLib:obj_dat.obj
 0002:0001a500       ??_C@_0BE@OINDCPNA@setct?9CapRevReqTBSX@ 00000000000b7400     OpensslLib:obj_dat.obj
 0002:0001a518       ??_C@_0BE@EEPKMEFG@setct?9CapRevResData@ 00000000000b7418     OpensslLib:obj_dat.obj
 0002:0001a530       ??_C@_0BB@LDAMDCDI@setct?9CredReqTBS@ 00000000000b7430     OpensslLib:obj_dat.obj
 0002:0001a548       ??_C@_0BC@FKNDGDPA@setct?9CredReqTBSX@ 00000000000b7448     OpensslLib:obj_dat.obj
 0002:0001a560       ??_C@_0BC@PGPKIIHG@setct?9CredResData@ 00000000000b7460     OpensslLib:obj_dat.obj
 0002:0001a578       ??_C@_0BE@KAOEBGME@setct?9CredRevReqTBS@ 00000000000b7478     OpensslLib:obj_dat.obj
 0002:0001a590       ??_C@_0BF@OOMLDFOD@setct?9CredRevReqTBSX@ 00000000000b7490     OpensslLib:obj_dat.obj
 0002:0001a5a8       ??_C@_0BF@ECOCNOGF@setct?9CredRevResData@ 00000000000b74a8     OpensslLib:obj_dat.obj
 0002:0001a5c0       ??_C@_0BD@DDNGMNFC@setct?9PCertReqData@ 00000000000b74c0     OpensslLib:obj_dat.obj
 0002:0001a5d8       ??_C@_0BC@CFHCKIIA@setct?9PCertResTBS@ 00000000000b74d8     OpensslLib:obj_dat.obj
 0002:0001a5f0       ??_C@_0BI@MKKDKHGI@setct?9BatchAdminReqData@ 00000000000b74f0     OpensslLib:obj_dat.obj
 0002:0001a608       ??_C@_0BI@IHGLAGGD@setct?9BatchAdminResData@ 00000000000b7508     OpensslLib:obj_dat.obj
 0002:0001a620       ??_C@_0BG@OMHIHPPP@setct?9CardCInitResTBS@ 00000000000b7520     OpensslLib:obj_dat.obj
 0002:0001a638       ??_C@_0BG@DIBJJIJB@setct?9MeAqCInitResTBS@ 00000000000b7538     OpensslLib:obj_dat.obj
 0002:0001a650       ??_C@_0BE@KOFLJLPI@setct?9RegFormResTBS@ 00000000000b7550     OpensslLib:obj_dat.obj
 0002:0001a668       ??_C@_0BC@FFENCANF@setct?9CertReqData@ 00000000000b7568     OpensslLib:obj_dat.obj
 0002:0001a680       ??_C@_0BB@MCGELGDK@setct?9CertReqTBS@ 00000000000b7580     OpensslLib:obj_dat.obj
 0002:0001a698       ??_C@_0BC@BIIFIBNO@setct?9CertResData@ 00000000000b7598     OpensslLib:obj_dat.obj
 0002:0001a6b0       ??_C@_0BE@OIDIJLCF@setct?9CertInqReqTBS@ 00000000000b75b0     OpensslLib:obj_dat.obj
 0002:0001a6c8       ??_C@_0P@DLHKHMDJ@setct?9ErrorTBS@ 00000000000b75c8     OpensslLib:obj_dat.obj
 0002:0001a6d8       ??_C@_0BG@JDDNBPAG@setct?9PIDualSignedTBE@ 00000000000b75d8     OpensslLib:obj_dat.obj
 0002:0001a6f0       ??_C@_0BE@IBOAPLDD@setct?9PIUnsignedTBE@ 00000000000b75f0     OpensslLib:obj_dat.obj
 0002:0001a708       ??_C@_0BB@PJDAGGCK@setct?9AuthReqTBE@ 00000000000b7608     OpensslLib:obj_dat.obj
 0002:0001a720       ??_C@_0BB@IDPADFEK@setct?9AuthResTBE@ 00000000000b7620     OpensslLib:obj_dat.obj
 0002:0001a738       ??_C@_0BC@OEOIIPOH@setct?9AuthResTBEX@ 00000000000b7638     OpensslLib:obj_dat.obj
 0002:0001a750       ??_C@_0BD@DHGMJDKO@setct?9AuthTokenTBE@ 00000000000b7650     OpensslLib:obj_dat.obj
 0002:0001a768       ??_C@_0BC@CIKKDLAH@setct?9CapTokenTBE@ 00000000000b7668     OpensslLib:obj_dat.obj
 0002:0001a780       ??_C@_0BD@OMCOOIME@setct?9CapTokenTBEX@ 00000000000b7680     OpensslLib:obj_dat.obj
 0002:0001a798       ??_C@_0BI@PALCIALL@setct?9AcqCardCodeMsgTBE@ 00000000000b7698     OpensslLib:obj_dat.obj
 0002:0001a7b0       ??_C@_0BE@LNMGFCLC@setct?9AuthRevReqTBE@ 00000000000b76b0     OpensslLib:obj_dat.obj
 0002:0001a7c8       ??_C@_0BE@MHAGABNC@setct?9AuthRevResTBE@ 00000000000b76c8     OpensslLib:obj_dat.obj
 0002:0001a7e0       ??_C@_0BF@KKFFJIHO@setct?9AuthRevResTBEB@ 00000000000b76e0     OpensslLib:obj_dat.obj
 0002:0001a7f8       ??_C@_0BA@LOJGNHHL@setct?9CapReqTBE@ 00000000000b76f8     OpensslLib:obj_dat.obj
 0002:0001a808       ??_C@_0BB@LFALOJDP@setct?9CapReqTBEX@ 00000000000b7708     OpensslLib:obj_dat.obj
 0002:0001a820       ??_C@_0BA@MEFGIEBL@setct?9CapResTBE@ 00000000000b7720     OpensslLib:obj_dat.obj
 0002:0001a830       ??_C@_0BD@BCNDIPFG@setct?9CapRevReqTBE@ 00000000000b7730     OpensslLib:obj_dat.obj
 0002:0001a848       ??_C@_0BE@PAHIPABC@setct?9CapRevReqTBEX@ 00000000000b7748     OpensslLib:obj_dat.obj
 0002:0001a860       ??_C@_0BD@GIBDNMDG@setct?9CapRevResTBE@ 00000000000b7760     OpensslLib:obj_dat.obj
 0002:0001a878       ??_C@_0BB@KPJEIHOP@setct?9CredReqTBE@ 00000000000b7778     OpensslLib:obj_dat.obj
 0002:0001a890       ??_C@_0BC@ECHILMDC@setct?9CredReqTBEX@ 00000000000b7790     OpensslLib:obj_dat.obj
 0002:0001a8a8       ??_C@_0BB@NFFENEIP@setct?9CredResTBE@ 00000000000b77a8     OpensslLib:obj_dat.obj
 0002:0001a8c0       ??_C@_0BE@LMHMKDBD@setct?9CredRevReqTBE@ 00000000000b77c0     OpensslLib:obj_dat.obj
 0002:0001a8d8       ??_C@_0BF@PGGAOKCB@setct?9CredRevReqTBEX@ 00000000000b77d8     OpensslLib:obj_dat.obj
 0002:0001a8f0       ??_C@_0BE@MGLMPAHD@setct?9CredRevResTBE@ 00000000000b77f0     OpensslLib:obj_dat.obj
 0002:0001a908       ??_C@_0BH@IPJPBLKL@setct?9BatchAdminReqTBE@ 00000000000b7808     OpensslLib:obj_dat.obj
 0002:0001a920       ??_C@_0BH@PFFPEIML@setct?9BatchAdminResTBE@ 00000000000b7820     OpensslLib:obj_dat.obj
 0002:0001a938       ??_C@_0BE@MIADHNEP@setct?9RegFormReqTBE@ 00000000000b7838     OpensslLib:obj_dat.obj
 0002:0001a950       ??_C@_0BB@NOPMADON@setct?9CertReqTBE@ 00000000000b7850     OpensslLib:obj_dat.obj
 0002:0001a968       ??_C@_0BC@KMAHLFJK@setct?9CertReqTBEX@ 00000000000b7868     OpensslLib:obj_dat.obj
 0002:0001a980       ??_C@_0BB@KEDMFAIN@setct?9CertResTBE@ 00000000000b7880     OpensslLib:obj_dat.obj
 0002:0001a998       ??_C@_0BJ@KMIJGANO@setct?9CRLNotificationTBS@ 00000000000b7898     OpensslLib:obj_dat.obj
 0002:0001a9b8       ??_C@_0BM@GINBKIMJ@setct?9CRLNotificationResTBS@ 00000000000b78b8     OpensslLib:obj_dat.obj
 0002:0001a9d8       ??_C@_0BJ@BPGLEKIJ@setct?9BCIDistributionTBS@ 00000000000b78d8     OpensslLib:obj_dat.obj
 0002:0001a9f8       ??_C@_0BA@NKJJMGPC@setext?9genCrypt@ 00000000000b78f8     OpensslLib:obj_dat.obj
 0002:0001aa08       ??_C@_0BD@IMJHIOH@generic?5cryptogram@ 00000000000b7908     OpensslLib:obj_dat.obj
 0002:0001aa20       ??_C@_0O@IFMPKKOL@setext?9miAuth@ 00000000000b7920     OpensslLib:obj_dat.obj
 0002:0001aa30       ??_C@_0BI@IMGNFPLI@merchant?5initiated?5auth@ 00000000000b7930     OpensslLib:obj_dat.obj
 0002:0001aa48       ??_C@_0BB@IKLFBNP@setext?9pinSecure@ 00000000000b7948     OpensslLib:obj_dat.obj
 0002:0001aa60       ??_C@_0O@PNHGIFHA@setext?9pinAny@ 00000000000b7960     OpensslLib:obj_dat.obj
 0002:0001aa70       ??_C@_0O@PNAFPHHK@setext?9track2@ 00000000000b7970     OpensslLib:obj_dat.obj
 0002:0001aa80       ??_C@_09GMOEIEJI@setext?9cv@ 00000000000b7980     OpensslLib:obj_dat.obj
 0002:0001aa90       ??_C@_0BI@MFPOFNGC@additional?5verification@ 00000000000b7990     OpensslLib:obj_dat.obj
 0002:0001aaa8       ??_C@_0BA@DLJGCPKK@set?9policy?9root@ 00000000000b79a8     OpensslLib:obj_dat.obj
 0002:0001aab8       ??_C@_0BD@MELPLACB@setCext?9hashedRoot@ 00000000000b79b8     OpensslLib:obj_dat.obj
 0002:0001aad0       ??_C@_0BB@LHGCHNFD@setCext?9certType@ 00000000000b79d0     OpensslLib:obj_dat.obj
 0002:0001aae8       ??_C@_0BC@ONMLOIHK@setCext?9merchData@ 00000000000b79e8     OpensslLib:obj_dat.obj
 0002:0001ab00       ??_C@_0BG@CMNKGOHO@setCext?9cCertRequired@ 00000000000b7a00     OpensslLib:obj_dat.obj
 0002:0001ab18       ??_C@_0BC@BPADJLFJ@setCext?9tunneling@ 00000000000b7a18     OpensslLib:obj_dat.obj
 0002:0001ab30       ??_C@_0P@DFHCPLJG@setCext?9setExt@ 00000000000b7a30     OpensslLib:obj_dat.obj
 0002:0001ab40       ??_C@_0BB@HIAOOOIO@setCext?9setQualf@ 00000000000b7a40     OpensslLib:obj_dat.obj
 0002:0001ab58       ??_C@_0BJ@CNLNHONG@setCext?9PGWYcapabilities@ 00000000000b7a58     OpensslLib:obj_dat.obj
 0002:0001ab78       ??_C@_0BI@FIIEHNL@setCext?9TokenIdentifier@ 00000000000b7a78     OpensslLib:obj_dat.obj
 0002:0001ab90       ??_C@_0BD@FHFLAKJD@setCext?9Track2Data@ 00000000000b7a90     OpensslLib:obj_dat.obj
 0002:0001aba8       ??_C@_0BC@KMFGLCBL@setCext?9TokenType@ 00000000000b7aa8     OpensslLib:obj_dat.obj
 0002:0001abc0       ??_C@_0BL@OLCLGJDA@setCext?9IssuerCapabilities@ 00000000000b7ac0     OpensslLib:obj_dat.obj
 0002:0001abe0       ??_C@_0N@DCNKAAPN@setAttr?9Cert@ 00000000000b7ae0     OpensslLib:obj_dat.obj
 0002:0001abf0       ??_C@_0BA@FAIFDKDK@setAttr?9PGWYcap@ 00000000000b7af0     OpensslLib:obj_dat.obj
 0002:0001ac00       ??_C@_0BN@HEFBDPEB@payment?5gateway?5capabilities@ 00000000000b7b00     OpensslLib:obj_dat.obj
 0002:0001ac20       ??_C@_0BC@IKOKMCIL@setAttr?9TokenType@ 00000000000b7b20     OpensslLib:obj_dat.obj
 0002:0001ac38       ??_C@_0P@OGFLCCKL@setAttr?9IssCap@ 00000000000b7b38     OpensslLib:obj_dat.obj
 0002:0001ac48       ??_C@_0BE@HBDPGKCG@issuer?5capabilities@ 00000000000b7b48     OpensslLib:obj_dat.obj
 0002:0001ac60       ??_C@_0BB@MADMNAKK@set?9rootKeyThumb@ 00000000000b7b60     OpensslLib:obj_dat.obj
 0002:0001ac78       ??_C@_0O@NOCONBCM@set?9addPolicy@ 00000000000b7b78     OpensslLib:obj_dat.obj
 0002:0001ac88       ??_C@_0BC@BMANBENP@setAttr?9Token?9EMV@ 00000000000b7b88     OpensslLib:obj_dat.obj
 0002:0001aca0       ??_C@_0BG@ICNBHDJ@setAttr?9Token?9B0Prime@ 00000000000b7ba0     OpensslLib:obj_dat.obj
 0002:0001acb8       ??_C@_0BD@CMJDLAHE@setAttr?9IssCap?9CVM@ 00000000000b7bb8     OpensslLib:obj_dat.obj
 0002:0001acd0       ??_C@_0BC@FKLLNJMF@setAttr?9IssCap?9T2@ 00000000000b7bd0     OpensslLib:obj_dat.obj
 0002:0001ace8       ??_C@_0BD@DMNGIJGO@setAttr?9IssCap?9Sig@ 00000000000b7be8     OpensslLib:obj_dat.obj
 0002:0001ad00       ??_C@_0BE@FJCINFHM@setAttr?9GenCryptgrm@ 00000000000b7c00     OpensslLib:obj_dat.obj
 0002:0001ad18       ??_C@_0BE@BANBLNDJ@generate?5cryptogram@ 00000000000b7c18     OpensslLib:obj_dat.obj
 0002:0001ad30       ??_C@_0O@GFEDKLID@setAttr?9T2Enc@ 00000000000b7c30     OpensslLib:obj_dat.obj
 0002:0001ad40       ??_C@_0BC@MCHFBPJF@encrypted?5track?52@ 00000000000b7c40     OpensslLib:obj_dat.obj
 0002:0001ad58       ??_C@_0BD@GDDCOMNC@setAttr?9T2cleartxt@ 00000000000b7c58     OpensslLib:obj_dat.obj
 0002:0001ad70       ??_C@_0BC@EEELFHMJ@cleartext?5track?52@ 00000000000b7c70     OpensslLib:obj_dat.obj
 0002:0001ad88       ??_C@_0BC@KFHJNGAA@setAttr?9TokICCsig@ 00000000000b7c88     OpensslLib:obj_dat.obj
 0002:0001ada0       ??_C@_0BH@FLMFBHA@ICC?5or?5token?5signature@ 00000000000b7ca0     OpensslLib:obj_dat.obj
 0002:0001adb8       ??_C@_0BC@HILPEDHB@setAttr?9SecDevSig@ 00000000000b7cb8     OpensslLib:obj_dat.obj
 0002:0001add0       ??_C@_0BI@BMDLNIII@secure?5device?5signature@ 00000000000b7cd0     OpensslLib:obj_dat.obj
 0002:0001ade8       ??_C@_0BD@EBDAHFCK@set?9brand?9IATA?9ATA@ 00000000000b7ce8     OpensslLib:obj_dat.obj
 0002:0001ae00       ??_C@_0BB@MJOMIBOM@set?9brand?9Diners@ 00000000000b7d00     OpensslLib:obj_dat.obj
 0002:0001ae18       ??_C@_0BK@NGHCPIFJ@set?9brand?9AmericanExpress@ 00000000000b7d18     OpensslLib:obj_dat.obj
 0002:0001ae38       ??_C@_0O@ODFDKJIN@set?9brand?9JCB@ 00000000000b7d38     OpensslLib:obj_dat.obj
 0002:0001ae48       ??_C@_0P@KADKEMKM@set?9brand?9Visa@ 00000000000b7d48     OpensslLib:obj_dat.obj
 0002:0001ae58       ??_C@_0BF@EKCBHCKG@set?9brand?9MasterCard@ 00000000000b7d58     OpensslLib:obj_dat.obj
 0002:0001ae70       ??_C@_0BA@JHOGHBHC@set?9brand?9Novus@ 00000000000b7d70     OpensslLib:obj_dat.obj
 0002:0001ae80       ??_C@_08IHLOILPC@DES?9CDMF@ 00000000000b7d80     OpensslLib:obj_dat.obj
 0002:0001ae90       ??_C@_08PPLOLAOD@des?9cdmf@ 00000000000b7d90     OpensslLib:obj_dat.obj
 0002:0001aea0       ??_C@_0BF@EIIDBKMM@rsaOAEPEncryptionSET@ 00000000000b7da0     OpensslLib:obj_dat.obj
 0002:0001aeb8       ??_C@_05LJGINOIA@ITU?9T@   00000000000b7db8     OpensslLib:obj_dat.obj
 0002:0001aec0       ??_C@_05EKLDHPCO@itu?9t@   00000000000b7dc0     OpensslLib:obj_dat.obj
 0002:0001aec8       ??_C@_0BA@NPJCPIN@JOINT?9ISO?9ITU?9T@ 00000000000b7dc8     OpensslLib:obj_dat.obj
 0002:0001aed8       ??_C@_0BA@DDCJMADA@joint?9iso?9itu?9t@ 00000000000b7dd8     OpensslLib:obj_dat.obj
 0002:0001aee8       ??_C@_0BM@PBBEOBAP@international?9organizations@ 00000000000b7de8     OpensslLib:obj_dat.obj
 0002:0001af08       ??_C@_0BM@PGMBEIHL@International?5Organizations@ 00000000000b7e08     OpensslLib:obj_dat.obj
 0002:0001af28       ??_C@_0BB@MJPMDGHF@msSmartcardLogin@ 00000000000b7e28     OpensslLib:obj_dat.obj
 0002:0001af40       ??_C@_0BK@BJLJNHIE@Microsoft?5Smartcard?5Login@ 00000000000b7e40     OpensslLib:obj_dat.obj
 0002:0001af5c       ??_C@_05LKLAGLGM@msUPN@    00000000000b7e5c     OpensslLib:obj_dat.obj
 0002:0001af68       ??_C@_0BO@NJMDLJHK@Microsoft?5User?5Principal?5Name@ 00000000000b7e68     OpensslLib:obj_dat.obj
 0002:0001af88       ??_C@_0N@KJNMAENO@AES?9128?9CFB1@ 00000000000b7e88     OpensslLib:obj_dat.obj
 0002:0001af98       ??_C@_0N@NNLBNNNO@aes?9128?9cfb1@ 00000000000b7e98     OpensslLib:obj_dat.obj
 0002:0001afa8       ??_C@_0N@FAMGEHMG@AES?9192?9CFB1@ 00000000000b7ea8     OpensslLib:obj_dat.obj
 0002:0001afb8       ??_C@_0N@CEKLJOMG@aes?9192?9cfb1@ 00000000000b7eb8     OpensslLib:obj_dat.obj
 0002:0001afc8       ??_C@_0N@MKKLEKFP@AES?9256?9CFB1@ 00000000000b7ec8     OpensslLib:obj_dat.obj
 0002:0001afd8       ??_C@_0N@LOMGJDFP@aes?9256?9cfb1@ 00000000000b7ed8     OpensslLib:obj_dat.obj
 0002:0001afe8       ??_C@_0N@HIBOLPJH@AES?9128?9CFB8@ 00000000000b7ee8     OpensslLib:obj_dat.obj
 0002:0001aff8       ??_C@_0N@MHDGGJH@aes?9128?9cfb8@ 00000000000b7ef8     OpensslLib:obj_dat.obj
 0002:0001b008       ??_C@_0N@IBAEPMIP@AES?9192?9CFB8@ 00000000000b7f08     OpensslLib:obj_dat.obj
 0002:0001b018       ??_C@_0N@PFGJCFIP@aes?9192?9cfb8@ 00000000000b7f18     OpensslLib:obj_dat.obj
 0002:0001b028       ??_C@_0N@BLGJPBBG@AES?9256?9CFB8@ 00000000000b7f28     OpensslLib:obj_dat.obj
 0002:0001b038       ??_C@_0N@GPAECIBG@aes?9256?9cfb8@ 00000000000b7f38     OpensslLib:obj_dat.obj
 0002:0001b048       ??_C@_08EGJFOLHF@DES?9CFB1@ 00000000000b7f48     OpensslLib:obj_dat.obj
 0002:0001b058       ??_C@_08KLBBPEMG@des?9cfb1@ 00000000000b7f58     OpensslLib:obj_dat.obj
 0002:0001b068       ??_C@_08JHFHFADM@DES?9CFB8@ 00000000000b7f68     OpensslLib:obj_dat.obj
 0002:0001b078       ??_C@_08HKNDEPIP@des?9cfb8@ 00000000000b7f78     OpensslLib:obj_dat.obj
 0002:0001b088       ??_C@_0O@HMFIBGGD@DES?9EDE3?9CFB1@ 00000000000b7f88     OpensslLib:obj_dat.obj
 0002:0001b098       ??_C@_0O@HHBHNLEJ@des?9ede3?9cfb1@ 00000000000b7f98     OpensslLib:obj_dat.obj
 0002:0001b0a8       ??_C@_0O@KNJKKNCK@DES?9EDE3?9CFB8@ 00000000000b7fa8     OpensslLib:obj_dat.obj
 0002:0001b0b8       ??_C@_0O@KGNFGAAA@des?9ede3?9cfb8@ 00000000000b7fb8     OpensslLib:obj_dat.obj
 0002:0001b0c8       ??_C@_06KFAFKEEH@street@   00000000000b7fc8     OpensslLib:obj_dat.obj
 0002:0001b0d0       ??_C@_0O@GFJANBCD@streetAddress@ 00000000000b7fd0     OpensslLib:obj_dat.obj
 0002:0001b0e0       ??_C@_0L@NCDHJCMF@postalCode@ 00000000000b7fe0     OpensslLib:obj_dat.obj
 0002:0001b0ec       ??_C@_06CAAPGDCJ@id?9ppl@  00000000000b7fec     OpensslLib:obj_dat.obj
 0002:0001b0f8       ??_C@_0O@LOINHHBF@proxyCertInfo@ 00000000000b7ff8     OpensslLib:obj_dat.obj
 0002:0001b108       ??_C@_0BO@CCHFGBDO@Proxy?5Certificate?5Information@ 00000000000b8008     OpensslLib:obj_dat.obj
 0002:0001b128       ??_C@_0BD@HNCKDFAM@id?9ppl?9anyLanguage@ 00000000000b8028     OpensslLib:obj_dat.obj
 0002:0001b140       ??_C@_0N@BEBFEGLC@Any?5language@ 00000000000b8040     OpensslLib:obj_dat.obj
 0002:0001b150       ??_C@_0BC@PCEJIIF@id?9ppl?9inheritAll@ 00000000000b8050     OpensslLib:obj_dat.obj
 0002:0001b168       ??_C@_0M@FFLAPACB@Inherit?5all@ 00000000000b8068     OpensslLib:obj_dat.obj
 0002:0001b178       ??_C@_0BA@NDBMPGLN@nameConstraints@ 00000000000b8078     OpensslLib:obj_dat.obj
 0002:0001b188       ??_C@_0BI@MLJLAGL@X509v3?5Name?5Constraints@ 00000000000b8088     OpensslLib:obj_dat.obj
 0002:0001b1a0       ??_C@_0BD@JMNHHICP@id?9ppl?9independent@ 00000000000b80a0     OpensslLib:obj_dat.obj
 0002:0001b1b8       ??_C@_0M@MLMKHJLC@Independent@ 00000000000b80b8     OpensslLib:obj_dat.obj
 0002:0001b1c8       ??_C@_0L@CICIPLII@RSA?9SHA256@ 00000000000b80c8     OpensslLib:obj_dat.obj
 0002:0001b1d8       ??_C@_0BI@OLMNBFHG@sha256WithRSAEncryption@ 00000000000b80d8     OpensslLib:obj_dat.obj
 0002:0001b1f0       ??_C@_0L@KKHKGNDM@RSA?9SHA384@ 00000000000b80f0     OpensslLib:obj_dat.obj
 0002:0001b200       ??_C@_0BI@LGPCJGLE@sha384WithRSAEncryption@ 00000000000b8100     OpensslLib:obj_dat.obj
 0002:0001b218       ??_C@_0L@NGJKKOOJ@RSA?9SHA512@ 00000000000b8118     OpensslLib:obj_dat.obj
 0002:0001b228       ??_C@_0BI@CFKPHFJF@sha512WithRSAEncryption@ 00000000000b8128     OpensslLib:obj_dat.obj
 0002:0001b240       ??_C@_0L@BPFBIPIP@RSA?9SHA224@ 00000000000b8140     OpensslLib:obj_dat.obj
 0002:0001b250       ??_C@_0BI@HODNLFBE@sha224WithRSAEncryption@ 00000000000b8150     OpensslLib:obj_dat.obj
 0002:0001b268       ??_C@_06OHILPNJ@sha256@    00000000000b8168     OpensslLib:obj_dat.obj
 0002:0001b270       ??_C@_06IMCKCJGN@sha384@   00000000000b8170     OpensslLib:obj_dat.obj
 0002:0001b278       ??_C@_06PJBKPJBG@SHA512@   00000000000b8178     OpensslLib:obj_dat.obj
 0002:0001b280       ??_C@_06PAMKOKLI@sha512@   00000000000b8180     OpensslLib:obj_dat.obj
 0002:0001b288       ??_C@_06DANBNIHA@SHA224@   00000000000b8188     OpensslLib:obj_dat.obj
 0002:0001b290       ??_C@_06DJABMLNO@sha224@   00000000000b8190     OpensslLib:obj_dat.obj
 0002:0001b298       ??_C@_0BI@NDBFOMIA@identified?9organization@ 00000000000b8198     OpensslLib:obj_dat.obj
 0002:0001b2b0       ??_C@_0N@GOPBJFID@certicom?9arc@ 00000000000b81b0     OpensslLib:obj_dat.obj
 0002:0001b2c0       ??_C@_03EOHJGACH@wap@      00000000000b81c0     OpensslLib:obj_dat.obj
 0002:0001b2c8       ??_C@_07KJBJKKHG@wap?9wsg@ 00000000000b81c8     OpensslLib:obj_dat.obj
 0002:0001b2d0       ??_C@_0BM@PPOCDOAJ@id?9characteristic?9two?9basis@ 00000000000b81d0     OpensslLib:obj_dat.obj
 0002:0001b2f0       ??_C@_07JEMDIFEL@onBasis@  00000000000b81f0     OpensslLib:obj_dat.obj
 0002:0001b2f8       ??_C@_07ICPDEPKF@tpBasis@  00000000000b81f8     OpensslLib:obj_dat.obj
 0002:0001b300       ??_C@_07GLJEBFP@ppBasis@   00000000000b8200     OpensslLib:obj_dat.obj
 0002:0001b308       ??_C@_0L@INFLBNIO@c2pnb163v1@ 00000000000b8208     OpensslLib:obj_dat.obj
 0002:0001b318       ??_C@_0L@KGHGEOEN@c2pnb163v2@ 00000000000b8218     OpensslLib:obj_dat.obj
 0002:0001b328       ??_C@_0L@LPGNHPAM@c2pnb163v3@ 00000000000b8228     OpensslLib:obj_dat.obj
 0002:0001b338       ??_C@_0L@IHOFMEAM@c2pnb176v1@ 00000000000b8238     OpensslLib:obj_dat.obj
 0002:0001b348       ??_C@_0L@PIOOBDNI@c2tnb191v1@ 00000000000b8248     OpensslLib:obj_dat.obj
 0002:0001b358       ??_C@_0L@NDMDEABL@c2tnb191v2@ 00000000000b8258     OpensslLib:obj_dat.obj
 0002:0001b368       ??_C@_0L@MKNIHBFK@c2tnb191v3@ 00000000000b8268     OpensslLib:obj_dat.obj
 0002:0001b378       ??_C@_0L@KLAMDLDB@c2onb191v4@ 00000000000b8278     OpensslLib:obj_dat.obj
 0002:0001b388       ??_C@_0L@LCBHAKHA@c2onb191v5@ 00000000000b8288     OpensslLib:obj_dat.obj
 0002:0001b398       ??_C@_0L@FCEMHHLG@c2pnb208w1@ 00000000000b8298     OpensslLib:obj_dat.obj
 0002:0001b3a8       ??_C@_0L@PBHOFBDI@c2tnb239v1@ 00000000000b82a8     OpensslLib:obj_dat.obj
 0002:0001b3b8       ??_C@_0L@NKFDACPL@c2tnb239v2@ 00000000000b82b8     OpensslLib:obj_dat.obj
 0002:0001b3c8       ??_C@_0L@MDEIDDLK@c2tnb239v3@ 00000000000b82c8     OpensslLib:obj_dat.obj
 0002:0001b3d8       ??_C@_0L@KCJMHJNB@c2onb239v4@ 00000000000b82d8     OpensslLib:obj_dat.obj
 0002:0001b3e8       ??_C@_0L@LLIHEIJA@c2onb239v5@ 00000000000b82e8     OpensslLib:obj_dat.obj
 0002:0001b3f8       ??_C@_0L@IPNBELMC@c2pnb272w1@ 00000000000b82f8     OpensslLib:obj_dat.obj
 0002:0001b408       ??_C@_0L@NDMGBLKL@c2pnb304w1@ 00000000000b8308     OpensslLib:obj_dat.obj
 0002:0001b418       ??_C@_0L@LFGCHHDN@c2tnb359v1@ 00000000000b8318     OpensslLib:obj_dat.obj
 0002:0001b428       ??_C@_0L@BGFAFBLD@c2pnb368w1@ 00000000000b8328     OpensslLib:obj_dat.obj
 0002:0001b438       ??_C@_0L@OFJKDCBG@c2tnb431r1@ 00000000000b8338     OpensslLib:obj_dat.obj
 0002:0001b448       ??_C@_09DNJONEBC@secp112r1@ 00000000000b8348     OpensslLib:obj_dat.obj
 0002:0001b458       ??_C@_09BGLDIHNB@secp112r2@ 00000000000b8358     OpensslLib:obj_dat.obj
 0002:0001b468       ??_C@_09BFIDEOKG@secp128r1@ 00000000000b8368     OpensslLib:obj_dat.obj
 0002:0001b478       ??_C@_09DOKOBNGF@secp128r2@ 00000000000b8378     OpensslLib:obj_dat.obj
 0002:0001b488       ??_C@_09DGEAFIHG@secp160k1@ 00000000000b8388     OpensslLib:obj_dat.obj
 0002:0001b498       ??_C@_09CFLHMAIJ@secp160r1@ 00000000000b8398     OpensslLib:obj_dat.obj
 0002:0001b4a8       ??_C@_09OJKJDEK@secp160r2@ 00000000000b83a8     OpensslLib:obj_dat.obj
 0002:0001b4b8       ??_C@_09BOBJAHCM@secp192k1@ 00000000000b83b8     OpensslLib:obj_dat.obj
 0002:0001b4c8       ??_C@_09MKDGBLEP@secp224k1@ 00000000000b83c8     OpensslLib:obj_dat.obj
 0002:0001b4d8       ??_C@_09NJMBIDLA@secp224r1@ 00000000000b83d8     OpensslLib:obj_dat.obj
 0002:0001b4e8       ??_C@_09NCBPAPNE@secp256k1@ 00000000000b83e8     OpensslLib:obj_dat.obj
 0002:0001b4f8       ??_C@_09FICNEILE@secp384r1@ 00000000000b83f8     OpensslLib:obj_dat.obj
 0002:0001b508       ??_C@_09PDBKEDDK@secp521r1@ 00000000000b8408     OpensslLib:obj_dat.obj
 0002:0001b518       ??_C@_09HBGNJHGE@sect113r1@ 00000000000b8418     OpensslLib:obj_dat.obj
 0002:0001b528       ??_C@_09FKEAMEKH@sect113r2@ 00000000000b8428     OpensslLib:obj_dat.obj
 0002:0001b538       ??_C@_09KBKEAMIP@sect131r1@ 00000000000b8438     OpensslLib:obj_dat.obj
 0002:0001b548       ??_C@_09IKIJFPEM@sect131r2@ 00000000000b8448     OpensslLib:obj_dat.obj
 0002:0001b558       ??_C@_09NALKNDIL@sect163k1@ 00000000000b8458     OpensslLib:obj_dat.obj
 0002:0001b568       ??_C@_09MDENELHE@sect163r1@ 00000000000b8468     OpensslLib:obj_dat.obj
 0002:0001b578       ??_C@_09OIGABILH@sect163r2@ 00000000000b8478     OpensslLib:obj_dat.obj
 0002:0001b588       ??_C@_09EBBNNMKF@sect193r1@ 00000000000b8488     OpensslLib:obj_dat.obj
 0002:0001b598       ??_C@_09GKDAIPGG@sect193r2@ 00000000000b8498     OpensslLib:obj_dat.obj
 0002:0001b5a8       ??_C@_09JOMOCOFF@sect233k1@ 00000000000b84a8     OpensslLib:obj_dat.obj
 0002:0001b5b8       ??_C@_09INDJLGKK@sect233r1@ 00000000000b84b8     OpensslLib:obj_dat.obj
 0002:0001b5c8       ??_C@_09PBHDMODB@sect239k1@ 00000000000b84c8     OpensslLib:obj_dat.obj
 0002:0001b5d8       ??_C@_09OJBOBPEE@sect283k1@ 00000000000b84d8     OpensslLib:obj_dat.obj
 0002:0001b5e8       ??_C@_09PKOJIHLL@sect283r1@ 00000000000b84e8     OpensslLib:obj_dat.obj
 0002:0001b5f8       ??_C@_09GAIKFHPM@sect409k1@ 00000000000b84f8     OpensslLib:obj_dat.obj
 0002:0001b608       ??_C@_09HDHNMPAD@sect409r1@ 00000000000b8508     OpensslLib:obj_dat.obj
 0002:0001b618       ??_C@_09NMECHAKG@sect571k1@ 00000000000b8518     OpensslLib:obj_dat.obj
 0002:0001b628       ??_C@_09MPLFOIFJ@sect571r1@ 00000000000b8528     OpensslLib:obj_dat.obj
 0002:0001b638       ??_C@_0BH@PEHFMMHF@wap?9wsg?9idm?9ecid?9wtls1@ 00000000000b8538     OpensslLib:obj_dat.obj
 0002:0001b650       ??_C@_0BH@MGEDKOPH@wap?9wsg?9idm?9ecid?9wtls3@ 00000000000b8550     OpensslLib:obj_dat.obj
 0002:0001b668       ??_C@_0BH@IJACDIDA@wap?9wsg?9idm?9ecid?9wtls4@ 00000000000b8568     OpensslLib:obj_dat.obj
 0002:0001b680       ??_C@_0BH@JABJAJHB@wap?9wsg?9idm?9ecid?9wtls5@ 00000000000b8580     OpensslLib:obj_dat.obj
 0002:0001b698       ??_C@_0BH@LLDEFKLC@wap?9wsg?9idm?9ecid?9wtls6@ 00000000000b8598     OpensslLib:obj_dat.obj
 0002:0001b6b0       ??_C@_0BH@KCCPGLPD@wap?9wsg?9idm?9ecid?9wtls7@ 00000000000b85b0     OpensslLib:obj_dat.obj
 0002:0001b6c8       ??_C@_0BH@CFLHHHDM@wap?9wsg?9idm?9ecid?9wtls8@ 00000000000b85c8     OpensslLib:obj_dat.obj
 0002:0001b6e0       ??_C@_0BH@DMKMEGHN@wap?9wsg?9idm?9ecid?9wtls9@ 00000000000b85e0     OpensslLib:obj_dat.obj
 0002:0001b6f8       ??_C@_0BI@PPNNMGIM@wap?9wsg?9idm?9ecid?9wtls10@ 00000000000b85f8     OpensslLib:obj_dat.obj
 0002:0001b710       ??_C@_0BI@OGMGPHMN@wap?9wsg?9idm?9ecid?9wtls11@ 00000000000b8610     OpensslLib:obj_dat.obj
 0002:0001b728       ??_C@_0BI@MNOLKEAO@wap?9wsg?9idm?9ecid?9wtls12@ 00000000000b8628     OpensslLib:obj_dat.obj
 0002:0001b740       ??_C@_09HBBJOJHB@anyPolicy@ 00000000000b8640     OpensslLib:obj_dat.obj
 0002:0001b750       ??_C@_0BC@CEEMIAHF@X509v3?5Any?5Policy@ 00000000000b8650     OpensslLib:obj_dat.obj
 0002:0001b768       ??_C@_0P@MEGGINDP@policyMappings@ 00000000000b8668     OpensslLib:obj_dat.obj
 0002:0001b778       ??_C@_0BH@NJBPACCN@X509v3?5Policy?5Mappings@ 00000000000b8678     OpensslLib:obj_dat.obj
 0002:0001b790       ??_C@_0BB@CFCCDKGF@inhibitAnyPolicy@ 00000000000b8690     OpensslLib:obj_dat.obj
 0002:0001b7a8       ??_C@_0BK@FPAAFIAO@X509v3?5Inhibit?5Any?5Policy@ 00000000000b86a8     OpensslLib:obj_dat.obj
 0002:0001b7c8       ??_C@_0O@BLJEJBFH@Oakley?9EC2N?93@ 00000000000b86c8     OpensslLib:obj_dat.obj
 0002:0001b7d8       ??_C@_06HLOPKJBB@ipsec3@   00000000000b86d8     OpensslLib:obj_dat.obj
 0002:0001b7e0       ??_C@_0O@FENFAHJA@Oakley?9EC2N?94@ 00000000000b86e0     OpensslLib:obj_dat.obj
 0002:0001b7f0       ??_C@_06DEKODPNG@ipsec4@   00000000000b86f0     OpensslLib:obj_dat.obj
 0002:0001b7f8       ??_C@_0BB@HAKAAAMD@CAMELLIA?9128?9CBC@ 00000000000b86f8     OpensslLib:obj_dat.obj
 0002:0001b810       ??_C@_0BB@GDOINOHE@camellia?9128?9cbc@ 00000000000b8710     OpensslLib:obj_dat.obj
 0002:0001b828       ??_C@_0BB@NDDMHHFP@CAMELLIA?9192?9CBC@ 00000000000b8728     OpensslLib:obj_dat.obj
 0002:0001b840       ??_C@_0BB@MAHEKJOI@camellia?9192?9cbc@ 00000000000b8740     OpensslLib:obj_dat.obj
 0002:0001b858       ??_C@_0BB@BICFINO@CAMELLIA?9256?9CBC@ 00000000000b8758     OpensslLib:obj_dat.obj
 0002:0001b870       ??_C@_0BB@BCMKIGGJ@camellia?9256?9cbc@ 00000000000b8770     OpensslLib:obj_dat.obj
 0002:0001b888       ??_C@_0BB@ENBCAEGJ@CAMELLIA?9128?9ECB@ 00000000000b8788     OpensslLib:obj_dat.obj
 0002:0001b8a0       ??_C@_0BB@FOFKNKNO@camellia?9128?9ecb@ 00000000000b87a0     OpensslLib:obj_dat.obj
 0002:0001b8b8       ??_C@_0BB@OOIOHDPF@CAMELLIA?9192?9ECB@ 00000000000b87b8     OpensslLib:obj_dat.obj
 0002:0001b8d0       ??_C@_0BB@PNMGKNEC@camellia?9192?9ecb@ 00000000000b87d0     OpensslLib:obj_dat.obj
 0002:0001b8e8       ??_C@_0BB@DMDAFMHE@CAMELLIA?9256?9ECB@ 00000000000b87e8     OpensslLib:obj_dat.obj
 0002:0001b900       ??_C@_0BB@CPHIICMD@camellia?9256?9ecb@ 00000000000b8800     OpensslLib:obj_dat.obj
 0002:0001b918       ??_C@_0BB@GOLCJJFO@CAMELLIA?9128?9CFB@ 00000000000b8818     OpensslLib:obj_dat.obj
 0002:0001b930       ??_C@_0BB@HNPKEHOJ@camellia?9128?9cfb@ 00000000000b8830     OpensslLib:obj_dat.obj
 0002:0001b948       ??_C@_0BB@MNCOOOMC@CAMELLIA?9192?9CFB@ 00000000000b8848     OpensslLib:obj_dat.obj
 0002:0001b960       ??_C@_0BB@NOGGDAHF@camellia?9192?9cfb@ 00000000000b8860     OpensslLib:obj_dat.obj
 0002:0001b978       ??_C@_0BB@BPJAMBED@CAMELLIA?9256?9CFB@ 00000000000b8878     OpensslLib:obj_dat.obj
 0002:0001b990       ??_C@_0BB@MNIBPPE@camellia?9256?9cfb@ 00000000000b8890     OpensslLib:obj_dat.obj
 0002:0001b9a8       ??_C@_0BC@EKOAMJNI@CAMELLIA?9128?9CFB1@ 00000000000b88a8     OpensslLib:obj_dat.obj
 0002:0001b9c0       ??_C@_0BC@BPPGKHCJ@camellia?9128?9cfb1@ 00000000000b88c0     OpensslLib:obj_dat.obj
 0002:0001b9d8       ??_C@_0BC@LDPKIKMA@CAMELLIA?9192?9CFB1@ 00000000000b88d8     OpensslLib:obj_dat.obj
 0002:0001b9f0       ??_C@_0BC@OGOMOEDB@camellia?9192?9cfb1@ 00000000000b88f0     OpensslLib:obj_dat.obj
 0002:0001ba08       ??_C@_0BC@CJJHIHFJ@CAMELLIA?9256?9CFB1@ 00000000000b8908     OpensslLib:obj_dat.obj
 0002:0001ba20       ??_C@_0BC@HMIBOJKI@camellia?9256?9cfb1@ 00000000000b8920     OpensslLib:obj_dat.obj
 0002:0001ba38       ??_C@_0BC@JLCCHCJB@CAMELLIA?9128?9CFB8@ 00000000000b8938     OpensslLib:obj_dat.obj
 0002:0001ba50       ??_C@_0BC@MODEBMGA@camellia?9128?9cfb8@ 00000000000b8950     OpensslLib:obj_dat.obj
 0002:0001ba68       ??_C@_0BC@GCDIDBIJ@CAMELLIA?9192?9CFB8@ 00000000000b8968     OpensslLib:obj_dat.obj
 0002:0001ba80       ??_C@_0BC@DHCOFPHI@camellia?9192?9cfb8@ 00000000000b8980     OpensslLib:obj_dat.obj
 0002:0001ba98       ??_C@_0BC@PIFFDMBA@CAMELLIA?9256?9CFB8@ 00000000000b8998     OpensslLib:obj_dat.obj
 0002:0001bab0       ??_C@_0BC@KNEDFCOB@camellia?9256?9cfb8@ 00000000000b89b0     OpensslLib:obj_dat.obj
 0002:0001bac8       ??_C@_0BB@CEGECGOG@CAMELLIA?9128?9OFB@ 00000000000b89c8     OpensslLib:obj_dat.obj
 0002:0001bae0       ??_C@_0BB@DHCMPIFB@camellia?9128?9ofb@ 00000000000b89e0     OpensslLib:obj_dat.obj
 0002:0001baf8       ??_C@_0BB@IHPIFBHK@CAMELLIA?9192?9OFB@ 00000000000b89f8     OpensslLib:obj_dat.obj
 0002:0001bb10       ??_C@_0BB@JELAIPMN@camellia?9192?9ofb@ 00000000000b8a10     OpensslLib:obj_dat.obj
 0002:0001bb28       ??_C@_0BB@FFEGHOPL@CAMELLIA?9256?9OFB@ 00000000000b8a28     OpensslLib:obj_dat.obj
 0002:0001bb40       ??_C@_0BB@EGAOKAEM@camellia?9256?9ofb@ 00000000000b8a40     OpensslLib:obj_dat.obj
 0002:0001bb58       ??_C@_0BL@GAJEKNCJ@subjectDirectoryAttributes@ 00000000000b8a58     OpensslLib:obj_dat.obj
 0002:0001bb78       ??_C@_0CE@OGGDDHCK@X509v3?5Subject?5Directory?5Attrib@ 00000000000b8a78     OpensslLib:obj_dat.obj
 0002:0001bba0       ??_C@_0BJ@OAOPOBMH@issuingDistributionPoint@ 00000000000b8aa0     OpensslLib:obj_dat.obj
 0002:0001bbc0       ??_C@_0CC@IAMHILJN@X509v3?5Issuing?5Distribution?5Poi@ 00000000000b8ac0     OpensslLib:obj_dat.obj
 0002:0001bbe8       ??_C@_0BC@NAJGKAHO@certificateIssuer@ 00000000000b8ae8     OpensslLib:obj_dat.obj
 0002:0001bc00       ??_C@_0BK@EMNEMCDI@X509v3?5Certificate?5Issuer@ 00000000000b8b00     OpensslLib:obj_dat.obj
 0002:0001bc1c       ??_C@_04HHHKJIKA@KISA@     00000000000b8b1c     OpensslLib:obj_dat.obj
 0002:0001bc24       ??_C@_04LLEAHKNI@kisa@     00000000000b8b24     OpensslLib:obj_dat.obj
 0002:0001bc30       ??_C@_08JEKGBFGL@SEED?9ECB@ 00000000000b8b30     OpensslLib:obj_dat.obj
 0002:0001bc40       ??_C@_08CKMLAEEI@seed?9ecb@ 00000000000b8b40     OpensslLib:obj_dat.obj
 0002:0001bc50       ??_C@_08KJBEBBMB@SEED?9CBC@ 00000000000b8b50     OpensslLib:obj_dat.obj
 0002:0001bc60       ??_C@_08BHHJAAOC@seed?9cbc@ 00000000000b8b60     OpensslLib:obj_dat.obj
 0002:0001bc70       ??_C@_08PNNADHOE@SEED?9OFB@ 00000000000b8b70     OpensslLib:obj_dat.obj
 0002:0001bc80       ??_C@_08EDLNCGMH@seed?9ofb@ 00000000000b8b80     OpensslLib:obj_dat.obj
 0002:0001bc90       ??_C@_08LHAGIIFM@SEED?9CFB@ 00000000000b8b90     OpensslLib:obj_dat.obj
 0002:0001bca0       ??_C@_08JGLJJHP@seed?9cfb@ 00000000000b8ba0     OpensslLib:obj_dat.obj
 0002:0001bcb0       ??_C@_08CABJBHIC@HMAC?9MD5@ 00000000000b8bb0     OpensslLib:obj_dat.obj
 0002:0001bcc0       ??_C@_08LPACCAD@hmac?9md5@ 00000000000b8bc0     OpensslLib:obj_dat.obj
 0002:0001bcd0       ??_C@_09DDFKKHO@HMAC?9SHA1@ 00000000000b8bd0     OpensslLib:obj_dat.obj
 0002:0001bce0       ??_C@_09KBOMLGBN@hmac?9sha1@ 00000000000b8be0     OpensslLib:obj_dat.obj
 0002:0001bcf0       ??_C@_0BE@HCNFOMHA@id?9PasswordBasedMAC@ 00000000000b8bf0     OpensslLib:obj_dat.obj
 0002:0001bd08       ??_C@_0BD@FANJCJAP@password?5based?5MAC@ 00000000000b8c08     OpensslLib:obj_dat.obj
 0002:0001bd20       ??_C@_0O@MEHCKGFD@id?9DHBasedMac@ 00000000000b8c20     OpensslLib:obj_dat.obj
 0002:0001bd30       ??_C@_0BJ@CDGIGDFG@Diffie?9Hellman?5based?5MAC@ 00000000000b8c30     OpensslLib:obj_dat.obj
 0002:0001bd50       ??_C@_0BD@MGCOMIO@id?9it?9suppLangTags@ 00000000000b8c50     OpensslLib:obj_dat.obj
 0002:0001bd68       ??_C@_0N@CKNFLOGG@caRepository@ 00000000000b8c68     OpensslLib:obj_dat.obj
 0002:0001bd78       ??_C@_0O@LBCGFGCI@CA?5Repository@ 00000000000b8c78     OpensslLib:obj_dat.obj
 0002:0001bd88       ??_C@_0BL@HEJKLKLL@id?9smime?9ct?9compressedData@ 00000000000b8c88     OpensslLib:obj_dat.obj
 0002:0001bda8       ??_C@_0BI@FNBGJEPL@id?9ct?9asciiTextWithCRLF@ 00000000000b8ca8     OpensslLib:obj_dat.obj
 0002:0001bdc0       ??_C@_0P@MALLFAMO@id?9aes128?9wrap@ 00000000000b8cc0     OpensslLib:obj_dat.obj
 0002:0001bdd0       ??_C@_0P@DJKBBDNG@id?9aes192?9wrap@ 00000000000b8cd0     OpensslLib:obj_dat.obj
 0002:0001bde0       ??_C@_0P@KDMMBOEP@id?9aes256?9wrap@ 00000000000b8ce0     OpensslLib:obj_dat.obj
 0002:0001bdf0       ??_C@_0BH@GCJALNKM@ecdsa?9with?9Recommended@ 00000000000b8cf0     OpensslLib:obj_dat.obj
 0002:0001be08       ??_C@_0BF@INFCLNHO@ecdsa?9with?9Specified@ 00000000000b8d08     OpensslLib:obj_dat.obj
 0002:0001be20       ??_C@_0BC@PHBIOIGA@ecdsa?9with?9SHA224@ 00000000000b8d20     OpensslLib:obj_dat.obj
 0002:0001be38       ??_C@_0BC@MAGBJMGH@ecdsa?9with?9SHA256@ 00000000000b8d38     OpensslLib:obj_dat.obj
 0002:0001be50       ??_C@_0BC@ECDDAKND@ecdsa?9with?9SHA384@ 00000000000b8d50     OpensslLib:obj_dat.obj
 0002:0001be68       ??_C@_0BC@DONDMJAG@ecdsa?9with?9SHA512@ 00000000000b8d68     OpensslLib:obj_dat.obj
 0002:0001be80       ??_C@_0M@KOBPMNIO@hmacWithMD5@ 00000000000b8d80     OpensslLib:obj_dat.obj
 0002:0001be90       ??_C@_0P@JCGBABBG@hmacWithSHA224@ 00000000000b8d90     OpensslLib:obj_dat.obj
 0002:0001bea0       ??_C@_0P@KFBIHFBB@hmacWithSHA256@ 00000000000b8da0     OpensslLib:obj_dat.obj
 0002:0001beb0       ??_C@_0P@CHEKODKF@hmacWithSHA384@ 00000000000b8db0     OpensslLib:obj_dat.obj
 0002:0001bec0       ??_C@_0P@FLKKCAHA@hmacWithSHA512@ 00000000000b8dc0     OpensslLib:obj_dat.obj
 0002:0001bed0       ??_C@_0BA@GLCLJGGH@dsa_with_SHA224@ 00000000000b8dd0     OpensslLib:obj_dat.obj
 0002:0001bee0       ??_C@_0BA@FMFCOCGA@dsa_with_SHA256@ 00000000000b8de0     OpensslLib:obj_dat.obj
 0002:0001bef0       ??_C@_09DEGKDAEL@whirlpool@ 00000000000b8df0     OpensslLib:obj_dat.obj
 0002:0001bf00       ??_C@_09PCHJFNLI@cryptopro@ 00000000000b8e00     OpensslLib:obj_dat.obj
 0002:0001bf10       ??_C@_09JGBNPHGI@cryptocom@ 00000000000b8e10     OpensslLib:obj_dat.obj
 0002:0001bf20       ??_C@_0CE@FCAOBIOC@id?9GostR3411?994?9with?9GostR3410?9@ 00000000000b8e20     OpensslLib:obj_dat.obj
 0002:0001bf48       ??_C@_0CH@MPKKPBGC@GOST?5R?534?411?994?5with?5GOST?5R?534?4@ 00000000000b8e48     OpensslLib:obj_dat.obj
 0002:0001bf70       ??_C@_0CC@LCAPGDKC@id?9GostR3411?994?9with?9GostR3410?9@ 00000000000b8e70     OpensslLib:obj_dat.obj
 0002:0001bf98       ??_C@_0CF@PAGBHGOC@GOST?5R?534?411?994?5with?5GOST?5R?534?4@ 00000000000b8e98     OpensslLib:obj_dat.obj
 0002:0001bfc0       ??_C@_09MIOJGGFD@md_gost94@ 00000000000b8ec0     OpensslLib:obj_dat.obj
 0002:0001bfd0       ??_C@_0BA@KDEBPBMN@GOST?5R?534?411?994@ 00000000000b8ed0     OpensslLib:obj_dat.obj
 0002:0001bfe0       ??_C@_0BE@EBBOKDGI@id?9HMACGostR3411?994@ 00000000000b8ee0     OpensslLib:obj_dat.obj
 0002:0001bff8       ??_C@_0BD@BHKLGKNG@HMAC?5GOST?534?411?994@ 00000000000b8ef8     OpensslLib:obj_dat.obj
 0002:0001c010       ??_C@_0BC@IBNIHBI@GOST?5R?534?410?92001@ 00000000000b8f10     OpensslLib:obj_dat.obj
 0002:0001c024       ??_C@_06BPJPGPFJ@gost94@   00000000000b8f24     OpensslLib:obj_dat.obj
 0002:0001c030       ??_C@_0BA@JOCBNIHN@GOST?5R?534?410?994@ 00000000000b8f30     OpensslLib:obj_dat.obj
 0002:0001c040       ??_C@_06KLPDHLCD@gost89@   00000000000b8f40     OpensslLib:obj_dat.obj
 0002:0001c048       ??_C@_0O@POKHNLDL@GOST?528147?989@ 00000000000b8f48     OpensslLib:obj_dat.obj
 0002:0001c058       ??_C@_0L@INGOKGPP@gost89?9cnt@ 00000000000b8f58     OpensslLib:obj_dat.obj
 0002:0001c068       ??_C@_0BC@BPAGAEJB@GOST?528147?989?5MAC@ 00000000000b8f68     OpensslLib:obj_dat.obj
 0002:0001c080       ??_C@_0BB@LJIINAAP@prf?9gostr3411?994@ 00000000000b8f80     OpensslLib:obj_dat.obj
 0002:0001c098       ??_C@_0BE@FFELJBNB@GOST?5R?534?411?994?5PRF@ 00000000000b8f98     OpensslLib:obj_dat.obj
 0002:0001c0b0       ??_C@_0BE@OBKEJCJB@id?9GostR3410?92001DH@ 00000000000b8fb0     OpensslLib:obj_dat.obj
 0002:0001c0c8       ??_C@_0BF@OKPANPLK@GOST?5R?534?410?92001?5DH@ 00000000000b8fc8     OpensslLib:obj_dat.obj
 0002:0001c0e0       ??_C@_0BC@CEMDDFNK@id?9GostR3410?994DH@ 00000000000b8fe0     OpensslLib:obj_dat.obj
 0002:0001c0f8       ??_C@_0BD@LGKAOLPL@GOST?5R?534?410?994?5DH@ 00000000000b8ff8     OpensslLib:obj_dat.obj
 0002:0001c110       ??_C@_0CF@MMKONEIK@id?9Gost28147?989?9CryptoPro?9KeyMe@ 00000000000b9010     OpensslLib:obj_dat.obj
 0002:0001c138       ??_C@_0CA@BLJAEGEG@id?9Gost28147?989?9None?9KeyMeshing@ 00000000000b9038     OpensslLib:obj_dat.obj
 0002:0001c158       ??_C@_0BN@DPLCCDOE@id?9GostR3411?994?9TestParamSet@ 00000000000b9058     OpensslLib:obj_dat.obj
 0002:0001c178       ??_C@_0CC@DOHJLMBI@id?9GostR3411?994?9CryptoProParamS@ 00000000000b9078     OpensslLib:obj_dat.obj
 0002:0001c1a0       ??_C@_0BN@GKJFBLMI@id?9Gost28147?989?9TestParamSet@ 00000000000b90a0     OpensslLib:obj_dat.obj
 0002:0001c1c0       ??_C@_0CF@PFEMLAKN@id?9Gost28147?989?9CryptoPro?9A?9Par@ 00000000000b90c0     OpensslLib:obj_dat.obj
 0002:0001c1e8       ??_C@_0CF@GMKONGKM@id?9Gost28147?989?9CryptoPro?9B?9Par@ 00000000000b90e8     OpensslLib:obj_dat.obj
 0002:0001c210       ??_C@_0CF@KNCAAJGM@id?9Gost28147?989?9CryptoPro?9C?9Par@ 00000000000b9110     OpensslLib:obj_dat.obj
 0002:0001c238       ??_C@_0CF@IEBLBMOP@id?9Gost28147?989?9CryptoPro?9D?9Par@ 00000000000b9138     OpensslLib:obj_dat.obj
 0002:0001c260       ??_C@_0CN@EJBNJDBM@id?9Gost28147?989?9CryptoPro?9Oscar@ 00000000000b9160     OpensslLib:obj_dat.obj
 0002:0001c290       ??_C@_0CN@IIJDEMNM@id?9Gost28147?989?9CryptoPro?9Oscar@ 00000000000b9190     OpensslLib:obj_dat.obj
 0002:0001c2c0       ??_C@_0CJ@IIADIAJH@id?9Gost28147?989?9CryptoPro?9RIC?91@ 00000000000b91c0     OpensslLib:obj_dat.obj
 0002:0001c2f0       ??_C@_0BN@NAOAJFAF@id?9GostR3410?994?9TestParamSet@ 00000000000b91f0     OpensslLib:obj_dat.obj
 0002:0001c310       ??_C@_0CF@MNFOPPCD@id?9GostR3410?994?9CryptoPro?9A?9Par@ 00000000000b9210     OpensslLib:obj_dat.obj
 0002:0001c338       ??_C@_0CF@FELMJJCC@id?9GostR3410?994?9CryptoPro?9B?9Par@ 00000000000b9238     OpensslLib:obj_dat.obj
 0002:0001c360       ??_C@_0CF@JFDCEGOC@id?9GostR3410?994?9CryptoPro?9C?9Par@ 00000000000b9260     OpensslLib:obj_dat.obj
 0002:0001c388       ??_C@_0CF@LMAJFDGB@id?9GostR3410?994?9CryptoPro?9D?9Par@ 00000000000b9288     OpensslLib:obj_dat.obj
 0002:0001c3b0       ??_C@_0CI@FLGMGEEM@id?9GostR3410?994?9CryptoPro?9XchA?9@ 00000000000b92b0     OpensslLib:obj_dat.obj
 0002:0001c3d8       ??_C@_0CI@MCIOACEN@id?9GostR3410?994?9CryptoPro?9XchB?9@ 00000000000b92d8     OpensslLib:obj_dat.obj
 0002:0001c400       ??_C@_0CI@DAANNIN@id?9GostR3410?994?9CryptoPro?9XchC?9@ 00000000000b9300     OpensslLib:obj_dat.obj
 0002:0001c428       ??_C@_0BP@GEEJLPDI@id?9GostR3410?92001?9TestParamSet@ 00000000000b9328     OpensslLib:obj_dat.obj
 0002:0001c448       ??_C@_0CH@GDAPDBKP@id?9GostR3410?92001?9CryptoPro?9A?9P@ 00000000000b9348     OpensslLib:obj_dat.obj
 0002:0001c470       ??_C@_0CH@PKONFHKO@id?9GostR3410?92001?9CryptoPro?9B?9P@ 00000000000b9370     OpensslLib:obj_dat.obj
 0002:0001c498       ??_C@_0CH@DLGDIIGO@id?9GostR3410?92001?9CryptoPro?9C?9P@ 00000000000b9398     OpensslLib:obj_dat.obj
 0002:0001c4c0       ??_C@_0CK@PKFGBNKE@id?9GostR3410?92001?9CryptoPro?9Xch@ 00000000000b93c0     OpensslLib:obj_dat.obj
 0002:0001c4f0       ??_C@_0CK@GDLEHLKF@id?9GostR3410?92001?9CryptoPro?9Xch@ 00000000000b93f0     OpensslLib:obj_dat.obj
 0002:0001c520       ??_C@_0BC@CHIDFKJO@id?9GostR3410?994?9a@ 00000000000b9420     OpensslLib:obj_dat.obj
 0002:0001c538       ??_C@_0BF@LBGBLILF@id?9GostR3410?994?9aBis@ 00000000000b9438     OpensslLib:obj_dat.obj
 0002:0001c550       ??_C@_0BC@MKOAJFN@id?9GostR3410?994?9b@ 00000000000b9450     OpensslLib:obj_dat.obj
 0002:0001c568       ??_C@_0BF@PGMBMCGF@id?9GostR3410?994?9bBis@ 00000000000b9468     OpensslLib:obj_dat.obj
 0002:0001c580       ??_C@_0BD@MEAAKKFJ@id?9Gost28147?989?9cc@ 00000000000b9480     OpensslLib:obj_dat.obj
 0002:0001c598       ??_C@_0CB@KNOPDNHN@GOST?528147?989?5Cryptocom?5ParamSe@ 00000000000b9498     OpensslLib:obj_dat.obj
 0002:0001c5c0       ??_C@_08LCDFMIFG@gost94cc@ 00000000000b94c0     OpensslLib:obj_dat.obj
 0002:0001c5d0       ??_C@_0BI@GJIILMEB@GOST?534?410?994?5Cryptocom@ 00000000000b94d0     OpensslLib:obj_dat.obj
 0002:0001c5e8       ??_C@_0L@PKDOCLKG@gost2001cc@ 00000000000b94e8     OpensslLib:obj_dat.obj
 0002:0001c5f8       ??_C@_0BK@IGCJADLM@GOST?534?410?92001?5Cryptocom@ 00000000000b94f8     OpensslLib:obj_dat.obj
 0002:0001c618       ??_C@_0CF@FCIKJGLH@id?9GostR3411?994?9with?9GostR3410?9@ 00000000000b9518     OpensslLib:obj_dat.obj
 0002:0001c640       ??_C@_0CP@ILDIBBAJ@GOST?5R?534?411?994?5with?5GOST?5R?534?4@ 00000000000b9540     OpensslLib:obj_dat.obj
 0002:0001c670       ??_C@_0CH@JJNMILDM@id?9GostR3411?994?9with?9GostR3410?9@ 00000000000b9570     OpensslLib:obj_dat.obj
 0002:0001c698       ??_C@_0DB@BGOOPLFE@GOST?5R?534?411?994?5with?5GOST?5R?534?4@ 00000000000b9598     OpensslLib:obj_dat.obj
 0002:0001c6d0       ??_C@_0BO@LBPHKLOM@id?9GostR3410?92001?9ParamSet?9cc@ 00000000000b95d0     OpensslLib:obj_dat.obj
 0002:0001c6f0       ??_C@_0CJ@NCCJHEBD@GOST?5R?53410?92001?5Parameter?5Set?5@ 00000000000b95f0     OpensslLib:obj_dat.obj
 0002:0001c71c       ??_C@_04JCCMGALL@HMAC@     00000000000b961c     OpensslLib:obj_dat.obj
 0002:0001c724       ??_C@_04FOBGICMD@hmac@     00000000000b9624     OpensslLib:obj_dat.obj
 0002:0001c730       ??_C@_0M@LCODBGNO@LocalKeySet@ 00000000000b9630     OpensslLib:obj_dat.obj
 0002:0001c740       ??_C@_0BI@FMFOLFMC@Microsoft?5Local?5Key?5set@ 00000000000b9640     OpensslLib:obj_dat.obj
 0002:0001c758       ??_C@_0M@PKNKMHEG@freshestCRL@ 00000000000b9658     OpensslLib:obj_dat.obj
 0002:0001c768       ??_C@_0BE@KEJIKEFG@X509v3?5Freshest?5CRL@ 00000000000b9668     OpensslLib:obj_dat.obj
 0002:0001c780       ??_C@_0BK@BMFCOPIC@id?9on?9permanentIdentifier@ 00000000000b9680     OpensslLib:obj_dat.obj
 0002:0001c7a0       ??_C@_0BF@DGGAJJCO@Permanent?5Identifier@ 00000000000b96a0     OpensslLib:obj_dat.obj
 0002:0001c7b8       ??_C@_0M@MCCFGANF@searchGuide@ 00000000000b96b8     OpensslLib:obj_dat.obj
 0002:0001c7c8       ??_C@_0BB@GFJJGHBI@businessCategory@ 00000000000b96c8     OpensslLib:obj_dat.obj
 0002:0001c7e0       ??_C@_0O@KABBPKPG@postalAddress@ 00000000000b96e0     OpensslLib:obj_dat.obj
 0002:0001c7f0       ??_C@_0O@PCCHCGPG@postOfficeBox@ 00000000000b96f0     OpensslLib:obj_dat.obj
 0002:0001c800       ??_C@_0BL@DENBGONK@physicalDeliveryOfficeName@ 00000000000b9700     OpensslLib:obj_dat.obj
 0002:0001c820       ??_C@_0BA@NCAGJGBF@telephoneNumber@ 00000000000b9720     OpensslLib:obj_dat.obj
 0002:0001c830       ??_C@_0M@MMDMBPMM@telexNumber@ 00000000000b9730     OpensslLib:obj_dat.obj
 0002:0001c840       ??_C@_0BK@BBNEJJDC@teletexTerminalIdentifier@ 00000000000b9740     OpensslLib:obj_dat.obj
 0002:0001c860       ??_C@_0BJ@NDMMBDAB@facsimileTelephoneNumber@ 00000000000b9760     OpensslLib:obj_dat.obj
 0002:0001c880       ??_C@_0M@MOCAHDLJ@x121Address@ 00000000000b9780     OpensslLib:obj_dat.obj
 0002:0001c890       ??_C@_0BI@OAHCBLEE@internationaliSDNNumber@ 00000000000b9790     OpensslLib:obj_dat.obj
 0002:0001c8a8       ??_C@_0BC@DLLOJDNE@registeredAddress@ 00000000000b97a8     OpensslLib:obj_dat.obj
 0002:0001c8c0       ??_C@_0BF@CMAFNEOO@destinationIndicator@ 00000000000b97c0     OpensslLib:obj_dat.obj
 0002:0001c8d8       ??_C@_0BI@MKMMOKIA@preferredDeliveryMethod@ 00000000000b97d8     OpensslLib:obj_dat.obj
 0002:0001c8f0       ??_C@_0BE@KHACCONJ@presentationAddress@ 00000000000b97f0     OpensslLib:obj_dat.obj
 0002:0001c908       ??_C@_0BM@NHJFOGBI@supportedApplicationContext@ 00000000000b9808     OpensslLib:obj_dat.obj
 0002:0001c924       ??_C@_06HDFDANIG@member@   00000000000b9824     OpensslLib:obj_dat.obj
 0002:0001c92c       ??_C@_05HEIBENID@owner@    00000000000b982c     OpensslLib:obj_dat.obj
 0002:0001c938       ??_C@_0N@NAEJMDPF@roleOccupant@ 00000000000b9838     OpensslLib:obj_dat.obj
 0002:0001c948       ??_C@_07JJAENDGN@seeAlso@  00000000000b9848     OpensslLib:obj_dat.obj
 0002:0001c950       ??_C@_0N@JHMNNHKM@userPassword@ 00000000000b9850     OpensslLib:obj_dat.obj
 0002:0001c960       ??_C@_0BA@FEECIELF@userCertificate@ 00000000000b9860     OpensslLib:obj_dat.obj
 0002:0001c970       ??_C@_0O@JJCNKCKK@cACertificate@ 00000000000b9870     OpensslLib:obj_dat.obj
 0002:0001c980       ??_C@_0BI@EODAEBFG@authorityRevocationList@ 00000000000b9880     OpensslLib:obj_dat.obj
 0002:0001c998       ??_C@_0BK@IMFDMOND@certificateRevocationList@ 00000000000b9898     OpensslLib:obj_dat.obj
 0002:0001c9b8       ??_C@_0BF@GAAPBDAE@crossCertificatePair@ 00000000000b98b8     OpensslLib:obj_dat.obj
 0002:0001c9d0       ??_C@_0BE@NNAGLFEM@enhancedSearchGuide@ 00000000000b98d0     OpensslLib:obj_dat.obj
 0002:0001c9e8       ??_C@_0BE@FKAMNJMM@protocolInformation@ 00000000000b98e8     OpensslLib:obj_dat.obj
 0002:0001ca00       ??_C@_0BC@IIJOGNNH@distinguishedName@ 00000000000b9900     OpensslLib:obj_dat.obj
 0002:0001ca18       ??_C@_0N@FIGDLDDJ@uniqueMember@ 00000000000b9918     OpensslLib:obj_dat.obj
 0002:0001ca28       ??_C@_0BA@EKKIBBF@houseIdentifier@ 00000000000b9928     OpensslLib:obj_dat.obj
 0002:0001ca38       ??_C@_0BE@KGOGIPEN@supportedAlgorithms@ 00000000000b9938     OpensslLib:obj_dat.obj
 0002:0001ca50       ??_C@_0BE@MNOFELKF@deltaRevocationList@ 00000000000b9950     OpensslLib:obj_dat.obj
 0002:0001ca68       ??_C@_07ILKEFPGB@dmdName@  00000000000b9968     OpensslLib:obj_dat.obj
 0002:0001ca70       ??_C@_0BA@NJOHMDIG@id?9alg?9PWRI?9KEK@ 00000000000b9970     OpensslLib:obj_dat.obj
 0002:0001ca80       ??_C@_04OFPMFBKK@CMAC@     00000000000b9980     OpensslLib:obj_dat.obj
 0002:0001ca88       ??_C@_04CJMGLDNC@cmac@     00000000000b9988     OpensslLib:obj_dat.obj
 0002:0001ca90       ??_C@_0O@LNIKAOOL@id?9aes128?9GCM@ 00000000000b9990     OpensslLib:obj_dat.obj
 0002:0001caa0       ??_C@_0M@ODEOFOCG@aes?9128?9gcm@ 00000000000b99a0     OpensslLib:obj_dat.obj
 0002:0001cab0       ??_C@_0O@DCOIJJLM@id?9aes128?9CCM@ 00000000000b99b0     OpensslLib:obj_dat.obj
 0002:0001cac0       ??_C@_0M@GMCMMJHB@aes?9128?9ccm@ 00000000000b99c0     OpensslLib:obj_dat.obj
 0002:0001cad0       ??_C@_0BD@HMJBEGNL@id?9aes128?9wrap?9pad@ 00000000000b99d0     OpensslLib:obj_dat.obj
 0002:0001cae8       ??_C@_0O@BOBGHJHH@id?9aes192?9GCM@ 00000000000b99e8     OpensslLib:obj_dat.obj
 0002:0001caf8       ??_C@_0M@EANCCJLK@aes?9192?9gcm@ 00000000000b99f8     OpensslLib:obj_dat.obj
 0002:0001cb08       ??_C@_0O@JBHEOOCA@id?9aes192?9CCM@ 00000000000b9a08     OpensslLib:obj_dat.obj
 0002:0001cb18       ??_C@_0M@MPLALOON@aes?9192?9ccm@ 00000000000b9a18     OpensslLib:obj_dat.obj
 0002:0001cb28       ??_C@_0BD@OPKMLKFB@id?9aes192?9wrap?9pad@ 00000000000b9a28     OpensslLib:obj_dat.obj
 0002:0001cb40       ??_C@_0O@MMKIFGPG@id?9aes256?9GCM@ 00000000000b9a40     OpensslLib:obj_dat.obj
 0002:0001cb50       ??_C@_0M@JCGMAGDL@aes?9256?9gcm@ 00000000000b9a50     OpensslLib:obj_dat.obj
 0002:0001cb60       ??_C@_0O@EDMKMBKB@id?9aes256?9CCM@ 00000000000b9a60     OpensslLib:obj_dat.obj
 0002:0001cb70       ??_C@_0M@BNAOJBGM@aes?9256?9ccm@ 00000000000b9a70     OpensslLib:obj_dat.obj
 0002:0001cb80       ??_C@_0BD@OHLFOIJM@id?9aes256?9wrap?9pad@ 00000000000b9a80     OpensslLib:obj_dat.obj
 0002:0001cb98       ??_C@_0M@GEBEOIJJ@AES?9128?9CTR@ 00000000000b9a98     OpensslLib:obj_dat.obj
 0002:0001cba8       ??_C@_0M@LIBPHCBK@aes?9128?9ctr@ 00000000000b9aa8     OpensslLib:obj_dat.obj
 0002:0001cbb8       ??_C@_0M@MHIIJPAF@AES?9192?9CTR@ 00000000000b9ab8     OpensslLib:obj_dat.obj
 0002:0001cbc8       ??_C@_0M@BLIDAFIG@aes?9192?9ctr@ 00000000000b9ac8     OpensslLib:obj_dat.obj
 0002:0001cbd8       ??_C@_0M@BFDGLAIE@AES?9256?9CTR@ 00000000000b9ad8     OpensslLib:obj_dat.obj
 0002:0001cbe8       ??_C@_0M@MJDNCKAH@aes?9256?9ctr@ 00000000000b9ae8     OpensslLib:obj_dat.obj
 0002:0001cbf8       ??_C@_0BE@JENMCLBD@id?9camellia128?9wrap@ 00000000000b9af8     OpensslLib:obj_dat.obj
 0002:0001cc10       ??_C@_0BE@GNMGGIAL@id?9camellia192?9wrap@ 00000000000b9b10     OpensslLib:obj_dat.obj
 0002:0001cc28       ??_C@_0BE@PHKLGFJC@id?9camellia256?9wrap@ 00000000000b9b28     OpensslLib:obj_dat.obj
 0002:0001cc40       ??_C@_0BE@FKFLDMON@anyExtendedKeyUsage@ 00000000000b9b40     OpensslLib:obj_dat.obj
 0002:0001cc58       ??_C@_0BH@FHBOBBKO@Any?5Extended?5Key?5Usage@ 00000000000b9b58     OpensslLib:obj_dat.obj
 0002:0001cc70       ??_C@_04CNDHACFO@MGF1@     00000000000b9b70     OpensslLib:obj_dat.obj
 0002:0001cc78       ??_C@_04HEIJMEIE@mgf1@     00000000000b9b78     OpensslLib:obj_dat.obj
 0002:0001cc80       ??_C@_0L@CPMAKEFG@RSASSA?9PSS@ 00000000000b9b80     OpensslLib:obj_dat.obj
 0002:0001cc90       ??_C@_09FGGKIFKD@rsassaPss@ 00000000000b9b90     OpensslLib:obj_dat.obj
 0002:0001cca0       ??_C@_0M@PKBHAJEG@AES?9128?9XTS@ 00000000000b9ba0     OpensslLib:obj_dat.obj
 0002:0001ccb0       ??_C@_0M@CGBMJDMF@aes?9128?9xts@ 00000000000b9bb0     OpensslLib:obj_dat.obj
 0002:0001ccc0       ??_C@_0M@ILDFFBFL@AES?9256?9XTS@ 00000000000b9bc0     OpensslLib:obj_dat.obj
 0002:0001ccd0       ??_C@_0M@FHDOMLNI@aes?9256?9xts@ 00000000000b9bd0     OpensslLib:obj_dat.obj
 0002:0001cce0       ??_C@_0N@EFPJLHOG@rc4?9hmac?9md5@ 00000000000b9be0     OpensslLib:obj_dat.obj
 0002:0001ccf0       ??_C@_0BG@CLBGODOC@aes?9128?9cbc?9hmac?9sha1@ 00000000000b9bf0     OpensslLib:obj_dat.obj
 0002:0001cd08       ??_C@_0BG@KLHGFOHC@AES?9192?9CBC?9HMAC?9SHA1@ 00000000000b9c08     OpensslLib:obj_dat.obj
 0002:0001cd20       ??_C@_0BG@GKCPENNE@aes?9192?9cbc?9hmac?9sha1@ 00000000000b9c20     OpensslLib:obj_dat.obj
 0002:0001cd38       ??_C@_0BG@MBIALEGA@aes?9256?9cbc?9hmac?9sha1@ 00000000000b9c38     OpensslLib:obj_dat.obj
 0002:0001cd50       ??_C@_0L@NCPDMLAN@RSAES?9OAEP@ 00000000000b9c50     OpensslLib:obj_dat.obj
 0002:0001cd60       ??_C@_09FHIEKOPH@rsaesOaep@ 00000000000b9c60     OpensslLib:obj_dat.obj
 0002:0001cd70       ??_C@_0P@BHMOKJEG@dhpublicnumber@ 00000000000b9c70     OpensslLib:obj_dat.obj
 0002:0001cd80       ??_C@_08HOHHODNK@X9?442?5DH@ 00000000000b9c80     OpensslLib:obj_dat.obj
 0002:0001cd90       ??_C@_0BA@CDGJLDLH@brainpoolP160r1@ 00000000000b9c90     OpensslLib:obj_dat.obj
 0002:0001cda0       ??_C@_0BA@CHOEMPAF@brainpoolP160t1@ 00000000000b9ca0     OpensslLib:obj_dat.obj
 0002:0001cdb0       ??_C@_0BA@LDAOMON@brainpoolP192r1@ 00000000000b9cb0     OpensslLib:obj_dat.obj
 0002:0001cdc0       ??_C@_0BA@PLNJAFP@brainpoolP192t1@ 00000000000b9cc0     OpensslLib:obj_dat.obj
 0002:0001cdd0       ??_C@_0BA@NPBPPAIO@brainpoolP224r1@ 00000000000b9cd0     OpensslLib:obj_dat.obj
 0002:0001cde0       ??_C@_0BA@NLJCIMDM@brainpoolP224t1@ 00000000000b9ce0     OpensslLib:obj_dat.obj
 0002:0001cdf0       ??_C@_0BA@MHDGOEBF@brainpoolP256r1@ 00000000000b9cf0     OpensslLib:obj_dat.obj
 0002:0001ce00       ??_C@_0BA@MDLLJIKH@brainpoolP256t1@ 00000000000b9d00     OpensslLib:obj_dat.obj
 0002:0001ce10       ??_C@_0BA@JLCBLEHM@brainpoolP320r1@ 00000000000b9d10     OpensslLib:obj_dat.obj
 0002:0001ce20       ??_C@_0BA@JPKMMIMO@brainpoolP320t1@ 00000000000b9d20     OpensslLib:obj_dat.obj
 0002:0001ce30       ??_C@_0BA@FOPDDLIK@brainpoolP384r1@ 00000000000b9d30     OpensslLib:obj_dat.obj
 0002:0001ce40       ??_C@_0BA@FKHOEHDI@brainpoolP384t1@ 00000000000b9d40     OpensslLib:obj_dat.obj
 0002:0001ce50       ??_C@_0BA@KANBOFDK@brainpoolP512r1@ 00000000000b9d50     OpensslLib:obj_dat.obj
 0002:0001ce60       ??_C@_0BA@KEFMJJII@brainpoolP512t1@ 00000000000b9d60     OpensslLib:obj_dat.obj
 0002:0001ce70       ??_C@_0L@CDJFGILH@PSPECIFIED@ 00000000000b9d70     OpensslLib:obj_dat.obj
 0002:0001ce80       ??_C@_0L@NKKFNJEH@pSpecified@ 00000000000b9d80     OpensslLib:obj_dat.obj
 0002:0001ce90       ??_C@_0CC@GCFJNDOJ@dhSinglePass?9stdDH?9sha1kdf?9sche@ 00000000000b9d90     OpensslLib:obj_dat.obj
 0002:0001ceb8       ??_C@_0CE@OPNDOJI@dhSinglePass?9stdDH?9sha224kdf?9sc@ 00000000000b9db8     OpensslLib:obj_dat.obj
 0002:0001cee0       ??_C@_0CE@JPLFKGFP@dhSinglePass?9stdDH?9sha256kdf?9sc@ 00000000000b9de0     OpensslLib:obj_dat.obj
 0002:0001cf08       ??_C@_0CE@KJKNLJMI@dhSinglePass?9stdDH?9sha384kdf?9sc@ 00000000000b9e08     OpensslLib:obj_dat.obj
 0002:0001cf30       ??_C@_0CE@DJMHFNHG@dhSinglePass?9stdDH?9sha512kdf?9sc@ 00000000000b9e30     OpensslLib:obj_dat.obj
 0002:0001cf58       ??_C@_0CH@DHIHBIGF@dhSinglePass?9cofactorDH?9sha1kdf@ 00000000000b9e58     OpensslLib:obj_dat.obj
 0002:0001cf80       ??_C@_0CJ@JFHNKHDJ@dhSinglePass?9cofactorDH?9sha224k@ 00000000000b9e80     OpensslLib:obj_dat.obj
 0002:0001cfb0       ??_C@_0CJ@EDFDPPO@dhSinglePass?9cofactorDH?9sha256k@ 00000000000b9eb0     OpensslLib:obj_dat.obj
 0002:0001cfe0       ??_C@_0CJ@DCCNCAGJ@dhSinglePass?9cofactorDH?9sha384k@ 00000000000b9ee0     OpensslLib:obj_dat.obj
 0002:0001d010       ??_C@_0CJ@KCEHMENH@dhSinglePass?9cofactorDH?9sha512k@ 00000000000b9f10     OpensslLib:obj_dat.obj
 0002:0001d040       ??_C@_0L@MFGJJBLE@dh?9std?9kdf@ 00000000000b9f40     OpensslLib:obj_dat.obj
 0002:0001d050       ??_C@_0BA@LJEJAEDG@dh?9cofactor?9kdf@ 00000000000b9f50     OpensslLib:obj_dat.obj
 0002:0001d060       ??_C@_0BI@OMECBAFK@aes?9128?9cbc?9hmac?9sha256@ 00000000000b9f60     OpensslLib:obj_dat.obj
 0002:0001d078       ??_C@_0BI@CINDNFBB@AES?9192?9CBC?9HMAC?9SHA256@ 00000000000b9f78     OpensslLib:obj_dat.obj
 0002:0001d090       ??_C@_0BI@FEDAEOPJ@aes?9192?9cbc?9hmac?9sha256@ 00000000000b9f90     OpensslLib:obj_dat.obj
 0002:0001d0a8       ??_C@_0BI@BAPIMEFC@aes?9256?9cbc?9hmac?9sha256@ 00000000000b9fa8     OpensslLib:obj_dat.obj
 0002:0001d0c0       ??_C@_0BA@EKNBJPMK@ct_precert_scts@ 00000000000b9fc0     OpensslLib:obj_dat.obj
 0002:0001d0d0       ??_C@_0BH@MJHOKGCL@CT?5Precertificate?5SCTs@ 00000000000b9fd0     OpensslLib:obj_dat.obj
 0002:0001d0e8       ??_C@_0BC@DHAKLICB@ct_precert_poison@ 00000000000b9fe8     OpensslLib:obj_dat.obj
 0002:0001d100       ??_C@_0BJ@OJAHFLBJ@CT?5Precertificate?5Poison@ 00000000000ba000     OpensslLib:obj_dat.obj
 0002:0001d120       ??_C@_0BC@CGBIKIAJ@ct_precert_signer@ 00000000000ba020     OpensslLib:obj_dat.obj
 0002:0001d138       ??_C@_0BJ@PIBFELDB@CT?5Precertificate?5Signer@ 00000000000ba038     OpensslLib:obj_dat.obj
 0002:0001d158       ??_C@_0N@GIBNBHKA@ct_cert_scts@ 00000000000ba058     OpensslLib:obj_dat.obj
 0002:0001d168       ??_C@_0BE@OLBHFOCE@CT?5Certificate?5SCTs@ 00000000000ba068     OpensslLib:obj_dat.obj
 0002:0001d180       ??_C@_0O@CEMHPDIN@jurisdictionL@ 00000000000ba080     OpensslLib:obj_dat.obj
 0002:0001d190       ??_C@_0BJ@DGGEPBOP@jurisdictionLocalityName@ 00000000000ba090     OpensslLib:obj_dat.obj
 0002:0001d1b0       ??_C@_0P@FKIAEEHD@jurisdictionST@ 00000000000ba0b0     OpensslLib:obj_dat.obj
 0002:0001d1c0       ??_C@_0CA@ILILPDLE@jurisdictionStateOrProvinceName@ 00000000000ba0c0     OpensslLib:obj_dat.obj
 0002:0001d1e0       ??_C@_0O@KDFPOPEC@jurisdictionC@ 00000000000ba0e0     OpensslLib:obj_dat.obj
 0002:0001d1f0       ??_C@_0BI@IBHEHEJE@jurisdictionCountryName@ 00000000000ba0f0     OpensslLib:obj_dat.obj
 0002:0001d208       ??_C@_0M@HNGJPAIF@AES?9128?9OCB@ 00000000000ba108     OpensslLib:obj_dat.obj
 0002:0001d218       ??_C@_0M@KBGCGKAG@aes?9128?9ocb@ 00000000000ba118     OpensslLib:obj_dat.obj
 0002:0001d228       ??_C@_0M@NOPFIHBJ@AES?9192?9OCB@ 00000000000ba128     OpensslLib:obj_dat.obj
 0002:0001d238       ??_C@_0M@CPOBNJK@aes?9192?9ocb@ 00000000000ba138     OpensslLib:obj_dat.obj
 0002:0001d248       ??_C@_0M@MELKIJI@AES?9256?9OCB@ 00000000000ba148     OpensslLib:obj_dat.obj
 0002:0001d258       ??_C@_0M@NAEADCBL@aes?9256?9ocb@ 00000000000ba158     OpensslLib:obj_dat.obj
 0002:0001d268       ??_C@_0BB@GAIDNACN@CAMELLIA?9128?9GCM@ 00000000000ba168     OpensslLib:obj_dat.obj
 0002:0001d280       ??_C@_0BB@HDMLAOJK@camellia?9128?9gcm@ 00000000000ba180     OpensslLib:obj_dat.obj
 0002:0001d298       ??_C@_0BB@OPOBEHHK@CAMELLIA?9128?9CCM@ 00000000000ba198     OpensslLib:obj_dat.obj
 0002:0001d2b0       ??_C@_0BB@PMKJJJMN@camellia?9128?9ccm@ 00000000000ba1b0     OpensslLib:obj_dat.obj
 0002:0001d2c8       ??_C@_0BB@DLNCPMBB@CAMELLIA?9128?9CTR@ 00000000000ba1c8     OpensslLib:obj_dat.obj
 0002:0001d2e0       ??_C@_0BB@CIJKCCKG@camellia?9128?9ctr@ 00000000000ba1e0     OpensslLib:obj_dat.obj
 0002:0001d2f8       ??_C@_0BC@ICKOOLPE@CAMELLIA?9128?9CMAC@ 00000000000ba1f8     OpensslLib:obj_dat.obj
 0002:0001d310       ??_C@_0BC@ECDMKBKH@camellia?9128?9cmac@ 00000000000ba210     OpensslLib:obj_dat.obj
 0002:0001d328       ??_C@_0BB@MDBPKHLB@CAMELLIA?9192?9GCM@ 00000000000ba228     OpensslLib:obj_dat.obj
 0002:0001d340       ??_C@_0BB@NAFHHJAG@camellia?9192?9gcm@ 00000000000ba240     OpensslLib:obj_dat.obj
 0002:0001d358       ??_C@_0BB@EMHNDAOG@CAMELLIA?9192?9CCM@ 00000000000ba258     OpensslLib:obj_dat.obj
 0002:0001d370       ??_C@_0BB@FPDFOOFB@camellia?9192?9ccm@ 00000000000ba270     OpensslLib:obj_dat.obj
 0002:0001d388       ??_C@_0BB@JIEOILIN@CAMELLIA?9192?9CTR@ 00000000000ba288     OpensslLib:obj_dat.obj
 0002:0001d3a0       ??_C@_0BB@ILAGFFDK@camellia?9192?9ctr@ 00000000000ba2a0     OpensslLib:obj_dat.obj
 0002:0001d3b8       ??_C@_0BC@HLLEKIOM@CAMELLIA?9192?9CMAC@ 00000000000ba2b8     OpensslLib:obj_dat.obj
 0002:0001d3d0       ??_C@_0BC@LLCGOCLP@camellia?9192?9cmac@ 00000000000ba2d0     OpensslLib:obj_dat.obj
 0002:0001d3e8       ??_C@_0BB@BBKBIIDA@CAMELLIA?9256?9GCM@ 00000000000ba2e8     OpensslLib:obj_dat.obj
 0002:0001d400       ??_C@_0BB@COJFGIH@camellia?9256?9gcm@ 00000000000ba300     OpensslLib:obj_dat.obj
 0002:0001d418       ??_C@_0BB@JOMDBPGH@CAMELLIA?9256?9CCM@ 00000000000ba318     OpensslLib:obj_dat.obj
 0002:0001d430       ??_C@_0BB@INILMBNA@camellia?9256?9ccm@ 00000000000ba330     OpensslLib:obj_dat.obj
 0002:0001d448       ??_C@_0BB@EKPAKEAM@CAMELLIA?9256?9CTR@ 00000000000ba348     OpensslLib:obj_dat.obj
 0002:0001d460       ??_C@_0BB@FJLIHKLL@camellia?9256?9ctr@ 00000000000ba360     OpensslLib:obj_dat.obj
 0002:0001d478       ??_C@_0BC@OBNJKFHF@CAMELLIA?9256?9CMAC@ 00000000000ba378     OpensslLib:obj_dat.obj
 0002:0001d490       ??_C@_0BC@CBELOPCG@camellia?9256?9cmac@ 00000000000ba390     OpensslLib:obj_dat.obj
 0002:0001d4a8       ??_C@_09ILBMCAEF@id?9scrypt@ 00000000000ba3a8     OpensslLib:obj_dat.obj
 0002:0001d4b4       ??_C@_06LLPEBPNI@scrypt@   00000000000ba3b4     OpensslLib:obj_dat.obj
 0002:0001d4c0       ??_C@_07BKIAFLHB@id?9tc26@ 00000000000ba3c0     OpensslLib:obj_dat.obj
 0002:0001d4c8       ??_C@_0O@HGEOMPGF@gost89?9cnt?912@ 00000000000ba3c8     OpensslLib:obj_dat.obj
 0002:0001d4d8       ??_C@_0BD@PKHBIAHP@id?9tc26?9algorithms@ 00000000000ba3d8     OpensslLib:obj_dat.obj
 0002:0001d4f0       ??_C@_0N@HMCOAPHF@id?9tc26?9sign@ 00000000000ba3f0     OpensslLib:obj_dat.obj
 0002:0001d500       ??_C@_0CH@DJAHIKCF@GOST?5R?534?410?92012?5with?5256?5bit?5@ 00000000000ba400     OpensslLib:obj_dat.obj
 0002:0001d528       ??_C@_0CH@FHCOJICI@GOST?5R?534?410?92012?5with?5512?5bit?5@ 00000000000ba428     OpensslLib:obj_dat.obj
 0002:0001d550       ??_C@_0P@KKGLKDLG@id?9tc26?9digest@ 00000000000ba450     OpensslLib:obj_dat.obj
 0002:0001d560       ??_C@_0O@CBIKGGLN@md_gost12_256@ 00000000000ba460     OpensslLib:obj_dat.obj
 0002:0001d570       ??_C@_0CE@FGDJHNGL@GOST?5R?534?411?92012?5with?5256?5bit?5@ 00000000000ba470     OpensslLib:obj_dat.obj
 0002:0001d598       ??_C@_0O@NPDIDDNM@md_gost12_512@ 00000000000ba498     OpensslLib:obj_dat.obj
 0002:0001d5a8       ??_C@_0CE@JIJFDDMO@GOST?5R?534?411?92012?5with?5512?5bit?5@ 00000000000ba4a8     OpensslLib:obj_dat.obj
 0002:0001d5d0       ??_C@_0BH@DGELPKNI@id?9tc26?9signwithdigest@ 00000000000ba4d0     OpensslLib:obj_dat.obj
 0002:0001d5e8       ??_C@_0CJ@IEAKGPIK@id?9tc26?9signwithdigest?9gost3410@ 00000000000ba4e8     OpensslLib:obj_dat.obj
 0002:0001d618       ??_C@_0DD@IIJACCAI@GOST?5R?534?410?92012?5with?5GOST?5R?53@ 00000000000ba518     OpensslLib:obj_dat.obj
 0002:0001d650       ??_C@_0CJ@HKLIDKOL@id?9tc26?9signwithdigest?9gost3410@ 00000000000ba550     OpensslLib:obj_dat.obj
 0002:0001d680       ??_C@_0DD@JMPEGFCI@GOST?5R?534?410?92012?5with?5GOST?5R?53@ 00000000000ba580     OpensslLib:obj_dat.obj
 0002:0001d6b8       ??_C@_0M@ICFDDKIB@id?9tc26?9mac@ 00000000000ba5b8     OpensslLib:obj_dat.obj
 0002:0001d6c8       ??_C@_0CA@JKDKOOFJ@id?9tc26?9hmac?9gost?93411?92012?9256@ 00000000000ba5c8     OpensslLib:obj_dat.obj
 0002:0001d6e8       ??_C@_0BN@JOOLALJM@HMAC?5GOST?534?411?92012?5256?5bit@ 00000000000ba5e8     OpensslLib:obj_dat.obj
 0002:0001d708       ??_C@_0CA@GEIILLDI@id?9tc26?9hmac?9gost?93411?92012?9512@ 00000000000ba608     OpensslLib:obj_dat.obj
 0002:0001d728       ??_C@_0BN@PLPAGEIA@HMAC?5GOST?534?411?92012?5512?5bit@ 00000000000ba628     OpensslLib:obj_dat.obj
 0002:0001d748       ??_C@_0P@BJHHGDD@id?9tc26?9cipher@ 00000000000ba648     OpensslLib:obj_dat.obj
 0002:0001d758       ??_C@_0BC@DJLELDPH@id?9tc26?9agreement@ 00000000000ba658     OpensslLib:obj_dat.obj
 0002:0001d770       ??_C@_0CF@JALEKNFA@id?9tc26?9agreement?9gost?93410?9201@ 00000000000ba670     OpensslLib:obj_dat.obj
 0002:0001d798       ??_C@_0CF@GOAGPIDB@id?9tc26?9agreement?9gost?93410?9201@ 00000000000ba698     OpensslLib:obj_dat.obj
 0002:0001d7c0       ??_C@_0BC@CNAIEHBN@id?9tc26?9constants@ 00000000000ba6c0     OpensslLib:obj_dat.obj
 0002:0001d7d8       ??_C@_0BH@FMPMHLHM@id?9tc26?9sign?9constants@ 00000000000ba6d8     OpensslLib:obj_dat.obj
 0002:0001d7f0       ??_C@_0CF@ONCEGCLN@id?9tc26?9gost?93410?92012?9512?9cons@ 00000000000ba6f0     OpensslLib:obj_dat.obj
 0002:0001d818       ??_C@_0CI@GGHEPEIH@id?9tc26?9gost?93410?92012?9512?9para@ 00000000000ba718     OpensslLib:obj_dat.obj
 0002:0001d840       ??_C@_0DC@INCJCNBI@GOST?5R?534?410?92012?5?$CI512?5bit?$CJ?5tes@ 00000000000ba740     OpensslLib:obj_dat.obj
 0002:0001d878       ??_C@_0CF@PHGDEBIC@id?9tc26?9gost?93410?92012?9512?9para@ 00000000000ba778     OpensslLib:obj_dat.obj
 0002:0001d8a0       ??_C@_0CH@KEBIEEKM@GOST?5R?534?410?92012?5?$CI512?5bit?$CJ?5Par@ 00000000000ba7a0     OpensslLib:obj_dat.obj
 0002:0001d8c8       ??_C@_0CF@NMEOBCEB@id?9tc26?9gost?93410?92012?9512?9para@ 00000000000ba7c8     OpensslLib:obj_dat.obj
 0002:0001d8f0       ??_C@_0CH@IPDFBHGP@GOST?5R?534?410?92012?5?$CI512?5bit?$CJ?5Par@ 00000000000ba7f0     OpensslLib:obj_dat.obj
 0002:0001d918       ??_C@_0BJ@GEIKEFNA@id?9tc26?9digest?9constants@ 00000000000ba818     OpensslLib:obj_dat.obj
 0002:0001d938       ??_C@_0BJ@NHFOAFHC@id?9tc26?9cipher?9constants@ 00000000000ba838     OpensslLib:obj_dat.obj
 0002:0001d958       ??_C@_0BN@EAAGDAMM@id?9tc26?9gost?928147?9constants@ 00000000000ba858     OpensslLib:obj_dat.obj
 0002:0001d978       ??_C@_0BL@JJBMFHGO@id?9tc26?9gost?928147?9param?9Z@ 00000000000ba878     OpensslLib:obj_dat.obj
 0002:0001d998       ??_C@_0CB@CNOGCECB@GOST?528147?989?5TC26?5parameter?5se@ 00000000000ba898     OpensslLib:obj_dat.obj
 0002:0001d9bc       ??_C@_03CMFJPFBF@INN@      00000000000ba8bc     OpensslLib:obj_dat.obj
 0002:0001d9c0       ??_C@_04OEHPDPKL@OGRN@     00000000000ba8c0     OpensslLib:obj_dat.obj
 0002:0001d9c8       ??_C@_05CNOOKPKJ@SNILS@    00000000000ba8c8     OpensslLib:obj_dat.obj
 0002:0001d9d0       ??_C@_0BA@NDMKBCND@subjectSignTool@ 00000000000ba8d0     OpensslLib:obj_dat.obj
 0002:0001d9e0       ??_C@_0BI@GJCFDOKO@Signing?5Tool?5of?5Subject@ 00000000000ba8e0     OpensslLib:obj_dat.obj
 0002:0001d9f8       ??_C@_0P@DOAHENPB@issuerSignTool@ 00000000000ba8f8     OpensslLib:obj_dat.obj
 0002:0001da08       ??_C@_0BH@GHEABPMA@Signing?5Tool?5of?5Issuer@ 00000000000ba908     OpensslLib:obj_dat.obj
 0002:0001da20       ??_C@_0L@IBPHNLAN@gost89?9cbc@ 00000000000ba920     OpensslLib:obj_dat.obj
 0002:0001da30       ??_C@_0L@LMEFNPKH@gost89?9ecb@ 00000000000ba930     OpensslLib:obj_dat.obj
 0002:0001da40       ??_C@_0L@MKIFCHNP@gost89?9ctr@ 00000000000ba940     OpensslLib:obj_dat.obj
 0002:0001da50       ??_C@_0BA@BNIBKCOB@grasshopper?9ecb@ 00000000000ba950     OpensslLib:obj_dat.obj
 0002:0001da60       ??_C@_0BA@GLEBFKJJ@grasshopper?9ctr@ 00000000000ba960     OpensslLib:obj_dat.obj
 0002:0001da70       ??_C@_0BA@HEPHIAGO@grasshopper?9ofb@ 00000000000ba970     OpensslLib:obj_dat.obj
 0002:0001da80       ??_C@_0BA@CADDKGEL@grasshopper?9cbc@ 00000000000ba980     OpensslLib:obj_dat.obj
 0002:0001da90       ??_C@_0BA@DOCBDPNG@grasshopper?9cfb@ 00000000000ba990     OpensslLib:obj_dat.obj
 0002:0001daa0       ??_C@_0BA@MCKKGPCB@grasshopper?9mac@ 00000000000ba9a0     OpensslLib:obj_dat.obj
 0002:0001dab0       ??_C@_0BC@PEKIBJLH@ChaCha20?9Poly1305@ 00000000000ba9b0     OpensslLib:obj_dat.obj
 0002:0001dac8       ??_C@_0BC@KDNKBNLK@chacha20?9poly1305@ 00000000000ba9c8     OpensslLib:obj_dat.obj
 0002:0001dae0       ??_C@_08ILJLPLOJ@ChaCha20@ 00000000000ba9e0     OpensslLib:obj_dat.obj
 0002:0001daf0       ??_C@_08OMGHMHM@chacha20@  00000000000ba9f0     OpensslLib:obj_dat.obj
 0002:0001db00       ??_C@_0L@MLJIFHHA@tlsfeature@ 00000000000baa00     OpensslLib:obj_dat.obj
 0002:0001db10       ??_C@_0M@FNEPCNIJ@TLS?5Feature@ 00000000000baa10     OpensslLib:obj_dat.obj
 0002:0001db20       ??_C@_08KOCGPNOB@TLS1?9PRF@ 00000000000baa20     OpensslLib:obj_dat.obj
 0002:0001db30       ??_C@_08BHOHOJPE@tls1?9prf@ 00000000000baa30     OpensslLib:obj_dat.obj
 0002:0001db40       ??_C@_08JJANKCK@ipsecIKE@  00000000000baa40     OpensslLib:obj_dat.obj
 0002:0001db50       ??_C@_0BM@OPBJFEOG@ipsec?5Internet?5Key?5Exchange@ 00000000000baa50     OpensslLib:obj_dat.obj
 0002:0001db70       ??_C@_08PPHHBOBH@capwapAC@ 00000000000baa70     OpensslLib:obj_dat.obj
 0002:0001db80       ??_C@_0BK@IALCAIEG@Ctrl?1provision?5WAP?5Access@ 00000000000baa80     OpensslLib:obj_dat.obj
 0002:0001dba0       ??_C@_09FFIMBCDL@capwapWTP@ 00000000000baaa0     OpensslLib:obj_dat.obj
 0002:0001dbb0       ??_C@_0BP@LFGCKHED@Ctrl?1Provision?5WAP?5Termination@ 00000000000baab0     OpensslLib:obj_dat.obj
 0002:0001dbd0       ??_C@_0BC@DBPEJOAM@secureShellClient@ 00000000000baad0     OpensslLib:obj_dat.obj
 0002:0001dbe8       ??_C@_0L@CACOODCE@SSH?5Client@ 00000000000baae8     OpensslLib:obj_dat.obj
 0002:0001dbf8       ??_C@_0BC@HOLGEFIP@secureShellServer@ 00000000000baaf8     OpensslLib:obj_dat.obj
 0002:0001dc10       ??_C@_0L@GPGMDIKH@SSH?5Server@ 00000000000bab10     OpensslLib:obj_dat.obj
 0002:0001dc20       ??_C@_0L@MPOEEOHI@sendRouter@ 00000000000bab20     OpensslLib:obj_dat.obj
 0002:0001dc30       ??_C@_0M@BCAJACPB@Send?5Router@ 00000000000bab30     OpensslLib:obj_dat.obj
 0002:0001dc40       ??_C@_0BC@KKHBJBOB@sendProxiedRouter@ 00000000000bab40     OpensslLib:obj_dat.obj
 0002:0001dc58       ??_C@_0BE@JHOOFFHO@Send?5Proxied?5Router@ 00000000000bab58     OpensslLib:obj_dat.obj
 0002:0001dc70       ??_C@_09JAHHKBGP@sendOwner@ 00000000000bab70     OpensslLib:obj_dat.obj
 0002:0001dc80       ??_C@_0L@HAEHOBAA@Send?5Owner@ 00000000000bab80     OpensslLib:obj_dat.obj
 0002:0001dc90       ??_C@_0BB@LFHBPODH@sendProxiedOwner@ 00000000000bab90     OpensslLib:obj_dat.obj
 0002:0001dca8       ??_C@_0BD@PCCALGFC@Send?5Proxied?5Owner@ 00000000000baba8     OpensslLib:obj_dat.obj
 0002:0001dcc0       ??_C@_09JPKOOJPP@id?9pkinit@ 00000000000babc0     OpensslLib:obj_dat.obj
 0002:0001dcd0       ??_C@_0BB@EPFMAKG@pkInitClientAuth@ 00000000000babd0     OpensslLib:obj_dat.obj
 0002:0001dce8       ??_C@_0BD@EMKKJPI@PKINIT?5Client?5Auth@ 00000000000babe8     OpensslLib:obj_dat.obj
 0002:0001dd00       ??_C@_09BKCKBNGN@pkInitKDC@ 00000000000bac00     OpensslLib:obj_dat.obj
 0002:0001dd10       ??_C@_0BF@JILKFMLF@Signing?5KDC?5Response@ 00000000000bac10     OpensslLib:obj_dat.obj
 0002:0001dd28       ??_C@_06LOACBMIP@X25519@   00000000000bac28     OpensslLib:obj_dat.obj
 0002:0001dd30       ??_C@_04HKAKBCKJ@X448@     00000000000bac30     OpensslLib:obj_dat.obj
 0002:0001dd38       ??_C@_04MMPLAJMJ@HKDF@     00000000000bac38     OpensslLib:obj_dat.obj
 0002:0001dd40       ??_C@_04MBOLLB@hkdf@       00000000000bac40     OpensslLib:obj_dat.obj
 0002:0001dd48       ??_C@_05EJMCGHJ@KxRSA@     00000000000bac48     OpensslLib:obj_dat.obj
 0002:0001dd50       ??_C@_06NOGFLIHP@kx?9rsa@  00000000000bac50     OpensslLib:obj_dat.obj
 0002:0001dd58       ??_C@_07JGJKHBHF@KxECDHE@  00000000000bac58     OpensslLib:obj_dat.obj
 0002:0001dd60       ??_C@_08HKLONAAL@kx?9ecdhe@ 00000000000bac60     OpensslLib:obj_dat.obj
 0002:0001dd6c       ??_C@_05FPBKHKP@KxDHE@     00000000000bac6c     OpensslLib:obj_dat.obj
 0002:0001dd74       ??_C@_06NPAIDJKJ@kx?9dhe@  00000000000bac74     OpensslLib:obj_dat.obj
 0002:0001dd80       ??_C@_0M@BEDLOEBI@KxECDHE?9PSK@ 00000000000bac80     OpensslLib:obj_dat.obj
 0002:0001dd90       ??_C@_0N@BCMOIGGJ@kx?9ecdhe?9psk@ 00000000000bac90     OpensslLib:obj_dat.obj
 0002:0001dda0       ??_C@_09DLNJIEPF@KxDHE?9PSK@ 00000000000baca0     OpensslLib:obj_dat.obj
 0002:0001ddb0       ??_C@_0L@EHLMOCJB@kx?9dhe?9psk@ 00000000000bacb0     OpensslLib:obj_dat.obj
 0002:0001ddc0       ??_C@_09PMFHIFNE@KxRSA_PSK@ 00000000000bacc0     OpensslLib:obj_dat.obj
 0002:0001ddd0       ??_C@_0L@DCAFABP@kx?9rsa?9psk@ 00000000000bacd0     OpensslLib:obj_dat.obj
 0002:0001dddc       ??_C@_05FEHKAGHI@KxPSK@    00000000000bacdc     OpensslLib:obj_dat.obj
 0002:0001dde4       ??_C@_06IOIDJIHO@kx?9psk@  00000000000bace4     OpensslLib:obj_dat.obj
 0002:0001ddec       ??_C@_05OODLAIDL@KxSRP@    00000000000bacec     OpensslLib:obj_dat.obj
 0002:0001ddf4       ??_C@_06DEMCJGDN@kx?9srp@  00000000000bacf4     OpensslLib:obj_dat.obj
 0002:0001ddfc       ??_C@_06FKGHEKCF@KxGOST@   00000000000bacfc     OpensslLib:obj_dat.obj
 0002:0001de08       ??_C@_07CGFKDCCM@kx?9gost@ 00000000000bad08     OpensslLib:obj_dat.obj
 0002:0001de10       ??_C@_07BONHEHLG@AuthRSA@  00000000000bad10     OpensslLib:obj_dat.obj
 0002:0001de18       ??_C@_08JIOIJHAA@auth?9rsa@ 00000000000bad18     OpensslLib:obj_dat.obj
 0002:0001de28       ??_C@_09JEFCHIOE@AuthECDSA@ 00000000000bad28     OpensslLib:obj_dat.obj
 0002:0001de38       ??_C@_0L@NNHEHHD@auth?9ecdsa@ 00000000000bad38     OpensslLib:obj_dat.obj
 0002:0001de48       ??_C@_07EODBGHLH@AuthPSK@  00000000000bad48     OpensslLib:obj_dat.obj
 0002:0001de50       ??_C@_08MIAOLHAB@auth?9psk@ 00000000000bad50     OpensslLib:obj_dat.obj
 0002:0001de60       ??_C@_07BDFBDPCG@AuthDSS@  00000000000bad60     OpensslLib:obj_dat.obj
 0002:0001de68       ??_C@_08JFGOOPJA@auth?9dss@ 00000000000bad68     OpensslLib:obj_dat.obj
 0002:0001de78       ??_C@_0L@JLNHNDLF@AuthGOST01@ 00000000000bad78     OpensslLib:obj_dat.obj
 0002:0001de88       ??_C@_0M@MNGIBGIN@auth?9gost01@ 00000000000bad88     OpensslLib:obj_dat.obj
 0002:0001de98       ??_C@_0L@LBDIOKEB@AuthGOST12@ 00000000000bad98     OpensslLib:obj_dat.obj
 0002:0001dea8       ??_C@_0M@OHIHCPHJ@auth?9gost12@ 00000000000bada8     OpensslLib:obj_dat.obj
 0002:0001deb8       ??_C@_07PEHAGJPE@AuthSRP@  00000000000badb8     OpensslLib:obj_dat.obj
 0002:0001dec0       ??_C@_08HCEPLJEC@auth?9srp@ 00000000000badc0     OpensslLib:obj_dat.obj
 0002:0001ded0       ??_C@_08PGHDHHPL@AuthNULL@ 00000000000badd0     OpensslLib:obj_dat.obj
 0002:0001dee0       ??_C@_09EBHDHKDA@auth?9null@ 00000000000bade0     OpensslLib:obj_dat.obj
 0002:0001def0       ??_C@_0L@JAJLMLPM@BLAKE2b512@ 00000000000badf0     OpensslLib:obj_dat.obj
 0002:0001df00       ??_C@_0L@ONGAJOJC@blake2b512@ 00000000000bae00     OpensslLib:obj_dat.obj
 0002:0001df10       ??_C@_0L@DDKJCAKP@BLAKE2s256@ 00000000000bae10     OpensslLib:obj_dat.obj
 0002:0001df20       ??_C@_0L@EOFCHFMB@blake2s256@ 00000000000bae20     OpensslLib:obj_dat.obj
 0002:0001df30       ??_C@_0BO@OGCFEAKN@id?9smime?9ct?9contentCollection@ 00000000000bae30     OpensslLib:obj_dat.obj
 0002:0001df50       ??_C@_0BO@INCMCPON@id?9smime?9ct?9authEnvelopedData@ 00000000000bae50     OpensslLib:obj_dat.obj
 0002:0001df70       ??_C@_09GGALBJKN@id?9ct?9xml@ 00000000000bae70     OpensslLib:obj_dat.obj
 0002:0001df80       ??_C@_08PKNBIDPH@Poly1305@ 00000000000bae80     OpensslLib:obj_dat.obj
 0002:0001df90       ??_C@_08HICAABFE@poly1305@ 00000000000bae90     OpensslLib:obj_dat.obj
 0002:0001dfa0       ??_C@_07EEPCGEAM@SipHash@  00000000000baea0     OpensslLib:obj_dat.obj
 0002:0001dfa8       ??_C@_07HMEFCJFO@siphash@  00000000000baea8     OpensslLib:obj_dat.obj
 0002:0001dfb0       ??_C@_05NANFHGHC@KxANY@    00000000000baeb0     OpensslLib:obj_dat.obj
 0002:0001dfb8       ??_C@_06KCMOIHE@kx?9any@   00000000000baeb8     OpensslLib:obj_dat.obj
 0002:0001dfc0       ??_C@_07MKJOBHLN@AuthANY@  00000000000baec0     OpensslLib:obj_dat.obj
 0002:0001dfc8       ??_C@_08EMKBMHAL@auth?9any@ 00000000000baec8     OpensslLib:obj_dat.obj
 0002:0001dfd8       ??_C@_0N@FEKJCEDM@ARIA?9128?9ECB@ 00000000000baed8     OpensslLib:obj_dat.obj
 0002:0001dfe8       ??_C@_0N@DLNMPFEK@aria?9128?9ecb@ 00000000000baee8     OpensslLib:obj_dat.obj
 0002:0001dff8       ??_C@_0N@GJBLCAJG@ARIA?9128?9CBC@ 00000000000baef8     OpensslLib:obj_dat.obj
 0002:0001e008       ??_C@_0N@GGOPBOA@aria?9128?9cbc@ 00000000000baf08     OpensslLib:obj_dat.obj
 0002:0001e018       ??_C@_0N@HHAJLJAL@ARIA?9128?9CFB@ 00000000000baf18     OpensslLib:obj_dat.obj
 0002:0001e028       ??_C@_0N@BIHMGIHN@aria?9128?9cfb@ 00000000000baf28     OpensslLib:obj_dat.obj
 0002:0001e038       ??_C@_0N@DNNPAGLD@ARIA?9128?9OFB@ 00000000000baf38     OpensslLib:obj_dat.obj
 0002:0001e048       ??_C@_0N@FCKKNHMF@aria?9128?9ofb@ 00000000000baf48     OpensslLib:obj_dat.obj
 0002:0001e058       ??_C@_0N@CCGJNMEE@ARIA?9128?9CTR@ 00000000000baf58     OpensslLib:obj_dat.obj
 0002:0001e068       ??_C@_0N@ENBMANDC@aria?9128?9ctr@ 00000000000baf68     OpensslLib:obj_dat.obj
 0002:0001e078       ??_C@_0N@PHDFFDKA@ARIA?9192?9ECB@ 00000000000baf78     OpensslLib:obj_dat.obj
 0002:0001e088       ??_C@_0N@JIEAICNG@aria?9192?9ecb@ 00000000000baf88     OpensslLib:obj_dat.obj
 0002:0001e098       ??_C@_0N@MKIHFHAK@ARIA?9192?9CBC@ 00000000000baf98     OpensslLib:obj_dat.obj
 0002:0001e0a8       ??_C@_0N@KFPCIGHM@aria?9192?9cbc@ 00000000000bafa8     OpensslLib:obj_dat.obj
 0002:0001e0b8       ??_C@_0N@NEJFMOJH@ARIA?9192?9CFB@ 00000000000bafb8     OpensslLib:obj_dat.obj
 0002:0001e0c8       ??_C@_0N@LLOABPOB@aria?9192?9cfb@ 00000000000bafc8     OpensslLib:obj_dat.obj
 0002:0001e0d8       ??_C@_0N@JOEDHBCP@ARIA?9192?9OFB@ 00000000000bafd8     OpensslLib:obj_dat.obj
 0002:0001e0e8       ??_C@_0N@PBDGKAFJ@aria?9192?9ofb@ 00000000000bafe8     OpensslLib:obj_dat.obj
 0002:0001e0f8       ??_C@_0N@IBPFKLNI@ARIA?9192?9CTR@ 00000000000baff8     OpensslLib:obj_dat.obj
 0002:0001e108       ??_C@_0N@OOIAHKKO@aria?9192?9ctr@ 00000000000bb008     OpensslLib:obj_dat.obj
 0002:0001e118       ??_C@_0N@CFILHMCB@ARIA?9256?9ECB@ 00000000000bb018     OpensslLib:obj_dat.obj
 0002:0001e128       ??_C@_0N@EKPOKNFH@aria?9256?9ecb@ 00000000000bb028     OpensslLib:obj_dat.obj
 0002:0001e138       ??_C@_0N@BIDJHIIL@ARIA?9256?9CBC@ 00000000000bb038     OpensslLib:obj_dat.obj
 0002:0001e148       ??_C@_0N@HHEMKJPN@aria?9256?9cbc@ 00000000000bb048     OpensslLib:obj_dat.obj
 0002:0001e158       ??_C@_0N@GCLOBBG@ARIA?9256?9CFB@ 00000000000bb058     OpensslLib:obj_dat.obj
 0002:0001e168       ??_C@_0N@GJFODAGA@aria?9256?9cfb@ 00000000000bb068     OpensslLib:obj_dat.obj
 0002:0001e178       ??_C@_0N@EMPNFOKO@ARIA?9256?9OFB@ 00000000000bb078     OpensslLib:obj_dat.obj
 0002:0001e188       ??_C@_0N@CDIIIPNI@aria?9256?9ofb@ 00000000000bb088     OpensslLib:obj_dat.obj
 0002:0001e198       ??_C@_0N@FDELIEFJ@ARIA?9256?9CTR@ 00000000000bb098     OpensslLib:obj_dat.obj
 0002:0001e1a8       ??_C@_0N@DMDOFFCP@aria?9256?9ctr@ 00000000000bb0a8     OpensslLib:obj_dat.obj
 0002:0001e1b8       ??_C@_0O@FBPINHID@ARIA?9128?9CFB1@ 00000000000bb0b8     OpensslLib:obj_dat.obj
 0002:0001e1c8       ??_C@_0O@OIPBHGFL@aria?9128?9cfb1@ 00000000000bb0c8     OpensslLib:obj_dat.obj
 0002:0001e1d8       ??_C@_0O@KIOCJEJL@ARIA?9192?9CFB1@ 00000000000bb0d8     OpensslLib:obj_dat.obj
 0002:0001e1e8       ??_C@_0O@BBOLDFED@aria?9192?9cfb1@ 00000000000bb0e8     OpensslLib:obj_dat.obj
 0002:0001e1f8       ??_C@_0O@DCIPJJAC@ARIA?9256?9CFB1@ 00000000000bb0f8     OpensslLib:obj_dat.obj
 0002:0001e208       ??_C@_0O@ILIGDINK@aria?9256?9cfb1@ 00000000000bb108     OpensslLib:obj_dat.obj
 0002:0001e218       ??_C@_0O@IADKGMMK@ARIA?9128?9CFB8@ 00000000000bb118     OpensslLib:obj_dat.obj
 0002:0001e228       ??_C@_0O@DJDDMNBC@aria?9128?9cfb8@ 00000000000bb128     OpensslLib:obj_dat.obj
 0002:0001e238       ??_C@_0O@HJCACPNC@ARIA?9192?9CFB8@ 00000000000bb138     OpensslLib:obj_dat.obj
 0002:0001e248       ??_C@_0O@MACJIOAK@aria?9192?9cfb8@ 00000000000bb148     OpensslLib:obj_dat.obj
 0002:0001e258       ??_C@_0O@ODENCCEL@ARIA?9256?9CFB8@ 00000000000bb158     OpensslLib:obj_dat.obj
 0002:0001e268       ??_C@_0O@FKEEIDJD@aria?9256?9cfb8@ 00000000000bb168     OpensslLib:obj_dat.obj
 0002:0001e278       ??_C@_0CB@IFNLAOKJ@id?9smime?9aa?9signingCertificateV@ 00000000000bb178     OpensslLib:obj_dat.obj
 0002:0001e2a0       ??_C@_07IHEPCGKL@ED25519@  00000000000bb1a0     OpensslLib:obj_dat.obj
 0002:0001e2a8       ??_C@_05PHGPKFEL@ED448@    00000000000bb1a8     OpensslLib:obj_dat.obj
 0002:0001e2b0       ??_C@_0BH@IMGBFLPH@organizationIdentifier@ 00000000000bb1b0     OpensslLib:obj_dat.obj
 0002:0001e2c8       ??_C@_02LOEEDGKE@c3@       00000000000bb1c8     OpensslLib:obj_dat.obj
 0002:0001e2d0       ??_C@_0O@FPCOELAL@countryCode3c@ 00000000000bb1d0     OpensslLib:obj_dat.obj
 0002:0001e2e0       ??_C@_02LGJMKFPH@n3@       00000000000bb1e0     OpensslLib:obj_dat.obj
 0002:0001e2e8       ??_C@_0O@OKIADFEG@countryCode3n@ 00000000000bb1e8     OpensslLib:obj_dat.obj
 0002:0001e2f8       ??_C@_07KEJPHHNP@dnsName@  00000000000bb1f8     OpensslLib:obj_dat.obj
 0002:0001e300       ??_C@_0BB@NCOFGOBL@x509ExtAdmission@ 00000000000bb200     OpensslLib:obj_dat.obj
 0002:0001e318       ??_C@_0DA@NCCMDEGO@Professional?5Information?5or?5bas@ 00000000000bb218     OpensslLib:obj_dat.obj
 0002:0001e348       ??_C@_0L@EEJNOJOJ@SHA512?9224@ 00000000000bb248     OpensslLib:obj_dat.obj
 0002:0001e358       ??_C@_0L@PKNOHEN@sha512?9224@ 00000000000bb258     OpensslLib:obj_dat.obj
 0002:0001e368       ??_C@_0L@HDOEJNOO@SHA512?9256@ 00000000000bb268     OpensslLib:obj_dat.obj
 0002:0001e378       ??_C@_0L@DINEJDEK@sha512?9256@ 00000000000bb278     OpensslLib:obj_dat.obj
 0002:0001e388       ??_C@_08DHHFFNOC@SHA3?9224@ 00000000000bb288     OpensslLib:obj_dat.obj
 0002:0001e398       ??_C@_08IDEPIEIL@sha3?9224@ 00000000000bb298     OpensslLib:obj_dat.obj
 0002:0001e3a8       ??_C@_08MCJOF@SHA3?9256@   00000000000bb2a8     OpensslLib:obj_dat.obj
 0002:0001e3b8       ??_C@_08LEDGPAIM@sha3?9256@ 00000000000bb2b8     OpensslLib:obj_dat.obj
 0002:0001e3c8       ??_C@_08ICFOLPFB@SHA3?9384@ 00000000000bb2c8     OpensslLib:obj_dat.obj
 0002:0001e3d8       ??_C@_08DGGEGGDI@sha3?9384@ 00000000000bb2d8     OpensslLib:obj_dat.obj
 0002:0001e3e8       ??_C@_08POLOHMIE@SHA3?9512@ 00000000000bb2e8     OpensslLib:obj_dat.obj
 0002:0001e3f8       ??_C@_08EKIEKFON@sha3?9512@ 00000000000bb2f8     OpensslLib:obj_dat.obj
 0002:0001e408       ??_C@_08MHEGAOCA@SHAKE128@ 00000000000bb308     OpensslLib:obj_dat.obj
 0002:0001e418       ??_C@_08LFBBPNHL@shake128@ 00000000000bb318     OpensslLib:obj_dat.obj
 0002:0001e428       ??_C@_08EODPJKMF@SHAKE256@ 00000000000bb328     OpensslLib:obj_dat.obj
 0002:0001e438       ??_C@_08DMGIGJJO@shake256@ 00000000000bb338     OpensslLib:obj_dat.obj
 0002:0001e448       ??_C@_0BE@MGFGMONP@id?9hmacWithSHA3?9224@ 00000000000bb348     OpensslLib:obj_dat.obj
 0002:0001e460       ??_C@_0O@ICMEJKOD@hmac?9sha3?9224@ 00000000000bb360     OpensslLib:obj_dat.obj
 0002:0001e470       ??_C@_0BE@PBCPLKNI@id?9hmacWithSHA3?9256@ 00000000000bb370     OpensslLib:obj_dat.obj
 0002:0001e488       ??_C@_0O@LFLNOOOE@hmac?9sha3?9256@ 00000000000bb388     OpensslLib:obj_dat.obj
 0002:0001e498       ??_C@_0BE@HDHNCMGM@id?9hmacWithSHA3?9384@ 00000000000bb398     OpensslLib:obj_dat.obj
 0002:0001e4b0       ??_C@_0O@DHOPHIFA@hmac?9sha3?9384@ 00000000000bb3b0     OpensslLib:obj_dat.obj
 0002:0001e4c0       ??_C@_0BE@PJNOPLJ@id?9hmacWithSHA3?9512@ 00000000000bb3c0     OpensslLib:obj_dat.obj
 0002:0001e4d8       ??_C@_0O@ELAPLLIF@hmac?9sha3?9512@ 00000000000bb3d8     OpensslLib:obj_dat.obj
 0002:0001e4e8       ??_C@_0BD@LAAPDDDN@id?9dsa?9with?9sha384@ 00000000000bb3e8     OpensslLib:obj_dat.obj
 0002:0001e500       ??_C@_0BA@NOAAHENE@dsa_with_SHA384@ 00000000000bb400     OpensslLib:obj_dat.obj
 0002:0001e510       ??_C@_0BD@MMOPPAOI@id?9dsa?9with?9sha512@ 00000000000bb410     OpensslLib:obj_dat.obj
 0002:0001e528       ??_C@_0BA@KCOALHAB@dsa_with_SHA512@ 00000000000bb428     OpensslLib:obj_dat.obj
 0002:0001e538       ??_C@_0BF@MEJGBMIA@id?9dsa?9with?9sha3?9224@ 00000000000bb438     OpensslLib:obj_dat.obj
 0002:0001e550       ??_C@_0BC@KDJCOOBJ@dsa_with_SHA3?9224@ 00000000000bb450     OpensslLib:obj_dat.obj
 0002:0001e568       ??_C@_0BF@PDOPGIIH@id?9dsa?9with?9sha3?9256@ 00000000000bb468     OpensslLib:obj_dat.obj
 0002:0001e580       ??_C@_0BC@JEOLJKBO@dsa_with_SHA3?9256@ 00000000000bb480     OpensslLib:obj_dat.obj
 0002:0001e598       ??_C@_0BF@HBLNPODD@id?9dsa?9with?9sha3?9384@ 00000000000bb498     OpensslLib:obj_dat.obj
 0002:0001e5b0       ??_C@_0BC@BGLJAMKK@dsa_with_SHA3?9384@ 00000000000bb4b0     OpensslLib:obj_dat.obj
 0002:0001e5c8       ??_C@_0BF@NFNDNOG@id?9dsa?9with?9sha3?9512@ 00000000000bb4c8     OpensslLib:obj_dat.obj
 0002:0001e5e0       ??_C@_0BC@GKFJMPHP@dsa_with_SHA3?9512@ 00000000000bb4e0     OpensslLib:obj_dat.obj
 0002:0001e5f8       ??_C@_0BH@CPKNOLKD@id?9ecdsa?9with?9sha3?9224@ 00000000000bb4f8     OpensslLib:obj_dat.obj
 0002:0001e610       ??_C@_0BE@HAIIGEO@ecdsa_with_SHA3?9224@ 00000000000bb510     OpensslLib:obj_dat.obj
 0002:0001e628       ??_C@_0BH@BINEJPKE@id?9ecdsa?9with?9sha3?9256@ 00000000000bb528     OpensslLib:obj_dat.obj
 0002:0001e640       ??_C@_0BE@DAHBPCEJ@ecdsa_with_SHA3?9256@ 00000000000bb540     OpensslLib:obj_dat.obj
 0002:0001e658       ??_C@_0BH@JKIGAJBA@id?9ecdsa?9with?9sha3?9384@ 00000000000bb558     OpensslLib:obj_dat.obj
 0002:0001e670       ??_C@_0BE@LCCDGEPN@ecdsa_with_SHA3?9384@ 00000000000bb570     OpensslLib:obj_dat.obj
 0002:0001e688       ??_C@_0BH@OGGGMKMF@id?9ecdsa?9with?9sha3?9512@ 00000000000bb588     OpensslLib:obj_dat.obj
 0002:0001e6a0       ??_C@_0BE@MOMDKHCI@ecdsa_with_SHA3?9512@ 00000000000bb5a0     OpensslLib:obj_dat.obj
 0002:0001e6b8       ??_C@_0CD@HOFJHNFO@id?9rsassa?9pkcs1?9v1_5?9with?9sha3?9@ 00000000000bb5b8     OpensslLib:obj_dat.obj
 0002:0001e6e0       ??_C@_0N@FBFOELEH@RSA?9SHA3?9224@ 00000000000bb5e0     OpensslLib:obj_dat.obj
 0002:0001e6f0       ??_C@_0CD@EJCAAJFJ@id?9rsassa?9pkcs1?9v1_5?9with?9sha3?9@ 00000000000bb5f0     OpensslLib:obj_dat.obj
 0002:0001e718       ??_C@_0N@GGCHDPEA@RSA?9SHA3?9256@ 00000000000bb618     OpensslLib:obj_dat.obj
 0002:0001e728       ??_C@_0CD@MLHCJPON@id?9rsassa?9pkcs1?9v1_5?9with?9sha3?9@ 00000000000bb628     OpensslLib:obj_dat.obj
 0002:0001e750       ??_C@_0N@OEHFKJPE@RSA?9SHA3?9384@ 00000000000bb650     OpensslLib:obj_dat.obj
 0002:0001e760       ??_C@_0CD@LHJCFMDI@id?9rsassa?9pkcs1?9v1_5?9with?9sha3?9@ 00000000000bb660     OpensslLib:obj_dat.obj
 0002:0001e788       ??_C@_0N@JIJFGKCB@RSA?9SHA3?9512@ 00000000000bb688     OpensslLib:obj_dat.obj
 0002:0001e798       ??_C@_0N@PGFKGHCP@ARIA?9128?9CCM@ 00000000000bb698     OpensslLib:obj_dat.obj
 0002:0001e7a8       ??_C@_0N@JJCPLGFJ@aria?9128?9ccm@ 00000000000bb6a8     OpensslLib:obj_dat.obj
 0002:0001e7b8       ??_C@_0N@FFMGBALD@ARIA?9192?9CCM@ 00000000000bb6b8     OpensslLib:obj_dat.obj
 0002:0001e7c8       ??_C@_0N@DKLDMBMF@aria?9192?9ccm@ 00000000000bb6c8     OpensslLib:obj_dat.obj
 0002:0001e7d8       ??_C@_0N@IHHIDPDC@ARIA?9256?9CCM@ 00000000000bb6d8     OpensslLib:obj_dat.obj
 0002:0001e7e8       ??_C@_0N@OIANOOEE@aria?9256?9ccm@ 00000000000bb6e8     OpensslLib:obj_dat.obj
 0002:0001e7f8       ??_C@_0N@HJDIPAHI@ARIA?9128?9GCM@ 00000000000bb6f8     OpensslLib:obj_dat.obj
 0002:0001e808       ??_C@_0N@BGENCBAO@aria?9128?9gcm@ 00000000000bb708     OpensslLib:obj_dat.obj
 0002:0001e818       ??_C@_0N@NKKEIHOE@ARIA?9192?9GCM@ 00000000000bb718     OpensslLib:obj_dat.obj
 0002:0001e828       ??_C@_0N@LFNBFGJC@aria?9192?9gcm@ 00000000000bb728     OpensslLib:obj_dat.obj
 0002:0001e838       ??_C@_0N@IBKKIGF@ARIA?9256?9GCM@ 00000000000bb738     OpensslLib:obj_dat.obj
 0002:0001e848       ??_C@_0N@GHGPHJBD@aria?9256?9gcm@ 00000000000bb748     OpensslLib:obj_dat.obj
 0002:0001e858       ??_C@_09EEADMLEK@ffdhe2048@ 00000000000bb758     OpensslLib:obj_dat.obj
 0002:0001e868       ??_C@_09IBMKLECJ@ffdhe3072@ 00000000000bb768     OpensslLib:obj_dat.obj
 0002:0001e878       ??_C@_09FNBIIADH@ffdhe4096@ 00000000000bb778     OpensslLib:obj_dat.obj
 0002:0001e888       ??_C@_09KFIKEFOD@ffdhe6144@ 00000000000bb788     OpensslLib:obj_dat.obj
 0002:0001e898       ??_C@_09EEDIMPFH@ffdhe8192@ 00000000000bb798     OpensslLib:obj_dat.obj
 0002:0001e8a4       ??_C@_05BDNCIFGE@cmcCA@    00000000000bb7a4     OpensslLib:obj_dat.obj
 0002:0001e8b0       ??_C@_0BK@LBDJBFMP@CMC?5Certificate?5Authority@ 00000000000bb7b0     OpensslLib:obj_dat.obj
 0002:0001e8cc       ??_C@_06HOHPNJLC@buffer@   00000000000bb7cc     OpensslLib:bf_buff.obj
 0002:0001e940       ??_C@_0CF@LKDMNFLO@Load?5certs?5from?5files?5in?5a?5dire@ 00000000000bb840     OpensslLib:by_dir.obj
 0002:0001e968       ??_C@_01KDCPPGHE@r@        00000000000bb868     OpensslLib:by_dir.obj
 0002:0001e970       ??_C@_0P@NEPFKFLK@?$CFs?$CFc?$CF08lx?4?$CFs?$CFd@ 00000000000bb870     OpensslLib:by_dir.obj
 0002:0001e980       ??_C@_08CBBMEOFB@critical@ 00000000000bb880     OpensslLib:x_exten.obj
 0002:0001e990       ??_C@_0P@OMHBNPIC@X509_EXTENSION@ 00000000000bb890     OpensslLib:x_exten.obj
 0002:0001e9a0       ??_C@_09KMFOEAAA@Extension@ 00000000000bb8a0     OpensslLib:x_exten.obj
 0002:0001e9b0       ??_C@_0BA@JCMMJNEE@X509_EXTENSIONS@ 00000000000bb8b0     OpensslLib:x_exten.obj
 0002:0001ea20       X509_EXTENSIONS_it         00000000000bb920     OpensslLib:x_exten.obj
 0002:0001ea70       X509_EXTENSION_it          00000000000bb970     OpensslLib:x_exten.obj
 0002:0001eaa0       ??_C@_0BM@GEKCFJOF@CLIENT_EARLY_TRAFFIC_SECRET@ 00000000000bb9a0     OpensslLib:tls13_enc.obj
 0002:0001eac0       ??_C@_0BG@GMANNGGB@EARLY_EXPORTER_SECRET@ 00000000000bb9c0     OpensslLib:tls13_enc.obj
 0002:0001eae0       ??_C@_0CA@JNANKIHN@CLIENT_HANDSHAKE_TRAFFIC_SECRET@ 00000000000bb9e0     OpensslLib:tls13_enc.obj
 0002:0001eb00       ??_C@_0BI@LKBAKDIK@CLIENT_TRAFFIC_SECRET_0@ 00000000000bba00     OpensslLib:tls13_enc.obj
 0002:0001eb20       ??_C@_0CA@GFFPDLLH@SERVER_HANDSHAKE_TRAFFIC_SECRET@ 00000000000bba20     OpensslLib:tls13_enc.obj
 0002:0001eb40       ??_C@_0BI@OICJLECA@SERVER_TRAFFIC_SECRET_0@ 00000000000bba40     OpensslLib:tls13_enc.obj
 0002:0001eb60       ??_C@_0BA@JAOKEMIF@EXPORTER_SECRET@ 00000000000bba60     OpensslLib:tls13_enc.obj
 0002:0001ec38       ??_C@_0DF@BIKDGIBC@No?5ciphers?5enabled?5for?5max?5supp@ 00000000000bbb38     OpensslLib:statem_lib.obj
 0002:0001ec70       ??_C@_0O@KAFPHBCN@CLIENT_RANDOM@ 00000000000bbb70     OpensslLib:statem_lib.obj
 0002:0001ef18       hrrrandom                  00000000000bbe18     OpensslLib:statem_lib.obj
 0002:0001ef38       ??_C@_0BF@HBBMCMFA@Load?5file?5into?5cache@ 00000000000bbe38     OpensslLib:by_file.obj
 0002:00020958       tls12downgrade             00000000000bd858     OpensslLib:s3_lib.obj
 0002:00020960       tls11downgrade             00000000000bd860     OpensslLib:s3_lib.obj
 0002:00020968       ??_C@_0BH@DAGBJIMH@TLS_AES_128_GCM_SHA256@ 00000000000bd868     OpensslLib:s3_lib.obj
 0002:00020980       ??_C@_0BH@DMGFMCHK@TLS_AES_256_GCM_SHA384@ 00000000000bd880     OpensslLib:s3_lib.obj
 0002:00020998       ??_C@_0BH@IALIOLEF@TLS_AES_128_CCM_SHA256@ 00000000000bd898     OpensslLib:s3_lib.obj
 0002:000209b0       ??_C@_0BJ@GAOKODFF@TLS_AES_128_CCM_8_SHA256@ 00000000000bd8b0     OpensslLib:s3_lib.obj
 0002:000209d0       ??_C@_0BG@ILBJCCPN@TLS_RSA_WITH_NULL_MD5@ 00000000000bd8d0     OpensslLib:s3_lib.obj
 0002:000209e8       ??_C@_0BG@HJJGEHMH@TLS_RSA_WITH_NULL_SHA@ 00000000000bd8e8     OpensslLib:s3_lib.obj
 0002:00020a00       ??_C@_0BN@GLNNHFOP@TLS_RSA_WITH_AES_128_CBC_SHA@ 00000000000bd900     OpensslLib:s3_lib.obj
 0002:00020a20       ??_C@_0BD@HPNPDEHO@DHE?9DSS?9AES128?9SHA@ 00000000000bd920     OpensslLib:s3_lib.obj
 0002:00020a38       ??_C@_0CB@IEOMDNPH@TLS_DHE_DSS_WITH_AES_128_CBC_SH@ 00000000000bd938     OpensslLib:s3_lib.obj
 0002:00020a60       ??_C@_0CB@FLMECDJK@TLS_DHE_RSA_WITH_AES_128_CBC_SH@ 00000000000bd960     OpensslLib:s3_lib.obj
 0002:00020a88       ??_C@_0P@KPBDEAFC@ADH?9AES128?9SHA@ 00000000000bd988     OpensslLib:s3_lib.obj
 0002:00020a98       ??_C@_0CB@CEIGDHEL@TLS_DH_anon_WITH_AES_128_CBC_SH@ 00000000000bd998     OpensslLib:s3_lib.obj
 0002:00020ac0       ??_C@_0BN@CLLBICCP@TLS_RSA_WITH_AES_256_CBC_SHA@ 00000000000bd9c0     OpensslLib:s3_lib.obj
 0002:00020ae0       ??_C@_0BD@OPNGMGD@DHE?9DSS?9AES256?9SHA@ 00000000000bd9e0     OpensslLib:s3_lib.obj
 0002:00020af8       ??_C@_0CB@MEIAMKDH@TLS_DHE_DSS_WITH_AES_256_CBC_SH@ 00000000000bd9f8     OpensslLib:s3_lib.obj
 0002:00020b20       ??_C@_0CB@BLKINEFK@TLS_DHE_RSA_WITH_AES_256_CBC_SH@ 00000000000bda20     OpensslLib:s3_lib.obj
 0002:00020b48       ??_C@_0P@NODBBIEP@ADH?9AES256?9SHA@ 00000000000bda48     OpensslLib:s3_lib.obj
 0002:00020b58       ??_C@_0CB@GEOKMAIL@TLS_DH_anon_WITH_AES_256_CBC_SH@ 00000000000bda58     OpensslLib:s3_lib.obj
 0002:00020b80       ??_C@_0BJ@MDCKOJCL@TLS_RSA_WITH_NULL_SHA256@ 00000000000bda80     OpensslLib:s3_lib.obj
 0002:00020ba0       ??_C@_0CA@PJAKDCAI@TLS_RSA_WITH_AES_128_CBC_SHA256@ 00000000000bdaa0     OpensslLib:s3_lib.obj
 0002:00020bc0       ??_C@_0CA@HHFMPOAB@TLS_RSA_WITH_AES_256_CBC_SHA256@ 00000000000bdac0     OpensslLib:s3_lib.obj
 0002:00020be0       ??_C@_0BG@CLHPPLD@DHE?9DSS?9AES128?9SHA256@ 00000000000bdae0     OpensslLib:s3_lib.obj
 0002:00020bf8       ??_C@_0CE@ICEBAFBI@TLS_DHE_DSS_WITH_AES_128_CBC_SH@ 00000000000bdaf8     OpensslLib:s3_lib.obj
 0002:00020c20       ??_C@_0CE@CDLKMKJB@TLS_DHE_RSA_WITH_AES_128_CBC_SH@ 00000000000bdb20     OpensslLib:s3_lib.obj
 0002:00020c48       ??_C@_0BG@LBELFJFJ@DHE?9DSS?9AES256?9SHA256@ 00000000000bdb48     OpensslLib:s3_lib.obj
 0002:00020c60       ??_C@_0CE@MBHMJBB@TLS_DHE_DSS_WITH_AES_256_CBC_SH@ 00000000000bdb60     OpensslLib:s3_lib.obj
 0002:00020c88       ??_C@_0CE@KNOMAGJI@TLS_DHE_RSA_WITH_AES_256_CBC_SH@ 00000000000bdb88     OpensslLib:s3_lib.obj
 0002:00020cb0       ??_C@_0BC@OKGBHCIO@ADH?9AES128?9SHA256@ 00000000000bdbb0     OpensslLib:s3_lib.obj
 0002:00020cc8       ??_C@_0CE@BJINGCAA@TLS_DH_anon_WITH_AES_128_CBC_SH@ 00000000000bdbc8     OpensslLib:s3_lib.obj
 0002:00020cf0       ??_C@_0BC@FJJNNEGE@ADH?9AES256?9SHA256@ 00000000000bdbf0     OpensslLib:s3_lib.obj
 0002:00020d08       ??_C@_0CE@JHNLKOAJ@TLS_DH_anon_WITH_AES_256_CBC_SH@ 00000000000bdc08     OpensslLib:s3_lib.obj
 0002:00020d30       ??_C@_0BC@MDCJLCEH@AES128?9GCM?9SHA256@ 00000000000bdc30     OpensslLib:s3_lib.obj
 0002:00020d48       ??_C@_0CA@GONDPBCG@TLS_RSA_WITH_AES_128_GCM_SHA256@ 00000000000bdc48     OpensslLib:s3_lib.obj
 0002:00020d68       ??_C@_0BC@MPCNOIPK@AES256?9GCM?9SHA384@ 00000000000bdc68     OpensslLib:s3_lib.obj
 0002:00020d80       ??_C@_0CA@GCNHKLJL@TLS_RSA_WITH_AES_256_GCM_SHA384@ 00000000000bdc80     OpensslLib:s3_lib.obj
 0002:00020da0       ??_C@_0BK@ONPIDPDM@DHE?9RSA?9AES128?9GCM?9SHA256@ 00000000000bdca0     OpensslLib:s3_lib.obj
 0002:00020dc0       ??_C@_0CE@LEGDAJLP@TLS_DHE_RSA_WITH_AES_128_GCM_SH@ 00000000000bdcc0     OpensslLib:s3_lib.obj
 0002:00020de8       ??_C@_0BK@OBPMGFIB@DHE?9RSA?9AES256?9GCM?9SHA384@ 00000000000bdce8     OpensslLib:s3_lib.obj
 0002:00020e08       ??_C@_0CE@LIGHFDAC@TLS_DHE_RSA_WITH_AES_256_GCM_SH@ 00000000000bdd08     OpensslLib:s3_lib.obj
 0002:00020e30       ??_C@_0BK@BMPGPCFE@DHE?9DSS?9AES128?9GCM?9SHA256@ 00000000000bdd30     OpensslLib:s3_lib.obj
 0002:00020e50       ??_C@_0CE@BFJIMGDG@TLS_DHE_DSS_WITH_AES_128_GCM_SH@ 00000000000bdd50     OpensslLib:s3_lib.obj
 0002:00020e78       ??_C@_0BK@BAPCKIOJ@DHE?9DSS?9AES256?9GCM?9SHA384@ 00000000000bdd78     OpensslLib:s3_lib.obj
 0002:00020e98       ??_C@_0CE@BJJMJMIL@TLS_DHE_DSS_WITH_AES_256_GCM_SH@ 00000000000bdd98     OpensslLib:s3_lib.obj
 0002:00020ec0       ??_C@_0BG@IOOJFCCI@ADH?9AES128?9GCM?9SHA256@ 00000000000bddc0     OpensslLib:s3_lib.obj
 0002:00020ed8       ??_C@_0CE@IOFEKBCO@TLS_DH_anon_WITH_AES_128_GCM_SH@ 00000000000bddd8     OpensslLib:s3_lib.obj
 0002:00020f00       ??_C@_0BG@ICONAIJF@ADH?9AES256?9GCM?9SHA384@ 00000000000bde00     OpensslLib:s3_lib.obj
 0002:00020f18       ??_C@_0CE@ICFAPLJD@TLS_DH_anon_WITH_AES_256_GCM_SH@ 00000000000bde18     OpensslLib:s3_lib.obj
 0002:00020f40       ??_C@_0L@KJLLEFIE@AES128?9CCM@ 00000000000bde40     OpensslLib:s3_lib.obj
 0002:00020f50       ??_C@_0BJ@CPMGLEJM@TLS_RSA_WITH_AES_128_CCM@ 00000000000bde50     OpensslLib:s3_lib.obj
 0002:00020f70       ??_C@_0L@NIJJBNJJ@AES256?9CCM@ 00000000000bde70     OpensslLib:s3_lib.obj
 0002:00020f80       ??_C@_0BJ@FOOEOMIB@TLS_RSA_WITH_AES_256_CCM@ 00000000000bde80     OpensslLib:s3_lib.obj
 0002:00020fa0       ??_C@_0BD@DNOFJLCA@DHE?9RSA?9AES128?9CCM@ 00000000000bdea0     OpensslLib:s3_lib.obj
 0002:00020fb8       ??_C@_0BN@HNMFPPKP@TLS_DHE_RSA_WITH_AES_128_CCM@ 00000000000bdeb8     OpensslLib:s3_lib.obj
 0002:00020fd8       ??_C@_0BD@EMMHMDDN@DHE?9RSA?9AES256?9CCM@ 00000000000bded8     OpensslLib:s3_lib.obj
 0002:00020ff0       ??_C@_0BN@MOHKHLC@TLS_DHE_RSA_WITH_AES_256_CCM@ 00000000000bdef0     OpensslLib:s3_lib.obj
 0002:00021010       ??_C@_0M@PNODEAIH@AES128?9CCM8@ 00000000000bdf10     OpensslLib:s3_lib.obj
 0002:00021020       ??_C@_0BL@GBIHEIDD@TLS_RSA_WITH_AES_128_CCM_8@ 00000000000bdf20     OpensslLib:s3_lib.obj
 0002:00021040       ??_C@_0M@JOJEAOAG@AES256?9CCM8@ 00000000000bdf40     OpensslLib:s3_lib.obj
 0002:00021050       ??_C@_0BL@PLFLIMML@TLS_RSA_WITH_AES_256_CCM_8@ 00000000000bdf50     OpensslLib:s3_lib.obj
 0002:00021070       ??_C@_0BE@CMMMHJKI@DHE?9RSA?9AES128?9CCM8@ 00000000000bdf70     OpensslLib:s3_lib.obj
 0002:00021088       ??_C@_0BP@HEOCOHBI@TLS_DHE_RSA_WITH_AES_128_CCM_8@ 00000000000bdf88     OpensslLib:s3_lib.obj
 0002:000210a8       ??_C@_0BE@EPLLDHCJ@DHE?9RSA?9AES256?9CCM8@ 00000000000bdfa8     OpensslLib:s3_lib.obj
 0002:000210c0       ??_C@_0BP@OODOCDOA@TLS_DHE_RSA_WITH_AES_256_CCM_8@ 00000000000bdfc0     OpensslLib:s3_lib.obj
 0002:000210e0       ??_C@_0P@BMMGAJOF@PSK?9AES128?9CCM@ 00000000000bdfe0     OpensslLib:s3_lib.obj
 0002:000210f0       ??_C@_0BJ@LGBHKOJF@TLS_PSK_WITH_AES_128_CCM@ 00000000000bdff0     OpensslLib:s3_lib.obj
 0002:00021110       ??_C@_0P@GNOEFBPI@PSK?9AES256?9CCM@ 00000000000be010     OpensslLib:s3_lib.obj
 0002:00021120       ??_C@_0BJ@MHDFPGII@TLS_PSK_WITH_AES_256_CCM@ 00000000000be020     OpensslLib:s3_lib.obj
 0002:00021140       ??_C@_0BD@KPDMEMJH@DHE?9PSK?9AES128?9CCM@ 00000000000be040     OpensslLib:s3_lib.obj
 0002:00021158       ??_C@_0BN@OEBEOFKG@TLS_DHE_PSK_WITH_AES_128_CCM@ 00000000000be058     OpensslLib:s3_lib.obj
 0002:00021178       ??_C@_0BD@NOBOBEIK@DHE?9PSK?9AES256?9CCM@ 00000000000be078     OpensslLib:s3_lib.obj
 0002:00021190       ??_C@_0BN@JFDGLNLL@TLS_DHE_PSK_WITH_AES_256_CCM@ 00000000000be090     OpensslLib:s3_lib.obj
 0002:000211b0       ??_C@_0BA@MHODGMAF@PSK?9AES128?9CCM8@ 00000000000be0b0     OpensslLib:s3_lib.obj
 0002:000211c0       ??_C@_0BL@ENCHJDNB@TLS_PSK_WITH_AES_128_CCM_8@ 00000000000be0c0     OpensslLib:s3_lib.obj
 0002:000211e0       ??_C@_0BA@KEJECCIE@PSK?9AES256?9CCM8@ 00000000000be0e0     OpensslLib:s3_lib.obj
 0002:000211f0       ??_C@_0BL@NHPLFHCJ@TLS_PSK_WITH_AES_256_CCM_8@ 00000000000be0f0     OpensslLib:s3_lib.obj
 0002:00021210       ??_C@_0BE@HJFLIGFA@DHE?9PSK?9AES128?9CCM8@ 00000000000be110     OpensslLib:s3_lib.obj
 0002:00021228       ??_C@_0BP@NGKGHCKJ@TLS_PSK_DHE_WITH_AES_128_CCM_8@ 00000000000be128     OpensslLib:s3_lib.obj
 0002:00021248       ??_C@_0BE@BKCMMINB@DHE?9PSK?9AES256?9CCM8@ 00000000000be148     OpensslLib:s3_lib.obj
 0002:00021260       ??_C@_0BP@EMHKLGFB@TLS_PSK_DHE_WITH_AES_256_CCM_8@ 00000000000be160     OpensslLib:s3_lib.obj
 0002:00021280       ??_C@_0BH@BNCNIMGL@ECDHE?9ECDSA?9AES128?9CCM@ 00000000000be180     OpensslLib:s3_lib.obj
 0002:00021298       ??_C@_0CB@CHIDJEAB@TLS_ECDHE_ECDSA_WITH_AES_128_CC@ 00000000000be198     OpensslLib:s3_lib.obj
 0002:000212c0       ??_C@_0BH@GMAPNEHG@ECDHE?9ECDSA?9AES256?9CCM@ 00000000000be1c0     OpensslLib:s3_lib.obj
 0002:000212d8       ??_C@_0CB@FGKBMMBM@TLS_ECDHE_ECDSA_WITH_AES_256_CC@ 00000000000be1d8     OpensslLib:s3_lib.obj
 0002:00021300       ??_C@_0BI@MNOCCJKH@ECDHE?9ECDSA?9AES128?9CCM8@ 00000000000be200     OpensslLib:s3_lib.obj
 0002:00021318       ??_C@_0CD@JOAGJEOJ@TLS_ECDHE_ECDSA_WITH_AES_128_CC@ 00000000000be218     OpensslLib:s3_lib.obj
 0002:00021340       ??_C@_0BI@KOJFGHCG@ECDHE?9ECDSA?9AES256?9CCM8@ 00000000000be240     OpensslLib:s3_lib.obj
 0002:00021358       ??_C@_0CD@ENKFABB@TLS_ECDHE_ECDSA_WITH_AES_256_CC@ 00000000000be258     OpensslLib:s3_lib.obj
 0002:00021380       ??_C@_0BF@DLPMKBDM@ECDHE?9ECDSA?9NULL?9SHA@ 00000000000be280     OpensslLib:s3_lib.obj
 0002:00021398       ??_C@_0BO@KLMGBBBE@TLS_ECDHE_ECDSA_WITH_NULL_SHA@ 00000000000be298     OpensslLib:s3_lib.obj
 0002:000213b8       ??_C@_0BH@ONNEHLBJ@ECDHE?9ECDSA?9AES128?9SHA@ 00000000000be2b8     OpensslLib:s3_lib.obj
 0002:000213d0       ??_C@_0CF@JPGPDJAE@TLS_ECDHE_ECDSA_WITH_AES_128_CB@ 00000000000be2d0     OpensslLib:s3_lib.obj
 0002:000213f8       ??_C@_0BH@JMPGCDAE@ECDHE?9ECDSA?9AES256?9SHA@ 00000000000be2f8     OpensslLib:s3_lib.obj
 0002:00021410       ??_C@_0CF@NPADMOME@TLS_ECDHE_ECDSA_WITH_AES_256_CB@ 00000000000be310     OpensslLib:s3_lib.obj
 0002:00021438       ??_C@_0BD@POEMEBJK@ECDHE?9RSA?9NULL?9SHA@ 00000000000be338     OpensslLib:s3_lib.obj
 0002:00021450       ??_C@_0BM@NPNNKOBB@TLS_ECDHE_RSA_WITH_NULL_SHA@ 00000000000be350     OpensslLib:s3_lib.obj
 0002:00021470       ??_C@_0BF@LFIDEHLO@ECDHE?9RSA?9AES128?9SHA@ 00000000000be370     OpensslLib:s3_lib.obj
 0002:00021488       ??_C@_0CD@NFKGCGFL@TLS_ECDHE_RSA_WITH_AES_128_CBC_@ 00000000000be388     OpensslLib:s3_lib.obj
 0002:000214b0       ??_C@_0BF@MEKBBPKD@ECDHE?9RSA?9AES256?9SHA@ 00000000000be3b0     OpensslLib:s3_lib.obj
 0002:000214c8       ??_C@_0CD@JFMKNBJL@TLS_ECDHE_RSA_WITH_AES_256_CBC_@ 00000000000be3c8     OpensslLib:s3_lib.obj
 0002:000214f0       ??_C@_0P@PMJJNNNJ@AECDH?9NULL?9SHA@ 00000000000be3f0     OpensslLib:s3_lib.obj
 0002:00021500       ??_C@_0BM@JDJGLMDB@TLS_ECDH_anon_WITH_NULL_SHA@ 00000000000be400     OpensslLib:s3_lib.obj
 0002:00021520       ??_C@_0BB@JHGOIGMC@AECDH?9AES128?9SHA@ 00000000000be420     OpensslLib:s3_lib.obj
 0002:00021538       ??_C@_0CD@KKOEDCIK@TLS_ECDH_anon_WITH_AES_128_CBC_@ 00000000000be438     OpensslLib:s3_lib.obj
 0002:00021560       ??_C@_0BB@OGEMNONP@AECDH?9AES256?9SHA@ 00000000000be460     OpensslLib:s3_lib.obj
 0002:00021578       ??_C@_0CD@OKIIMFEK@TLS_ECDH_anon_WITH_AES_256_CBC_@ 00000000000be478     OpensslLib:s3_lib.obj
 0002:000215a0       ??_C@_0BK@KPBMKIMG@ECDHE?9ECDSA?9AES128?9SHA256@ 00000000000be4a0     OpensslLib:s3_lib.obj
 0002:000215c0       ??_C@_0CI@CFBONPBE@TLS_ECDHE_ECDSA_WITH_AES_128_CB@ 00000000000be4c0     OpensslLib:s3_lib.obj
 0002:000215e8       ??_C@_0BK@JOLCJIJI@ECDHE?9ECDSA?9AES256?9SHA384@ 00000000000be4e8     OpensslLib:s3_lib.obj
 0002:00021608       ??_C@_0CI@CJBKIFKJ@TLS_ECDHE_ECDSA_WITH_AES_256_CB@ 00000000000be508     OpensslLib:s3_lib.obj
 0002:00021630       ??_C@_0BI@PFNHFOND@ECDHE?9RSA?9AES128?9SHA256@ 00000000000be530     OpensslLib:s3_lib.obj
 0002:00021648       ??_C@_0CG@GNBMMCFJ@TLS_ECDHE_RSA_WITH_AES_128_CBC_@ 00000000000be548     OpensslLib:s3_lib.obj
 0002:00021670       ??_C@_0BI@MEHJGOIN@ECDHE?9RSA?9AES256?9SHA384@ 00000000000be570     OpensslLib:s3_lib.obj
 0002:00021688       ??_C@_0CG@GBBIJIOE@TLS_ECDHE_RSA_WITH_AES_256_CBC_@ 00000000000be588     OpensslLib:s3_lib.obj
 0002:000216b0       ??_C@_0CI@LCMHBMDK@TLS_ECDHE_ECDSA_WITH_AES_128_GC@ 00000000000be5b0     OpensslLib:s3_lib.obj
 0002:000216d8       ??_C@_0CI@LOMDEGIH@TLS_ECDHE_ECDSA_WITH_AES_256_GC@ 00000000000be5d8     OpensslLib:s3_lib.obj
 0002:00021700       ??_C@_0BM@LJEODOBI@ECDHE?9RSA?9AES128?9GCM?9SHA256@ 00000000000be600     OpensslLib:s3_lib.obj
 0002:00021720       ??_C@_0CG@PKMFABHH@TLS_ECDHE_RSA_WITH_AES_128_GCM_@ 00000000000be620     OpensslLib:s3_lib.obj
 0002:00021748       ??_C@_0BM@LFEKGEKF@ECDHE?9RSA?9AES256?9GCM?9SHA384@ 00000000000be648     OpensslLib:s3_lib.obj
 0002:00021768       ??_C@_0CG@PGMBFLMK@TLS_ECDHE_RSA_WITH_AES_256_GCM_@ 00000000000be668     OpensslLib:s3_lib.obj
 0002:00021790       ??_C@_0N@HKILAJND@PSK?9NULL?9SHA@ 00000000000be690     OpensslLib:s3_lib.obj
 0002:000217a0       ??_C@_0BG@IIPBJGGI@TLS_PSK_WITH_NULL_SHA@ 00000000000be6a0     OpensslLib:s3_lib.obj
 0002:000217b8       ??_C@_0BB@EMNBFIBH@DHE?9PSK?9NULL?9SHA@ 00000000000be6b8     OpensslLib:s3_lib.obj
 0002:000217d0       ??_C@_0BK@LEJGBNE@TLS_DHE_PSK_WITH_NULL_SHA@ 00000000000be6d0     OpensslLib:s3_lib.obj
 0002:000217f0       ??_C@_0BB@MKDEAGCC@RSA?9PSK?9NULL?9SHA@ 00000000000be6f0     OpensslLib:s3_lib.obj
 0002:00021808       ??_C@_0BK@ILKKADDF@TLS_RSA_PSK_WITH_NULL_SHA@ 00000000000be708     OpensslLib:s3_lib.obj
 0002:00021828       ??_C@_0BD@IMKOCFAD@PSK?9AES128?9CBC?9SHA@ 00000000000be728     OpensslLib:s3_lib.obj
 0002:00021840       ??_C@_0BN@BGJEMDHN@TLS_PSK_WITH_AES_128_CBC_SHA@ 00000000000be740     OpensslLib:s3_lib.obj
 0002:00021860       ??_C@_0BD@MMMCNCMD@PSK?9AES256?9CBC?9SHA@ 00000000000be760     OpensslLib:s3_lib.obj
 0002:00021878       ??_C@_0BN@FGPIDELN@TLS_PSK_WITH_AES_256_CBC_SHA@ 00000000000be778     OpensslLib:s3_lib.obj
 0002:00021898       ??_C@_0BH@IHPCOJDO@DHE?9PSK?9AES128?9CBC?9SHA@ 00000000000be798     OpensslLib:s3_lib.obj
 0002:000218b0       ??_C@_0CB@CGINJFAI@TLS_DHE_PSK_WITH_AES_128_CBC_SH@ 00000000000be7b0     OpensslLib:s3_lib.obj
 0002:000218d8       ??_C@_0BH@MHJOBOPO@DHE?9PSK?9AES256?9CBC?9SHA@ 00000000000be7d8     OpensslLib:s3_lib.obj
 0002:000218f0       ??_C@_0CB@GGOBGCMI@TLS_DHE_PSK_WITH_AES_256_CBC_SH@ 00000000000be7f0     OpensslLib:s3_lib.obj
 0002:00021918       ??_C@_0BH@FAHPNILC@RSA?9PSK?9AES128?9CBC?9SHA@ 00000000000be818     OpensslLib:s3_lib.obj
 0002:00021930       ??_C@_0CB@EEELJNMO@TLS_RSA_PSK_WITH_AES_128_CBC_SH@ 00000000000be830     OpensslLib:s3_lib.obj
 0002:00021958       ??_C@_0BH@BABDCPHC@RSA?9PSK?9AES256?9CBC?9SHA@ 00000000000be858     OpensslLib:s3_lib.obj
 0002:00021970       ??_C@_0CB@ECHGKAO@TLS_RSA_PSK_WITH_AES_256_CBC_SH@ 00000000000be870     OpensslLib:s3_lib.obj
 0002:00021998       ??_C@_0BG@LNJMKFNH@PSK?9AES128?9GCM?9SHA256@ 00000000000be898     OpensslLib:s3_lib.obj
 0002:000219b0       ??_C@_0CA@CNNLGNMP@TLS_PSK_WITH_AES_128_GCM_SHA256@ 00000000000be8b0     OpensslLib:s3_lib.obj
 0002:000219d0       ??_C@_0BG@LBJIPPGK@PSK?9AES256?9GCM?9SHA384@ 00000000000be8d0     OpensslLib:s3_lib.obj
 0002:000219e8       ??_C@_0CA@CBNPDHHC@TLS_PSK_WITH_AES_256_GCM_SHA384@ 00000000000be8e8     OpensslLib:s3_lib.obj
 0002:00021a08       ??_C@_0BK@JELNFGIC@DHE?9PSK?9AES128?9GCM?9SHA256@ 00000000000be908     OpensslLib:s3_lib.obj
 0002:00021a28       ??_C@_0CE@PHGLJFFG@TLS_DHE_PSK_WITH_AES_128_GCM_SH@ 00000000000be928     OpensslLib:s3_lib.obj
 0002:00021a50       ??_C@_0BK@JILJAMDP@DHE?9PSK?9AES256?9GCM?9SHA384@ 00000000000be950     OpensslLib:s3_lib.obj
 0002:00021a70       ??_C@_0CE@PLGPMPOL@TLS_DHE_PSK_WITH_AES_256_GCM_SH@ 00000000000be970     OpensslLib:s3_lib.obj
 0002:00021a98       ??_C@_0BK@CJMGEMJO@RSA?9PSK?9AES128?9GCM?9SHA256@ 00000000000be998     OpensslLib:s3_lib.obj
 0002:00021ab8       ??_C@_0CE@NIJHJCEL@TLS_RSA_PSK_WITH_AES_128_GCM_SH@ 00000000000be9b8     OpensslLib:s3_lib.obj
 0002:00021ae0       ??_C@_0BK@CFMCBGCD@RSA?9PSK?9AES256?9GCM?9SHA384@ 00000000000be9e0     OpensslLib:s3_lib.obj
 0002:00021b00       ??_C@_0CE@NEJDMIPG@TLS_RSA_PSK_WITH_AES_256_GCM_SH@ 00000000000bea00     OpensslLib:s3_lib.obj
 0002:00021b28       ??_C@_0BG@CKEFGGPJ@PSK?9AES128?9CBC?9SHA256@ 00000000000bea28     OpensslLib:s3_lib.obj
 0002:00021b40       ??_C@_0CA@LKACKOOB@TLS_PSK_WITH_AES_128_CBC_SHA256@ 00000000000bea40     OpensslLib:s3_lib.obj
 0002:00021b60       ??_C@_0BG@CGEBDMEE@PSK?9AES256?9CBC?9SHA384@ 00000000000bea60     OpensslLib:s3_lib.obj
 0002:00021b78       ??_C@_0CA@LGAGPEFM@TLS_PSK_WITH_AES_256_CBC_SHA384@ 00000000000bea78     OpensslLib:s3_lib.obj
 0002:00021b98       ??_C@_0BA@NFPJOMNG@PSK?9NULL?9SHA256@ 00000000000bea98     OpensslLib:s3_lib.obj
 0002:00021ba8       ??_C@_0BJ@FKPLPDCC@TLS_PSK_WITH_NULL_SHA256@ 00000000000beaa8     OpensslLib:s3_lib.obj
 0002:00021bc8       ??_C@_0BA@FHKLHKGC@PSK?9NULL?9SHA384@ 00000000000beac8     OpensslLib:s3_lib.obj
 0002:00021bd8       ??_C@_0BJ@NIKJGFJG@TLS_PSK_WITH_NULL_SHA384@ 00000000000bead8     OpensslLib:s3_lib.obj
 0002:00021bf8       ??_C@_0BK@DGEJFKM@DHE?9PSK?9AES128?9CBC?9SHA256@ 00000000000beaf8     OpensslLib:s3_lib.obj
 0002:00021c18       ??_C@_0CE@GALCFGHI@TLS_DHE_PSK_WITH_AES_128_CBC_SH@ 00000000000beb18     OpensslLib:s3_lib.obj
 0002:00021c40       ??_C@_0BK@PGAMPBB@DHE?9PSK?9AES256?9CBC?9SHA384@ 00000000000beb40     OpensslLib:s3_lib.obj
 0002:00021c60       ??_C@_0CE@GMLGAMMF@TLS_DHE_PSK_WITH_AES_256_CBC_SH@ 00000000000beb60     OpensslLib:s3_lib.obj
 0002:00021c88       ??_C@_0BE@GLEBAGID@DHE?9PSK?9NULL?9SHA256@ 00000000000beb88     OpensslLib:s3_lib.obj
 0002:00021ca0       ??_C@_0BN@IPILIBB@TLS_DHE_PSK_WITH_NULL_SHA256@ 00000000000beba0     OpensslLib:s3_lib.obj
 0002:00021cc0       ??_C@_0BE@OJBDJADH@DHE?9PSK?9NULL?9SHA384@ 00000000000bebc0     OpensslLib:s3_lib.obj
 0002:00021cd8       ??_C@_0BN@IKKKCOKF@TLS_DHE_PSK_WITH_NULL_SHA384@ 00000000000bebd8     OpensslLib:s3_lib.obj
 0002:00021cf8       ??_C@_0BK@LOBPIPLA@RSA?9PSK?9AES128?9CBC?9SHA256@ 00000000000bebf8     OpensslLib:s3_lib.obj
 0002:00021d18       ??_C@_0CE@EPEOFBGF@TLS_RSA_PSK_WITH_AES_128_CBC_SH@ 00000000000bec18     OpensslLib:s3_lib.obj
 0002:00021d40       ??_C@_0BK@LCBLNFAN@RSA?9PSK?9AES256?9CBC?9SHA384@ 00000000000bec40     OpensslLib:s3_lib.obj
 0002:00021d60       ??_C@_0CE@EDEKALNI@TLS_RSA_PSK_WITH_AES_256_CBC_SH@ 00000000000bec60     OpensslLib:s3_lib.obj
 0002:00021d88       ??_C@_0BE@LNLJEHFD@RSA?9PSK?9NULL?9SHA256@ 00000000000bec88     OpensslLib:s3_lib.obj
 0002:00021da0       ??_C@_0BN@MOBALIOB@TLS_RSA_PSK_WITH_NULL_SHA256@ 00000000000beca0     OpensslLib:s3_lib.obj
 0002:00021dc0       ??_C@_0BE@DPOLNBOH@RSA?9PSK?9NULL?9SHA384@ 00000000000becc0     OpensslLib:s3_lib.obj
 0002:00021dd8       ??_C@_0BN@EMECCOFF@TLS_RSA_PSK_WITH_NULL_SHA384@ 00000000000becd8     OpensslLib:s3_lib.obj
 0002:00021df8       ??_C@_0BJ@IHEENBGE@ECDHE?9PSK?9AES128?9CBC?9SHA@ 00000000000becf8     OpensslLib:s3_lib.obj
 0002:00021e18       ??_C@_0CD@KIOPJAMJ@TLS_ECDHE_PSK_WITH_AES_128_CBC_@ 00000000000bed18     OpensslLib:s3_lib.obj
 0002:00021e40       ??_C@_0BJ@MHCICGKE@ECDHE?9PSK?9AES256?9CBC?9SHA@ 00000000000bed40     OpensslLib:s3_lib.obj
 0002:00021e60       ??_C@_0CD@OIIDGHAJ@TLS_ECDHE_PSK_WITH_AES_256_CBC_@ 00000000000bed60     OpensslLib:s3_lib.obj
 0002:00021e88       ??_C@_0BM@FHNCJEII@ECDHE?9PSK?9AES128?9CBC?9SHA256@ 00000000000bed88     OpensslLib:s3_lib.obj
 0002:00021ea8       ??_C@_0CG@COBEFOLA@TLS_ECDHE_PSK_WITH_AES_128_CBC_@ 00000000000beda8     OpensslLib:s3_lib.obj
 0002:00021ed0       ??_C@_0BM@FLNGMODF@ECDHE?9PSK?9AES256?9CBC?9SHA384@ 00000000000bedd0     OpensslLib:s3_lib.obj
 0002:00021ef0       ??_C@_0CG@CCBAAEAN@TLS_ECDHE_PSK_WITH_AES_256_CBC_@ 00000000000bedf0     OpensslLib:s3_lib.obj
 0002:00021f18       ??_C@_0BD@HMLPKMFF@ECDHE?9PSK?9NULL?9SHA@ 00000000000bee18     OpensslLib:s3_lib.obj
 0002:00021f30       ??_C@_0BM@COLKHPLO@TLS_ECDHE_PSK_WITH_NULL_SHA@ 00000000000bee30     OpensslLib:s3_lib.obj
 0002:00021f50       ??_C@_0BG@MCIFDHPL@ECDHE?9PSK?9NULL?9SHA256@ 00000000000bee50     OpensslLib:s3_lib.obj
 0002:00021f68       ??_C@_0BP@LNENGKLL@TLS_ECDHE_PSK_WITH_NULL_SHA256@ 00000000000bee68     OpensslLib:s3_lib.obj
 0002:00021f88       ??_C@_0BG@EANHKBEP@ECDHE?9PSK?9NULL?9SHA384@ 00000000000bee88     OpensslLib:s3_lib.obj
 0002:00021fa0       ??_C@_0BP@DPBPPMAP@TLS_ECDHE_PSK_WITH_NULL_SHA384@ 00000000000beea0     OpensslLib:s3_lib.obj
 0002:00021fc0       ??_C@_0BE@KDHKDGEP@SRP?9AES?9128?9CBC?9SHA@ 00000000000beec0     OpensslLib:s3_lib.obj
 0002:00021fd8       ??_C@_0CB@DLLLMFNE@TLS_SRP_SHA_WITH_AES_128_CBC_SH@ 00000000000beed8     OpensslLib:s3_lib.obj
 0002:00022000       ??_C@_0BI@MIDNJEDN@SRP?9RSA?9AES?9128?9CBC?9SHA@ 00000000000bef00     OpensslLib:s3_lib.obj
 0002:00022018       ??_C@_0CF@IDLKDHDJ@TLS_SRP_SHA_RSA_WITH_AES_128_CB@ 00000000000bef18     OpensslLib:s3_lib.obj
 0002:00022040       ??_C@_0BI@IHKPJFFG@SRP?9DSS?9AES?9128?9CBC?9SHA@ 00000000000bef40     OpensslLib:s3_lib.obj
 0002:00022058       ??_C@_0CF@FMJCCJFE@TLS_SRP_SHA_DSS_WITH_AES_128_CB@ 00000000000bef58     OpensslLib:s3_lib.obj
 0002:00022080       ??_C@_0BE@ODBGMBIP@SRP?9AES?9256?9CBC?9SHA@ 00000000000bef80     OpensslLib:s3_lib.obj
 0002:00022098       ??_C@_0CB@HLNHDCBE@TLS_SRP_SHA_WITH_AES_256_CBC_SH@ 00000000000bef98     OpensslLib:s3_lib.obj
 0002:000220c0       ??_C@_0BI@IIFBGDPN@SRP?9RSA?9AES?9256?9CBC?9SHA@ 00000000000befc0     OpensslLib:s3_lib.obj
 0002:000220d8       ??_C@_0CF@MDNGMAPJ@TLS_SRP_SHA_RSA_WITH_AES_256_CB@ 00000000000befd8     OpensslLib:s3_lib.obj
 0002:00022100       ??_C@_0BI@MHMDGCJG@SRP?9DSS?9AES?9256?9CBC?9SHA@ 00000000000bf000     OpensslLib:s3_lib.obj
 0002:00022118       ??_C@_0CF@BMPONOJE@TLS_SRP_SHA_DSS_WITH_AES_256_CB@ 00000000000bf018     OpensslLib:s3_lib.obj
 0002:00022140       ??_C@_0BD@NEGKCKMD@ARIA128?9GCM?9SHA256@ 00000000000bf040     OpensslLib:s3_lib.obj
 0002:00022158       ??_C@_0CB@NDPBLKAE@TLS_RSA_WITH_ARIA_128_GCM_SHA25@ 00000000000bf058     OpensslLib:s3_lib.obj
 0002:00022180       ??_C@_0BD@NIGOHAHO@ARIA256?9GCM?9SHA384@ 00000000000bf080     OpensslLib:s3_lib.obj
 0002:00022198       ??_C@_0CB@NPPFOALJ@TLS_RSA_WITH_ARIA_256_GCM_SHA38@ 00000000000bf098     OpensslLib:s3_lib.obj
 0002:000221c0       ??_C@_0BL@BDJDFDPK@DHE?9RSA?9ARIA128?9GCM?9SHA256@ 00000000000bf0c0     OpensslLib:s3_lib.obj
 0002:000221e0       ??_C@_0CF@FKPICBBM@TLS_DHE_RSA_WITH_ARIA_128_GCM_S@ 00000000000bf0e0     OpensslLib:s3_lib.obj
 0002:00022208       ??_C@_0BL@BPJHAJEH@DHE?9RSA?9ARIA256?9GCM?9SHA384@ 00000000000bf108     OpensslLib:s3_lib.obj
 0002:00022228       ??_C@_0CF@FGPMHLKB@TLS_DHE_RSA_WITH_ARIA_256_GCM_S@ 00000000000bf128     OpensslLib:s3_lib.obj
 0002:00022250       ??_C@_0BL@FAALLEFN@DHE?9DSS?9ARIA128?9GCM?9SHA256@ 00000000000bf150     OpensslLib:s3_lib.obj
 0002:00022270       ??_C@_0CF@MODNOBFH@TLS_DHE_DSS_WITH_ARIA_128_GCM_S@ 00000000000bf170     OpensslLib:s3_lib.obj
 0002:00022298       ??_C@_0BL@FMAPOOOA@DHE?9DSS?9ARIA256?9GCM?9SHA384@ 00000000000bf198     OpensslLib:s3_lib.obj
 0002:000222b8       ??_C@_0CF@MCDJLLOK@TLS_DHE_DSS_WITH_ARIA_256_GCM_S@ 00000000000bf1b8     OpensslLib:s3_lib.obj
 0002:000222e0       ??_C@_0BP@PJGHJMNM@ECDHE?9ECDSA?9ARIA128?9GCM?9SHA256@ 00000000000bf1e0     OpensslLib:s3_lib.obj
 0002:00022300       ??_C@_0CJ@MHCMPCKG@TLS_ECDHE_ECDSA_WITH_ARIA_128_G@ 00000000000bf200     OpensslLib:s3_lib.obj
 0002:00022330       ??_C@_0BP@PFGDMGGB@ECDHE?9ECDSA?9ARIA256?9GCM?9SHA384@ 00000000000bf230     OpensslLib:s3_lib.obj
 0002:00022350       ??_C@_0CJ@MLCIKIBL@TLS_ECDHE_ECDSA_WITH_ARIA_256_G@ 00000000000bf250     OpensslLib:s3_lib.obj
 0002:00022380       ??_C@_0BJ@NPIANOKE@ECDHE?9ARIA128?9GCM?9SHA256@ 00000000000bf280     OpensslLib:s3_lib.obj
 0002:000223a0       ??_C@_0CH@MPAJMNJG@TLS_ECDHE_RSA_WITH_ARIA_128_GCM@ 00000000000bf2a0     OpensslLib:s3_lib.obj
 0002:000223c8       ??_C@_0BJ@NDIEIEBJ@ECDHE?9ARIA256?9GCM?9SHA384@ 00000000000bf2c8     OpensslLib:s3_lib.obj
 0002:000223e8       ??_C@_0CH@MDANJHCL@TLS_ECDHE_RSA_WITH_ARIA_256_GCM@ 00000000000bf2e8     OpensslLib:s3_lib.obj
 0002:00022410       ??_C@_0BH@CEBLAMJA@PSK?9ARIA128?9GCM?9SHA256@ 00000000000bf310     OpensslLib:s3_lib.obj
 0002:00022428       ??_C@_0CB@KGEOIEE@TLS_PSK_WITH_ARIA_128_GCM_SHA25@ 00000000000bf328     OpensslLib:s3_lib.obj
 0002:00022450       ??_C@_0BH@CIBPFGCN@PSK?9ARIA256?9GCM?9SHA384@ 00000000000bf350     OpensslLib:s3_lib.obj
 0002:00022468       ??_C@_0CB@GGALCPJ@TLS_PSK_WITH_ARIA_256_GCM_SHA38@ 00000000000bf368     OpensslLib:s3_lib.obj
 0002:00022490       ??_C@_0BL@DPDDIIBI@DHE?9PSK?9ARIA128?9GCM?9SHA256@ 00000000000bf390     OpensslLib:s3_lib.obj
 0002:000224b0       ??_C@_0CF@IDGNHDFM@TLS_DHE_PSK_WITH_ARIA_128_GCM_S@ 00000000000bf3b0     OpensslLib:s3_lib.obj
 0002:000224d8       ??_C@_0BL@DDDHNCKF@DHE?9PSK?9ARIA256?9GCM?9SHA384@ 00000000000bf3d8     OpensslLib:s3_lib.obj
 0002:000224f8       ??_C@_0CF@IPGJCJOB@TLS_DHE_PSK_WITH_ARIA_256_GCM_S@ 00000000000bf3f8     OpensslLib:s3_lib.obj
 0002:00022520       ??_C@_0BL@CLIPKPEN@RSA?9PSK?9ARIA128?9GCM?9SHA256@ 00000000000bf420     OpensslLib:s3_lib.obj
 0002:00022540       ??_C@_0CF@OAEEODIC@TLS_RSA_PSK_WITH_ARIA_128_GCM_S@ 00000000000bf440     OpensslLib:s3_lib.obj
 0002:00022568       ??_C@_0BL@CHILPFPA@RSA?9PSK?9ARIA256?9GCM?9SHA384@ 00000000000bf468     OpensslLib:s3_lib.obj
 0002:00022588       ??_C@_0CF@OMEALJDP@TLS_RSA_PSK_WITH_ARIA_256_GCM_S@ 00000000000bf488     OpensslLib:s3_lib.obj
 0002:000225b0       ??_C@_0CC@JFOIDLPE@TLS_EMPTY_RENEGOTIATION_INFO_SC@ 00000000000bf4b0     OpensslLib:s3_lib.obj
 0002:000225d8       ??_C@_0BC@PPIOKOOF@TLS_FALLBACK_SCSV@ 00000000000bf4d8     OpensslLib:s3_lib.obj
 0002:000225f0       ??_C@_0P@HBDMPDNI@revocationDate@ 00000000000bf4f0     OpensslLib:x_crl.obj
 0002:00022600       ??_C@_0N@JBPKOADN@X509_REVOKED@ 00000000000bf500     OpensslLib:x_crl.obj
 0002:00022610       ??_C@_0L@MPDCJAIM@lastUpdate@ 00000000000bf510     OpensslLib:x_crl.obj
 0002:00022620       ??_C@_07MIJFAMBD@revoked@  00000000000bf520     OpensslLib:x_crl.obj
 0002:00022628       ??_C@_0O@IMOAEKCP@X509_CRL_INFO@ 00000000000bf528     OpensslLib:x_crl.obj
 0002:00022638       ??_C@_03GJBFOAJL@crl@      00000000000bf538     OpensslLib:x_crl.obj
 0002:00022640       ??_C@_08JGFBPDAP@X509_CRL@ 00000000000bf540     OpensslLib:x_crl.obj
 0002:00022650       X509_CRL_it                00000000000bf550     OpensslLib:x_crl.obj
 0002:00022680       X509_REVOKED_it            00000000000bf580     OpensslLib:x_crl.obj
 0002:00022878       X509_CRL_INFO_it           00000000000bf778     OpensslLib:x_crl.obj
 0002:000228e8       ??_C@_08OMICEKMJ@?0?5value?$DN@ 00000000000bf7e8     OpensslLib:conf_mod.obj
 0002:000228f4       ??_C@_01KMDKNFGN@?1@       00000000000bf7f4     OpensslLib:conf_mod.obj
 0002:00022958       ??_C@_0M@GDPMILAC@ssl_version@ 00000000000bf858     OpensslLib:ssl_asn1.obj
 0002:00022964       ??_C@_06KDGDAFPH@cipher@   00000000000bf864     OpensslLib:ssl_asn1.obj
 0002:00022970       ??_C@_0L@DLPAOANL@session_id@ 00000000000bf870     OpensslLib:ssl_asn1.obj
 0002:00022980       ??_C@_0L@KJMILGPM@master_key@ 00000000000bf880     OpensslLib:ssl_asn1.obj
 0002:00022990       ??_C@_07KGOPCKBC@key_arg@  00000000000bf890     OpensslLib:ssl_asn1.obj
 0002:00022998       ??_C@_04CLCEDBPF@time@     00000000000bf898     OpensslLib:ssl_asn1.obj
 0002:000229a0       ??_C@_07DDHNKDGP@timeout@  00000000000bf8a0     OpensslLib:ssl_asn1.obj
 0002:000229a8       ??_C@_04JPOCPNKD@peer@     00000000000bf8a8     OpensslLib:ssl_asn1.obj
 0002:000229b0       ??_C@_0BD@DGCAODCO@session_id_context@ 00000000000bf8b0     OpensslLib:ssl_asn1.obj
 0002:000229c8       ??_C@_0O@LOBFLGP@verify_result@ 00000000000bf8c8     OpensslLib:ssl_asn1.obj
 0002:000229d8       ??_C@_0BA@OAPGNJEP@tlsext_hostname@ 00000000000bf8d8     OpensslLib:ssl_asn1.obj
 0002:000229e8       ??_C@_0BC@MEJNKKGP@psk_identity_hint@ 00000000000bf8e8     OpensslLib:ssl_asn1.obj
 0002:00022a00       ??_C@_0N@IKCJDCCH@psk_identity@ 00000000000bf900     OpensslLib:ssl_asn1.obj
 0002:00022a10       ??_C@_0BK@LNHEGPBA@tlsext_tick_lifetime_hint@ 00000000000bf910     OpensslLib:ssl_asn1.obj
 0002:00022a30       ??_C@_0M@OOIMIADI@tlsext_tick@ 00000000000bf930     OpensslLib:ssl_asn1.obj
 0002:00022a40       ??_C@_07CBAGAGHB@comp_id@  00000000000bf940     OpensslLib:ssl_asn1.obj
 0002:00022a48       ??_C@_05GECEPKB@flags@     00000000000bf948     OpensslLib:ssl_asn1.obj
 0002:00022a50       ??_C@_0BE@PALMMIAE@tlsext_tick_age_add@ 00000000000bf950     OpensslLib:ssl_asn1.obj
 0002:00022a68       ??_C@_0P@CLHPDAPE@max_early_data@ 00000000000bf968     OpensslLib:ssl_asn1.obj
 0002:00022a78       ??_C@_0O@PFGABOEE@alpn_selected@ 00000000000bf978     OpensslLib:ssl_asn1.obj
 0002:00022a88       ??_C@_0BN@MJMHEEPO@tlsext_max_fragment_len_mode@ 00000000000bf988     OpensslLib:ssl_asn1.obj
 0002:00022aa8       ??_C@_0P@CEIJHKFJ@ticket_appdata@ 00000000000bf9a8     OpensslLib:ssl_asn1.obj
 0002:00022ab8       ??_C@_0BB@PEHAMCMM@SSL_SESSION_ASN1@ 00000000000bf9b8     OpensslLib:ssl_asn1.obj
 0002:00022de0       ??_C@_0BH@FDMMOMD@Enter?5PEM?5pass?5phrase?3@ 00000000000bfce0     OpensslLib:pem_lib.obj
 0002:00022df8       ??_C@_01EEMJAFIK@?6@       00000000000bfcf8     OpensslLib:pem_lib.obj
 0002:00022e00       ??_C@_0BA@MHDCIJI@ANY?5PRIVATE?5KEY@ 00000000000bfd00     OpensslLib:pem_lib.obj
 0002:00022e10       ??_C@_0BG@OLFPLKDJ@ENCRYPTED?5PRIVATE?5KEY@ 00000000000bfd10     OpensslLib:pem_lib.obj
 0002:00022e28       ??_C@_0M@GKANOOJ@PRIVATE?5KEY@ 00000000000bfd28     OpensslLib:pem_lib.obj
 0002:00022e38       ??_C@_0L@MBJDOOAB@PARAMETERS@ 00000000000bfd38     OpensslLib:pem_lib.obj
 0002:00022e48       ??_C@_0BE@FBOHFABJ@X9?442?5DH?5PARAMETERS@ 00000000000bfd48     OpensslLib:pem_lib.obj
 0002:00022e60       ??_C@_0O@NMAFMHPO@DH?5PARAMETERS@ 00000000000bfd60     OpensslLib:pem_lib.obj
 0002:00022e70       ??_C@_0BB@PKKMAABO@X509?5CERTIFICATE@ 00000000000bfd70     OpensslLib:pem_lib.obj
 0002:00022e88       ??_C@_0BI@BBDALNCF@NEW?5CERTIFICATE?5REQUEST@ 00000000000bfd88     OpensslLib:pem_lib.obj
 0002:00022ea0       ??_C@_0BE@PGIFFILK@CERTIFICATE?5REQUEST@ 00000000000bfda0     OpensslLib:pem_lib.obj
 0002:00022eb8       ??_C@_0BE@LHICLJDN@TRUSTED?5CERTIFICATE@ 00000000000bfdb8     OpensslLib:pem_lib.obj
 0002:00022ecc       ??_C@_05BKMMPIPN@PKCS7@    00000000000bfdcc     OpensslLib:pem_lib.obj
 0002:00022ed8       ??_C@_0BE@COMAFCKH@PKCS?5?$CD7?5SIGNED?5DATA@ 00000000000bfdd8     OpensslLib:pem_lib.obj
 0002:00022ef0       ??_C@_0M@NNIFEEDF@Expecting?3?5@ 00000000000bfdf0     OpensslLib:pem_lib.obj
 0002:00022efc       ??_C@_02OJDBNLEE@?5?7@     00000000000bfdfc     OpensslLib:pem_lib.obj
 0002:00022f00       ??_C@_04HHCDBDLF@?5?7?$AN?6@ 00000000000bfe00     OpensslLib:pem_lib.obj
 0002:00022f08       ??_C@_03MEPGMKBP@?5?7?$AN@ 00000000000bfe08     OpensslLib:pem_lib.obj
 0002:00022f0c       ??_C@_03EIGJNPPM@?5?7?0@   00000000000bfe0c     OpensslLib:pem_lib.obj
 0002:00023540       ??_C@_0N@JAGKAFD@FILE?5pointer@ 00000000000c0440     OpensslLib:bss_file.obj
 0002:000235b0       ??_C@_08ONNDIEBB@X509?5CRL@ 00000000000c04b0     OpensslLib:pem_all.obj
 0002:000235c0       RSAPublicKey_it            00000000000c04c0     OpensslLib:rsa_asn1.obj
 0002:000235f0       RSAPrivateKey_it           00000000000c04f0     OpensslLib:rsa_asn1.obj
 0002:00023620       ??_C@_01LPLHEDKD@d@        00000000000c0520     OpensslLib:rsa_asn1.obj
 0002:00023624       ??_C@_01PFHFFBPC@t@        00000000000c0524     OpensslLib:rsa_asn1.obj
 0002:00023628       ??_C@_0P@LIGOHEON@RSA_PRIME_INFO@ 00000000000c0528     OpensslLib:rsa_asn1.obj
 0002:00023638       ??_C@_01EFFIKLCJ@n@        00000000000c0538     OpensslLib:rsa_asn1.obj
 0002:0002363c       ??_C@_01KGKMHCOC@e@        00000000000c053c     OpensslLib:rsa_asn1.obj
 0002:00023640       ??_C@_01JBBJJEPG@p@        00000000000c0540     OpensslLib:rsa_asn1.obj
 0002:00023644       ??_C@_01IIACKFLH@q@        00000000000c0544     OpensslLib:rsa_asn1.obj
 0002:00023648       ??_C@_04OIPJJFD@dmp1@      00000000000c0548     OpensslLib:rsa_asn1.obj
 0002:00023650       ??_C@_04PENPDGE@dmq1@      00000000000c0550     OpensslLib:rsa_asn1.obj
 0002:00023658       ??_C@_04BBEMPLKC@iqmp@     00000000000c0558     OpensslLib:rsa_asn1.obj
 0002:00023660       ??_C@_0M@JLELLENH@prime_infos@ 00000000000c0560     OpensslLib:rsa_asn1.obj
 0002:00023670       ??_C@_0O@PHAOOKLC@RSAPrivateKey@ 00000000000c0570     OpensslLib:rsa_asn1.obj
 0002:00023680       ??_C@_0N@BFBLLDFG@RSAPublicKey@ 00000000000c0580     OpensslLib:rsa_asn1.obj
 0002:00023690       ??_C@_0BB@KKPGFJED@maskGenAlgorithm@ 00000000000c0590     OpensslLib:rsa_asn1.obj
 0002:000236a8       ??_C@_0L@PKGNFOCE@saltLength@ 00000000000c05a8     OpensslLib:rsa_asn1.obj
 0002:000236b8       ??_C@_0N@KGDDKMLA@trailerField@ 00000000000c05b8     OpensslLib:rsa_asn1.obj
 0002:000236c8       ??_C@_0P@PJJHDFJB@RSA_PSS_PARAMS@ 00000000000c05c8     OpensslLib:rsa_asn1.obj
 0002:000238b8       RSA_PRIME_INFO_it          00000000000c07b8     OpensslLib:rsa_asn1.obj
 0002:00023990       RSA_PSS_PARAMS_it          00000000000c0890     OpensslLib:rsa_asn1.obj
 0002:00023a20       ASN1_BOOLEAN_it            00000000000c0920     OpensslLib:tasn_typ.obj
 0002:00023a50       ??_C@_0BC@PEBEKNCO@ASN1_OCTET_STRING@ 00000000000c0950     OpensslLib:tasn_typ.obj
 0002:00023a68       ??_C@_0N@KIGEHGKE@ASN1_INTEGER@ 00000000000c0968     OpensslLib:tasn_typ.obj
 0002:00023a78       ??_C@_0BA@CLGIIAJD@ASN1_ENUMERATED@ 00000000000c0978     OpensslLib:tasn_typ.obj
 0002:00023a88       ??_C@_0BA@LJHGDIKH@ASN1_BIT_STRING@ 00000000000c0988     OpensslLib:tasn_typ.obj
 0002:00023a98       ??_C@_0BA@LEPDCAOC@ASN1_UTF8STRING@ 00000000000c0998     OpensslLib:tasn_typ.obj
 0002:00023aa8       ??_C@_0BF@CPDMNKCA@ASN1_PRINTABLESTRING@ 00000000000c09a8     OpensslLib:tasn_typ.obj
 0002:00023ac0       ??_C@_0P@KBFNFBLB@ASN1_IA5STRING@ 00000000000c09c0     OpensslLib:tasn_typ.obj
 0002:00023ad0       ??_C@_0BF@MPJFOIHC@ASN1_GENERALIZEDTIME@ 00000000000c09d0     OpensslLib:tasn_typ.obj
 0002:00023ae8       ??_C@_09NHFFCPKK@ASN1_NULL@ 00000000000c09e8     OpensslLib:tasn_typ.obj
 0002:00023af8       ??_C@_0M@BJNOJGBL@ASN1_OBJECT@ 00000000000c09f8     OpensslLib:tasn_typ.obj
 0002:00023b08       ??_C@_08FIDCPDIJ@ASN1_ANY@ 00000000000c0a08     OpensslLib:tasn_typ.obj
 0002:00023b18       ??_C@_0O@NJFCFMGE@ASN1_SEQUENCE@ 00000000000c0a18     OpensslLib:tasn_typ.obj
 0002:00023b28       ??_C@_0P@NDKOCAEJ@ASN1_PRINTABLE@ 00000000000c0a28     OpensslLib:tasn_typ.obj
 0002:00023b38       ??_C@_0M@FANFDIEE@DISPLAYTEXT@ 00000000000c0a38     OpensslLib:tasn_typ.obj
 0002:00023b48       ??_C@_0BA@CBHCBCAE@DIRECTORYSTRING@ 00000000000c0a48     OpensslLib:tasn_typ.obj
 0002:00023b58       ??_C@_0N@HMAPMMGF@ASN1_BOOLEAN@ 00000000000c0a58     OpensslLib:tasn_typ.obj
 0002:00023b68       ??_C@_0O@JKANHMPI@ASN1_FBOOLEAN@ 00000000000c0a68     OpensslLib:tasn_typ.obj
 0002:00023b78       ??_C@_0BC@COPGMDLD@ASN1_SEQUENCE_ANY@ 00000000000c0a78     OpensslLib:tasn_typ.obj
 0002:00023b90       ??_C@_0N@KHICOJGI@ASN1_SET_ANY@ 00000000000c0a90     OpensslLib:tasn_typ.obj
 0002:00023ba0       ASN1_SEQUENCE_ANY_it       00000000000c0aa0     OpensslLib:tasn_typ.obj
 0002:00023bf0       ASN1_UTF8STRING_it         00000000000c0af0     OpensslLib:tasn_typ.obj
 0002:00023c20       ASN1_FBOOLEAN_it           00000000000c0b20     OpensslLib:tasn_typ.obj
 0002:00023c50       ASN1_SET_ANY_it            00000000000c0b50     OpensslLib:tasn_typ.obj
 0002:00023ca0       ASN1_PRINTABLESTRING_it    00000000000c0ba0     OpensslLib:tasn_typ.obj
 0002:00023cd0       DIRECTORYSTRING_it         00000000000c0bd0     OpensslLib:tasn_typ.obj
 0002:00023d00       ASN1_SEQUENCE_it           00000000000c0c00     OpensslLib:tasn_typ.obj
 0002:00023d30       DISPLAYTEXT_it             00000000000c0c30     OpensslLib:tasn_typ.obj
 0002:00023d60       ASN1_BIT_STRING_it         00000000000c0c60     OpensslLib:tasn_typ.obj
 0002:00023d90       ASN1_INTEGER_it            00000000000c0c90     OpensslLib:tasn_typ.obj
 0002:00023dc0       ASN1_NULL_it               00000000000c0cc0     OpensslLib:tasn_typ.obj
 0002:00023df0       ASN1_ENUMERATED_it         00000000000c0cf0     OpensslLib:tasn_typ.obj
 0002:00023e20       ASN1_OBJECT_it             00000000000c0d20     OpensslLib:tasn_typ.obj
 0002:00023e50       ASN1_OCTET_STRING_it       00000000000c0d50     OpensslLib:tasn_typ.obj
 0002:00023e80       ASN1_GENERALIZEDTIME_it    00000000000c0d80     OpensslLib:tasn_typ.obj
 0002:00023eb0       ASN1_IA5STRING_it          00000000000c0db0     OpensslLib:tasn_typ.obj
 0002:00023ee0       ASN1_ANY_it                00000000000c0de0     OpensslLib:tasn_typ.obj
 0002:00023f10       ASN1_PRINTABLE_it          00000000000c0e10     OpensslLib:tasn_typ.obj
 0002:00023f40       ??_C@_07NHKPEHKF@?0?5Type?$DN@ 00000000000c0e40     OpensslLib:tasn_dec.obj
 0002:00023f48       ??_C@_06GPKHKFJE@Field?$DN@ 00000000000c0e48     OpensslLib:tasn_dec.obj
 0002:00023f50       ??_C@_05GCCLHHOK@Type?$DN@ 00000000000c0e50     OpensslLib:tasn_dec.obj
 0002:00023fe0       ??_C@_09DAGAJHIH@parameter@ 00000000000c0ee0     OpensslLib:x_algor.obj
 0002:00023ff0       ??_C@_0L@BFHONDPK@X509_ALGOR@ 00000000000c0ef0     OpensslLib:x_algor.obj
 0002:00024040       X509_ALGOR_it              00000000000c0f40     OpensslLib:x_algor.obj
 0002:00024070       ??_C@_08BMACPLOA@fullname@ 00000000000c0f70     OpensslLib:v3_crld.obj
 0002:00024080       ??_C@_0N@LGEOMMHB@relativename@ 00000000000c0f80     OpensslLib:v3_crld.obj
 0002:00024090       ??_C@_06CGLFEPBO@Unused@   00000000000c0f90     OpensslLib:v3_crld.obj
 0002:00024098       ??_C@_06OJAIHGIC@unused@   00000000000c0f98     OpensslLib:v3_crld.obj
 0002:000240a0       ??_C@_0P@JENDIECI@Key?5Compromise@ 00000000000c0fa0     OpensslLib:v3_crld.obj
 0002:000240b0       ??_C@_0O@MCEAAJLH@keyCompromise@ 00000000000c0fb0     OpensslLib:v3_crld.obj
 0002:000240c0       ??_C@_0O@OOGICOKH@CA?5Compromise@ 00000000000c0fc0     OpensslLib:v3_crld.obj
 0002:000240d0       ??_C@_0N@NONEFGOE@CACompromise@ 00000000000c0fd0     OpensslLib:v3_crld.obj
 0002:000240e0       ??_C@_0BE@EECEIFAP@Affiliation?5Changed@ 00000000000c0fe0     OpensslLib:v3_crld.obj
 0002:000240f8       ??_C@_0BD@BNOFAJLL@affiliationChanged@ 00000000000c0ff8     OpensslLib:v3_crld.obj
 0002:00024110       ??_C@_0L@FBLGFHIM@Superseded@ 00000000000c1010     OpensslLib:v3_crld.obj
 0002:00024120       ??_C@_0L@NHCKNIFL@superseded@ 00000000000c1020     OpensslLib:v3_crld.obj
 0002:00024130       ??_C@_0BH@OLCOAMGF@Cessation?5Of?5Operation@ 00000000000c1030     OpensslLib:v3_crld.obj
 0002:00024148       ??_C@_0BF@IGJCOPF@cessationOfOperation@ 00000000000c1048     OpensslLib:v3_crld.obj
 0002:00024160       ??_C@_0BB@IPDHDNJD@Certificate?5Hold@ 00000000000c1060     OpensslLib:v3_crld.obj
 0002:00024178       ??_C@_0BA@FBHLCNLK@certificateHold@ 00000000000c1078     OpensslLib:v3_crld.obj
 0002:00024188       ??_C@_0BE@FJCCMGMM@Privilege?5Withdrawn@ 00000000000c1088     OpensslLib:v3_crld.obj
 0002:000241a0       ??_C@_0BD@PBLGJKCE@privilegeWithdrawn@ 00000000000c10a0     OpensslLib:v3_crld.obj
 0002:000241b8       ??_C@_0O@PAGOKAK@AA?5Compromise@ 00000000000c10b8     OpensslLib:v3_crld.obj
 0002:000241c8       ??_C@_0N@LOIIODKP@AACompromise@ 00000000000c10c8     OpensslLib:v3_crld.obj
 0002:000241d8       ??_C@_08DGFAABGD@?$DMEMPTY?$DO?6@ 00000000000c10d8     OpensslLib:v3_crld.obj
 0002:000241e8       ??_C@_07PFOCLIJD@reasons@  00000000000c10e8     OpensslLib:v3_crld.obj
 0002:000241f0       ??_C@_09GJHADLCP@CRLissuer@ 00000000000c10f0     OpensslLib:v3_crld.obj
 0002:00024200       ??_C@_0O@HJHJCLAE@name?4fullname@ 00000000000c1100     OpensslLib:v3_crld.obj
 0002:00024210       ??_C@_0BC@JDMJBKME@name?4relativename@ 00000000000c1110     OpensslLib:v3_crld.obj
 0002:00024228       ??_C@_0BA@MLHIPLLG@DIST_POINT_NAME@ 00000000000c1128     OpensslLib:v3_crld.obj
 0002:00024238       ??_C@_09FBDFGJDL@distpoint@ 00000000000c1138     OpensslLib:v3_crld.obj
 0002:00024248       ??_C@_0L@ELIKPJIH@DIST_POINT@ 00000000000c1148     OpensslLib:v3_crld.obj
 0002:00024258       ??_C@_0BG@CHNNADAE@CRLDistributionPoints@ 00000000000c1158     OpensslLib:v3_crld.obj
 0002:00024270       ??_C@_0BA@BBHAIMOE@CRL_DIST_POINTS@ 00000000000c1170     OpensslLib:v3_crld.obj
 0002:00024280       ??_C@_08CENLBPEH@onlyuser@ 00000000000c1180     OpensslLib:v3_crld.obj
 0002:0002428c       ??_C@_06PMNIEKCA@onlyCA@   00000000000c118c     OpensslLib:v3_crld.obj
 0002:00024298       ??_C@_0BA@FNMBIJDN@onlysomereasons@ 00000000000c1198     OpensslLib:v3_crld.obj
 0002:000242a8       ??_C@_0M@BECDICJC@indirectCRL@ 00000000000c11a8     OpensslLib:v3_crld.obj
 0002:000242b8       ??_C@_08DBIINPPL@onlyattr@ 00000000000c11b8     OpensslLib:v3_crld.obj
 0002:000242c8       ??_C@_0BD@ENBCPHJ@ISSUING_DIST_POINT@ 00000000000c11c8     OpensslLib:v3_crld.obj
 0002:000242dc       ??_C@_06PPFMJOEO@onlyAA@   00000000000c11dc     OpensslLib:v3_crld.obj
 0002:000242e8       ??_C@_07BDICHDDB@?0value?3@ 00000000000c11e8     OpensslLib:v3_crld.obj
 0002:000242f0       ??_C@_06FONLLLNC@?0name?3@ 00000000000c11f0     OpensslLib:v3_crld.obj
 0002:000242f8       ??_C@_08PCLJGJAL@section?3@ 00000000000c11f8     OpensslLib:v3_crld.obj
 0002:00024304       ??_C@_03HIJPJGOM@?$CF?$CKs@ 00000000000c1204     OpensslLib:v3_crld.obj
 0002:000243f0       DIST_POINT_it              00000000000c12f0     OpensslLib:v3_crld.obj
 0002:00024420       v3_crld                    00000000000c1320     OpensslLib:v3_crld.obj
 0002:00024488       DIST_POINT_NAME_it         00000000000c1388     OpensslLib:v3_crld.obj
 0002:000245b0       ISSUING_DIST_POINT_it      00000000000c14b0     OpensslLib:v3_crld.obj
 0002:000245e0       v3_freshest_crl            00000000000c14e0     OpensslLib:v3_crld.obj
 0002:00024690       v3_idp                     00000000000c1590     OpensslLib:v3_crld.obj
 0002:00024760       CRL_DIST_POINTS_it         00000000000c1660     OpensslLib:v3_crld.obj
 0002:000247b8       ??_C@_05BMJJJIHB@trust@    00000000000c16b8     OpensslLib:x_x509a.obj
 0002:000247c0       ??_C@_06JPOFNODM@reject@   00000000000c16c0     OpensslLib:x_x509a.obj
 0002:000247c8       ??_C@_05NKHOCLEE@alias@    00000000000c16c8     OpensslLib:x_x509a.obj
 0002:000247d0       ??_C@_05CNHMOIOC@keyid@    00000000000c16d0     OpensslLib:x_x509a.obj
 0002:000247d8       ??_C@_05BGEKGIIP@other@    00000000000c16d8     OpensslLib:x_x509a.obj
 0002:000247e0       ??_C@_0O@LJIIOIG@X509_CERT_AUX@ 00000000000c16e0     OpensslLib:x_x509a.obj
 0002:00024890       X509_CERT_AUX_it           00000000000c1790     OpensslLib:x_x509a.obj
 0002:000248c0       ??_C@_06KCELPKEE@serial@   00000000000c17c0     OpensslLib:v3_akeya.obj
 0002:000248c8       ??_C@_0BA@OPHCNPAP@AUTHORITY_KEYID@ 00000000000c17c8     OpensslLib:v3_akeya.obj
 0002:000248d8       AUTHORITY_KEYID_it         00000000000c17d8     OpensslLib:v3_akeya.obj
 0002:00024970       ??_C@_07EEDOJOAA@type_id@  00000000000c1870     OpensslLib:v3_genn.obj
 0002:00024978       ??_C@_09MAFAINAH@OTHERNAME@ 00000000000c1878     OpensslLib:v3_genn.obj
 0002:00024988       ??_C@_0N@KBFEHHDO@nameAssigner@ 00000000000c1888     OpensslLib:v3_genn.obj
 0002:00024998       ??_C@_09EHIHAIPF@partyName@ 00000000000c1898     OpensslLib:v3_genn.obj
 0002:000249a8       ??_C@_0N@GEILLNKP@EDIPARTYNAME@ 00000000000c18a8     OpensslLib:v3_genn.obj
 0002:000249b8       ??_C@_0M@FGIBMCEL@d?4otherName@ 00000000000c18b8     OpensslLib:v3_genn.obj
 0002:000249c8       ??_C@_0N@MMCCMIPN@d?4rfc822Name@ 00000000000c18c8     OpensslLib:v3_genn.obj
 0002:000249d8       ??_C@_09HIBJABFB@d?4dNSName@ 00000000000c18d8     OpensslLib:v3_genn.obj
 0002:000249e8       ??_C@_0O@NKHOODFK@d?4x400Address@ 00000000000c18e8     OpensslLib:v3_genn.obj
 0002:000249f8       ??_C@_0BA@JLDFBFLN@d?4directoryName@ 00000000000c18f8     OpensslLib:v3_genn.obj
 0002:00024a08       ??_C@_0P@OBCPPLOL@d?4ediPartyName@ 00000000000c1908     OpensslLib:v3_genn.obj
 0002:00024a18       ??_C@_0BM@CMCMADCA@d?4uniformResourceIdentifier@ 00000000000c1918     OpensslLib:v3_genn.obj
 0002:00024a38       ??_C@_0M@PANAALJB@d?4iPAddress@ 00000000000c1938     OpensslLib:v3_genn.obj
 0002:00024a48       ??_C@_0P@KIENIEMD@d?4registeredID@ 00000000000c1948     OpensslLib:v3_genn.obj
 0002:00024a58       ??_C@_0N@JCNPGCGM@GENERAL_NAME@ 00000000000c1958     OpensslLib:v3_genn.obj
 0002:00024a68       ??_C@_0N@CJKIBDLK@GeneralNames@ 00000000000c1968     OpensslLib:v3_genn.obj
 0002:00024a78       ??_C@_0O@NFAAPMIG@GENERAL_NAMES@ 00000000000c1978     OpensslLib:v3_genn.obj
 0002:00024a88       OTHERNAME_it               00000000000c1988     OpensslLib:v3_genn.obj
 0002:00024b60       GENERAL_NAMES_it           00000000000c1a60     OpensslLib:v3_genn.obj
 0002:00024b90       EDIPARTYNAME_it            00000000000c1a90     OpensslLib:v3_genn.obj
 0002:00024ce0       GENERAL_NAME_it            00000000000c1be0     OpensslLib:v3_genn.obj
 0002:00024d10       X509_VAL_it                00000000000c1c10     OpensslLib:x_val.obj
 0002:00024d40       ??_C@_09MJPOMOII@notBefore@ 00000000000c1c40     OpensslLib:x_val.obj
 0002:00024d50       ??_C@_08PJIFIJBI@notAfter@ 00000000000c1c50     OpensslLib:x_val.obj
 0002:00024d60       ??_C@_08OPPGEJIL@X509_VAL@ 00000000000c1c60     OpensslLib:x_val.obj
 0002:00024db0       ??_C@_04BHIIPFEC@base@     00000000000c1cb0     OpensslLib:v3_ncons.obj
 0002:00024db8       ??_C@_07CCOEHHFD@minimum@  00000000000c1cb8     OpensslLib:v3_ncons.obj
 0002:00024dc0       ??_C@_07MEIENILC@maximum@  00000000000c1cc0     OpensslLib:v3_ncons.obj
 0002:00024dc8       ??_C@_0BA@ECMIFHDE@GENERAL_SUBTREE@ 00000000000c1cc8     OpensslLib:v3_ncons.obj
 0002:00024dd8       ??_C@_0BC@FACFJLFB@permittedSubtrees@ 00000000000c1cd8     OpensslLib:v3_ncons.obj
 0002:00024df0       ??_C@_0BB@HLFEMJKE@excludedSubtrees@ 00000000000c1cf0     OpensslLib:v3_ncons.obj
 0002:00024e08       ??_C@_0BB@MLLJAFMN@NAME_CONSTRAINTS@ 00000000000c1d08     OpensslLib:v3_ncons.obj
 0002:00024e20       ??_C@_09HAKFOFAM@permitted@ 00000000000c1d20     OpensslLib:v3_ncons.obj
 0002:00024e30       ??_C@_08HPCEJEEF@excluded@ 00000000000c1d30     OpensslLib:v3_ncons.obj
 0002:00024e40       ??_C@_09DPPIOGNM@Permitted@ 00000000000c1d40     OpensslLib:v3_ncons.obj
 0002:00024e50       ??_C@_08PNNFBGOG@Excluded@ 00000000000c1d50     OpensslLib:v3_ncons.obj
 0002:00024e60       ??_C@_07GOIIHCND@?$CF?$CKs?$CFs?3?6@ 00000000000c1d60     OpensslLib:v3_ncons.obj
 0002:00024e68       ??_C@_03HBLCMHJN@IP?3@     00000000000c1d68     OpensslLib:v3_ncons.obj
 0002:00024e6c       ??_C@_01JLIPDDHJ@?3@       00000000000c1d6c     OpensslLib:v3_ncons.obj
 0002:00024eb0       v3_name_constraints        00000000000c1db0     OpensslLib:v3_ncons.obj
 0002:00024f18       NAME_CONSTRAINTS_it        00000000000c1e18     OpensslLib:v3_ncons.obj
 0002:00024fb0       GENERAL_SUBTREE_it         00000000000c1eb0     OpensslLib:v3_ncons.obj
 0002:00024fe0       ??_C@_0L@JNOGJJCA@compatible@ 00000000000c1ee0     OpensslLib:x509_trs.obj
 0002:00024ff0       ??_C@_0L@HNMCLCCI@SSL?5Client@ 00000000000c1ef0     OpensslLib:x509_trs.obj
 0002:00025000       ??_C@_0L@DCIAGJKL@SSL?5Server@ 00000000000c1f00     OpensslLib:x509_trs.obj
 0002:00025010       ??_C@_0N@OEEPKGPL@S?1MIME?5email@ 00000000000c1f10     OpensslLib:x509_trs.obj
 0002:00025020       ??_C@_0O@EEPBMPKP@Object?5Signer@ 00000000000c1f20     OpensslLib:x509_trs.obj
 0002:00025030       ??_C@_0P@JHCOMJOI@OCSP?5responder@ 00000000000c1f30     OpensslLib:x509_trs.obj
 0002:00025040       ??_C@_0N@CAJJAOJD@OCSP?5request@ 00000000000c1f40     OpensslLib:x509_trs.obj
 0002:00025050       ??_C@_0L@CFEJKCOD@TSA?5server@ 00000000000c1f50     OpensslLib:x509_trs.obj
 0002:00025060       ??_C@_09OJNEAJGG@?$DMINVALID?$DO@ 00000000000c1f60     OpensslLib:a_object.obj
 0002:0002506c       ??_C@_04HCDDPBNL@TRUE@     00000000000c1f6c     OpensslLib:v3_utl.obj
 0002:00025074       ??_C@_05MAJJAKPI@FALSE@    00000000000c1f74     OpensslLib:v3_utl.obj
 0002:0002507c       ??_C@_03EPGOEBGO@?90x@     00000000000c1f7c     OpensslLib:v3_utl.obj
 0002:00025080       ??_C@_02MDDDDAID@0x@       00000000000c1f80     OpensslLib:v3_utl.obj
 0002:00025084       ??_C@_04LOAJBDKD@true@     00000000000c1f84     OpensslLib:v3_utl.obj
 0002:0002508c       ??_C@_01NFFPALBN@Y@        00000000000c1f8c     OpensslLib:v3_utl.obj
 0002:00025090       ??_C@_01EANLCPLP@y@        00000000000c1f90     OpensslLib:v3_utl.obj
 0002:00025094       ??_C@_03IPHJCBHH@YES@      00000000000c1f94     OpensslLib:v3_utl.obj
 0002:00025098       ??_C@_03ICICOMAL@yes@      00000000000c1f98     OpensslLib:v3_utl.obj
 0002:0002509c       ??_C@_05LAPONLG@false@     00000000000c1f9c     OpensslLib:v3_utl.obj
 0002:000250a4       ??_C@_01NANMIPIL@N@        00000000000c1fa4     OpensslLib:v3_utl.obj
 0002:000250a8       ??_C@_02NFLNFON@NO@        00000000000c1fa8     OpensslLib:v3_utl.obj
 0002:000250ac       ??_C@_02KAJCLHKP@no@       00000000000c1fac     OpensslLib:v3_utl.obj
 0002:000250b0       ??_C@_04DLDJKMIA@xn?9?9@   00000000000c1fb0     OpensslLib:v3_utl.obj
 0002:000250b8       ??_C@_0M@PCENNPGA@?$CFd?4?$CFd?4?$CFd?4?$CFd@ 00000000000c1fb8     OpensslLib:v3_utl.obj
 0002:000250e0       ??_C@_0EB@FMBILPGL@d?3?2myedk2?2edk2?2CryptoPkg?2Librar@ 00000000000c1fe0     OpensslLib:packet.obj
 0002:00025128       ??_C@_0DA@NANHDCLH@Assertion?5failed?3?5pkt?9?$DOsubs?5?$CB?$DN?5@ 00000000000c2028     OpensslLib:packet.obj
 0002:00025158       ??_C@_0CJ@HHBHGLHH@Assertion?5failed?3?5buf?5?$CB?$DN?5NULL?5?$CG@ 00000000000c2058     OpensslLib:packet.obj
 0002:00025188       ??_C@_0BO@MMCAKCAD@Assertion?5failed?3?5buf?5?$CB?$DN?5NULL@ 00000000000c2088     OpensslLib:packet.obj
 0002:000251a8       ??_C@_0CE@EINCHMLC@Assertion?5failed?3?5pkt?9?$DOsubs?5?$CB?$DN?5@ 00000000000c20a8     OpensslLib:packet.obj
 0002:000251d0       ??_C@_0CP@FHEBLAPG@Assertion?5failed?3?5size?5?$DM?$DN?5sizeo@ 00000000000c20d0     OpensslLib:packet.obj
 0002:00025200       ??_C@_0CC@GNPBDMD@Assertion?5failed?3?5written?5?$CB?$DN?5NU@ 00000000000c2100     OpensslLib:packet.obj
 0002:00025228       ??_C@_0DD@KKKLCONA@Assertion?5failed?3?5pkt?9?$DOsubs?5?$CB?$DN?5@ 00000000000c2128     OpensslLib:packet.obj
 0002:00025270       ??_C@_06IJPNAHC@digest@    00000000000c2170     OpensslLib:pmeth_lib.obj
 0002:00025278       ??_C@_02MFDMBIJM@ok@       00000000000c2178     OpensslLib:x509_txt.obj
 0002:00025280       ??_C@_0CL@ICDMHEOH@unspecified?5certificate?5verific@ 00000000000c2180     OpensslLib:x509_txt.obj
 0002:000252b0       ??_C@_0CB@KFJODNFN@unable?5to?5get?5issuer?5certificat@ 00000000000c21b0     OpensslLib:x509_txt.obj
 0002:000252d8       ??_C@_0BO@CIOBDJGN@unable?5to?5get?5certificate?5CRL@ 00000000000c21d8     OpensslLib:x509_txt.obj
 0002:000252f8       ??_C@_0CK@LBDBBNHI@unable?5to?5decrypt?5certificate?8s@ 00000000000c21f8     OpensslLib:x509_txt.obj
 0002:00025328       ??_C@_0CC@KFEPDDPF@unable?5to?5decrypt?5CRL?8s?5signatu@ 00000000000c2228     OpensslLib:x509_txt.obj
 0002:00025350       ??_C@_0CD@KOEKDJOF@unable?5to?5decode?5issuer?5public?5@ 00000000000c2250     OpensslLib:x509_txt.obj
 0002:00025378       ??_C@_0BO@FPBBKLNG@certificate?5signature?5failure@ 00000000000c2278     OpensslLib:x509_txt.obj
 0002:00025398       ??_C@_0BG@PKEGLGEB@CRL?5signature?5failure@ 00000000000c2298     OpensslLib:x509_txt.obj
 0002:000253b0       ??_C@_0BN@JFLHFAGA@certificate?5is?5not?5yet?5valid@ 00000000000c22b0     OpensslLib:x509_txt.obj
 0002:000253d0       ??_C@_0BI@HHICNLNC@certificate?5has?5expired@ 00000000000c22d0     OpensslLib:x509_txt.obj
 0002:000253e8       ??_C@_0BF@MIBPKMEH@CRL?5is?5not?5yet?5valid@ 00000000000c22e8     OpensslLib:x509_txt.obj
 0002:00025400       ??_C@_0BA@JMGDIGAP@CRL?5has?5expired@ 00000000000c2300     OpensslLib:x509_txt.obj
 0002:00025410       ??_C@_0CO@BGGBNHHG@format?5error?5in?5certificate?8s?5n@ 00000000000c2310     OpensslLib:x509_txt.obj
 0002:00025440       ??_C@_0CN@NPHCNDGF@format?5error?5in?5certificate?8s?5n@ 00000000000c2340     OpensslLib:x509_txt.obj
 0002:00025470       ??_C@_0CH@OEGANADM@format?5error?5in?5CRL?8s?5lastUpdat@ 00000000000c2370     OpensslLib:x509_txt.obj
 0002:00025498       ??_C@_0CH@DKJJKKIC@format?5error?5in?5CRL?8s?5nextUpdat@ 00000000000c2398     OpensslLib:x509_txt.obj
 0002:000254c0       ??_C@_0O@BNNCBLEN@out?5of?5memory@ 00000000000c23c0     OpensslLib:x509_txt.obj
 0002:000254d0       ??_C@_0BI@PBDHIKFI@self?5signed?5certificate@ 00000000000c23d0     OpensslLib:x509_txt.obj
 0002:000254e8       ??_C@_0CN@GCPAFAGL@self?5signed?5certificate?5in?5cert@ 00000000000c23e8     OpensslLib:x509_txt.obj
 0002:00025518       ??_C@_0CH@NBHLNPJC@unable?5to?5get?5local?5issuer?5cert@ 00000000000c2418     OpensslLib:x509_txt.obj
 0002:00025540       ??_C@_0CH@PCOLJJF@unable?5to?5verify?5the?5first?5cert@ 00000000000c2440     OpensslLib:x509_txt.obj
 0002:00025568       ??_C@_0BL@JGHJBAMD@certificate?5chain?5too?5long@ 00000000000c2468     OpensslLib:x509_txt.obj
 0002:00025588       ??_C@_0BE@PBLGGMOB@certificate?5revoked@ 00000000000c2488     OpensslLib:x509_txt.obj
 0002:000255a0       ??_C@_0BH@EKEBOKH@invalid?5CA?5certificate@ 00000000000c24a0     OpensslLib:x509_txt.obj
 0002:000255b8       ??_C@_0CA@LLGONKGK@path?5length?5constraint?5exceeded@ 00000000000c24b8     OpensslLib:x509_txt.obj
 0002:000255d8       ??_C@_0CA@LPAJAMFA@unsupported?5certificate?5purpose@ 00000000000c24d8     OpensslLib:x509_txt.obj
 0002:000255f8       ??_C@_0BI@GDICGBPK@certificate?5not?5trusted@ 00000000000c24f8     OpensslLib:x509_txt.obj
 0002:00025610       ??_C@_0BF@OJPAOPB@certificate?5rejected@ 00000000000c2510     OpensslLib:x509_txt.obj
 0002:00025628       ??_C@_0BI@OHGOAFON@subject?5issuer?5mismatch@ 00000000000c2528     OpensslLib:x509_txt.obj
 0002:00025640       ??_C@_0CO@HGJKNPBG@authority?5and?5subject?5key?5ident@ 00000000000c2540     OpensslLib:x509_txt.obj
 0002:00025670       ??_C@_0CM@GGIKLLEP@authority?5and?5issuer?5serial?5num@ 00000000000c2570     OpensslLib:x509_txt.obj
 0002:000256a0       ??_C@_0CP@EEPOGHPG@key?5usage?5does?5not?5include?5cert@ 00000000000c25a0     OpensslLib:x509_txt.obj
 0002:000256d0       ??_C@_0CF@OOPBMEA@unable?5to?5get?5CRL?5issuer?5certif@ 00000000000c25d0     OpensslLib:x509_txt.obj
 0002:000256f8       ??_C@_0BN@DHGAFJG@unhandled?5critical?5extension@ 00000000000c25f8     OpensslLib:x509_txt.obj
 0002:00025718       ??_C@_0CH@JKPBLJBP@key?5usage?5does?5not?5include?5CRL?5@ 00000000000c2618     OpensslLib:x509_txt.obj
 0002:00025740       ??_C@_0CB@OODOOIP@unhandled?5critical?5CRL?5extensio@ 00000000000c2640     OpensslLib:x509_txt.obj
 0002:00025768       ??_C@_0CN@GNFODAID@invalid?5non?9CA?5certificate?5?$CIhas@ 00000000000c2668     OpensslLib:x509_txt.obj
 0002:00025798       ??_C@_0CG@BIOFEFIK@proxy?5path?5length?5constraint?5ex@ 00000000000c2698     OpensslLib:x509_txt.obj
 0002:000257c0       ??_C@_0CN@HJJGOKEM@key?5usage?5does?5not?5include?5digi@ 00000000000c26c0     OpensslLib:x509_txt.obj
 0002:000257f0       ??_C@_0EA@EILBDOFP@proxy?5certificates?5not?5allowed?0@ 00000000000c26f0     OpensslLib:x509_txt.obj
 0002:00025830       ??_C@_0CO@BIBMOLPK@invalid?5or?5inconsistent?5certifi@ 00000000000c2730     OpensslLib:x509_txt.obj
 0002:00025860       ??_C@_0DF@JOCKIEDN@invalid?5or?5inconsistent?5certifi@ 00000000000c2760     OpensslLib:x509_txt.obj
 0002:00025898       ??_C@_0BD@KPLGPDJA@no?5explicit?5policy@ 00000000000c2798     OpensslLib:x509_txt.obj
 0002:000258b0       ??_C@_0BE@FHFDNMCN@Different?5CRL?5scope@ 00000000000c27b0     OpensslLib:x509_txt.obj
 0002:000258c8       ??_C@_0BO@CHPDNLHA@Unsupported?5extension?5feature@ 00000000000c27c8     OpensslLib:x509_txt.obj
 0002:000258e8       ??_C@_0DD@IBFFGHC@RFC?53779?5resource?5not?5subset?5of@ 00000000000c27e8     OpensslLib:x509_txt.obj
 0002:00025920       ??_C@_0BM@OAJDKGDI@permitted?5subtree?5violation@ 00000000000c2820     OpensslLib:x509_txt.obj
 0002:00025940       ??_C@_0BL@OHBCHEHN@excluded?5subtree?5violation@ 00000000000c2840     OpensslLib:x509_txt.obj
 0002:00025960       ??_C@_0DD@KOHKHENH@name?5constraints?5minimum?5and?5ma@ 00000000000c2860     OpensslLib:x509_txt.obj
 0002:00025998       ??_C@_0CB@HLIFGCCB@application?5verification?5failur@ 00000000000c2898     OpensslLib:x509_txt.obj
 0002:000259c0       ??_C@_0CB@NJIFBAAK@unsupported?5name?5constraint?5typ@ 00000000000c28c0     OpensslLib:x509_txt.obj
 0002:000259e8       ??_C@_0CO@MKOFKAHI@unsupported?5or?5invalid?5name?5con@ 00000000000c28e8     OpensslLib:x509_txt.obj
 0002:00025a18       ??_C@_0CD@FOPJHCDH@unsupported?5or?5invalid?5name?5syn@ 00000000000c2918     OpensslLib:x509_txt.obj
 0002:00025a40       ??_C@_0BK@IBKFOKDF@CRL?5path?5validation?5error@ 00000000000c2940     OpensslLib:x509_txt.obj
 0002:00025a60       ??_C@_09OLGELLAO@Path?5Loop@ 00000000000c2960     OpensslLib:x509_txt.obj
 0002:00025a70       ??_C@_0CF@FOANFLBA@Suite?5B?3?5certificate?5version?5in@ 00000000000c2970     OpensslLib:x509_txt.obj
 0002:00025a98       ??_C@_0CG@BICIPKHE@Suite?5B?3?5invalid?5public?5key?5alg@ 00000000000c2998     OpensslLib:x509_txt.obj
 0002:00025ac0       ??_C@_0BL@FMOLHBNA@Suite?5B?3?5invalid?5ECC?5curve@ 00000000000c29c0     OpensslLib:x509_txt.obj
 0002:00025ae0       ??_C@_0CF@HDBBCDPB@Suite?5B?3?5invalid?5signature?5algo@ 00000000000c29e0     OpensslLib:x509_txt.obj
 0002:00025b08       ??_C@_0CI@KACFGKAG@Suite?5B?3?5curve?5not?5allowed?5for?5@ 00000000000c2a08     OpensslLib:x509_txt.obj
 0002:00025b30       ??_C@_0CG@KNKODCDA@Suite?5B?3?5cannot?5sign?5P?9384?5with@ 00000000000c2a30     OpensslLib:x509_txt.obj
 0002:00025b58       ??_C@_0BC@BKAJEJKO@Hostname?5mismatch@ 00000000000c2a58     OpensslLib:x509_txt.obj
 0002:00025b70       ??_C@_0BH@EANENMMC@Email?5address?5mismatch@ 00000000000c2a70     OpensslLib:x509_txt.obj
 0002:00025b88       ??_C@_0BE@CAFPLHHN@IP?5address?5mismatch@ 00000000000c2a88     OpensslLib:x509_txt.obj
 0002:00025ba0       ??_C@_0BO@OPFDPPAC@No?5matching?5DANE?5TLSA?5records@ 00000000000c2aa0     OpensslLib:x509_txt.obj
 0002:00025bc0       ??_C@_0BM@CJPGEEIN@EE?5certificate?5key?5too?5weak@ 00000000000c2ac0     OpensslLib:x509_txt.obj
 0002:00025be0       ??_C@_0BM@ENALCBIG@CA?5certificate?5key?5too?5weak@ 00000000000c2ae0     OpensslLib:x509_txt.obj
 0002:00025c00       ??_C@_0CH@LKAOFJGJ@CA?5signature?5digest?5algorithm?5t@ 00000000000c2b00     OpensslLib:x509_txt.obj
 0002:00025c28       ??_C@_0CJ@LGEOKENH@Invalid?5certificate?5verificatio@ 00000000000c2b28     OpensslLib:x509_txt.obj
 0002:00025c58       ??_C@_0CA@IHGNDGJI@Issuer?5certificate?5lookup?5error@ 00000000000c2b58     OpensslLib:x509_txt.obj
 0002:00025c78       ??_C@_0DL@IEHGPPOE@Certificate?5Transparency?5requir@ 00000000000c2b78     OpensslLib:x509_txt.obj
 0002:00025cb8       ??_C@_0BN@MGIIDFLE@proxy?5subject?5name?5violation@ 00000000000c2bb8     OpensslLib:x509_txt.obj
 0002:00025cd8       ??_C@_0BJ@GCKALNFK@OCSP?5verification?5needed@ 00000000000c2bd8     OpensslLib:x509_txt.obj
 0002:00025cf8       ??_C@_0BJ@MKJKHEMF@OCSP?5verification?5failed@ 00000000000c2bf8     OpensslLib:x509_txt.obj
 0002:00025d18       ??_C@_0BC@JFODIBJK@OCSP?5unknown?5cert@ 00000000000c2c18     OpensslLib:x509_txt.obj
 0002:00025d30       ??_C@_0DD@FBNJLBKB@Certificate?5public?5key?5has?5expl@ 00000000000c2c30     OpensslLib:x509_txt.obj
 0002:00025d68       ??_C@_0CH@MPONIKPM@unknown?5certificate?5verificatio@ 00000000000c2c68     OpensslLib:x509_txt.obj
 0002:00025d90       ??_C@_04IBPFIGHK@GET?5@    00000000000c2c90     OpensslLib:ssl3_record.obj
 0002:00025d98       ??_C@_05LPJJJLLB@POST?5@   00000000000c2c98     OpensslLib:ssl3_record.obj
 0002:00025da0       ??_C@_05PMJKDPIC@HEAD?5@   00000000000c2ca0     OpensslLib:ssl3_record.obj
 0002:00025da8       ??_C@_04DCMJKHH@PUT?5@     00000000000c2ca8     OpensslLib:ssl3_record.obj
 0002:00025db0       ??_C@_05JBJDNNIC@CONNE@    00000000000c2cb0     OpensslLib:ssl3_record.obj
 0002:00025ec0       ??_C@_0O@EOHBJBLD@key?5expansion@ 00000000000c2dc0     OpensslLib:t1_enc.obj
 0002:00025ed0       ??_C@_0BH@PGDOJNIM@extended?5master?5secret@ 00000000000c2dd0     OpensslLib:t1_enc.obj
 0002:00025ee8       ??_C@_0O@FEJGMKDJ@master?5secret@ 00000000000c2de8     OpensslLib:t1_enc.obj
 0002:00025f18       ??_C@_0CL@JMAEHKDJ@SECG?1WTLS?5curve?5over?5a?5112?5bit?5@ 00000000000c2e18     OpensslLib:ec_curve.obj
 0002:00025f48       ??_C@_0CG@IMPBFOOG@SECG?5curve?5over?5a?5112?5bit?5prime@ 00000000000c2e48     OpensslLib:ec_curve.obj
 0002:00025f70       ??_C@_0CG@DNCCBNMA@SECG?5curve?5over?5a?5128?5bit?5prime@ 00000000000c2e70     OpensslLib:ec_curve.obj
 0002:00025f98       ??_C@_0CG@MDBLLOCO@SECG?5curve?5over?5a?5160?5bit?5prime@ 00000000000c2e98     OpensslLib:ec_curve.obj
 0002:00025fc0       ??_C@_0CL@NDOOJKPB@SECG?1WTLS?5curve?5over?5a?5160?5bit?5@ 00000000000c2ec0     OpensslLib:ec_curve.obj
 0002:00025ff0       ??_C@_0CG@IFFAEDGD@SECG?5curve?5over?5a?5192?5bit?5prime@ 00000000000c2ef0     OpensslLib:ec_curve.obj
 0002:00026018       ??_C@_0CG@IOHCCJAA@SECG?5curve?5over?5a?5224?5bit?5prime@ 00000000000c2f18     OpensslLib:ec_curve.obj
 0002:00026040       ??_C@_0CL@NHPHHEEB@NIST?1SECG?5curve?5over?5a?5224?5bit?5@ 00000000000c2f40     OpensslLib:ec_curve.obj
 0002:00026070       ??_C@_0CG@MBJIMJMI@SECG?5curve?5over?5a?5256?5bit?5prime@ 00000000000c2f70     OpensslLib:ec_curve.obj
 0002:00026098       ??_C@_0CL@MPIFFEHD@NIST?1SECG?5curve?5over?5a?5384?5bit?5@ 00000000000c2f98     OpensslLib:ec_curve.obj
 0002:000260c8       ??_C@_0CL@NCEJLDDF@NIST?1SECG?5curve?5over?5a?5521?5bit?5@ 00000000000c2fc8     OpensslLib:ec_curve.obj
 0002:000260f8       ??_C@_0DB@HJIMEGJL@NIST?1X9?462?1SECG?5curve?5over?5a?519@ 00000000000c2ff8     OpensslLib:ec_curve.obj
 0002:00026130       ??_C@_0CH@BHJCBJE@X9?462?5curve?5over?5a?5192?5bit?5prim@ 00000000000c3030     OpensslLib:ec_curve.obj
 0002:00026158       ??_C@_0CH@COBCAEEE@X9?462?5curve?5over?5a?5239?5bit?5prim@ 00000000000c3058     OpensslLib:ec_curve.obj
 0002:00026180       ??_C@_0CM@IACJENLF@X9?462?1SECG?5curve?5over?5a?5256?5bit@ 00000000000c3080     OpensslLib:ec_curve.obj
 0002:000261b0       ??_C@_0CG@NOPNGNKB@WTLS?5curve?5over?5a?5112?5bit?5prime@ 00000000000c30b0     OpensslLib:ec_curve.obj
 0002:000261d8       ??_C@_0CG@JBBHINGJ@WTLS?5curve?5over?5a?5160?5bit?5prime@ 00000000000c30d8     OpensslLib:ec_curve.obj
 0002:00026200       ??_C@_0CG@NMHOBKEH@WTLS?5curve?5over?5a?5224?5bit?5prime@ 00000000000c3100     OpensslLib:ec_curve.obj
 0002:00026228       ??_C@_0CK@DKPAAAHG@RFC?55639?5curve?5over?5a?5160?5bit?5p@ 00000000000c3128     OpensslLib:ec_curve.obj
 0002:00026258       ??_C@_0CK@HMLLPNDL@RFC?55639?5curve?5over?5a?5192?5bit?5p@ 00000000000c3158     OpensslLib:ec_curve.obj
 0002:00026288       ??_C@_0CK@HHJJJHFI@RFC?55639?5curve?5over?5a?5224?5bit?5p@ 00000000000c3188     OpensslLib:ec_curve.obj
 0002:000262b8       ??_C@_0CK@DIHDHHJA@RFC?55639?5curve?5over?5a?5256?5bit?5p@ 00000000000c31b8     OpensslLib:ec_curve.obj
 0002:000262e8       ??_C@_0CK@BJFGHLBI@RFC?55639?5curve?5over?5a?5320?5bit?5p@ 00000000000c31e8     OpensslLib:ec_curve.obj
 0002:00026318       ??_C@_0CK@GPOLLHGK@RFC?55639?5curve?5over?5a?5384?5bit?5p@ 00000000000c3218     OpensslLib:ec_curve.obj
 0002:00026348       ??_C@_0CK@DLPHALOH@RFC?55639?5curve?5over?5a?5512?5bit?5p@ 00000000000c3248     OpensslLib:ec_curve.obj
 0002:00026378       ??_C@_0CF@CCLOOCBH@SM2?5curve?5over?5a?5256?5bit?5prime?5@ 00000000000c3278     OpensslLib:ec_curve.obj
 0002:000263a0       ??_C@_05KJOGHNFI@B?9163@   00000000000c32a0     OpensslLib:ec_curve.obj
 0002:000263a8       ??_C@_05LNJIBAFN@B?9233@   00000000000c32a8     OpensslLib:ec_curve.obj
 0002:000263b0       ??_C@_05LBMNPPLM@B?9283@   00000000000c32b0     OpensslLib:ec_curve.obj
 0002:000263b8       ??_C@_05GAFKBJFC@B?9409@   00000000000c32b8     OpensslLib:ec_curve.obj
 0002:000263c0       ??_C@_05BFHAOCLK@B?9571@   00000000000c32c0     OpensslLib:ec_curve.obj
 0002:000263c8       ??_C@_05IOOJCMJA@K?9163@   00000000000c32c8     OpensslLib:ec_curve.obj
 0002:000263d0       ??_C@_05JKJHEBJF@K?9233@   00000000000c32d0     OpensslLib:ec_curve.obj
 0002:000263d8       ??_C@_05JGMCKOHE@K?9283@   00000000000c32d8     OpensslLib:ec_curve.obj
 0002:000263e0       ??_C@_05EHFFEIJK@K?9409@   00000000000c32e0     OpensslLib:ec_curve.obj
 0002:000263e8       ??_C@_05DCHPLDHC@K?9571@   00000000000c32e8     OpensslLib:ec_curve.obj
 0002:000263f0       ??_C@_05PFLPKILE@P?9192@   00000000000c32f0     OpensslLib:ec_curve.obj
 0002:000263f8       ??_C@_05LNAFEPDN@P?9224@   00000000000c32f8     OpensslLib:ec_curve.obj
 0002:00026400       ??_C@_05IKHMDLDK@P?9256@   00000000000c3300     OpensslLib:ec_curve.obj
 0002:00026408       ??_C@_05ICOKNIO@P?9384@    00000000000c3308     OpensslLib:ec_curve.obj
 0002:00026410       ??_C@_05FNKFIDMB@P?9521@   00000000000c3310     OpensslLib:ec_curve.obj
 0002:00029190       ACCESS_DESCRIPTION_it      00000000000c6090     OpensslLib:v3_info.obj
 0002:000291c0       ??_C@_06GABBCIBA@method@   00000000000c60c0     OpensslLib:v3_info.obj
 0002:000291c8       ??_C@_08CBBFJFMD@location@ 00000000000c60c8     OpensslLib:v3_info.obj
 0002:000291d8       ??_C@_0BD@IKHCEBLA@ACCESS_DESCRIPTION@ 00000000000c60d8     OpensslLib:v3_info.obj
 0002:000291f0       ??_C@_0BG@PFEKCAHJ@AUTHORITY_INFO_ACCESS@ 00000000000c60f0     OpensslLib:v3_info.obj
 0002:00029208       ??_C@_07FCJAGJJB@?$CFs?5?9?5?$CFs@ 00000000000c6108     OpensslLib:v3_info.obj
 0002:00029210       ??_C@_06KFEJCPI@value?$DN@ 00000000000c6110     OpensslLib:v3_info.obj
 0002:00029218       AUTHORITY_INFO_ACCESS_it   00000000000c6118     OpensslLib:v3_info.obj
 0002:00029290       v3_sinfo                   00000000000c6190     OpensslLib:v3_info.obj
 0002:00029300       v3_info                    00000000000c6200     OpensslLib:v3_info.obj
 0002:00029388       ??_C@_0N@MJCHLFGM@NO?5X509_NAME@ 00000000000c6288     OpensslLib:x509_obj.obj
 0002:00029740       ASN1_TIME_it               00000000000c6640     OpensslLib:a_time.obj
 0002:00029770       ??_C@_09DHMKJJNA@ASN1_TIME@ 00000000000c6670     OpensslLib:a_time.obj
 0002:00029780       ??_C@_0BK@EMDNDBLP@?$CF04d?$CF02d?$CF02d?$CF02d?$CF02d?$CF02dZ@ 00000000000c6680     OpensslLib:a_time.obj
 0002:000297a0       ??_C@_0BK@PMAAGDOP@?$CF02d?$CF02d?$CF02d?$CF02d?$CF02d?$CF02dZ@ 00000000000c66a0     OpensslLib:a_time.obj
 0002:000297bc       ??_C@_04FIEKMBKB@?5GMT@    00000000000c66bc     OpensslLib:a_time.obj
 0002:000297c8       ??_C@_0BP@OGIOIJMK@?$CFs?5?$CF2d?5?$CF02d?3?$CF02d?3?$CF02d?$CF?4?$CKs?5?$CFd?$CFs@ 00000000000c66c8     OpensslLib:a_time.obj
 0002:000297e8       ??_C@_0BL@NKCHLFNC@?$CFs?5?$CF2d?5?$CF02d?3?$CF02d?3?$CF02d?5?$CFd?$CFs@ 00000000000c66e8     OpensslLib:a_time.obj
 0002:00029808       ??_C@_0P@FGACABCD@Bad?5time?5value@ 00000000000c6708     OpensslLib:a_time.obj
 0002:00029910       ??_C@_0L@BNIDLBEL@?$CLautomatic@ 00000000000c6810     OpensslLib:ssl_conf.obj
 0002:00029920       ??_C@_09DADDGAEC@automatic@ 00000000000c6820     OpensslLib:ssl_conf.obj
 0002:0002992c       ??_C@_04HAPDLBFF@auto@     00000000000c682c     OpensslLib:ssl_conf.obj
 0002:00029934       ??_C@_05NHFKDGAI@SSLv2@    00000000000c6834     OpensslLib:ssl_conf.obj
 0002:00029940       ??_C@_0O@PGDEOOBD@SessionTicket@ 00000000000c6840     OpensslLib:ssl_conf.obj
 0002:00029950       ??_C@_0P@IEKKKMCP@EmptyFragments@ 00000000000c6850     OpensslLib:ssl_conf.obj
 0002:00029960       ??_C@_04OIFKEPF@Bugs@      00000000000c6860     OpensslLib:ssl_conf.obj
 0002:00029968       ??_C@_0M@COKFBABJ@Compression@ 00000000000c6868     OpensslLib:ssl_conf.obj
 0002:00029978       ??_C@_0BB@MGHJKEHO@ServerPreference@ 00000000000c6878     OpensslLib:ssl_conf.obj
 0002:00029990       ??_C@_0BM@FKDDFINF@NoResumptionOnRenegotiation@ 00000000000c6890     OpensslLib:ssl_conf.obj
 0002:000299b0       ??_C@_08IEICGGIK@DHSingle@ 00000000000c68b0     OpensslLib:ssl_conf.obj
 0002:000299c0       ??_C@_0L@NLJOMKMG@ECDHSingle@ 00000000000c68c0     OpensslLib:ssl_conf.obj
 0002:000299d0       ??_C@_0BK@KBKMKCAN@UnsafeLegacyRenegotiation@ 00000000000c68d0     OpensslLib:ssl_conf.obj
 0002:000299f0       ??_C@_0P@EKICIAGD@EncryptThenMac@ 00000000000c68f0     OpensslLib:ssl_conf.obj
 0002:00029a00       ??_C@_0BA@IJKDPOPJ@NoRenegotiation@ 00000000000c6900     OpensslLib:ssl_conf.obj
 0002:00029a10       ??_C@_0O@ILLANBH@AllowNoDHEKEX@ 00000000000c6910     OpensslLib:ssl_conf.obj
 0002:00029a20       ??_C@_0BB@LNINPAGI@PrioritizeChaCha@ 00000000000c6920     OpensslLib:ssl_conf.obj
 0002:00029a38       ??_C@_0BA@PKDLDFHP@MiddleboxCompat@ 00000000000c6938     OpensslLib:ssl_conf.obj
 0002:00029a48       ??_C@_0L@PNMCDIBN@AntiReplay@ 00000000000c6948     OpensslLib:ssl_conf.obj
 0002:00029a54       ??_C@_04FOCDNCKH@Peer@     00000000000c6954     OpensslLib:ssl_conf.obj
 0002:00029a60       ??_C@_07LEAAGLHO@Request@  00000000000c6960     OpensslLib:ssl_conf.obj
 0002:00029a68       ??_C@_07KMMNJNOB@Require@  00000000000c6968     OpensslLib:ssl_conf.obj
 0002:00029a70       ??_C@_04GKJMKNNB@Once@     00000000000c6970     OpensslLib:ssl_conf.obj
 0002:00029a78       ??_C@_0BF@KODEFJI@RequestPostHandshake@ 00000000000c6978     OpensslLib:ssl_conf.obj
 0002:00029a90       ??_C@_0BF@MMAKPIPP@RequirePostHandshake@ 00000000000c6990     OpensslLib:ssl_conf.obj
 0002:00029aa8       ??_C@_07KNMENGCI@no_ssl3@  00000000000c69a8     OpensslLib:ssl_conf.obj
 0002:00029ab0       ??_C@_07DCNCMLDO@no_tls1@  00000000000c69b0     OpensslLib:ssl_conf.obj
 0002:00029ab8       ??_C@_09OMMOFMKI@no_tls1_1@ 00000000000c69b8     OpensslLib:ssl_conf.obj
 0002:00029ac8       ??_C@_09MHODAPGL@no_tls1_2@ 00000000000c69c8     OpensslLib:ssl_conf.obj
 0002:00029ad8       ??_C@_09NOPIDOCK@no_tls1_3@ 00000000000c69d8     OpensslLib:ssl_conf.obj
 0002:00029ae4       ??_C@_04MPEEILPB@bugs@     00000000000c69e4     OpensslLib:ssl_conf.obj
 0002:00029af0       ??_C@_07NHNNPHM@no_comp@   00000000000c69f0     OpensslLib:ssl_conf.obj
 0002:00029af8       ??_C@_04OLDKMDKP@comp@     00000000000c69f8     OpensslLib:ssl_conf.obj
 0002:00029b00       ??_C@_0M@GFJDILHJ@ecdh_single@ 00000000000c6a00     OpensslLib:ssl_conf.obj
 0002:00029b10       ??_C@_09NMKBGOFJ@no_ticket@ 00000000000c6a10     OpensslLib:ssl_conf.obj
 0002:00029b20       ??_C@_0L@KKCHEECL@serverpref@ 00000000000c6a20     OpensslLib:ssl_conf.obj
 0002:00029b30       ??_C@_0BF@HAMGDCBC@legacy_renegotiation@ 00000000000c6a30     OpensslLib:ssl_conf.obj
 0002:00029b48       ??_C@_0BG@GIDFLGOF@legacy_server_connect@ 00000000000c6a48     OpensslLib:ssl_conf.obj
 0002:00029b60       ??_C@_0BB@CGKCNIGM@no_renegotiation@ 00000000000c6a60     OpensslLib:ssl_conf.obj
 0002:00029b78       ??_C@_0BH@IOGIPIAJ@no_resumption_on_reneg@ 00000000000c6a78     OpensslLib:ssl_conf.obj
 0002:00029b90       ??_C@_0BJ@CMKHGIEM@no_legacy_server_connect@ 00000000000c6a90     OpensslLib:ssl_conf.obj
 0002:00029bb0       ??_C@_0BB@MMCACIFK@allow_no_dhe_kex@ 00000000000c6ab0     OpensslLib:ssl_conf.obj
 0002:00029bc8       ??_C@_0BC@PLJGHPA@prioritize_chacha@ 00000000000c6ac8     OpensslLib:ssl_conf.obj
 0002:00029bdc       ??_C@_06OLFOGHEN@strict@   00000000000c6adc     OpensslLib:ssl_conf.obj
 0002:00029be8       ??_C@_0N@FBDJLMPH@no_middlebox@ 00000000000c6ae8     OpensslLib:ssl_conf.obj
 0002:00029bf8       ??_C@_0M@KKBPMDIJ@anti_replay@ 00000000000c6af8     OpensslLib:ssl_conf.obj
 0002:00029c08       ??_C@_0P@FNOHICAM@no_anti_replay@ 00000000000c6b08     OpensslLib:ssl_conf.obj
 0002:00029c18       ??_C@_0BE@BLMPOMHO@SignatureAlgorithms@ 00000000000c6b18     OpensslLib:ssl_conf.obj
 0002:00029c30       ??_C@_07CPPFGBOH@sigalgs@  00000000000c6b30     OpensslLib:ssl_conf.obj
 0002:00029c38       ??_C@_0BK@PFLLPPDA@ClientSignatureAlgorithms@ 00000000000c6b38     OpensslLib:ssl_conf.obj
 0002:00029c58       ??_C@_0P@BBDFBCC@client_sigalgs@ 00000000000c6b58     OpensslLib:ssl_conf.obj
 0002:00029c68       ??_C@_06MLNHLMAG@Curves@   00000000000c6b68     OpensslLib:ssl_conf.obj
 0002:00029c70       ??_C@_06EGKIFJK@curves@    00000000000c6b70     OpensslLib:ssl_conf.obj
 0002:00029c78       ??_C@_06LCLFDFOL@Groups@   00000000000c6b78     OpensslLib:ssl_conf.obj
 0002:00029c80       ??_C@_06HNAIAMHH@groups@   00000000000c6b80     OpensslLib:ssl_conf.obj
 0002:00029c88       ??_C@_0P@MCMJEMBC@ECDHParameters@ 00000000000c6b88     OpensslLib:ssl_conf.obj
 0002:00029c98       ??_C@_0M@FBFAECBG@named_curve@ 00000000000c6b98     OpensslLib:ssl_conf.obj
 0002:00029ca8       ??_C@_0N@KOODPKGB@CipherString@ 00000000000c6ba8     OpensslLib:ssl_conf.obj
 0002:00029cb8       ??_C@_0N@DNLKABDN@Ciphersuites@ 00000000000c6bb8     OpensslLib:ssl_conf.obj
 0002:00029cc8       ??_C@_0N@IOMEEKMI@ciphersuites@ 00000000000c6bc8     OpensslLib:ssl_conf.obj
 0002:00029cd8       ??_C@_08NAKOFPNG@Protocol@ 00000000000c6bd8     OpensslLib:ssl_conf.obj
 0002:00029ce8       ??_C@_0M@HAJKHHH@MinProtocol@ 00000000000c6be8     OpensslLib:ssl_conf.obj
 0002:00029cf8       ??_C@_0N@NLLADBL@min_protocol@ 00000000000c6bf8     OpensslLib:ssl_conf.obj
 0002:00029d08       ??_C@_0M@JHHKLHJN@MaxProtocol@ 00000000000c6c08     OpensslLib:ssl_conf.obj
 0002:00029d18       ??_C@_0N@ENPEHLGN@max_protocol@ 00000000000c6c18     OpensslLib:ssl_conf.obj
 0002:00029d28       ??_C@_07KHIHFBFN@Options@  00000000000c6c28     OpensslLib:ssl_conf.obj
 0002:00029d30       ??_C@_0L@HCHFGEOG@VerifyMode@ 00000000000c6c30     OpensslLib:ssl_conf.obj
 0002:00029d40       ??_C@_0M@KDOEPPNO@Certificate@ 00000000000c6c40     OpensslLib:ssl_conf.obj
 0002:00029d4c       ??_C@_04PHJBACIC@cert@     00000000000c6c4c     OpensslLib:ssl_conf.obj
 0002:00029d58       ??_C@_0L@JENBINIJ@PrivateKey@ 00000000000c6c58     OpensslLib:ssl_conf.obj
 0002:00029d68       ??_C@_0P@BDBIGKFA@ServerInfoFile@ 00000000000c6c68     OpensslLib:ssl_conf.obj
 0002:00029d78       ??_C@_0M@NGPGAJHG@ChainCAPath@ 00000000000c6c78     OpensslLib:ssl_conf.obj
 0002:00029d88       ??_C@_0M@PAGPNIK@chainCApath@ 00000000000c6c88     OpensslLib:ssl_conf.obj
 0002:00029d98       ??_C@_0M@FLHJMPDO@ChainCAFile@ 00000000000c6c98     OpensslLib:ssl_conf.obj
 0002:00029da8       ??_C@_0M@ICIJDLMC@chainCAfile@ 00000000000c6ca8     OpensslLib:ssl_conf.obj
 0002:00029db8       ??_C@_0N@KHNDEHH@VerifyCAPath@ 00000000000c6cb8     OpensslLib:ssl_conf.obj
 0002:00029dc8       ??_C@_0N@HIMCFAIG@verifyCApath@ 00000000000c6cc8     OpensslLib:ssl_conf.obj
 0002:00029dd8       ??_C@_0N@IHPCPCDP@VerifyCAFile@ 00000000000c6cd8     OpensslLib:ssl_conf.obj
 0002:00029de8       ??_C@_0N@PFENJGMO@verifyCAfile@ 00000000000c6ce8     OpensslLib:ssl_conf.obj
 0002:00029df8       ??_C@_0O@GEKAHCMK@RequestCAFile@ 00000000000c6cf8     OpensslLib:ssl_conf.obj
 0002:00029e08       ??_C@_0O@KJMEAKBC@requestCAFile@ 00000000000c6d08     OpensslLib:ssl_conf.obj
 0002:00029e18       ??_C@_0N@EEFMJKP@ClientCAFile@ 00000000000c6d18     OpensslLib:ssl_conf.obj
 0002:00029e28       ??_C@_0O@OJCPLEIC@RequestCAPath@ 00000000000c6d28     OpensslLib:ssl_conf.obj
 0002:00029e38       ??_C@_0N@IJMKAPOH@ClientCAPath@ 00000000000c6d38     OpensslLib:ssl_conf.obj
 0002:00029e48       ??_C@_0N@NOMKBOKL@DHParameters@ 00000000000c6d48     OpensslLib:ssl_conf.obj
 0002:00029e58       ??_C@_07IBCFADID@dhparam@  00000000000c6d58     OpensslLib:ssl_conf.obj
 0002:00029e60       ??_C@_0O@DNMFDCNL@RecordPadding@ 00000000000c6d60     OpensslLib:ssl_conf.obj
 0002:00029e70       ??_C@_0P@OEEDBLNE@record_padding@ 00000000000c6d70     OpensslLib:ssl_conf.obj
 0002:00029e80       ??_C@_0L@FJNIHGPP@NumTickets@ 00000000000c6d80     OpensslLib:ssl_conf.obj
 0002:00029e90       ??_C@_0M@EOGKDJCM@num_tickets@ 00000000000c6d90     OpensslLib:ssl_conf.obj
 0002:00029e9c       ??_C@_04LDFABOD@cmd?$DN@   00000000000c6d9c     OpensslLib:ssl_conf.obj
 0002:0002a8c0       ??_C@_08IPPANOEC@ssl_conf@ 00000000000c77c0     OpensslLib:conf_ssl.obj
 0002:0002a8d0       ??_C@_0GE@BFJKPFGM@?$FLOPENSSL_RAND_POOL?$FN?5NULL?5RandBu@ 00000000000c77d0     OpensslLib:rand_pool.obj
 0002:0002a938       ??_C@_0BL@BANKOLJL@RandBuffer?5?$CB?$DN?5?$CI?$CIvoid?5?$CK?$CJ?50?$CJ@ 00000000000c7838     OpensslLib:rand_pool.obj
 0002:0002a958       ??_C@_0DI@IALCLMIH@d?3?2myedk2?2edk2?2CryptoPkg?2Librar@ 00000000000c7858     OpensslLib:rand_pool.obj
 0002:0002a9b0       ??_C@_03KCHOJKKI@set@      00000000000c78b0     OpensslLib:x_attrib.obj
 0002:0002a9b8       ??_C@_0P@IBKNNFL@X509_ATTRIBUTE@ 00000000000c78b8     OpensslLib:x_attrib.obj
 0002:0002aa10       X509_ATTRIBUTE_it          00000000000c7910     OpensslLib:x_attrib.obj
 0002:0002aa60       ??_C@_0P@BLMEJDMO@policyLanguage@ 00000000000c7960     OpensslLib:v3_pcia.obj
 0002:0002aa70       ??_C@_06NJNJNICG@policy@   00000000000c7970     OpensslLib:v3_pcia.obj
 0002:0002aa78       ??_C@_0N@CLKEFBDI@PROXY_POLICY@ 00000000000c7978     OpensslLib:v3_pcia.obj
 0002:0002aa88       ??_C@_0BH@JBGKCLHC@pcPathLengthConstraint@ 00000000000c7988     OpensslLib:v3_pcia.obj
 0002:0002aaa0       ??_C@_0M@KKFBCGOG@proxyPolicy@ 00000000000c79a0     OpensslLib:v3_pcia.obj
 0002:0002aab0       ??_C@_0BK@PILNOGHK@PROXY_CERT_INFO_EXTENSION@ 00000000000c79b0     OpensslLib:v3_pcia.obj
 0002:0002ab10       PROXY_CERT_INFO_EXTENSION_it 00000000000c7a10     OpensslLib:v3_pcia.obj
 0002:0002ab80       PROXY_POLICY_it            00000000000c7a80     OpensslLib:v3_pcia.obj
 0002:0002abb0       ??_C@_02DGMJAJHC@ca@       00000000000c7ab0     OpensslLib:v3_bcons.obj
 0002:0002abb8       ??_C@_07OGCPICFF@pathlen@  00000000000c7ab8     OpensslLib:v3_bcons.obj
 0002:0002abc0       ??_C@_0BC@PKPCGCD@BASIC_CONSTRAINTS@ 00000000000c7ac0     OpensslLib:v3_bcons.obj
 0002:0002abd4       ??_C@_02JLAAGLDA@CA@       00000000000c7ad4     OpensslLib:v3_bcons.obj
 0002:0002ac20       v3_bcons                   00000000000c7b20     OpensslLib:v3_bcons.obj
 0002:0002ac88       BASIC_CONSTRAINTS_it       00000000000c7b88     OpensslLib:v3_bcons.obj
 0002:0002acb8       ??_C@_01KICIPPFI@?2@       00000000000c7bb8     OpensslLib:a_strex.obj
 0002:0002acbc       ??_C@_02HDBGODGB@?2?2@     00000000000c7bbc     OpensslLib:a_strex.obj
 0002:0002acc0       ??_C@_01IPJKGB@?$CD@       00000000000c7bc0     OpensslLib:a_strex.obj
 0002:0002acc4       ??_C@_01BJJEKLCA@?$CC@     00000000000c7bc4     OpensslLib:a_strex.obj
 0002:0002acc8       ??_C@_03NPBFACHO@?5?$CL?5@ 00000000000c7bc8     OpensslLib:a_strex.obj
 0002:0002accc       ??_C@_01IHBHIGKO@?0@       00000000000c7bcc     OpensslLib:a_strex.obj
 0002:0002acd0       ??_C@_01MIFGBAGJ@?$CL@     00000000000c7bd0     OpensslLib:a_strex.obj
 0002:0002acd4       ??_C@_02LNAEAIDO@?$DL?5@   00000000000c7bd4     OpensslLib:a_strex.obj
 0002:0002acd8       ??_C@_03MHLONNLM@?5?$DN?5@ 00000000000c7bd8     OpensslLib:a_strex.obj
 0002:0002acdc       ??_C@_01NEMOKFLO@?$DN@     00000000000c7bdc     OpensslLib:a_strex.obj
 0002:0002ae00       ??_C@_01GBGANLPD@0@        00000000000c7d00     OpensslLib:bn_print.obj
 0002:0002ae04       ??_C@_04FCIJFPNK@?$CFllu@  00000000000c7d04     OpensslLib:bn_print.obj
 0002:0002ae10       ??_C@_07ICEKBAEF@?$CF019llu@ 00000000000c7d10     OpensslLib:bn_print.obj
 0002:0002ae18       ??_C@_01JOAMLHOP@?9@       00000000000c7d18     OpensslLib:bn_print.obj
 0002:0002ae34       ??_C@_05DLJFLBDA@TYPE?$DN@ 00000000000c7d34     OpensslLib:evp_pbe.obj
 0002:0002b0e0       ??_C@_06BCAIGOJD@?1certs@  00000000000c7fe0     OpensslLib:x509_def.obj
 0002:0002d960       ??_C@_03MEGLGNML@SM4@      00000000000ca860     OpensslLib:c_allc.obj
 0002:0002d964       ??_C@_03FMBEIEBF@sm4@      00000000000ca864     OpensslLib:c_allc.obj
 0002:0002d968       ??_C@_0M@DJNCOMHD@aes128?9wrap@ 00000000000ca868     OpensslLib:c_allc.obj
 0002:0002d974       ??_C@_06NBPOHBOH@aes128@   00000000000ca874     OpensslLib:c_allc.obj
 0002:0002d980       ??_C@_0M@MAMIKPGL@aes192?9wrap@ 00000000000ca880     OpensslLib:c_allc.obj
 0002:0002d98c       ??_C@_06COJEGFCC@AES192@   00000000000ca88c     OpensslLib:c_allc.obj
 0002:0002d994       ??_C@_06CHEEHGIM@aes192@   00000000000ca894     OpensslLib:c_allc.obj
 0002:0002d9a0       ??_C@_0M@FKKFKCPC@aes256?9wrap@ 00000000000ca8a0     OpensslLib:c_allc.obj
 0002:0002d9ac       ??_C@_06FIIHOFAC@aes256@   00000000000ca8ac     OpensslLib:c_allc.obj
 0002:0002d9b8       ??_C@_07OCFFDBP@aria128@   00000000000ca8b8     OpensslLib:c_allc.obj
 0002:0002d9c0       ??_C@_07IDJCFIM@ARIA192@   00000000000ca8c0     OpensslLib:c_allc.obj
 0002:0002d9c8       ??_C@_07PIJPFEHE@aria192@  00000000000ca8c8     OpensslLib:c_allc.obj
 0002:0002d9d0       ??_C@_07IHFMMHPK@aria256@  00000000000ca8d0     OpensslLib:c_allc.obj
 0002:0002d9e0       cmac_asn1_meth             00000000000ca8e0     OpensslLib:cm_ameth.obj
 0002:0002daf8       ??_C@_0BE@GBIGMENL@OpenSSL?5CMAC?5method@ 00000000000ca9f8     OpensslLib:cm_ameth.obj
 0002:0002db10       ed448_asn1_meth            00000000000caa10     OpensslLib:ecx_meth.obj
 0002:0002dc30       ed25519_asn1_meth          00000000000cab30     OpensslLib:ecx_meth.obj
 0002:0002dd50       ecx25519_asn1_meth         00000000000cac50     OpensslLib:ecx_meth.obj
 0002:0002de70       ecx448_asn1_meth           00000000000cad70     OpensslLib:ecx_meth.obj
 0002:0002df90       ecx448_pkey_meth           00000000000cae90     OpensslLib:ecx_meth.obj
 0002:0002e090       ed448_pkey_meth            00000000000caf90     OpensslLib:ecx_meth.obj
 0002:0002e190       ecx25519_pkey_meth         00000000000cb090     OpensslLib:ecx_meth.obj
 0002:0002e290       ed25519_pkey_meth          00000000000cb190     OpensslLib:ecx_meth.obj
 0002:0002e390       ??_C@_0BK@JGHKCBDG@?$CF?$CKs?$DMINVALID?5PRIVATE?5KEY?$DO?6@ 00000000000cb290     OpensslLib:ecx_meth.obj
 0002:0002e3b0       ??_C@_0BE@BHOIIFAI@?$CF?$CKs?$CFs?5Private?9Key?3?6@ 00000000000cb2b0     OpensslLib:ecx_meth.obj
 0002:0002e3c8       ??_C@_09CDOGNPAC@?$CF?$CKspriv?3?6@ 00000000000cb2c8     OpensslLib:ecx_meth.obj
 0002:0002e3d8       ??_C@_0BJ@NBDPFAFL@?$CF?$CKs?$DMINVALID?5PUBLIC?5KEY?$DO?6@ 00000000000cb2d8     OpensslLib:ecx_meth.obj
 0002:0002e3f8       ??_C@_0BD@HFJAOMDB@?$CF?$CKs?$CFs?5Public?9Key?3?6@ 00000000000cb2f8     OpensslLib:ecx_meth.obj
 0002:0002e410       ??_C@_08BMIKENKP@?$CF?$CKspub?3?6@ 00000000000cb310     OpensslLib:ecx_meth.obj
 0002:0002e420       ??_C@_0BJ@OPPGOKJE@OpenSSL?5X25519?5algorithm@ 00000000000cb320     OpensslLib:ecx_meth.obj
 0002:0002e440       ??_C@_0BH@LCCDECOI@OpenSSL?5X448?5algorithm@ 00000000000cb340     OpensslLib:ecx_meth.obj
 0002:0002e458       ??_C@_0BK@EOFFJDOF@OpenSSL?5ED25519?5algorithm@ 00000000000cb358     OpensslLib:ecx_meth.obj
 0002:0002e478       ??_C@_0BI@FPELGGCO@OpenSSL?5ED448?5algorithm@ 00000000000cb378     OpensslLib:ecx_meth.obj
 0002:0002e490       sm2_asn1_meth              00000000000cb390     OpensslLib:ec_ameth.obj
 0002:0002e5b0       eckey_asn1_meth            00000000000cb4b0     OpensslLib:ec_ameth.obj
 0002:0002e6c8       ??_C@_0M@CJKOCIEC@Private?9Key@ 00000000000cb5c8     OpensslLib:ec_ameth.obj
 0002:0002e6d8       ??_C@_0L@FMJMEKAC@Public?9Key@ 00000000000cb5d8     OpensslLib:ec_ameth.obj
 0002:0002e6e8       ??_C@_0BB@DMDKLH@ECDSA?9Parameters@ 00000000000cb5e8     OpensslLib:ec_ameth.obj
 0002:0002e700       ??_C@_0O@OPPPNLCD@?$CFs?3?5?$CI?$CFd?5bit?$CJ?6@ 00000000000cb600     OpensslLib:ec_ameth.obj
 0002:0002e710       ??_C@_02KNLLHFAA@EC@       00000000000cb610     OpensslLib:ec_ameth.obj
 0002:0002e718       ??_C@_0BF@DKDIFOGG@OpenSSL?5EC?5algorithm@ 00000000000cb618     OpensslLib:ec_ameth.obj
 0002:0002e730       siphash_asn1_meth          00000000000cb630     OpensslLib:siphash_ameth.obj
 0002:0002e848       ??_C@_07IBBIJFNK@SIPHASH@  00000000000cb748     OpensslLib:siphash_ameth.obj
 0002:0002e850       ??_C@_0BH@FCFCAEA@OpenSSL?5SIPHASH?5method@ 00000000000cb750     OpensslLib:siphash_ameth.obj
 0002:0002e870       hmac_asn1_meth             00000000000cb770     OpensslLib:hm_ameth.obj
 0002:0002e988       ??_C@_0BE@BABEGANF@OpenSSL?5HMAC?5method@ 00000000000cb888     OpensslLib:hm_ameth.obj
 0002:0002e9a0       rsa_pss_asn1_meth          00000000000cb8a0     OpensslLib:rsa_ameth.obj
 0002:0002eac0       rsa_asn1_meths             00000000000cb9c0     OpensslLib:rsa_ameth.obj
 0002:0002ecf0       ??_C@_0BP@CGCIOPAF@No?5PSS?5parameter?5restrictions?6@ 00000000000cbbf0     OpensslLib:rsa_ameth.obj
 0002:0002ed10       ??_C@_0BM@OMMNCLDM@PSS?5parameter?5restrictions?3@ 00000000000cbc10     OpensslLib:rsa_ameth.obj
 0002:0002ed30       ??_C@_0BK@KFGFELEH@?$CIINVALID?5PSS?5PARAMETERS?$CJ?6@ 00000000000cbc30     OpensslLib:rsa_ameth.obj
 0002:0002ed50       ??_C@_0BB@PMMDHLKH@Hash?5Algorithm?3?5@ 00000000000cbc50     OpensslLib:rsa_ameth.obj
 0002:0002ed68       ??_C@_0P@ODEAMLKF@sha1?5?$CIdefault?$CJ@ 00000000000cbc68     OpensslLib:rsa_ameth.obj
 0002:0002ed78       ??_C@_0BB@HEAMLCPA@Mask?5Algorithm?3?5@ 00000000000cbc78     OpensslLib:rsa_ameth.obj
 0002:0002ed8c       ??_C@_06BIDGLIKJ@?5with?5@ 00000000000cbc8c     OpensslLib:rsa_ameth.obj
 0002:0002ed98       ??_C@_07DNODLGKM@INVALID@  00000000000cbc98     OpensslLib:rsa_ameth.obj
 0002:0002eda0       ??_C@_0BJ@NNFOENLD@mgf1?5with?5sha1?5?$CIdefault?$CJ@ 00000000000cbca0     OpensslLib:rsa_ameth.obj
 0002:0002edc0       ??_C@_07NLJCBFAF@Minimum@  00000000000cbcc0     OpensslLib:rsa_ameth.obj
 0002:0002edc8       ??_C@_0BD@DPAJFAGN@?$CFs?5Salt?5Length?3?50x@ 00000000000cbcc8     OpensslLib:rsa_ameth.obj
 0002:0002ede0       ??_C@_0N@CGLOPGL@14?5?$CIdefault?$CJ@ 00000000000cbce0     OpensslLib:rsa_ameth.obj
 0002:0002edf0       ??_C@_0BC@EDKEKAHK@Trailer?5Field?3?50x@ 00000000000cbcf0     OpensslLib:rsa_ameth.obj
 0002:0002ee08       ??_C@_0N@FFIHJHFK@BC?5?$CIdefault?$CJ@ 00000000000cbd08     OpensslLib:rsa_ameth.obj
 0002:0002ee18       ??_C@_03IKGEINEE@?$CFs?5@  00000000000cbd18     OpensslLib:rsa_ameth.obj
 0002:0002ee20       ??_C@_0CC@BJIIEMBB@Private?9Key?3?5?$CI?$CFd?5bit?0?5?$CFd?5primes@ 00000000000cbd20     OpensslLib:rsa_ameth.obj
 0002:0002ee48       ??_C@_08OKDKAJKD@modulus?3@ 00000000000cbd48     OpensslLib:rsa_ameth.obj
 0002:0002ee58       ??_C@_0BA@FAAMOFHC@publicExponent?3@ 00000000000cbd58     OpensslLib:rsa_ameth.obj
 0002:0002ee68       ??_C@_0BG@HAJOCCOP@Public?9Key?3?5?$CI?$CFd?5bit?$CJ?6@ 00000000000cbd68     OpensslLib:rsa_ameth.obj
 0002:0002ee80       ??_C@_08GIMLILAA@Modulus?3@ 00000000000cbd80     OpensslLib:rsa_ameth.obj
 0002:0002ee90       ??_C@_09DALHJPOO@Exponent?3@ 00000000000cbd90     OpensslLib:rsa_ameth.obj
 0002:0002eea0       ??_C@_0BB@NFOLHHHJ@privateExponent?3@ 00000000000cbda0     OpensslLib:rsa_ameth.obj
 0002:0002eeb8       ??_C@_07PNLMLIF@prime1?3@  00000000000cbdb8     OpensslLib:rsa_ameth.obj
 0002:0002eec0       ??_C@_07NJNHFNM@prime2?3@  00000000000cbdc0     OpensslLib:rsa_ameth.obj
 0002:0002eec8       ??_C@_0L@OIOCMGKP@exponent1?3@ 00000000000cbdc8     OpensslLib:rsa_ameth.obj
 0002:0002eed8       ??_C@_0L@OKKEHIPG@exponent2?3@ 00000000000cbdd8     OpensslLib:rsa_ameth.obj
 0002:0002eee8       ??_C@_0N@GNAMJPHF@coefficient?3@ 00000000000cbde8     OpensslLib:rsa_ameth.obj
 0002:0002eef8       ??_C@_08BCNLBGP@prime?$CFd?3@ 00000000000cbdf8     OpensslLib:rsa_ameth.obj
 0002:0002ef08       ??_C@_0M@NKHBEBLE@exponent?$CFd?3@ 00000000000cbe08     OpensslLib:rsa_ameth.obj
 0002:0002ef18       ??_C@_0P@FAPFJECG@coefficient?$CFd?3@ 00000000000cbe18     OpensslLib:rsa_ameth.obj
 0002:0002ef28       ??_C@_0BD@MHOEKPBI@OpenSSL?5RSA?5method@ 00000000000cbe28     OpensslLib:rsa_ameth.obj
 0002:0002ef40       ??_C@_0BH@JANGLOLP@OpenSSL?5RSA?9PSS?5method@ 00000000000cbe40     OpensslLib:rsa_ameth.obj
 0002:0002ef60       dh_asn1_meth               00000000000cbe60     OpensslLib:dh_ameth.obj
 0002:0002f080       dhx_asn1_meth              00000000000cbf80     OpensslLib:dh_ameth.obj
 0002:0002f198       ??_C@_0P@ELBFBOG@DH?5Private?9Key@ 00000000000cc098     OpensslLib:dh_ameth.obj
 0002:0002f1a8       ??_C@_0O@EBAKGDPN@DH?5Public?9Key@ 00000000000cc0a8     OpensslLib:dh_ameth.obj
 0002:0002f1b8       ??_C@_0O@OMPEPKAJ@DH?5Parameters@ 00000000000cc0b8     OpensslLib:dh_ameth.obj
 0002:0002f1c8       ??_C@_0N@MPONDEBM@private?9key?3@ 00000000000cc0c8     OpensslLib:dh_ameth.obj
 0002:0002f1d8       ??_C@_0M@BCALNHOD@public?9key?3@ 00000000000cc0d8     OpensslLib:dh_ameth.obj
 0002:0002f1e4       ??_C@_06POMKLBDA@prime?3@  00000000000cc0e4     OpensslLib:dh_ameth.obj
 0002:0002f1f0       ??_C@_0L@HDGHCIJF@generator?3@ 00000000000cc0f0     OpensslLib:dh_ameth.obj
 0002:0002f200       ??_C@_0BA@PFGIPGBD@subgroup?5order?3@ 00000000000cc100     OpensslLib:dh_ameth.obj
 0002:0002f210       ??_C@_0BB@HEOELHJJ@subgroup?5factor?3@ 00000000000cc110     OpensslLib:dh_ameth.obj
 0002:0002f224       ??_C@_05PENGGDLK@seed?3@   00000000000cc124     OpensslLib:dh_ameth.obj
 0002:0002f22c       ??_C@_06LEJCPMLM@?$CF02x?$CFs@ 00000000000cc12c     OpensslLib:dh_ameth.obj
 0002:0002f238       ??_C@_08ILALFGPI@counter?3@ 00000000000cc138     OpensslLib:dh_ameth.obj
 0002:0002f248       ??_C@_0CF@KKPEILHE@recommended?9private?9length?3?5?$CFd?5@ 00000000000cc148     OpensslLib:dh_ameth.obj
 0002:0002f270       ??_C@_0BJ@OPGBMMOB@OpenSSL?5PKCS?$CD3?5DH?5method@ 00000000000cc170     OpensslLib:dh_ameth.obj
 0002:0002f290       ??_C@_0BI@JOIJFJMC@OpenSSL?5X9?442?5DH?5method@ 00000000000cc190     OpensslLib:dh_ameth.obj
 0002:0002f2a8       INT32_it                   00000000000cc1a8     OpensslLib:x_int64.obj
 0002:0002f2d8       ZINT32_it                  00000000000cc1d8     OpensslLib:x_int64.obj
 0002:0002f308       UINT32_it                  00000000000cc208     OpensslLib:x_int64.obj
 0002:0002f338       ZINT64_it                  00000000000cc238     OpensslLib:x_int64.obj
 0002:0002f368       ZUINT64_it                 00000000000cc268     OpensslLib:x_int64.obj
 0002:0002f398       ZUINT32_it                 00000000000cc298     OpensslLib:x_int64.obj
 0002:0002f3c8       ??_C@_04NBFGDEIH@?$CFjd?6@ 00000000000cc2c8     OpensslLib:x_int64.obj
 0002:0002f3d0       ??_C@_04MMLCPNMA@?$CFju?6@ 00000000000cc2d0     OpensslLib:x_int64.obj
 0002:0002f3d8       ??_C@_03PMGGPEJJ@?$CFd?6@  00000000000cc2d8     OpensslLib:x_int64.obj
 0002:0002f3dc       ??_C@_03OBICDNNO@?$CFu?6@  00000000000cc2dc     OpensslLib:x_int64.obj
 0002:0002f3e0       ??_C@_05OJLHEJN@INT32@     00000000000cc2e0     OpensslLib:x_int64.obj
 0002:0002f3e8       ??_C@_06FDNIMMFA@UINT32@   00000000000cc2e8     OpensslLib:x_int64.obj
 0002:0002f3f0       ??_C@_06KFJALMLJ@ZINT32@   00000000000cc2f0     OpensslLib:x_int64.obj
 0002:0002f3f8       ??_C@_07GPHACDEJ@ZUINT32@  00000000000cc2f8     OpensslLib:x_int64.obj
 0002:0002f400       ??_C@_06PFABNJNE@ZINT64@   00000000000cc300     OpensslLib:x_int64.obj
 0002:0002f408       ??_C@_07DPOBEGCE@ZUINT64@  00000000000cc308     OpensslLib:x_int64.obj
 0002:0002f510       ??_C@_0BG@NHEBIAGP@OpenSSL?5EC_KEY?5method@ 00000000000cc410     OpensslLib:ec_kmeth.obj
 0002:0002f5a8       ??_C@_07PLCMOKAM@pkeyalg@  00000000000cc4a8     OpensslLib:p8_pkey.obj
 0002:0002f5b0       ??_C@_04JMMJFDFL@pkey@     00000000000cc4b0     OpensslLib:p8_pkey.obj
 0002:0002f5b8       ??_C@_0L@HNMJPKNA@attributes@ 00000000000cc4b8     OpensslLib:p8_pkey.obj
 0002:0002f5c8       ??_C@_0BE@LDIFBBLG@PKCS8_PRIV_KEY_INFO@ 00000000000cc4c8     OpensslLib:p8_pkey.obj
 0002:0002f5e0       PKCS8_PRIV_KEY_INFO_it     00000000000cc4e0     OpensslLib:p8_pkey.obj
 0002:0002f6b8       ??_C@_08DFMPDBMK@X509_SIG@ 00000000000cc5b8     OpensslLib:x_sig.obj
 0002:0002f6c8       X509_SIG_it                00000000000cc5c8     OpensslLib:x_sig.obj
 0002:0002f740       ??_C@_02ICGBAFJO@k1@       00000000000cc640     OpensslLib:ec_asn1.obj
 0002:0002f744       ??_C@_02KJEMFGFN@k2@       00000000000cc644     OpensslLib:ec_asn1.obj
 0002:0002f748       ??_C@_02LAFHGHBM@k3@       00000000000cc648     OpensslLib:ec_asn1.obj
 0002:0002f750       ??_C@_0BC@NPDMPFCL@X9_62_PENTANOMIAL@ 00000000000cc650     OpensslLib:ec_asn1.obj
 0002:0002f768       ??_C@_07PBHIMFBE@p?4other@ 00000000000cc668     OpensslLib:ec_asn1.obj
 0002:0002f770       ??_C@_09KOBBOOPN@p?4onBasis@ 00000000000cc670     OpensslLib:ec_asn1.obj
 0002:0002f780       ??_C@_09LICBCEBD@p?4tpBasis@ 00000000000cc680     OpensslLib:ec_asn1.obj
 0002:0002f790       ??_C@_09DMGLCKOJ@p?4ppBasis@ 00000000000cc690     OpensslLib:ec_asn1.obj
 0002:0002f79c       ??_C@_01GOHFPIOK@m@        00000000000cc69c     OpensslLib:ec_asn1.obj
 0002:0002f7a0       ??_C@_04GPMDFGEJ@type@     00000000000cc6a0     OpensslLib:ec_asn1.obj
 0002:0002f7a8       ??_C@_0BJ@CCODLOLO@X9_62_CHARACTERISTIC_TWO@ 00000000000cc6a8     OpensslLib:ec_asn1.obj
 0002:0002f7c8       ??_C@_07DPJEDCLB@p?4prime@ 00000000000cc6c8     OpensslLib:ec_asn1.obj
 0002:0002f7d0       ??_C@_0L@NLMAKEBL@p?4char_two@ 00000000000cc6d0     OpensslLib:ec_asn1.obj
 0002:0002f7e0       ??_C@_09OAOLGAOM@fieldType@ 00000000000cc6e0     OpensslLib:ec_asn1.obj
 0002:0002f7f0       ??_C@_0O@PGPIAKKH@X9_62_FIELDID@ 00000000000cc6f0     OpensslLib:ec_asn1.obj
 0002:0002f800       ??_C@_01MCMALHOG@a@        00000000000cc700     OpensslLib:ec_asn1.obj
 0002:0002f804       ??_C@_01OJONOECF@b@        00000000000cc704     OpensslLib:ec_asn1.obj
 0002:0002f808       ??_C@_04MENKDCKE@seed@     00000000000cc708     OpensslLib:ec_asn1.obj
 0002:0002f810       ??_C@_0M@BHDPNPCK@X9_62_CURVE@ 00000000000cc710     OpensslLib:ec_asn1.obj
 0002:0002f820       ??_C@_07MJJGNICD@fieldID@  00000000000cc720     OpensslLib:ec_asn1.obj
 0002:0002f828       ??_C@_05HIKPKPAA@curve@    00000000000cc728     OpensslLib:ec_asn1.obj
 0002:0002f830       ??_C@_05NDNMCCJH@order@    00000000000cc730     OpensslLib:ec_asn1.obj
 0002:0002f838       ??_C@_08DKFAOMDI@cofactor@ 00000000000cc738     OpensslLib:ec_asn1.obj
 0002:0002f848       ??_C@_0N@ECDPFONH@ECPARAMETERS@ 00000000000cc748     OpensslLib:ec_asn1.obj
 0002:0002f858       ??_C@_0BC@JEJHGDNN@value?4named_curve@ 00000000000cc758     OpensslLib:ec_asn1.obj
 0002:0002f870       ??_C@_0BB@KOECJJJ@value?4parameters@ 00000000000cc770     OpensslLib:ec_asn1.obj
 0002:0002f888       ??_C@_0BD@HOIIAPI@value?4implicitlyCA@ 00000000000cc788     OpensslLib:ec_asn1.obj
 0002:0002f8a0       ??_C@_0P@PBBIGPFJ@ECPKPARAMETERS@ 00000000000cc7a0     OpensslLib:ec_asn1.obj
 0002:0002f8b0       ??_C@_0L@BCENACFO@privateKey@ 00000000000cc7b0     OpensslLib:ec_asn1.obj
 0002:0002f8c0       ??_C@_0L@HHPOFMCB@parameters@ 00000000000cc7c0     OpensslLib:ec_asn1.obj
 0002:0002f8d0       ??_C@_09IDENFCJL@publicKey@ 00000000000cc7d0     OpensslLib:ec_asn1.obj
 0002:0002f8e0       ??_C@_0O@DFJMHGOP@EC_PRIVATEKEY@ 00000000000cc7e0     OpensslLib:ec_asn1.obj
 0002:0002f8f0       ??_C@_01LKDEMHDF@s@        00000000000cc7f0     OpensslLib:ec_asn1.obj
 0002:0002f8f8       ??_C@_09FLJPBFIA@ECDSA_SIG@ 00000000000cc7f8     OpensslLib:ec_asn1.obj
 0002:0002f908       ECPARAMETERS_it            00000000000cc808     OpensslLib:ec_asn1.obj
 0002:0002fcb0       ECPKPARAMETERS_it          00000000000ccbb0     OpensslLib:ec_asn1.obj
 0002:0002ff40       ??_C@_07JIJPKMF@d?4other@  00000000000cce40     OpensslLib:pk7_asn1.obj
 0002:0002ff48       ??_C@_02EBCANADN@md@       00000000000cce48     OpensslLib:pk7_asn1.obj
 0002:0002ff4c       ??_C@_01JEJKBAGA@g@        00000000000cce4c     OpensslLib:dh_asn1.obj
 0002:0002ff50       ??_C@_06IJDLPEM@length@    00000000000cce50     OpensslLib:dh_asn1.obj
 0002:0002ff58       ??_C@_08LKFDNFJ@DHparams@  00000000000cce58     OpensslLib:dh_asn1.obj
 0002:0002ff68       ??_C@_07HDOCMLOI@counter@  00000000000cce68     OpensslLib:dh_asn1.obj
 0002:0002ff70       ??_C@_0O@KANPBCM@int_dhvparams@ 00000000000cce70     OpensslLib:dh_asn1.obj
 0002:0002ff80       ??_C@_01CBDEGOCN@j@        00000000000cce80     OpensslLib:dh_asn1.obj
 0002:0002ff88       ??_C@_07JLLHOFNK@vparams@  00000000000cce88     OpensslLib:dh_asn1.obj
 0002:0002ff90       ??_C@_0O@HMLHGNDO@int_dhx942_dh@ 00000000000cce90     OpensslLib:dh_asn1.obj
 0002:00030070       DHparams_it                00000000000ccf70     OpensslLib:dh_asn1.obj
 0002:00030198       ??_C@_0BD@LDHEJACI@OpenSSL?5PKCS?$CD1?5RSA@ 00000000000cd098     OpensslLib:rsa_ossl.obj
 0002:000301ac       ??_C@_06CHOIGJDB@BIGNUM@   00000000000cd0ac     OpensslLib:x_bignum.obj
 0002:000301b8       ??_C@_07HILEKMCI@CBIGNUM@  00000000000cd0b8     OpensslLib:x_bignum.obj
 0002:000301c0       BIGNUM_it                  00000000000cd0c0     OpensslLib:x_bignum.obj
 0002:000301f0       CBIGNUM_it                 00000000000cd0f0     OpensslLib:x_bignum.obj
 0002:00030220       ??_C@_0O@NHCJKCDC@?$DMunsupported?$DO@ 00000000000cd120     OpensslLib:v3_alt.obj
 0002:00030230       ??_C@_09PAKBLAPA@othername@ 00000000000cd130     OpensslLib:v3_alt.obj
 0002:00030240       ??_C@_08EBDOEGJI@X400Name@ 00000000000cd140     OpensslLib:v3_alt.obj
 0002:00030250       ??_C@_0N@EEELPIKD@EdiPartyName@ 00000000000cd150     OpensslLib:v3_alt.obj
 0002:00030260       ??_C@_05HKHCDHCL@email@    00000000000cd160     OpensslLib:v3_alt.obj
 0002:00030268       ??_C@_03CBFPEBNE@DNS@      00000000000cd168     OpensslLib:v3_alt.obj
 0002:0003026c       ??_C@_03GMOLNBOB@URI@      00000000000cd16c     OpensslLib:v3_alt.obj
 0002:00030270       ??_C@_07FDBCPIKC@DirName@  00000000000cd170     OpensslLib:v3_alt.obj
 0002:00030278       ??_C@_09DPMBDOD@?$DMinvalid?$DO@ 00000000000cd178     OpensslLib:v3_alt.obj
 0002:00030288       ??_C@_0L@NGHMMCPJ@IP?5Address@ 00000000000cd188     OpensslLib:v3_alt.obj
 0002:00030298       ??_C@_0O@KAIENCPE@Registered?5ID@ 00000000000cd198     OpensslLib:v3_alt.obj
 0002:000302a8       ??_C@_04COAGEIMF@copy@     00000000000cd1a8     OpensslLib:v3_alt.obj
 0002:000302b0       ??_C@_04HDMMNHEL@move@     00000000000cd1b0     OpensslLib:v3_alt.obj
 0002:000302b8       ??_C@_03FEOBNLIE@RID@      00000000000cd1b8     OpensslLib:v3_alt.obj
 0002:000302bc       ??_C@_02MFEOMNPG@IP@       00000000000cd1bc     OpensslLib:v3_alt.obj
 0002:000302c0       ??_C@_07KKGEJKPE@dirName@  00000000000cd1c0     OpensslLib:v3_alt.obj
 0002:000302c8       ??_C@_09DBGAJPPE@otherName@ 00000000000cd1c8     OpensslLib:v3_alt.obj
 0002:000302e0       v3_alt                     00000000000cd1e0     OpensslLib:v3_alt.obj
 0002:00030418       ??_C@_0BG@HGJBEKFE@requireExplicitPolicy@ 00000000000cd318     OpensslLib:v3_pcons.obj
 0002:00030430       ??_C@_0BF@MOMLJGAL@inhibitPolicyMapping@ 00000000000cd330     OpensslLib:v3_pcons.obj
 0002:00030448       ??_C@_0BD@MMPNIEIJ@POLICY_CONSTRAINTS@ 00000000000cd348     OpensslLib:v3_pcons.obj
 0002:00030460       ??_C@_0BI@HNCHDEDI@Require?5Explicit?5Policy@ 00000000000cd360     OpensslLib:v3_pcons.obj
 0002:00030478       ??_C@_0BH@HMKHOMED@Inhibit?5Policy?5Mapping@ 00000000000cd378     OpensslLib:v3_pcons.obj
 0002:00030490       v3_policy_constraints      00000000000cd390     OpensslLib:v3_pcons.obj
 0002:000304f8       POLICY_CONSTRAINTS_it      00000000000cd3f8     OpensslLib:v3_pcons.obj
 0002:00030570       ??_C@_0BE@GJBJOOCP@CERTIFICATEPOLICIES@ 00000000000cd470     OpensslLib:v3_cpols.obj
 0002:00030588       ??_C@_08NEBFOBH@policyid@  00000000000cd488     OpensslLib:v3_cpols.obj
 0002:00030598       ??_C@_0L@HMNGMMJI@qualifiers@ 00000000000cd498     OpensslLib:v3_cpols.obj
 0002:000305a8       ??_C@_0L@POLPGHJK@POLICYINFO@ 00000000000cd4a8     OpensslLib:v3_cpols.obj
 0002:000305b8       ??_C@_08EECALGEF@d?4cpsuri@ 00000000000cd4b8     OpensslLib:v3_cpols.obj
 0002:000305c8       ??_C@_0N@JPAHANFF@d?4usernotice@ 00000000000cd4c8     OpensslLib:v3_cpols.obj
 0002:000305d8       ??_C@_07LEEILOKB@pqualid@  00000000000cd4d8     OpensslLib:v3_cpols.obj
 0002:000305e0       ??_C@_0P@POBJIHLD@POLICYQUALINFO@ 00000000000cd4e0     OpensslLib:v3_cpols.obj
 0002:000305f0       ??_C@_09FIKFDFH@noticeref@ 00000000000cd4f0     OpensslLib:v3_cpols.obj
 0002:00030600       ??_C@_07MHGINJOA@exptext@  00000000000cd500     OpensslLib:v3_cpols.obj
 0002:00030608       ??_C@_0L@HCNDPADF@USERNOTICE@ 00000000000cd508     OpensslLib:v3_cpols.obj
 0002:00030618       ??_C@_0N@HEIPMDAG@organization@ 00000000000cd518     OpensslLib:v3_cpols.obj
 0002:00030628       ??_C@_09CFGHNILC@noticenos@ 00000000000cd528     OpensslLib:v3_cpols.obj
 0002:00030638       ??_C@_09DFHLGOKA@NOTICEREF@ 00000000000cd538     OpensslLib:v3_cpols.obj
 0002:00030644       ??_C@_06MIFIGELF@ia5org@   00000000000cd544     OpensslLib:v3_cpols.obj
 0002:00030650       ??_C@_0BB@FIJMMMGE@policyIdentifier@ 00000000000cd550     OpensslLib:v3_cpols.obj
 0002:00030664       ??_C@_03KKDAPHBH@CPS@      00000000000cd564     OpensslLib:v3_cpols.obj
 0002:00030668       ??_C@_0L@LADHLIJ@userNotice@ 00000000000cd568     OpensslLib:v3_cpols.obj
 0002:00030674       ??_C@_04OOMJJNCF@UTF8@     00000000000cd574     OpensslLib:v3_cpols.obj
 0002:00030680       ??_C@_0L@PJIJIHJD@UTF8String@ 00000000000cd580     OpensslLib:v3_cpols.obj
 0002:0003068c       ??_C@_03CNFPPDJC@BMP@      00000000000cd58c     OpensslLib:v3_cpols.obj
 0002:00030690       ??_C@_09BIBABMFN@BMPSTRING@ 00000000000cd590     OpensslLib:v3_cpols.obj
 0002:000306a0       ??_C@_07MCGNPFEO@VISIBLE@  00000000000cd5a0     OpensslLib:v3_cpols.obj
 0002:000306a8       ??_C@_0O@KDAJCBO@VISIBLESTRING@ 00000000000cd5a8     OpensslLib:v3_cpols.obj
 0002:000306b8       ??_C@_0N@EALKMFB@explicitText@ 00000000000cd5b8     OpensslLib:v3_cpols.obj
 0002:000306c8       ??_C@_0O@OKDALMJE@noticeNumbers@ 00000000000cd5c8     OpensslLib:v3_cpols.obj
 0002:000306d8       ??_C@_0O@JBOAGIFP@?$CF?$CKsCPS?3?5?$CF?4?$CKs?6@ 00000000000cd5d8     OpensslLib:v3_cpols.obj
 0002:000306e8       ??_C@_0BH@KMGGMA@?$CF?$CKsOrganization?3?5?$CF?4?$CKs?6@ 00000000000cd5e8     OpensslLib:v3_cpols.obj
 0002:00030700       ??_C@_0O@EFHNHHDA@?$CF?$CKsNumber?$CFs?3?5@ 00000000000cd600     OpensslLib:v3_cpols.obj
 0002:00030710       ??_C@_06OJHGLDPL@?$CInull?$CJ@ 00000000000cd610     OpensslLib:v3_cpols.obj
 0002:00030718       ??_C@_0BI@GOILGMJA@?$CF?$CKsExplicit?5Text?3?5?$CF?4?$CKs?6@ 00000000000cd618     OpensslLib:v3_cpols.obj
 0002:00030730       NOTICEREF_it               00000000000cd630     OpensslLib:v3_cpols.obj
 0002:000307e0       USERNOTICE_it              00000000000cd6e0     OpensslLib:v3_cpols.obj
 0002:00030910       POLICYQUALINFO_it          00000000000cd810     OpensslLib:v3_cpols.obj
 0002:00030980       POLICYINFO_it              00000000000cd880     OpensslLib:v3_cpols.obj
 0002:000309b0       v3_cpols                   00000000000cd8b0     OpensslLib:v3_cpols.obj
 0002:00030a18       CERTIFICATEPOLICIES_it     00000000000cd918     OpensslLib:v3_cpols.obj
 0002:00030a48       ??_C@_0L@LIHNHIHF@?$CF?$CKs?$CF04x?5?9?5@ 00000000000cd948     OpensslLib:b_dump.obj
 0002:00030a54       ??_C@_03NDEAONJP@?5?5?5@   00000000000cd954     OpensslLib:b_dump.obj
 0002:00030a58       ??_C@_02KNHHEEKP@?5?5@     00000000000cd958     OpensslLib:b_dump.obj
 0002:00030a60       ??_C@_0BG@LEMCDPBI@dh_paramgen_prime_len@ 00000000000cd960     OpensslLib:dh_pmeth.obj
 0002:00030a78       ??_C@_0L@CMAICHCO@dh_rfc5114@ 00000000000cd978     OpensslLib:dh_pmeth.obj
 0002:00030a88       ??_C@_08DJOKJGHP@dh_param@ 00000000000cd988     OpensslLib:dh_pmeth.obj
 0002:00030a98       ??_C@_0BG@POLEFOHA@dh_paramgen_generator@ 00000000000cd998     OpensslLib:dh_pmeth.obj
 0002:00030ab0       ??_C@_0BJ@HCAFJLBI@dh_paramgen_subprime_len@ 00000000000cd9b0     OpensslLib:dh_pmeth.obj
 0002:00030ad0       ??_C@_0BB@DCMALDKK@dh_paramgen_type@ 00000000000cd9d0     OpensslLib:dh_pmeth.obj
 0002:00030ae4       ??_C@_06GADFDCHC@dh_pad@   00000000000cd9e4     OpensslLib:dh_pmeth.obj
 0002:00030af0       dhx_pkey_meth              00000000000cd9f0     OpensslLib:dh_pmeth.obj
 0002:00030bf0       dh_pkey_meth               00000000000cdaf0     OpensslLib:dh_pmeth.obj
 0002:00030cf0       ??_C@_06BHJHKMJC@hexkey@   00000000000cdbf0     OpensslLib:cm_pmeth.obj
 0002:00030d00       cmac_pkey_meth             00000000000cdc00     OpensslLib:cm_pmeth.obj
 0002:00030e00       ??_C@_0BB@BILFEOKG@rsa_padding_mode@ 00000000000cdd00     OpensslLib:rsa_pmeth.obj
 0002:00030e14       ??_C@_06PDLHKEJK@sslv23@   00000000000cdd14     OpensslLib:rsa_pmeth.obj
 0002:00030e1c       ??_C@_04CGFJFPFD@none@     00000000000cdd1c     OpensslLib:rsa_pmeth.obj
 0002:00030e24       ??_C@_04EIGNDHKO@oeap@     00000000000cdd24     OpensslLib:rsa_pmeth.obj
 0002:00030e2c       ??_C@_04MAAGAICF@oaep@     00000000000cdd2c     OpensslLib:rsa_pmeth.obj
 0002:00030e34       ??_C@_04JNCMEILM@x931@     00000000000cdd34     OpensslLib:rsa_pmeth.obj
 0002:00030e40       ??_C@_0BA@CIHMEEHB@rsa_pss_saltlen@ 00000000000cdd40     OpensslLib:rsa_pmeth.obj
 0002:00030e50       ??_C@_03LJAEFNNE@max@      00000000000cdd50     OpensslLib:rsa_pmeth.obj
 0002:00030e58       ??_C@_0BA@GFPKPLAF@rsa_keygen_bits@ 00000000000cdd58     OpensslLib:rsa_pmeth.obj
 0002:00030e68       ??_C@_0BC@DMECNPFD@rsa_keygen_pubexp@ 00000000000cdd68     OpensslLib:rsa_pmeth.obj
 0002:00030e80       ??_C@_0BC@KMPAJFPF@rsa_keygen_primes@ 00000000000cdd80     OpensslLib:rsa_pmeth.obj
 0002:00030e98       ??_C@_0M@CNLGKALE@rsa_mgf1_md@ 00000000000cdd98     OpensslLib:rsa_pmeth.obj
 0002:00030ea8       ??_C@_0BH@OIJPKNFL@rsa_pss_keygen_mgf1_md@ 00000000000cdda8     OpensslLib:rsa_pmeth.obj
 0002:00030ec0       ??_C@_0BC@BFLLMFID@rsa_pss_keygen_md@ 00000000000cddc0     OpensslLib:rsa_pmeth.obj
 0002:00030ed8       ??_C@_0BH@MFJEKBFK@rsa_pss_keygen_saltlen@ 00000000000cddd8     OpensslLib:rsa_pmeth.obj
 0002:00030ef0       ??_C@_0M@OPEEJBKE@rsa_oaep_md@ 00000000000cddf0     OpensslLib:rsa_pmeth.obj
 0002:00030f00       ??_C@_0P@NCFNIFLM@rsa_oaep_label@ 00000000000cde00     OpensslLib:rsa_pmeth.obj
 0002:00030f10       rsa_pkey_meth              00000000000cde10     OpensslLib:rsa_pmeth.obj
 0002:00031010       rsa_pss_pkey_meth          00000000000cdf10     OpensslLib:rsa_pmeth.obj
 0002:00031110       ??_C@_06PNMBKEGN@secret@   00000000000ce010     OpensslLib:tls1_prf.obj
 0002:00031118       ??_C@_09CIFGBJCP@hexsecret@ 00000000000ce018     OpensslLib:tls1_prf.obj
 0002:00031128       ??_C@_07FKCLENDA@hexseed@  00000000000ce028     OpensslLib:tls1_prf.obj
 0002:00031130       tls1_prf_pkey_meth         00000000000ce030     OpensslLib:tls1_prf.obj
 0002:00031230       ??_C@_04GMGOKAFF@mode@     00000000000ce130     OpensslLib:hkdf.obj
 0002:00031238       ??_C@_0BD@PBGBEBFD@EXTRACT_AND_EXPAND@ 00000000000ce138     OpensslLib:hkdf.obj
 0002:00031250       ??_C@_0N@OIPAJIAH@EXTRACT_ONLY@ 00000000000ce150     OpensslLib:hkdf.obj
 0002:00031260       ??_C@_0M@FMHABNKF@EXPAND_ONLY@ 00000000000ce160     OpensslLib:hkdf.obj
 0002:0003126c       ??_C@_04OKLIMCN@salt@      00000000000ce16c     OpensslLib:hkdf.obj
 0002:00031278       ??_C@_07JAFKPDLJ@hexsalt@  00000000000ce178     OpensslLib:hkdf.obj
 0002:00031280       ??_C@_07EGMICCIA@hexinfo@  00000000000ce180     OpensslLib:hkdf.obj
 0002:00031290       hkdf_pkey_meth             00000000000ce190     OpensslLib:hkdf.obj
 0002:00031390       ??_C@_0BC@BLCJLNNM@ec_paramgen_curve@ 00000000000ce290     OpensslLib:sm2_pmeth.obj
 0002:000313a8       ??_C@_0N@CHHABLAI@ec_param_enc@ 00000000000ce2a8     OpensslLib:sm2_pmeth.obj
 0002:000313b8       ??_C@_08FCANLLBJ@explicit@ 00000000000ce2b8     OpensslLib:sm2_pmeth.obj
 0002:000313d0       sm2_pkey_meth              00000000000ce2d0     OpensslLib:sm2_pmeth.obj
 0002:000314d0       ??_C@_0L@NANBDDC@digestsize@ 00000000000ce3d0     OpensslLib:siphash_pmeth.obj
 0002:000314e0       siphash_pkey_meth          00000000000ce3e0     OpensslLib:siphash_pmeth.obj
 0002:000315e0       ??_C@_0M@JAAKIKPH@ecdh_kdf_md@ 00000000000ce4e0     OpensslLib:ec_pmeth.obj
 0002:000315f0       ??_C@_0BD@CPNABICB@ecdh_cofactor_mode@ 00000000000ce4f0     OpensslLib:ec_pmeth.obj
 0002:00031610       ec_pkey_meth               00000000000ce510     OpensslLib:ec_pmeth.obj
 0002:00031710       hmac_pkey_meth             00000000000ce610     OpensslLib:hm_pmeth.obj
 0002:00031810       ??_C@_0BC@MGHKLCAP@OpenSSL?5DH?5Method@ 00000000000ce710     OpensslLib:dh_key.obj
 0002:00031848       ??_C@_02PLJDPFIO@00@       00000000000ce748     OpensslLib:asn1_par.obj
 0002:0003184c       ??_C@_03NCODFONH@EOC@      00000000000ce74c     OpensslLib:asn1_par.obj
 0002:00031850       ??_C@_07JDEDMABE@BOOLEAN@  00000000000ce750     OpensslLib:asn1_par.obj
 0002:00031858       ??_C@_07EHCIHKNF@INTEGER@  00000000000ce758     OpensslLib:asn1_par.obj
 0002:00031860       ??_C@_0L@EKOKPLKE@BIT?5STRING@ 00000000000ce760     OpensslLib:asn1_par.obj
 0002:00031870       ??_C@_0N@KPGGMDFC@OCTET?5STRING@ 00000000000ce770     OpensslLib:asn1_par.obj
 0002:00031880       ??_C@_06IAMCMNFI@OBJECT@   00000000000ce780     OpensslLib:asn1_par.obj
 0002:00031888       ??_C@_0BC@HDOCNDIH@OBJECT?5DESCRIPTOR@ 00000000000ce788     OpensslLib:asn1_par.obj
 0002:000318a0       ??_C@_08JHLDEHEK@EXTERNAL@ 00000000000ce7a0     OpensslLib:asn1_par.obj
 0002:000318ac       ??_C@_04PKFANLLI@REAL@     00000000000ce7ac     OpensslLib:asn1_par.obj
 0002:000318b8       ??_C@_0L@KNIEMAKM@ENUMERATED@ 00000000000ce7b8     OpensslLib:asn1_par.obj
 0002:000318c8       ??_C@_09EKNCOIGI@?$DMASN1?511?$DO@ 00000000000ce7c8     OpensslLib:asn1_par.obj
 0002:000318d8       ??_C@_0L@DCBPGANN@UTF8STRING@ 00000000000ce7d8     OpensslLib:asn1_par.obj
 0002:000318e8       ??_C@_09EJFGDMAG@?$DMASN1?513?$DO@ 00000000000ce7e8     OpensslLib:asn1_par.obj
 0002:000318f8       ??_C@_09EMBJCKID@?$DMASN1?514?$DO@ 00000000000ce7f8     OpensslLib:asn1_par.obj
 0002:00031908       ??_C@_09ENNLEALE@?$DMASN1?515?$DO@ 00000000000ce808     OpensslLib:asn1_par.obj
 0002:00031918       ??_C@_08POLPFBMC@SEQUENCE@ 00000000000ce818     OpensslLib:asn1_par.obj
 0002:00031924       ??_C@_03KPIFFHNE@SET@      00000000000ce824     OpensslLib:asn1_par.obj
 0002:00031928       ??_C@_0O@DFADMOGA@NUMERICSTRING@ 00000000000ce828     OpensslLib:asn1_par.obj
 0002:00031938       ??_C@_0BA@FKHILLED@PRINTABLESTRING@ 00000000000ce838     OpensslLib:asn1_par.obj
 0002:00031948       ??_C@_09FMBHBANP@T61STRING@ 00000000000ce848     OpensslLib:asn1_par.obj
 0002:00031958       ??_C@_0P@LNAMNBEL@VIDEOTEXSTRING@ 00000000000ce858     OpensslLib:asn1_par.obj
 0002:00031968       ??_C@_09JOMPLKGB@IA5STRING@ 00000000000ce868     OpensslLib:asn1_par.obj
 0002:00031978       ??_C@_07HIOLDDN@UTCTIME@   00000000000ce878     OpensslLib:asn1_par.obj
 0002:00031980       ??_C@_0BA@LKNBIJBB@GENERALIZEDTIME@ 00000000000ce880     OpensslLib:asn1_par.obj
 0002:00031990       ??_C@_0O@MABADFB@GRAPHICSTRING@ 00000000000ce890     OpensslLib:asn1_par.obj
 0002:000319a0       ??_C@_0O@DKDEPFLO@GENERALSTRING@ 00000000000ce8a0     OpensslLib:asn1_par.obj
 0002:000319b0       ??_C@_0BA@EJHHDALK@UNIVERSALSTRING@ 00000000000ce8b0     OpensslLib:asn1_par.obj
 0002:000319c0       ??_C@_09FGHEBGDO@?$DMASN1?529?$DO@ 00000000000ce8c0     OpensslLib:asn1_par.obj
 0002:000319d0       ??_C@_09GPGAJHPD@?$CIunknown?$CJ@ 00000000000ce8d0     OpensslLib:asn1_par.obj
 0002:00031ad8       ??_C@_08JJBFGKFE@minsize?$DN@ 00000000000ce9d8     OpensslLib:a_mbstr.obj
 0002:00031ae8       ??_C@_08EOPONIBF@maxsize?$DN@ 00000000000ce9e8     OpensslLib:a_mbstr.obj
 0002:00032178       ??_C@_08KLAPILAK@SigEd448@ 00000000000cf078     OpensslLib:eddsa.obj
 0002:00039e50       ??_C@_05NJJIPCOC@?$CFs?50?6@ 00000000000d6d50     OpensslLib:t_pkey.obj
 0002:00039e58       ??_C@_0BE@KHLFKPFC@?$CFs?5?$CFs?$CFlu?5?$CI?$CFs0x?$CFlx?$CJ?6@ 00000000000d6d58     OpensslLib:t_pkey.obj
 0002:00039e70       ??_C@_0M@IBLDKCHK@?5?$CINegative?$CJ@ 00000000000d6d70     OpensslLib:t_pkey.obj
 0002:00039e7c       ??_C@_05JMJKDBEJ@?$CFs?$CFs?6@ 00000000000d6d7c     OpensslLib:t_pkey.obj
 0002:00039f10       curve448_point_identity    00000000000d6e10     OpensslLib:curve448.obj
 0002:0003a050       ??_C@_0BI@DFFFIKFB@Generator?5?$CIcompressed?$CJ?3@ 00000000000d6f50     OpensslLib:eck_prn.obj
 0002:0003a068       ??_C@_0BK@DOCPEENO@Generator?5?$CIuncompressed?$CJ?3@ 00000000000d6f68     OpensslLib:eck_prn.obj
 0002:0003a088       ??_C@_0BE@FPCNHCIJ@Generator?5?$CIhybrid?$CJ?3@ 00000000000d6f88     OpensslLib:eck_prn.obj
 0002:0003a0a0       ??_C@_0N@JOFLCJFF@ASN1?5OID?3?5?$CFs@ 00000000000d6fa0     OpensslLib:eck_prn.obj
 0002:0003a0b0       ??_C@_0BA@LNIECBHN@NIST?5CURVE?3?5?$CFs?6@ 00000000000d6fb0     OpensslLib:eck_prn.obj
 0002:0003a0c0       ??_C@_0BA@KNKNOIFH@Field?5Type?3?5?$CFs?6@ 00000000000d6fc0     OpensslLib:eck_prn.obj
 0002:0003a0d0       ??_C@_0BA@ENMKKION@Basis?5Type?3?5?$CFs?6@ 00000000000d6fd0     OpensslLib:eck_prn.obj
 0002:0003a0e0       ??_C@_0M@JDIPGLHE@Polynomial?3@ 00000000000d6fe0     OpensslLib:eck_prn.obj
 0002:0003a0ec       ??_C@_06DBHHIIKM@Prime?3@  00000000000d6fec     OpensslLib:eck_prn.obj
 0002:0003a0f4       ??_C@_05GMFDOKMO@A?3?5?5?5@ 00000000000d6ff4     OpensslLib:eck_prn.obj
 0002:0003a0fc       ??_C@_05OKMHJIGA@B?3?5?5?5@ 00000000000d6ffc     OpensslLib:eck_prn.obj
 0002:0003a108       ??_C@_07KOGOKIFH@Order?3?5@ 00000000000d7008     OpensslLib:eck_prn.obj
 0002:0003a110       ??_C@_0L@IEMHODML@Cofactor?3?5@ 00000000000d7010     OpensslLib:eck_prn.obj
 0002:0003a11c       ??_C@_05PDHKGGIM@Seed?3@   00000000000d701c     OpensslLib:eck_prn.obj
 0002:0003a124       ??_C@_02DKCKIIND@?$CFs@    00000000000d7024     OpensslLib:eck_prn.obj
 0002:0003a128       ??_C@_02JPPHBJLD@?2?6@     00000000000d7028     OpensslLib:f_int.obj
 0002:0003a130       ??_C@_0L@IBMJIFJJ@processing@ 00000000000d7030     OpensslLib:ui_lib.obj
 0002:0003a140       ??_C@_0BA@GOAFKHOA@opening?5session@ 00000000000d7040     OpensslLib:ui_lib.obj
 0002:0003a150       ??_C@_0BA@LLBHCIJA@writing?5strings@ 00000000000d7050     OpensslLib:ui_lib.obj
 0002:0003a160       ??_C@_08FLELJCH@flushing@  00000000000d7060     OpensslLib:ui_lib.obj
 0002:0003a170       ??_C@_0BA@JJHDNNDP@reading?5strings@ 00000000000d7070     OpensslLib:ui_lib.obj
 0002:0003a180       ??_C@_0BA@OJKMFOLM@closing?5session@ 00000000000d7080     OpensslLib:ui_lib.obj
 0002:0003a190       ??_C@_06JBLBDDPN@while?5@  00000000000d7090     OpensslLib:ui_lib.obj
 0002:0003a198       ??_C@_04JBGFELJA@tag?$DN@  00000000000d7098     OpensslLib:asn1_gen.obj
 0002:0003a1a0       ??_C@_05CCNLIHFO@ASCII@    00000000000d70a0     OpensslLib:asn1_gen.obj
 0002:0003a1a8       ??_C@_03IECIMIEG@HEX@      00000000000d70a8     OpensslLib:asn1_gen.obj
 0002:0003a1b0       ??_C@_07HMNLDFAL@BITLIST@  00000000000d70b0     OpensslLib:asn1_gen.obj
 0002:0003a1b8       ??_C@_05NALEHOPE@Char?$DN@ 00000000000d70b8     OpensslLib:asn1_gen.obj
 0002:0003a1c0       ??_C@_04PPJDIBFE@BOOL@     00000000000d70c0     OpensslLib:asn1_gen.obj
 0002:0003a1c8       ??_C@_03JMHEAPMO@INT@      00000000000d70c8     OpensslLib:asn1_gen.obj
 0002:0003a1cc       ??_C@_04PNKFCNMG@ENUM@     00000000000d70cc     OpensslLib:asn1_gen.obj
 0002:0003a1d4       ??_C@_03PGJCFEMG@OID@      00000000000d70d4     OpensslLib:asn1_gen.obj
 0002:0003a1d8       ??_C@_03JCIJEFNJ@UTC@      00000000000d70d8     OpensslLib:asn1_gen.obj
 0002:0003a1e0       ??_C@_07EECHABMP@GENTIME@  00000000000d70e0     OpensslLib:asn1_gen.obj
 0002:0003a1e8       ??_C@_03LBMHMDEB@OCT@      00000000000d70e8     OpensslLib:asn1_gen.obj
 0002:0003a1f0       ??_C@_0M@JIDALIGG@OCTETSTRING@ 00000000000d70f0     OpensslLib:asn1_gen.obj
 0002:0003a1fc       ??_C@_06GOEDGPII@BITSTR@   00000000000d70fc     OpensslLib:asn1_gen.obj
 0002:0003a208       ??_C@_09MBLGEDKL@BITSTRING@ 00000000000d7108     OpensslLib:asn1_gen.obj
 0002:0003a214       ??_C@_04CBEPCLMK@UNIV@     00000000000d7114     OpensslLib:asn1_gen.obj
 0002:0003a21c       ??_C@_03OLMOBCBF@IA5@      00000000000d711c     OpensslLib:asn1_gen.obj
 0002:0003a220       ??_C@_09OMDMMLJJ@PRINTABLE@ 00000000000d7120     OpensslLib:asn1_gen.obj
 0002:0003a22c       ??_C@_03HMGPCGIG@T61@      00000000000d712c     OpensslLib:asn1_gen.obj
 0002:0003a230       ??_C@_0O@GENPGMAM@TELETEXSTRING@ 00000000000d7130     OpensslLib:asn1_gen.obj
 0002:0003a240       ??_C@_0O@OIKLOOAP@GeneralString@ 00000000000d7140     OpensslLib:asn1_gen.obj
 0002:0003a250       ??_C@_06GBOJAPHH@GENSTR@   00000000000d7150     OpensslLib:asn1_gen.obj
 0002:0003a258       ??_C@_07DBOJJFHC@NUMERIC@  00000000000d7158     OpensslLib:asn1_gen.obj
 0002:0003a260       ??_C@_03NCPCKDJB@SEQ@      00000000000d7160     OpensslLib:asn1_gen.obj
 0002:0003a264       ??_C@_03KKGFKKLA@EXP@      00000000000d7164     OpensslLib:asn1_gen.obj
 0002:0003a268       ??_C@_08CNKBIFDO@EXPLICIT@ 00000000000d7168     OpensslLib:asn1_gen.obj
 0002:0003a274       ??_C@_03PKFOHEJD@IMP@      00000000000d7174     OpensslLib:asn1_gen.obj
 0002:0003a278       ??_C@_08PPMOEJGF@IMPLICIT@ 00000000000d7178     OpensslLib:asn1_gen.obj
 0002:0003a288       ??_C@_07KIEILLID@OCTWRAP@  00000000000d7188     OpensslLib:asn1_gen.obj
 0002:0003a290       ??_C@_07LAEBDLGO@SEQWRAP@  00000000000d7190     OpensslLib:asn1_gen.obj
 0002:0003a298       ??_C@_07OAIMKKNN@SETWRAP@  00000000000d7198     OpensslLib:asn1_gen.obj
 0002:0003a2a0       ??_C@_07JHDNPBBM@BITWRAP@  00000000000d71a0     OpensslLib:asn1_gen.obj
 0002:0003a2a8       ??_C@_04HPGCGPG@FORM@      00000000000d71a8     OpensslLib:asn1_gen.obj
 0002:0003a2b0       ??_C@_06DPGELLJH@FORMAT@   00000000000d71b0     OpensslLib:asn1_gen.obj
 0002:0003a2b8       ??_C@_07IOGEOOAA@string?$DN@ 00000000000d71b8     OpensslLib:asn1_gen.obj
 0002:0003a2c0       ??_C@_03DNALGGBA@DIR@      00000000000d71c0     OpensslLib:asn1_gen.obj
 0002:0003a5e0       v3_policy_mappings         00000000000d74e0     OpensslLib:v3_pmaps.obj
 0002:0003a648       ??_C@_0BD@JILOPHFL@issuerDomainPolicy@ 00000000000d7548     OpensslLib:v3_pmaps.obj
 0002:0003a660       ??_C@_0BE@FFIKMOKF@subjectDomainPolicy@ 00000000000d7560     OpensslLib:v3_pmaps.obj
 0002:0003a678       ??_C@_0P@NLHMKCKF@POLICY_MAPPING@ 00000000000d7578     OpensslLib:v3_pmaps.obj
 0002:0003a688       ??_C@_0BA@DHPBCFFC@POLICY_MAPPINGS@ 00000000000d7588     OpensslLib:v3_pmaps.obj
 0002:0003a6e0       POLICY_MAPPINGS_it         00000000000d75e0     OpensslLib:v3_pmaps.obj
 0002:0003a710       POLICY_MAPPING_it          00000000000d7610     OpensslLib:v3_pmaps.obj
 0002:0003a760       v3_ocsp_accresp            00000000000d7660     OpensslLib:v3_extku.obj
 0002:0003a7d0       v3_ext_ku                  00000000000d76d0     OpensslLib:v3_extku.obj
 0002:0003a838       ??_C@_0BD@CKAGEBEF@EXTENDED_KEY_USAGE@ 00000000000d7738     OpensslLib:v3_extku.obj
 0002:0003a870       EXTENDED_KEY_USAGE_it      00000000000d7770     OpensslLib:v3_extku.obj
 0002:0003a8a0       v3_key_usage               00000000000d77a0     OpensslLib:v3_bitst.obj
 0002:0003a910       v3_nscert                  00000000000d7810     OpensslLib:v3_bitst.obj
 0002:0003a978       ??_C@_06DGDLPBAN@client@   00000000000d7878     OpensslLib:v3_bitst.obj
 0002:0003a980       ??_C@_06HJHJCKIO@server@   00000000000d7880     OpensslLib:v3_bitst.obj
 0002:0003a988       ??_C@_0P@DDHLFHHK@Object?5Signing@ 00000000000d7888     OpensslLib:v3_bitst.obj
 0002:0003a998       ??_C@_07GIOKFKGL@objsign@  00000000000d7898     OpensslLib:v3_bitst.obj
 0002:0003a9a0       ??_C@_08FINKBBAF@reserved@ 00000000000d78a0     OpensslLib:v3_bitst.obj
 0002:0003a9ac       ??_C@_06FMDLPOFJ@SSL?5CA@  00000000000d78ac     OpensslLib:v3_bitst.obj
 0002:0003a9b4       ??_C@_05JHLHLOEK@sslCA@    00000000000d78b4     OpensslLib:v3_bitst.obj
 0002:0003a9c0       ??_C@_09GIEMCMEO@S?1MIME?5CA@ 00000000000d78c0     OpensslLib:v3_bitst.obj
 0002:0003a9d0       ??_C@_07FFHDGPMJ@emailCA@  00000000000d78d0     OpensslLib:v3_bitst.obj
 0002:0003a9d8       ??_C@_0BC@FAMHGMHB@Object?5Signing?5CA@ 00000000000d78d8     OpensslLib:v3_bitst.obj
 0002:0003a9ec       ??_C@_05JLEIJNEE@objCA@    00000000000d78ec     OpensslLib:v3_bitst.obj
 0002:0003a9f8       ??_C@_0BC@DPKEIPIO@Digital?5Signature@ 00000000000d78f8     OpensslLib:v3_bitst.obj
 0002:0003aa10       ??_C@_0BB@MFKHIIOM@digitalSignature@ 00000000000d7910     OpensslLib:v3_bitst.obj
 0002:0003aa28       ??_C@_0BA@DJCGBBAI@Non?5Repudiation@ 00000000000d7928     OpensslLib:v3_bitst.obj
 0002:0003aa38       ??_C@_0P@GPCNPOGO@nonRepudiation@ 00000000000d7938     OpensslLib:v3_bitst.obj
 0002:0003aa48       ??_C@_0BB@KNACIBEN@Key?5Encipherment@ 00000000000d7948     OpensslLib:v3_bitst.obj
 0002:0003aa60       ??_C@_0BA@MINCLOJG@keyEncipherment@ 00000000000d7960     OpensslLib:v3_bitst.obj
 0002:0003aa70       ??_C@_0BC@GNPIAJLP@Data?5Encipherment@ 00000000000d7970     OpensslLib:v3_bitst.obj
 0002:0003aa88       ??_C@_0BB@LBKKKIGO@dataEncipherment@ 00000000000d7988     OpensslLib:v3_bitst.obj
 0002:0003aaa0       ??_C@_0O@EOJOBCHL@Key?5Agreement@ 00000000000d79a0     OpensslLib:v3_bitst.obj
 0002:0003aab0       ??_C@_0N@GONHKOEO@keyAgreement@ 00000000000d79b0     OpensslLib:v3_bitst.obj
 0002:0003aac0       ??_C@_0BB@ELNGMDLH@Certificate?5Sign@ 00000000000d79c0     OpensslLib:v3_bitst.obj
 0002:0003aad8       ??_C@_0M@ONBOOMGI@keyCertSign@ 00000000000d79d8     OpensslLib:v3_bitst.obj
 0002:0003aae8       ??_C@_08OCJGKMAN@CRL?5Sign@ 00000000000d79e8     OpensslLib:v3_bitst.obj
 0002:0003aaf8       ??_C@_07IHBCCDFJ@cRLSign@  00000000000d79f8     OpensslLib:v3_bitst.obj
 0002:0003ab00       ??_C@_0O@CANGKMJD@Encipher?5Only@ 00000000000d7a00     OpensslLib:v3_bitst.obj
 0002:0003ab10       ??_C@_0N@BEFDLIKF@encipherOnly@ 00000000000d7a10     OpensslLib:v3_bitst.obj
 0002:0003ab20       ??_C@_0O@FKBAPCEG@Decipher?5Only@ 00000000000d7a20     OpensslLib:v3_bitst.obj
 0002:0003ab30       ??_C@_0N@LIFHMFCO@decipherOnly@ 00000000000d7a30     OpensslLib:v3_bitst.obj
 0002:0003ab40       v3_ocsp_crlid              00000000000d7a40     OpensslLib:v3_ocsp.obj
 0002:0003abb0       v3_crl_hold                00000000000d7ab0     OpensslLib:v3_ocsp.obj
 0002:0003ac20       v3_ocsp_nocheck            00000000000d7b20     OpensslLib:v3_ocsp.obj
 0002:0003ac90       v3_ocsp_acutoff            00000000000d7b90     OpensslLib:v3_ocsp.obj
 0002:0003ad00       v3_ocsp_nonce              00000000000d7c00     OpensslLib:v3_ocsp.obj
 0002:0003ad70       v3_crl_invdate             00000000000d7c70     OpensslLib:v3_ocsp.obj
 0002:0003ade0       v3_ocsp_serviceloc         00000000000d7ce0     OpensslLib:v3_ocsp.obj
 0002:0003ae48       ??_C@_0M@KIKBFHBJ@?$CF?$CKscrlUrl?3?5@ 00000000000d7d48     OpensslLib:v3_ocsp.obj
 0002:0003ae58       ??_C@_0M@MLCMBODE@?$CF?$CKscrlNum?3?5@ 00000000000d7d58     OpensslLib:v3_ocsp.obj
 0002:0003ae68       ??_C@_0N@IBJOMEDL@?$CF?$CKscrlTime?3?5@ 00000000000d7d68     OpensslLib:v3_ocsp.obj
 0002:0003ae78       ??_C@_0M@IHOINNJF@?$CF?$CKsIssuer?3?5@ 00000000000d7d78     OpensslLib:v3_ocsp.obj
 0002:0003ae84       ??_C@_04NFEJKGEM@?6?$CF?$CKs@ 00000000000d7d84     OpensslLib:v3_ocsp.obj
 0002:0003ae8c       ??_C@_03NLJIHOMM@?5?9?5@   00000000000d7d8c     OpensslLib:v3_ocsp.obj
 0002:0003ae90       v3_akey_id                 00000000000d7d90     OpensslLib:v3_akey.obj
 0002:0003aef8       ??_C@_06KHDOHNKC@always@   00000000000d7df8     OpensslLib:v3_akey.obj
 0002:0003af00       v3_ns_ia5_list             00000000000d7e00     OpensslLib:v3_ia5.obj
 0002:0003b240       v3_delta_crl               00000000000d8140     OpensslLib:v3_int.obj
 0002:0003b2b0       v3_inhibit_anyp            00000000000d81b0     OpensslLib:v3_int.obj
 0002:0003b320       v3_crl_num                 00000000000d8220     OpensslLib:v3_int.obj
 0002:0003b390       v3_ext_admission           00000000000d8290     OpensslLib:v3_admis.obj
 0002:0003b3f8       ??_C@_0BC@KHBCHCNJ@namingAuthorityId@ 00000000000d82f8     OpensslLib:v3_admis.obj
 0002:0003b410       ??_C@_0BD@DEIEGLEM@namingAuthorityUrl@ 00000000000d8310     OpensslLib:v3_admis.obj
 0002:0003b428       ??_C@_0BE@NPIMHIBI@namingAuthorityText@ 00000000000d8328     OpensslLib:v3_admis.obj
 0002:0003b440       ??_C@_0BB@COJAOCFM@NAMING_AUTHORITY@ 00000000000d8340     OpensslLib:v3_admis.obj
 0002:0003b458       ??_C@_0BA@DBBLIBJC@namingAuthority@ 00000000000d8358     OpensslLib:v3_admis.obj
 0002:0003b468       ??_C@_0BA@JCIKJJCP@professionItems@ 00000000000d8368     OpensslLib:v3_admis.obj
 0002:0003b478       ??_C@_0P@PBNEFCJO@professionOIDs@ 00000000000d8378     OpensslLib:v3_admis.obj
 0002:0003b488       ??_C@_0BD@NJLNALHF@registrationNumber@ 00000000000d8388     OpensslLib:v3_admis.obj
 0002:0003b4a0       ??_C@_0BC@EDMGMCCO@addProfessionInfo@ 00000000000d83a0     OpensslLib:v3_admis.obj
 0002:0003b4b8       ??_C@_0BA@KKEGAEAH@PROFESSION_INFO@ 00000000000d83b8     OpensslLib:v3_admis.obj
 0002:0003b4c8       ??_C@_0BD@GKCCDPCL@admissionAuthority@ 00000000000d83c8     OpensslLib:v3_admis.obj
 0002:0003b4e0       ??_C@_0BA@KJOLGNIM@professionInfos@ 00000000000d83e0     OpensslLib:v3_admis.obj
 0002:0003b4f0       ??_C@_0L@OIMBEHAN@ADMISSIONS@ 00000000000d83f0     OpensslLib:v3_admis.obj
 0002:0003b500       ??_C@_0BF@FNBKMPAG@contentsOfAdmissions@ 00000000000d8400     OpensslLib:v3_admis.obj
 0002:0003b518       ??_C@_0BB@PBMIGONA@ADMISSION_SYNTAX@ 00000000000d8418     OpensslLib:v3_admis.obj
 0002:0003b530       ??_C@_0BF@MPDFFBEA@?$CF?$CKsnamingAuthority?3?5@ 00000000000d8430     OpensslLib:v3_admis.obj
 0002:0003b548       ??_C@_0BM@DCICMEAO@?$CF?$CKs?5?5admissionAuthorityId?3?5@ 00000000000d8448     OpensslLib:v3_admis.obj
 0002:0003b564       ??_C@_01PKGAHCOL@?$CJ@     00000000000d8464     OpensslLib:v3_admis.obj
 0002:0003b568       ??_C@_02GFKOMOKH@?5?$CI@   00000000000d8468     OpensslLib:v3_admis.obj
 0002:0003b570       ??_C@_09MCJOGJJM@?$CFs?$CFs?$CFs?$CFs?6@ 00000000000d8470     OpensslLib:v3_admis.obj
 0002:0003b580       ??_C@_0BL@DELGFPFK@?$CF?$CKs?5?5namingAuthorityText?3?5@ 00000000000d8480     OpensslLib:v3_admis.obj
 0002:0003b5a0       ??_C@_0BK@OPCGIEEP@?$CF?$CKs?5?5namingAuthorityUrl?3?5@ 00000000000d84a0     OpensslLib:v3_admis.obj
 0002:0003b5c0       ??_C@_0BI@NKKBPCEB@?$CF?$CKsadmissionAuthority?3?6@ 00000000000d84c0     OpensslLib:v3_admis.obj
 0002:0003b5d8       ??_C@_05EGGOJAEM@?$CF?$CKs?5?5@ 00000000000d84d8     OpensslLib:v3_admis.obj
 0002:0003b5e0       ??_C@_0P@ONCDAKNH@?$CF?$CKsEntry?5?$CF0d?3?6@ 00000000000d84e0     OpensslLib:v3_admis.obj
 0002:0003b5f0       ??_C@_0BK@MGPHHOEM@?$CF?$CKs?5?5admissionAuthority?3?6@ 00000000000d84f0     OpensslLib:v3_admis.obj
 0002:0003b610       ??_C@_07BAKLHGB@?$CF?$CKs?5?5?5?5@ 00000000000d8510     OpensslLib:v3_admis.obj
 0002:0003b618       ??_C@_0CB@JOPMCDOG@?$CF?$CKs?5?5Profession?5Info?5Entry?5?$CF0d?3@ 00000000000d8518     OpensslLib:v3_admis.obj
 0002:0003b640       ??_C@_0BM@PNLACIIE@?$CF?$CKs?5?5?5?5registrationNumber?3?5@ 00000000000d8540     OpensslLib:v3_admis.obj
 0002:0003b660       ??_C@_0BG@COHLBKD@?$CF?$CKs?5?5?5?5Info?5Entries?3?6@ 00000000000d8560     OpensslLib:v3_admis.obj
 0002:0003b678       ??_C@_09IECKBPIB@?$CF?$CKs?5?5?5?5?5?5@ 00000000000d8578     OpensslLib:v3_admis.obj
 0002:0003b688       ??_C@_0BJ@KFOBDAG@?$CF?$CKs?5?5?5?5Profession?5OIDs?3?6@ 00000000000d8588     OpensslLib:v3_admis.obj
 0002:0003b6a8       ??_C@_0BD@OELCPJIC@?$CF?$CKs?5?5?5?5?5?5?$CFs?$CFs?$CFs?$CFs?6@ 00000000000d85a8     OpensslLib:v3_admis.obj
 0002:0003b6c0       PROFESSION_INFO_it         00000000000d85c0     OpensslLib:v3_admis.obj
 0002:0003b750       ADMISSION_SYNTAX_it        00000000000d8650     OpensslLib:v3_admis.obj
 0002:0003b780       ADMISSIONS_it              00000000000d8680     OpensslLib:v3_admis.obj
 0002:0003b8f0       NAMING_AUTHORITY_it        00000000000d87f0     OpensslLib:v3_admis.obj
 0002:0003b920       v3_skey_id                 00000000000d8820     OpensslLib:v3_skey.obj
 0002:0003b988       ??_C@_04OIJGJDKO@hash@     00000000000d8888     OpensslLib:v3_skey.obj
 0002:0003b990       v3_crl_reason              00000000000d8890     OpensslLib:v3_enum.obj
 0002:0003b9f8       ??_C@_0M@NNPCGPMF@Unspecified@ 00000000000d88f8     OpensslLib:v3_enum.obj
 0002:0003ba08       ??_C@_0M@MFMDLEDN@unspecified@ 00000000000d8908     OpensslLib:v3_enum.obj
 0002:0003ba18       ??_C@_0BA@GLPEKBIK@Remove?5From?5CRL@ 00000000000d8918     OpensslLib:v3_enum.obj
 0002:0003ba28       ??_C@_0O@BILLKPKO@removeFromCRL@ 00000000000d8928     OpensslLib:v3_enum.obj
 0002:0003ba40       v3_pkey_usage_period       00000000000d8940     OpensslLib:v3_pku.obj
 0002:0003baa8       ??_C@_0BC@CCOKACDM@PKEY_USAGE_PERIOD@ 00000000000d89a8     OpensslLib:v3_pku.obj
 0002:0003bac0       ??_C@_0N@KGLJEEMK@Not?5Before?3?5@ 00000000000d89c0     OpensslLib:v3_pku.obj
 0002:0003bad0       ??_C@_0M@FCHJLIHE@Not?5After?3?5@ 00000000000d89d0     OpensslLib:v3_pku.obj
 0002:0003bb20       PKEY_USAGE_PERIOD_it       00000000000d8a20     OpensslLib:v3_pku.obj
 0002:0003bb50       v3_sxnet                   00000000000d8a50     OpensslLib:v3_sxnet.obj
 0002:0003bbb8       ??_C@_04LDDJGOBB@zone@     00000000000d8ab8     OpensslLib:v3_sxnet.obj
 0002:0003bbc0       ??_C@_04CCHAHKJA@user@     00000000000d8ac0     OpensslLib:v3_sxnet.obj
 0002:0003bbc8       ??_C@_07FLDOGLPN@SXNETID@  00000000000d8ac8     OpensslLib:v3_sxnet.obj
 0002:0003bbd0       ??_C@_03NDFJNBKD@ids@      00000000000d8ad0     OpensslLib:v3_sxnet.obj
 0002:0003bbd4       ??_C@_05BPAJFIHK@SXNET@    00000000000d8ad4     OpensslLib:v3_sxnet.obj
 0002:0003bbe0       ??_C@_0BF@NMLBNADB@?6?$CF?$CKsZone?3?5?$CFs?0?5User?3?5@ 00000000000d8ae0     OpensslLib:v3_sxnet.obj
 0002:0003bc40       SXNETID_it                 00000000000d8b40     OpensslLib:v3_sxnet.obj
 0002:0003bcb0       SXNET_it                   00000000000d8bb0     OpensslLib:v3_sxnet.obj
 0002:0003bce0       v3_pci                     00000000000d8be0     OpensslLib:v3_pci.obj
 0002:0003bd48       ??_C@_0BG@IMLADBOH@?$CF?$CKsPolicy?5Text?3?5?$CF?4?$CKs?6@ 00000000000d8c48     OpensslLib:v3_pci.obj
 0002:0003bd60       ??_C@_08JGCCIMAA@language@ 00000000000d8c60     OpensslLib:v3_pci.obj
 0002:0003bd6c       ??_C@_04ODCMNEMO@hex?3@    00000000000d8c6c     OpensslLib:v3_pci.obj
 0002:0003bd74       ??_C@_05BOPHDICO@file?3@   00000000000d8c74     OpensslLib:v3_pci.obj
 0002:0003bd7c       ??_C@_05FHIGHPDA@text?3@   00000000000d8c7c     OpensslLib:v3_pci.obj
 0002:0003bd90       v3_tls_feature             00000000000d8c90     OpensslLib:v3_tlsf.obj
 0002:0003bdf8       ??_C@_0M@HGHOPPFP@TLS_FEATURE@ 00000000000d8cf8     OpensslLib:v3_tlsf.obj
 0002:0003be08       ??_C@_0P@NAKMKOPA@status_request@ 00000000000d8d08     OpensslLib:v3_tlsf.obj
 0002:0003be18       ??_C@_0BC@HEECFCMD@status_request_v2@ 00000000000d8d18     OpensslLib:v3_tlsf.obj
 0002:0003ce88       ??_C@_03JFFFKLGJ@C1x@      00000000000d9d88     OpensslLib:sm2_crypt.obj
 0002:0003ce8c       ??_C@_03IMEOJKCI@C1y@      00000000000d9d8c     OpensslLib:sm2_crypt.obj
 0002:0003ce90       ??_C@_02IGAJHAEE@C3@       00000000000d9d90     OpensslLib:sm2_crypt.obj
 0002:0003ce94       ??_C@_02JPBCEBAF@C2@       00000000000d9d94     OpensslLib:sm2_crypt.obj
 0002:0003ce98       ??_C@_0P@HHMLELMD@SM2_Ciphertext@ 00000000000d9d98     OpensslLib:sm2_crypt.obj
 0002:0003cf30       SM2_Ciphertext_it          00000000000d9e30     OpensslLib:sm2_crypt.obj
 0002:0003d7c0       PBEPARAM_it                00000000000da6c0     OpensslLib:p5_pbe.obj
 0002:0003d7f0       ??_C@_04BKLHDIKK@iter@     00000000000da6f0     OpensslLib:p5_pbe.obj
 0002:0003d7f8       ??_C@_08CKLJFNPB@PBEPARAM@ 00000000000da6f8     OpensslLib:p5_pbe.obj
 0002:0003d850       PBKDF2PARAM_it             00000000000da750     OpensslLib:p5_pbev2.obj
 0002:0003d880       PBE2PARAM_it               00000000000da780     OpensslLib:p5_pbev2.obj
 0002:0003d8b0       ??_C@_07KEPFKPDN@keyfunc@  00000000000da7b0     OpensslLib:p5_pbev2.obj
 0002:0003d8b8       ??_C@_0L@HBBFMHKN@encryption@ 00000000000da7b8     OpensslLib:p5_pbev2.obj
 0002:0003d8c8       ??_C@_09DHBCCKCK@PBE2PARAM@ 00000000000da7c8     OpensslLib:p5_pbev2.obj
 0002:0003d8d8       ??_C@_09PKJJLJJD@keylength@ 00000000000da7d8     OpensslLib:p5_pbev2.obj
 0002:0003d8e4       ??_C@_03NBFGPAGA@prf@      00000000000da7e4     OpensslLib:p5_pbev2.obj
 0002:0003d8e8       ??_C@_0M@DPMJHKGH@PBKDF2PARAM@ 00000000000da7e8     OpensslLib:p5_pbev2.obj
 0002:0003df40       ??_C@_09OJPHJNPC@fips_mode@ 00000000000dae40     OpensslLib:evp_cnf.obj
 0002:0003df50       ??_C@_0M@HEHLDANB@alg_section@ 00000000000dae50     OpensslLib:evp_cnf.obj
 0002:0003df60       ??_C@_0N@DJMJOKGL@stbl_section@ 00000000000dae60     OpensslLib:asn_mstbl.obj
 0002:0003df70       ??_C@_03KLIPLJLL@min@      00000000000dae70     OpensslLib:asn_mstbl.obj
 0002:0003df74       ??_C@_04LFLEPBN@mask@      00000000000dae74     OpensslLib:asn_mstbl.obj
 0002:0003df7c       ??_C@_06HCDOONEJ@nomask@   00000000000dae7c     OpensslLib:asn_mstbl.obj
 0002:0003df84       ??_C@_06KABKJMAI@field?$DN@ 00000000000dae84     OpensslLib:asn_mstbl.obj
 0002:0003df90       ??_C@_0M@HCKPEIO@oid_section@ 00000000000dae90     OpensslLib:asn_moid.obj
 0002:0003e060       curve448_scalar_zero       00000000000daf60     OpensslLib:scalar.obj
 0002:0003e0e0       curve448_scalar_one        00000000000dafe0     OpensslLib:scalar.obj
 0002:000435e0       ??_C@_0BB@KDJGCOOH@?$CFlu?3?$CFs?3?$CFs?3?$CFd?3?$CFs?6@ 00000000000e04e0     OpensslLib:err_prn.obj
 0002:000435f8       ??_C@_0BA@KGLEEAIB@OpenSSL?5NULL?5UI@ 00000000000e04f8     OpensslLib:ui_null.obj
 0002:00043680       _bignum_dh2048_224_q       00000000000e0580     OpensslLib:bn_dh.obj
 0002:00043698       _bignum_dh2048_256_g       00000000000e0598     OpensslLib:bn_dh.obj
 0002:000436b0       _bignum_dh1024_160_g       00000000000e05b0     OpensslLib:bn_dh.obj
 0002:000436c8       _bignum_dh2048_224_p       00000000000e05c8     OpensslLib:bn_dh.obj
 0002:000436e0       _bignum_dh2048_256_p       00000000000e05e0     OpensslLib:bn_dh.obj
 0002:000436f8       _bignum_dh2048_224_g       00000000000e05f8     OpensslLib:bn_dh.obj
 0002:00043710       _bignum_dh1024_160_p       00000000000e0610     OpensslLib:bn_dh.obj
 0002:00043728       _bignum_dh2048_256_q       00000000000e0628     OpensslLib:bn_dh.obj
 0002:00043740       _bignum_dh1024_160_q       00000000000e0640     OpensslLib:bn_dh.obj
 0002:00043758       _bignum_ffdhe4096_p        00000000000e0658     OpensslLib:bn_dh.obj
 0002:00043770       _bignum_ffdhe8192_p        00000000000e0670     OpensslLib:bn_dh.obj
 0002:00043788       _bignum_ffdhe2048_p        00000000000e0688     OpensslLib:bn_dh.obj
 0002:000437a0       _bignum_const_2            00000000000e06a0     OpensslLib:bn_dh.obj
 0002:000437b8       _bignum_ffdhe6144_p        00000000000e06b8     OpensslLib:bn_dh.obj
 0002:000437d0       _bignum_ffdhe3072_p        00000000000e06d0     OpensslLib:bn_dh.obj
 0002:000448d0       ??_C@_0CH@LGCIOEGA@UEFI?5Crypto?5Library?5default?5see@ 00000000000e17d0     BaseCryptLib:CryptRandTsc.obj
 0002:00044938       ??_C@_0BN@FHPHCJAL@BufferToSort?5?$CB?$DN?5?$CI?$CIvoid?5?$CK?$CJ?50?$CJ@ 00000000000e1838     BaseCryptLib:CrtWrapper.obj
 0002:00044960       ??_C@_0ED@BFHODHP@d?3?2myedk2?2edk2?2CryptoPkg?2Librar@ 00000000000e1860     BaseCryptLib:CrtWrapper.obj
 0002:000449a8       ??_C@_0CA@DJEMEKLN@CompareFunction?5?$CB?$DN?5?$CI?$CIvoid?5?$CK?$CJ?50?$CJ@ 00000000000e18a8     BaseCryptLib:CrtWrapper.obj
 0002:000449c8       ??_C@_0BD@IPPNMEE@s1?5?$CB?$DN?5?$CI?$CIvoid?5?$CK?$CJ?50?$CJ@ 00000000000e18c8     BaseCryptLib:CrtWrapper.obj
 0002:000449e0       ??_C@_0BD@OCHJABCG@s2?5?$CB?$DN?5?$CI?$CIvoid?5?$CK?$CJ?50?$CJ@ 00000000000e18e0     BaseCryptLib:CrtWrapper.obj
 0002:000449f8       ??_C@_0BF@MBPLIJNB@base?5?$CB?$DN?5?$CI?$CIvoid?5?$CK?$CJ?50?$CJ@ 00000000000e18f8     BaseCryptLib:CrtWrapper.obj
 0002:00044a10       ??_C@_0BI@BKNMBGLA@compare?5?$CB?$DN?5?$CI?$CIvoid?5?$CK?$CJ?50?$CJ@ 00000000000e1910     BaseCryptLib:CrtWrapper.obj
 0002:00044a30       CumulativeDays             00000000000e1930     BaseCryptLib:TimerWrapper.obj
 0002:00044b10       ??_C@_0EP@JFHHNCHN@OldPoolHdr?9?$DOSignature?5?$DN?$DN?5?$CI?$CI?$CI?8c?8@ 00000000000e1a10     BaseCryptLib:BaseMemAllocation.obj
 0002:00044b60       ??_C@_0EK@BIJBLFNJ@d?3?2myedk2?2edk2?2CryptoPkg?2Librar@ 00000000000e1a60     BaseCryptLib:BaseMemAllocation.obj
 0002:00044bb0       ??_C@_0EM@DCOKKDEG@PoolHdr?9?$DOSignature?5?$DN?$DN?5?$CI?$CI?$CI?8c?8?$CJ?5?$HM@ 00000000000e1ab0     BaseCryptLib:BaseMemAllocation.obj
 0002:00044c00       ??_C@_0DL@JEBMKBEC@d?3?2myedk2?2edk2?2MdePkg?2Library?2B@ 00000000000e1b00     BaseLib:DivU64x32Remainder.obj
 0002:00044c40       ??_C@_0CC@JOEHDGKB@DestinationBuffer?5?$CB?$DN?5?$CI?$CIvoid?5?$CK?$CJ?5@ 00000000000e1b40     BaseMemoryLibRepStr:CompareMemWrapper.obj
 0002:00044c70       ??_C@_0EG@FCOMBDPM@d?3?2myedk2?2edk2?2MdePkg?2Library?2B@ 00000000000e1b70     BaseMemoryLibRepStr:CompareMemWrapper.obj
 0002:00044cb8       ??_C@_0BN@MDMCNBCC@SourceBuffer?5?$CB?$DN?5?$CI?$CIvoid?5?$CK?$CJ?50?$CJ@ 00000000000e1bb8     BaseMemoryLibRepStr:CompareMemWrapper.obj
 0002:00044ce0       ??_C@_0EE@KPJOBFDM@d?3?2myedk2?2edk2?2MdePkg?2Library?2B@ 00000000000e1be0     BaseMemoryLibRepStr:ScanMem8Wrapper.obj
 0002:00044d28       ??_C@_0DJ@PLEMCDAL@d?3?2myedk2?2edk2?2MdePkg?2Library?2B@ 00000000000e1c28     BaseIoLibIntrinsicSev:IoLib.obj
 0002:00044d68       ??_C@_0DP@DAHOLNJI@d?3?2myedk2?2edk2?2MdePkg?2Library?2B@ 00000000000e1c68     BaseRngLibTimerLib:RngLibTimer.obj
 0002:00044da8       ??_C@_0BF@NGOMKDDB@Rand?5?$CB?$DN?5?$CI?$CIvoid?5?$CK?$CJ?50?$CJ@ 00000000000e1ca8     BaseRngLibTimerLib:RngLibTimer.obj
 0002:00044dc0       __real@4020000000000000    00000000000e1cc0     OpensslLib:drbg_lib.obj
 0002:00044dc8       __real@43e0000000000000    00000000000e1cc8     OpensslLib:drbg_lib.obj
 0002:00044dd0       __xmm@00000003000000020000000100000000 00000000000e1cd0     OpensslLib:f_generic.obj
 0002:00044de0       __xmm@00000008000000080000000800000008 00000000000e1ce0     OpensslLib:f_generic.obj
 0002:00044df0       __xmm@36363636363636363636363636363636 00000000000e1cf0     OpensslLib:hmac.obj
 0002:00044e00       __xmm@5c5c5c5c5c5c5c5c5c5c5c5c5c5c5c5c 00000000000e1d00     OpensslLib:hmac.obj
 0002:00044eb4       __volatile_metadata        00000000000e1db4     <linker-defined>
 0003:00000000       _fltused                   00000000000e26c0     BaseIntrinsicLib:MemoryIntrinsics.obj
 0003:00000008       gEfiLoadedImageProtocolGuid 00000000000e26c8     TlsDxe:AutoGen.obj
 0003:00000018       gEfiTlsProtocolGuid        00000000000e26d8     TlsDxe:AutoGen.obj
 0003:00000028       gEfiTlsServiceBindingProtocolGuid 00000000000e26e8     TlsDxe:AutoGen.obj
 0003:00000038       gPcdProtocolGuid           00000000000e26f8     TlsDxe:AutoGen.obj
 0003:00000048       gUefiOvmfPkgPlatformInfoGuid 00000000000e2708     TlsDxe:AutoGen.obj
 0003:00000058       gEfiDevicePathUtilitiesProtocolGuid 00000000000e2718     TlsDxe:AutoGen.obj
 0003:00000068       gEfiHobListGuid            00000000000e2728     TlsDxe:AutoGen.obj
 0003:00000078       gEfiTlsConfigurationProtocolGuid 00000000000e2738     TlsDxe:AutoGen.obj
 0003:00000088       mTlsServiceBinding         00000000000e2748     TlsDxe:TlsDriver.obj
 0003:00000098       mTlsProtocol               00000000000e2758     TlsDxe:TlsProtocol.obj
 0003:000000b8       mTlsConfigurationProtocol  00000000000e2778     TlsDxe:TlsConfigProtocol.obj
 0003:00002f00       rand_meth                  00000000000e55c0     OpensslLib:drbg_lib.obj
 0003:00003570       gST                        00000000000e5c30     UefiBootServicesTableLib:UefiBootServicesTableLib.obj
 0003:00003578       gBS                        00000000000e5c38     UefiBootServicesTableLib:UefiBootServicesTableLib.obj
 0003:00003580       gImageHandle               00000000000e5c40     UefiBootServicesTableLib:UefiBootServicesTableLib.obj
 0003:00003588       mDevicePathLibDevicePathUtilities 00000000000e5c48     UefiDevicePathLibDevicePathProtocol:UefiDevicePathLib.obj
 0003:00003590       gRT                        00000000000e5c50     UefiRuntimeServicesTableLib:UefiRuntimeServicesTableLib.obj
 0003:00003598       mHobList                   00000000000e5c58     DxeHobLib:HobLib.obj
 0003:000035a0       mPcd                       00000000000e5c60     DxePcdLib:DxePcdLib.obj
 0003:000035a8       gParity                    00000000000e5c68     PcAtSerialPortLib:SerialPortLib.obj
 0003:000035a9       gBreakSet                  00000000000e5c69     PcAtSerialPortLib:SerialPortLib.obj
 0003:00003778       errno                      00000000000e5e38     BaseCryptLib:CrtWrapper.obj

 entry point at        0001:000003a4

 Static symbols

 0001:0000001a       InternalMemCopyMem.0       00000000000002da     BaseMemoryLibRepStr:CopyMem.obj
 0001:0000002a       @CopyBackward              00000000000002ea     BaseMemoryLibRepStr:CopyMem.obj
 0001:00000033       @CopyBytes                 00000000000002f3     BaseMemoryLibRepStr:CopyMem.obj
 0001:0000012e       TdVmCall.no_return_data    00000000000003ee     BaseLib:TdVmcall.obj
 0001:0000026b       TdCall.exit                000000000000052b     BaseLib:TdCall.obj
 0001:0000569c       tlsa_free                  000000000000595c f   OpensslLib:ssl_lib.obj
 0001:000056cc       dane_final                 000000000000598c f   OpensslLib:ssl_lib.obj
 0001:00005724       ssl_check_allowed_versions 00000000000059e4 f   OpensslLib:ssl_lib.obj
 0001:0000580c       clear_ciphers              0000000000005acc f   OpensslLib:ssl_lib.obj
 0001:000067f0       ssl_start_async_job        0000000000006ab0 f   OpensslLib:ssl_lib.obj
 0001:000068c0       ssl_io_intern              0000000000006b80 f   OpensslLib:ssl_lib.obj
 0001:000072c0       ssl_session_hash           0000000000007580 f   OpensslLib:ssl_lib.obj
 0001:00007334       ssl_session_cmp            00000000000075f4 f   OpensslLib:ssl_lib.obj
 0001:00007ec4       ssl_do_handshake_intern    0000000000008184 f   OpensslLib:ssl_lib.obj
 0001:00008128       ssl_cipher_id_cmp_BSEARCH_CMP_FN 00000000000083e8 f   OpensslLib:ssl_lib.obj
 0001:0000813c       nss_keylog_int             00000000000083fc f   OpensslLib:ssl_lib.obj
 0001:00008758       ossl_init_ssl_base_ossl_   0000000000008a18 f   OpensslLib:ssl_init.obj
 0001:000088e8       ssl_library_stop           0000000000008ba8 f   OpensslLib:ssl_init.obj
 0001:00008c40       mem_init                   0000000000008f00 f   OpensslLib:bss_mem.obj
 0001:00008cd4       mem_new                    0000000000008f94 f   OpensslLib:bss_mem.obj
 0001:00008cdc       secmem_new                 0000000000008f9c f   OpensslLib:bss_mem.obj
 0001:00008ce8       mem_free                   0000000000008fa8 f   OpensslLib:bss_mem.obj
 0001:00008d20       mem_buf_free               0000000000008fe0 f   OpensslLib:bss_mem.obj
 0001:00008dc8       mem_buf_sync               0000000000009088 f   OpensslLib:bss_mem.obj
 0001:00008e24       mem_read                   00000000000090e4 f   OpensslLib:bss_mem.obj
 0001:00008eb4       mem_write                  0000000000009174 f   OpensslLib:bss_mem.obj
 0001:00008f7c       mem_ctrl                   000000000000923c f   OpensslLib:bss_mem.obj
 0001:000090f0       mem_gets                   00000000000093b0 f   OpensslLib:bss_mem.obj
 0001:0000916c       mem_puts                   000000000000942c f   OpensslLib:bss_mem.obj
 0001:00009210       x509_object_cmp            00000000000094d0 f   OpensslLib:x509_lu.obj
 0001:0000970c       x509_store_add             00000000000099cc f   OpensslLib:x509_lu.obj
 0001:00009840       x509_object_idx_cnt        0000000000009b00 f   OpensslLib:x509_lu.obj
 0001:0000a070       bio_call_callback          000000000000a330 f   OpensslLib:bio_lib.obj
 0001:0000a2f4       bio_read_intern            000000000000a5b4 f   OpensslLib:bio_lib.obj
 0001:0000a420       bio_write_intern           000000000000a6e0 f   OpensslLib:bio_lib.obj
 0001:0000acf0       sk_table_cmp               000000000000afb0 f   OpensslLib:a_strnid.obj
 0001:0000acf0       ameth_cmp_BSEARCH_CMP_FN   000000000000afb0 f   OpensslLib:ameth_lib.obj
 0001:0000acf0       pmeth_cmp_BSEARCH_CMP_FN   000000000000afb0 f   OpensslLib:pmeth_lib.obj
 0001:0000acf0       ext_cmp_BSEARCH_CMP_FN     000000000000afb0 f   OpensslLib:v3_lib.obj
 0001:0000acf0       sk_comp_cmp                000000000000afb0 f   OpensslLib:ssl_ciph.obj
 0001:0000ad00       do_load_builtin_compressions_ossl_ 000000000000afc0 f   OpensslLib:ssl_ciph.obj
 0001:0000b080       ssl_cipher_collect_ciphers 000000000000b340 f   OpensslLib:ssl_ciph.obj
 0001:0000b1f8       ssl_cipher_apply_rule      000000000000b4b8 f   OpensslLib:ssl_ciph.obj
 0001:0000b548       ssl_cipher_strength_sort   000000000000b808 f   OpensslLib:ssl_ciph.obj
 0001:0000b648       ssl_cipher_process_rulestr 000000000000b908 f   OpensslLib:ssl_ciph.obj
 0001:0000ba90       check_suiteb_cipher_list   000000000000bd50 f   OpensslLib:ssl_ciph.obj
 0001:0000bbc8       ciphersuite_cb             000000000000be88 f   OpensslLib:ssl_ciph.obj
 0001:0000bc50       set_ciphersuites           000000000000bf10 f   OpensslLib:ssl_ciph.obj
 0001:0000bce4       update_cipher_list_by_id   000000000000bfa4 f   OpensslLib:ssl_ciph.obj
 0001:0000bd54       update_cipher_list         000000000000c014 f   OpensslLib:ssl_ciph.obj
 0001:0000c5f8       by_dir_hash_free           000000000000c8b8 f   OpensslLib:by_dir.obj
 0001:0000c5f8       str_free                   000000000000c8b8 f   OpensslLib:x509_vpm.obj
 0001:0000c5f8       cmeth_free                 000000000000c8b8 f   OpensslLib:ssl_ciph.obj
 0001:0000cc28       def_generate_session_id    000000000000cee8 f   OpensslLib:ssl_sess.obj
 0001:0000d4c4       remove_session_lock        000000000000d784 f   OpensslLib:ssl_sess.obj
 0001:0000d65c       timeout_cb                 000000000000d91c f   OpensslLib:ssl_sess.obj
 0001:0000d76c       SSL_SESSION_list_remove    000000000000da2c f   OpensslLib:ssl_sess.obj
 0001:0000d7f8       PACKET_get_net_4           000000000000dab8 f   OpensslLib:ssl_rsa.obj
 0001:0000d7f8       PACKET_get_net_4           000000000000dab8 f   OpensslLib:extensions_srvr.obj
 0001:0000d7f8       PACKET_get_net_4           000000000000dab8 f   OpensslLib:statem_clnt.obj
 0001:0000d848       PACKET_get_length_prefixed_2 000000000000db08 f   OpensslLib:ssl_rsa.obj
 0001:0000d924       ssl_set_pkey               000000000000dbe4 f   OpensslLib:ssl_rsa.obj
 0001:0000db34       ssl_set_cert               000000000000ddf4 f   OpensslLib:ssl_rsa.obj
 0001:0000dd20       use_certificate_chain_file 000000000000dfe0 f   OpensslLib:ssl_rsa.obj
 0001:0000df4c       serverinfo_find_extension  000000000000e20c f   OpensslLib:ssl_rsa.obj
 0001:0000e034       serverinfoex_srv_parse_cb  000000000000e2f4 f   OpensslLib:ssl_rsa.obj
 0001:0000e050       serverinfo_srv_parse_cb    000000000000e310 f   OpensslLib:ssl_rsa.obj
 0001:0000e06c       serverinfoex_srv_add_cb    000000000000e32c f   OpensslLib:ssl_rsa.obj
 0001:0000e0dc       serverinfo_srv_add_cb      000000000000e39c f   OpensslLib:ssl_rsa.obj
 0001:0000e11c       serverinfo_process_buffer  000000000000e3dc f   OpensslLib:ssl_rsa.obj
 0001:0000e900       x509_cb                    000000000000ebc0 f   OpensslLib:x_x509.obj
 0001:0000ecd0       sk_OPENSSL_STRING_deep_copy 000000000000ef90 f   OpensslLib:x509_vpm.obj
 0001:0000ee1c       str_copy                   000000000000f0dc f   OpensslLib:x509_vpm.obj
 0001:0000ee24       int_x509_param_set_hosts   000000000000f0e4 f   OpensslLib:x509_vpm.obj
 0001:0000f258       int_x509_param_set1        000000000000f518 f   OpensslLib:x509_vpm.obj
 0001:0000f434       table_cmp_BSEARCH_CMP_FN   000000000000f6f4 f   OpensslLib:x509_vpm.obj
 0001:0000f4c0       err_string_data_hash       000000000000f780 f   OpensslLib:err.obj
 0001:0000f4fc       err_string_data_cmp        000000000000f7bc f   OpensslLib:err.obj
 0001:0000f510       ERR_STATE_free             000000000000f7d0 f   OpensslLib:err.obj
 0001:0000f580       do_err_strings_init_ossl_  000000000000f840 f   OpensslLib:err.obj
 0001:0000f7bc       get_error_values           000000000000fa7c f   OpensslLib:err.obj
 0001:0000fc00       err_do_init_ossl_          000000000000fec0 f   OpensslLib:err.obj
 0001:0000fd30       err_set_error_data_int     000000000000fff0 f   OpensslLib:err.obj
 0001:000100f4       state_machine              00000000000103b4 f   OpensslLib:statem.obj
 0001:00010470       read_state_machine         0000000000010730 f   OpensslLib:statem.obj
 0001:0001079c       write_state_machine        0000000000010a5c f   OpensslLib:statem.obj
 0001:00010dc4       evp_EncryptDecryptUpdate   0000000000011084 f   OpensslLib:evp_enc.obj
 0001:000115c4       cleanup_old_md_data        0000000000011884 f   OpensslLib:digest.obj
 0001:00011aa8       sk_reserve                 0000000000011d68 f   OpensslLib:stack.obj
 0001:00011c88       internal_delete            0000000000011f48 f   OpensslLib:stack.obj
 0001:00011cdc       internal_find              0000000000011f9c f   OpensslLib:stack.obj
 0001:00011e3c       ssl_x509_store_ctx_init_ossl_ 00000000000120fc f   OpensslLib:ssl_cert.obj
 0001:00012b00       xname_cmp                  0000000000012dc0 f   OpensslLib:ssl_cert.obj
 0001:00012c98       xname_sk_cmp               0000000000012f58 f   OpensslLib:ssl_cert.obj
 0001:000131d4       ssl_security_default_callback 0000000000013494 f   OpensslLib:ssl_cert.obj
 0001:00015440       doall_util_fn              0000000000015700 f   OpensslLib:lhash.obj
 0001:000154c0       expand                     0000000000015780 f   OpensslLib:lhash.obj
 0001:000155ac       getrn                      000000000001586c f   OpensslLib:lhash.obj
 0001:00015b50       nid_cb                     0000000000015e10 f   OpensslLib:t1_lib.obj
 0001:00015d5c       tls1_get_group_id          000000000001601c f   OpensslLib:t1_lib.obj
 0001:00015da8       tls1_check_pkey_comp       0000000000016068 f   OpensslLib:t1_lib.obj
 0001:00015f44       tls1_check_cert_param      0000000000016204 f   OpensslLib:t1_lib.obj
 0001:0001606c       rsa_pss_check_min_key_size 000000000001632c f   OpensslLib:t1_lib.obj
 0001:000160cc       tls1_get_legacy_sigalg     000000000001638c f   OpensslLib:t1_lib.obj
 0001:00016318       sigalg_security_bits       00000000000165d8 f   OpensslLib:t1_lib.obj
 0001:00016e08       tls12_sigalg_allowed       00000000000170c8 f   OpensslLib:t1_lib.obj
 0001:000171c4       tls12_shared_sigalgs       0000000000017484 f   OpensslLib:t1_lib.obj
 0001:000175e0       get_sigorhash              00000000000178a0 f   OpensslLib:t1_lib.obj
 0001:000176a0       sig_cb                     0000000000017960 f   OpensslLib:t1_lib.obj
 0001:00017a58       tls1_check_sig_alg         0000000000017d18 f   OpensslLib:t1_lib.obj
 0001:00017b5c       ssl_check_ca_name          0000000000017e1c f   OpensslLib:t1_lib.obj
 0001:00018250       ssl_security_cert_key      0000000000018510 f   OpensslLib:t1_lib.obj
 0001:000184dc       check_cert_usable          000000000001879c f   OpensslLib:t1_lib.obj
 0001:000185e0       find_sig_alg               00000000000188a0 f   OpensslLib:t1_lib.obj
 0001:00018b94       async_release_job          0000000000018e54 f   OpensslLib:async.obj
 0001:00018e98       async_empty_pool           0000000000019158 f   OpensslLib:async.obj
 0001:0001900c       pubkey_cb                  00000000000192cc f   OpensslLib:x_pubkey.obj
 0001:00019070       x509_pubkey_decode         0000000000019330 f   OpensslLib:x_pubkey.obj
 0001:00019500       check_suite_b              00000000000197c0 f   OpensslLib:x509_cmp.obj
 0001:0001983c       sec_alloc_realloc          0000000000019afc f   OpensslLib:buffer.obj
 0001:00019ef4       ssl_do_config              000000000001a1b4 f   OpensslLib:ssl_mcnf.obj
 0001:0001a3a8       do_rand_init_ossl_         000000000001a668 f   OpensslLib:rand_lib.obj
 0001:0001a570       rand_pool_grow             000000000001a830 f   OpensslLib:rand_lib.obj
 0001:0001acd8       pkey_set_type              000000000001af98 f   OpensslLib:p_lib.obj
 0001:0001afe0       PACKET_get_net_2           000000000001b2a0 f   OpensslLib:statem_srvr.obj
 0001:0001b018       PACKET_copy_bytes          000000000001b2d8 f   OpensslLib:statem_clnt.obj
 0001:0001b018       PACKET_copy_bytes          000000000001b2d8 f   OpensslLib:statem_srvr.obj
 0001:0001b058       PACKET_get_length_prefixed_1 000000000001b318 f   OpensslLib:extensions_clnt.obj
 0001:0001b058       PACKET_get_length_prefixed_1 000000000001b318 f   OpensslLib:extensions_srvr.obj
 0001:0001b058       PACKET_get_length_prefixed_1 000000000001b318 f   OpensslLib:statem_clnt.obj
 0001:0001b058       PACKET_get_length_prefixed_1 000000000001b318 f   OpensslLib:statem_srvr.obj
 0001:0001b0c0       PACKET_get_length_prefixed_2 000000000001b380 f   OpensslLib:statem_srvr.obj
 0001:0001b12c       ossl_statem_server13_read_transition 000000000001b3ec f   OpensslLib:statem_srvr.obj
 0001:0001b46c       ossl_statem_server13_write_transition 000000000001b72c f   OpensslLib:statem_srvr.obj
 0001:0001c2d0       ssl_check_for_safari       000000000001c590 f   OpensslLib:statem_srvr.obj
 0001:0001c874       tls_early_post_process_client_hello 000000000001cb34 f   OpensslLib:statem_srvr.obj
 0001:0001d438       tls_handle_status_request  000000000001d6f8 f   OpensslLib:statem_srvr.obj
 0001:0001e814       tls_process_cke_psk_preamble 000000000001ead4 f   OpensslLib:statem_srvr.obj
 0001:0001e98c       tls_process_cke_rsa        000000000001ec4c f   OpensslLib:statem_srvr.obj
 0001:0001ec3c       tls_process_cke_dhe        000000000001eefc f   OpensslLib:statem_srvr.obj
 0001:0001edc8       tls_process_cke_ecdhe      000000000001f088 f   OpensslLib:statem_srvr.obj
 0001:0001f6dc       create_ticket_prequel      000000000001f99c f   OpensslLib:statem_srvr.obj
 0001:0001f7e0       construct_stateless_ticket 000000000001faa0 f   OpensslLib:statem_srvr.obj
 0001:000201b8       tls_construct_encrypted_extensions 0000000000020478 f   OpensslLib:statem_srvr.obj
 0001:00020298       table_cmp_BSEARCH_CMP_FN   0000000000020558 f   OpensslLib:a_strnid.obj
 0001:00020298       sig_cmp_BSEARCH_CMP_FN     0000000000020558 f   OpensslLib:obj_xref.obj
 0001:00020298       nid_cmp_BSEARCH_CMP_FN     0000000000020558 f   OpensslLib:v3_purp.obj
 0001:000202a0       check_sig_alg_match        0000000000020560 f   OpensslLib:v3_purp.obj
 0001:00020358       x509v3_cache_extensions    0000000000020618 f   OpensslLib:v3_purp.obj
 0001:00020a9c       check_ca                   0000000000020d5c f   OpensslLib:v3_purp.obj
 0001:00020afc       check_purpose_ssl_client   0000000000020dbc f   OpensslLib:v3_purp.obj
 0001:00020b6c       check_purpose_ssl_server   0000000000020e2c f   OpensslLib:v3_purp.obj
 0001:00020bdc       check_purpose_ns_ssl_server 0000000000020e9c f   OpensslLib:v3_purp.obj
 0001:00020c18       purpose_smime              0000000000020ed8 f   OpensslLib:v3_purp.obj
 0001:00020c74       check_purpose_smime_sign   0000000000020f34 f   OpensslLib:v3_purp.obj
 0001:00020cb0       check_purpose_smime_encrypt 0000000000020f70 f   OpensslLib:v3_purp.obj
 0001:00020cec       check_purpose_crl_sign     0000000000020fac f   OpensslLib:v3_purp.obj
 0001:00020d24       ocsp_helper                0000000000020fe4 f   OpensslLib:v3_purp.obj
 0001:00020d38       check_purpose_timestamp_sign 0000000000020ff8 f   OpensslLib:v3_purp.obj
 0001:00020dc4       ecx_cmp_parameters         0000000000021084 f   OpensslLib:ecx_meth.obj
 0001:00020dc4       null_init_key              0000000000021084 f   OpensslLib:e_null.obj
 0001:00020dc4       final                      0000000000021084 f   OpensslLib:m_null.obj
 0001:00020dc4       init                       0000000000021084 f   OpensslLib:m_null.obj
 0001:00020dc4       update                     0000000000021084 f   OpensslLib:m_null.obj
 0001:00020dc4       i2r_ocsp_nocheck           0000000000021084 f   OpensslLib:v3_ocsp.obj
 0001:00020dc4       no_check                   0000000000021084 f   OpensslLib:v3_purp.obj
 0001:00020fdc       x509_name_ex_new           000000000002129c f   OpensslLib:x_name.obj
 0001:00021070       x509_name_ex_free          0000000000021330 f   OpensslLib:x_name.obj
 0001:000210c4       local_sk_X509_NAME_ENTRY_free 0000000000021384 f   OpensslLib:x_name.obj
 0001:000210e8       local_sk_X509_NAME_ENTRY_pop_free 00000000000213a8 f   OpensslLib:x_name.obj
 0001:000210f4       x509_name_ex_d2i           00000000000213b4 f   OpensslLib:x_name.obj
 0001:000213c8       x509_name_ex_i2d           0000000000021688 f   OpensslLib:x_name.obj
 0001:00021430       x509_name_encode           00000000000216f0 f   OpensslLib:x_name.obj
 0001:000215bc       x509_name_ex_print         000000000002187c f   OpensslLib:x_name.obj
 0001:00021604       x509_name_canon            00000000000218c4 f   OpensslLib:x_name.obj
 0001:00021818       asn1_string_canon          0000000000021ad8 f   OpensslLib:x_name.obj
 0001:0002197c       i2d_name_canon             0000000000021c3c f   OpensslLib:x_name.obj
 0001:00021b38       custom_ext_add_old_cb_wrap 0000000000021df8 f   OpensslLib:extensions_cust.obj
 0001:00021b38       custom_ext_parse_old_cb_wrap 0000000000021df8 f   OpensslLib:extensions_cust.obj
 0001:00021b78       custom_ext_free_old_cb_wrap 0000000000021e38 f   OpensslLib:extensions_cust.obj
 0001:00022150       add_custom_ext_intern      0000000000022410 f   OpensslLib:extensions_cust.obj
 0001:000222d0       add_old_custom_ext         0000000000022590 f   OpensslLib:extensions_cust.obj
 0001:000223d0       sn_cmp_BSEARCH_CMP_FN      0000000000022690 f   OpensslLib:obj_dat.obj
 0001:000223ec       ln_cmp_BSEARCH_CMP_FN      00000000000226ac f   OpensslLib:obj_dat.obj
 0001:0002240c       added_obj_hash             00000000000226cc f   OpensslLib:obj_dat.obj
 0001:000224d0       added_obj_cmp              0000000000022790 f   OpensslLib:obj_dat.obj
 0001:0002289c       obj_cmp_BSEARCH_CMP_FN     0000000000022b5c f   OpensslLib:obj_dat.obj
 0001:00023070       do_ex_data_init_ossl_      0000000000023330 f   OpensslLib:ex_data.obj
 0001:000230b8       get_and_lock               0000000000023378 f   OpensslLib:ex_data.obj
 0001:00023914       buffer_new                 0000000000023bd4 f   OpensslLib:bf_buff.obj
 0001:000239b0       buffer_free                0000000000023c70 f   OpensslLib:bf_buff.obj
 0001:00023a04       buffer_read                0000000000023cc4 f   OpensslLib:bf_buff.obj
 0001:00023b6c       buffer_write               0000000000023e2c f   OpensslLib:bf_buff.obj
 0001:00023d1c       buffer_ctrl                0000000000023fdc f   OpensslLib:bf_buff.obj
 0001:000240e0       buffer_callback_ctrl       00000000000243a0 f   OpensslLib:bf_buff.obj
 0001:000240f4       buffer_gets                00000000000243b4 f   OpensslLib:bf_buff.obj
 0001:000241fc       buffer_puts                00000000000244bc f   OpensslLib:bf_buff.obj
 0001:00024374       dir_ctrl                   0000000000024634 f   OpensslLib:by_dir.obj
 0001:000243cc       new_dir                    000000000002468c f   OpensslLib:by_dir.obj
 0001:00024470       by_dir_hash_cmp            0000000000024730 f   OpensslLib:by_dir.obj
 0001:00024488       by_dir_entry_free          0000000000024748 f   OpensslLib:by_dir.obj
 0001:000244b8       free_dir                   0000000000024778 f   OpensslLib:by_dir.obj
 0001:000244f8       add_cert_dir               00000000000247b8 f   OpensslLib:by_dir.obj
 0001:000246cc       get_cert_by_subject        000000000002498c f   OpensslLib:by_dir.obj
 0001:0002558c       derive_secret_key_and_iv   000000000002584c f   OpensslLib:tls13_enc.obj
 0001:000262e4       PACKET_get_net_2           00000000000265a4 f   OpensslLib:extensions_clnt.obj
 0001:000262e4       PACKET_get_net_2           00000000000265a4 f   OpensslLib:extensions_srvr.obj
 0001:000262e4       PACKET_get_net_2           00000000000265a4 f   OpensslLib:statem_clnt.obj
 0001:000262e4       PACKET_get_net_2           00000000000265a4 f   OpensslLib:statem_lib.obj
 0001:00026700       get_cert_verify_tbs_data   00000000000269c0 f   OpensslLib:statem_lib.obj
 0001:000277c0       ssl_add_cert_to_wpacket    0000000000027a80 f   OpensslLib:statem_lib.obj
 0001:000278b4       ssl_add_cert_chain         0000000000027b74 f   OpensslLib:statem_lib.obj
 0001:000282e8       version_cmp                00000000000285a8 f   OpensslLib:statem_lib.obj
 0001:00028338       ssl_method_error           00000000000285f8 f   OpensslLib:statem_lib.obj
 0001:000283ec       is_tls13_capable           00000000000286ac f   OpensslLib:statem_lib.obj
 0001:000286cc       check_for_downgrade        000000000002898c f   OpensslLib:statem_lib.obj
 0001:00028e74       ca_dn_cmp                  0000000000029134 f   OpensslLib:statem_lib.obj
 0001:00029384       by_file_ctrl               0000000000029644 f   OpensslLib:by_file.obj
 0001:0002955c       aes_init_key               000000000002981c f   OpensslLib:e_aes.obj
 0001:00029614       aes_cbc_cipher             00000000000298d4 f   OpensslLib:e_aes.obj
 0001:00029680       aes_ecb_cipher             0000000000029940 f   OpensslLib:e_aes.obj
 0001:000296f8       aes_ofb_cipher             00000000000299b8 f   OpensslLib:e_aes.obj
 0001:00029758       aes_cfb_cipher             0000000000029a18 f   OpensslLib:e_aes.obj
 0001:000297c0       aes_cfb8_cipher            0000000000029a80 f   OpensslLib:e_aes.obj
 0001:00029820       aes_cfb1_cipher            0000000000029ae0 f   OpensslLib:e_aes.obj
 0001:00029954       aes_ctr_cipher             0000000000029c14 f   OpensslLib:e_aes.obj
 0001:000299e8       aes_gcm_cleanup            0000000000029ca8 f   OpensslLib:e_aes.obj
 0001:00029a40       aes_gcm_ctrl               0000000000029d00 f   OpensslLib:e_aes.obj
 0001:00029e28       aes_gcm_init_key           000000000002a0e8 f   OpensslLib:e_aes.obj
 0001:00029f20       aes_gcm_tls_cipher         000000000002a1e0 f   OpensslLib:e_aes.obj
 0001:0002a06c       aes_gcm_cipher             000000000002a32c f   OpensslLib:e_aes.obj
 0001:0002a164       aes_xts_ctrl               000000000002a424 f   OpensslLib:e_aes.obj
 0001:0002a1d4       aes_xts_init_key           000000000002a494 f   OpensslLib:e_aes.obj
 0001:0002a320       aes_xts_cipher             000000000002a5e0 f   OpensslLib:e_aes.obj
 0001:0002a3b8       aes_ccm_ctrl               000000000002a678 f   OpensslLib:e_aes.obj
 0001:0002a5dc       aes_ccm_init_key           000000000002a89c f   OpensslLib:e_aes.obj
 0001:0002a694       aes_ccm_tls_cipher         000000000002a954 f   OpensslLib:e_aes.obj
 0001:0002a874       aes_ccm_cipher             000000000002ab34 f   OpensslLib:e_aes.obj
 0001:0002aaa8       aes_wrap_init_key          000000000002ad68 f   OpensslLib:e_aes.obj
 0001:0002ab44       aes_wrap_cipher            000000000002ae04 f   OpensslLib:e_aes.obj
 0001:0002ace8       init                       000000000002afa8 f   OpensslLib:m_sha1.obj
 0001:0002acf4       update                     000000000002afb4 f   OpensslLib:m_sha1.obj
 0001:0002ad00       final                      000000000002afc0 f   OpensslLib:m_sha1.obj
 0001:0002ad10       ctrl                       000000000002afd0 f   OpensslLib:m_sha1.obj
 0001:0002ae24       init224                    000000000002b0e4 f   OpensslLib:m_sha1.obj
 0001:0002ae30       update224                  000000000002b0f0 f   OpensslLib:m_sha1.obj
 0001:0002ae30       update256                  000000000002b0f0 f   OpensslLib:m_sha1.obj
 0001:0002ae3c       final224                   000000000002b0fc f   OpensslLib:m_sha1.obj
 0001:0002ae3c       final256                   000000000002b0fc f   OpensslLib:m_sha1.obj
 0001:0002ae4c       init256                    000000000002b10c f   OpensslLib:m_sha1.obj
 0001:0002ae58       init512_224                000000000002b118 f   OpensslLib:m_sha1.obj
 0001:0002aeec       init512_256                000000000002b1ac f   OpensslLib:m_sha1.obj
 0001:0002af80       init384                    000000000002b240 f   OpensslLib:m_sha1.obj
 0001:0002af8c       update384                  000000000002b24c f   OpensslLib:m_sha1.obj
 0001:0002af8c       update512                  000000000002b24c f   OpensslLib:m_sha1.obj
 0001:0002af98       final384                   000000000002b258 f   OpensslLib:m_sha1.obj
 0001:0002af98       final512                   000000000002b258 f   OpensslLib:m_sha1.obj
 0001:0002afa8       init512                    000000000002b268 f   OpensslLib:m_sha1.obj
 0001:0002afb4       aria_init_key              000000000002b274 f   OpensslLib:e_aria.obj
 0001:0002b020       aria_128_cbc_cipher        000000000002b2e0 f   OpensslLib:e_aria.obj
 0001:0002b020       aria_192_cbc_cipher        000000000002b2e0 f   OpensslLib:e_aria.obj
 0001:0002b020       aria_256_cbc_cipher        000000000002b2e0 f   OpensslLib:e_aria.obj
 0001:0002b0f4       aria_128_cfb128_cipher     000000000002b3b4 f   OpensslLib:e_aria.obj
 0001:0002b0f4       aria_192_cfb128_cipher     000000000002b3b4 f   OpensslLib:e_aria.obj
 0001:0002b0f4       aria_256_cfb128_cipher     000000000002b3b4 f   OpensslLib:e_aria.obj
 0001:0002b1a4       aria_128_ecb_cipher        000000000002b464 f   OpensslLib:e_aria.obj
 0001:0002b1a4       aria_192_ecb_cipher        000000000002b464 f   OpensslLib:e_aria.obj
 0001:0002b1a4       aria_256_ecb_cipher        000000000002b464 f   OpensslLib:e_aria.obj
 0001:0002b21c       aria_128_ofb_cipher        000000000002b4dc f   OpensslLib:e_aria.obj
 0001:0002b21c       aria_192_ofb_cipher        000000000002b4dc f   OpensslLib:e_aria.obj
 0001:0002b21c       aria_256_ofb_cipher        000000000002b4dc f   OpensslLib:e_aria.obj
 0001:0002b31c       aria_128_cfb1_cipher       000000000002b5dc f   OpensslLib:e_aria.obj
 0001:0002b31c       aria_192_cfb1_cipher       000000000002b5dc f   OpensslLib:e_aria.obj
 0001:0002b31c       aria_256_cfb1_cipher       000000000002b5dc f   OpensslLib:e_aria.obj
 0001:0002b3d8       aria_128_cfb8_cipher       000000000002b698 f   OpensslLib:e_aria.obj
 0001:0002b3d8       aria_192_cfb8_cipher       000000000002b698 f   OpensslLib:e_aria.obj
 0001:0002b3d8       aria_256_cfb8_cipher       000000000002b698 f   OpensslLib:e_aria.obj
 0001:0002b484       aria_ctr_cipher            000000000002b744 f   OpensslLib:e_aria.obj
 0001:0002b4ec       aria_gcm_init_key          000000000002b7ac f   OpensslLib:e_aria.obj
 0001:0002b608       aria_gcm_ctrl              000000000002b8c8 f   OpensslLib:e_aria.obj
 0001:0002b9f0       aria_gcm_tls_cipher        000000000002bcb0 f   OpensslLib:e_aria.obj
 0001:0002bb34       aria_gcm_cipher            000000000002bdf4 f   OpensslLib:e_aria.obj
 0001:0002bc0c       aria_gcm_cleanup           000000000002becc f   OpensslLib:e_aria.obj
 0001:0002bc38       aria_ccm_init_key          000000000002bef8 f   OpensslLib:e_aria.obj
 0001:0002bd18       aria_ccm_ctrl              000000000002bfd8 f   OpensslLib:e_aria.obj
 0001:0002bf3c       aria_ccm_tls_cipher        000000000002c1fc f   OpensslLib:e_aria.obj
 0001:0002c11c       aria_ccm_cipher            000000000002c3dc f   OpensslLib:e_aria.obj
 0001:0002c350       init                       000000000002c610 f   OpensslLib:m_md5_sha1.obj
 0001:0002c37c       update                     000000000002c63c f   OpensslLib:m_md5_sha1.obj
 0001:0002c3c0       final                      000000000002c680 f   OpensslLib:m_md5_sha1.obj
 0001:0002c3f8       ctrl                       000000000002c6b8 f   OpensslLib:m_md5_sha1.obj
 0001:0002c598       o_names_init_ossl_         000000000002c858 f   OpensslLib:o_names.obj
 0001:0002c634       obj_name_cmp               000000000002c8f4 f   OpensslLib:o_names.obj
 0001:0002c684       obj_name_hash              000000000002c944 f   OpensslLib:o_names.obj
 0001:0002c884       init                       000000000002cb44 f   OpensslLib:m_md5.obj
 0001:0002c890       update                     000000000002cb50 f   OpensslLib:m_md5.obj
 0001:0002c89c       final                      000000000002cb5c f   OpensslLib:m_md5.obj
 0001:0002c8ac       ossl_init_get_thread_local 000000000002cb6c f   OpensslLib:init.obj
 0001:0002c904       ossl_init_base_ossl_       000000000002cbc4 f   OpensslLib:init.obj
 0001:0002c970       ossl_init_add_all_digests_ossl_ 000000000002cc30 f   OpensslLib:init.obj
 0001:0002ca8c       ossl_init_config_ossl_     000000000002cd4c f   OpensslLib:init.obj
 0001:0002cb24       ossl_init_async_ossl_      000000000002cde4 f   OpensslLib:init.obj
 0001:0002d7a0       cipher_compare             000000000002da60 f   OpensslLib:s3_lib.obj
 0001:0002eea0       ssl3_set_req_cert_type     000000000002f160 f   OpensslLib:s3_lib.obj
 0001:0002f064       ssl3_read_internal         000000000002f324 f   OpensslLib:s3_lib.obj
 0001:0002fef0       crl_inf_cb                 00000000000301b0 f   OpensslLib:x_crl.obj
 0001:0002ff24       crl_cb                     00000000000301e4 f   OpensslLib:x_crl.obj
 0001:00030540       setup_idp                  0000000000030800 f   OpensslLib:x_crl.obj
 0001:00030644       X509_REVOKED_cmp           0000000000030904 f   OpensslLib:x_crl.obj
 0001:00030650       def_crl_verify             0000000000030910 f   OpensslLib:x_crl.obj
 0001:00030678       def_crl_lookup             0000000000030938 f   OpensslLib:x_crl.obj
 0001:00030828       null_callback              0000000000030ae8 f   OpensslLib:x509_vfy.obj
 0001:0003082c       verify_cb_cert             0000000000030aec f   OpensslLib:x509_vfy.obj
 0001:0003087c       check_auth_level           0000000000030b3c f   OpensslLib:x509_vfy.obj
 0001:000309e8       verify_chain               0000000000030ca8 f   OpensslLib:x509_vfy.obj
 0001:00030c48       find_issuer                0000000000030f08 f   OpensslLib:x509_vfy.obj
 0001:00030d78       check_issued               0000000000031038 f   OpensslLib:x509_vfy.obj
 0001:00030d94       check_chain_extensions     0000000000031054 f   OpensslLib:x509_vfy.obj
 0001:000311b4       check_name_constraints     0000000000031474 f   OpensslLib:x509_vfy.obj
 0001:000314a4       check_id_error             0000000000031764 f   OpensslLib:x509_vfy.obj
 0001:000314f0       check_hosts                00000000000317b0 f   OpensslLib:x509_vfy.obj
 0001:000315ec       check_id                   00000000000318ac f   OpensslLib:x509_vfy.obj
 0001:00031734       check_trust                00000000000319f4 f   OpensslLib:x509_vfy.obj
 0001:000319c0       check_revocation           0000000000031c80 f   OpensslLib:x509_vfy.obj
 0001:00031a3c       check_cert                 0000000000031cfc f   OpensslLib:x509_vfy.obj
 0001:00031c90       check_crl_time             0000000000031f50 f   OpensslLib:x509_vfy.obj
 0001:00031d88       get_crl_sk                 0000000000032048 f   OpensslLib:x509_vfy.obj
 0001:000320f0       crl_extension_match        00000000000323b0 f   OpensslLib:x509_vfy.obj
 0001:000321f0       crl_akid_check             00000000000324b0 f   OpensslLib:x509_vfy.obj
 0001:0003237c       check_crl_path             000000000003263c f   OpensslLib:x509_vfy.obj
 0001:00032484       idp_check_dp               0000000000032744 f   OpensslLib:x509_vfy.obj
 0001:0003276c       crl_crldp_check            0000000000032a2c f   OpensslLib:x509_vfy.obj
 0001:000328cc       check_crl                  0000000000032b8c f   OpensslLib:x509_vfy.obj
 0001:00032b80       cert_crl                   0000000000032e40 f   OpensslLib:x509_vfy.obj
 0001:00032c2c       check_policy               0000000000032eec f   OpensslLib:x509_vfy.obj
 0001:00032ecc       internal_verify            000000000003318c f   OpensslLib:x509_vfy.obj
 0001:000336a0       dane_match                 0000000000033960 f   OpensslLib:x509_vfy.obj
 0001:000339f0       check_dane_issuer          0000000000033cb0 f   OpensslLib:x509_vfy.obj
 0001:00033a6c       check_dane_pkeys           0000000000033d2c f   OpensslLib:x509_vfy.obj
 0001:00033bc0       check_leaf_suiteb          0000000000033e80 f   OpensslLib:x509_vfy.obj
 0001:00033c68       dane_verify                0000000000033f28 f   OpensslLib:x509_vfy.obj
 0001:00033da4       augment_stack              0000000000034064 f   OpensslLib:x509_vfy.obj
 0001:00033e50       build_chain                0000000000034110 f   OpensslLib:x509_vfy.obj
 0001:000347e4       check_key_level            0000000000034aa4 f   OpensslLib:x509_vfy.obj
 0001:000349ec       module_add                 0000000000034cac f   OpensslLib:conf_mod.obj
 0001:00034bb8       null_cipher                0000000000034e78 f   OpensslLib:e_null.obj
 0001:00034f10       ssl_session_strndup        00000000000351d0 f   OpensslLib:ssl_asn1.obj
 0001:00034f58       ssl_session_memcpy         0000000000035218 f   OpensslLib:ssl_asn1.obj
 0001:000354d4       check_pem                  0000000000035794 f   OpensslLib:pem_lib.obj
 0001:000356f4       pem_bytes_read_bio_flags   00000000000359b4 f   OpensslLib:pem_lib.obj
 0001:00035e60       load_iv                    0000000000036120 f   OpensslLib:pem_lib.obj
 0001:00035f0c       sanitize_line              00000000000361cc f   OpensslLib:pem_lib.obj
 0001:00035fc4       get_name                   0000000000036284 f   OpensslLib:pem_lib.obj
 0001:0003612c       get_header_and_data        00000000000363ec f   OpensslLib:pem_lib.obj
 0001:00036898       PACKET_get_length_prefixed_3 0000000000036b58 f   OpensslLib:extensions.obj
 0001:00037234       final_renegotiate          00000000000374f4 f   OpensslLib:extensions.obj
 0001:00037288       init_server_name           0000000000037548 f   OpensslLib:extensions.obj
 0001:000372c0       final_server_name          0000000000037580 f   OpensslLib:extensions.obj
 0001:00037534       init_ec_point_formats      00000000000377f4 f   OpensslLib:extensions.obj
 0001:00037564       final_ec_pt_formats        0000000000037824 f   OpensslLib:extensions.obj
 0001:000375f4       init_session_ticket        00000000000378b4 f   OpensslLib:extensions.obj
 0001:00037608       init_status_request        00000000000378c8 f   OpensslLib:extensions.obj
 0001:00037648       init_npn                   0000000000037908 f   OpensslLib:extensions.obj
 0001:0003765c       init_alpn                  000000000003791c f   OpensslLib:extensions.obj
 0001:000376d8       final_alpn                 0000000000037998 f   OpensslLib:extensions.obj
 0001:00037728       init_sig_algs              00000000000379e8 f   OpensslLib:extensions.obj
 0001:00037770       init_sig_algs_cert         0000000000037a30 f   OpensslLib:extensions.obj
 0001:000377b8       init_etm                   0000000000037a78 f   OpensslLib:extensions.obj
 0001:000377c8       init_ems                   0000000000037a88 f   OpensslLib:extensions.obj
 0001:000377f0       final_ems                  0000000000037ab0 f   OpensslLib:extensions.obj
 0001:00037860       init_certificate_authorities 0000000000037b20 f   OpensslLib:extensions.obj
 0001:000378a0       tls_construct_certificate_authorities 0000000000037b60 f   OpensslLib:extensions.obj
 0001:00037958       tls_parse_certificate_authorities 0000000000037c18 f   OpensslLib:extensions.obj
 0001:000379a8       init_srtp                  0000000000037c68 f   OpensslLib:extensions.obj
 0001:000379bc       final_sig_algs             0000000000037c7c f   OpensslLib:extensions.obj
 0001:00037a10       final_key_share            0000000000037cd0 f   OpensslLib:extensions.obj
 0001:00037c08       init_psk_kex_modes         0000000000037ec8 f   OpensslLib:extensions.obj
 0001:00038078       final_early_data           0000000000038338 f   OpensslLib:extensions.obj
 0001:0003813c       final_maxfragmentlen       00000000000383fc f   OpensslLib:extensions.obj
 0001:000381c4       init_post_handshake_auth   0000000000038484 f   OpensslLib:extensions.obj
 0001:000381d4       final_psk                  0000000000038494 f   OpensslLib:extensions.obj
 0001:00038f38       file_puts                  00000000000391f8 f   OpensslLib:bss_file.obj
 0001:00038f38       file_read                  00000000000391f8 f   OpensslLib:bss_file.obj
 0001:00038f38       file_write                 00000000000391f8 f   OpensslLib:bss_file.obj
 0001:00038f3c       file_ctrl                  00000000000391fc f   OpensslLib:bss_file.obj
 0001:00038f3c       file_free                  00000000000391fc f   OpensslLib:bss_file.obj
 0001:00038f3c       file_gets                  00000000000391fc f   OpensslLib:bss_file.obj
 0001:00038f3c       file_new                   00000000000391fc f   OpensslLib:bss_file.obj
 0001:0003924c       rsa_cb                     000000000003950c f   OpensslLib:rsa_asn1.obj
 0001:000392c0       rsa_pss_cb                 0000000000039580 f   OpensslLib:rsa_asn1.obj
 0001:00039440       ocsp_nonce_free            0000000000039700 f   OpensslLib:v3_ocsp.obj
 0001:000395e0       asn1_item_embed_d2i        00000000000398a0 f   OpensslLib:tasn_dec.obj
 0001:00039d24       asn1_template_ex_d2i       0000000000039fe4 f   OpensslLib:tasn_dec.obj
 0001:00039e98       asn1_template_noexp_d2i    000000000003a158 f   OpensslLib:tasn_dec.obj
 0001:0003a128       asn1_d2i_ex_primitive      000000000003a3e8 f   OpensslLib:tasn_dec.obj
 0001:0003a418       asn1_ex_c2i                000000000003a6d8 f   OpensslLib:tasn_dec.obj
 0001:0003a6c0       asn1_find_end              000000000003a980 f   OpensslLib:tasn_dec.obj
 0001:0003a800       asn1_collect               000000000003aac0 f   OpensslLib:tasn_dec.obj
 0001:0003a9b0       asn1_check_tlen            000000000003ac70 f   OpensslLib:tasn_dec.obj
 0001:0003ac10       gnames_from_sectname       000000000003aed0 f   OpensslLib:v3_crld.obj
 0001:0003acb4       set_dist_point_name        000000000003af74 f   OpensslLib:v3_crld.obj
 0001:0003ae6c       set_reasons                000000000003b12c f   OpensslLib:v3_crld.obj
 0001:0003af64       print_reasons              000000000003b224 f   OpensslLib:v3_crld.obj
 0001:0003b038       crldp_from_section         000000000003b2f8 f   OpensslLib:v3_crld.obj
 0001:0003b138       v2i_crld                   000000000003b3f8 f   OpensslLib:v3_crld.obj
 0001:0003b304       dpn_cb                     000000000003b5c4 f   OpensslLib:v3_crld.obj
 0001:0003b354       v2i_idp                    000000000003b614 f   OpensslLib:v3_crld.obj
 0001:0003b524       print_gens                 000000000003b7e4 f   OpensslLib:v3_crld.obj
 0001:0003b5a4       print_distpoint            000000000003b864 f   OpensslLib:v3_crld.obj
 0001:0003b5f8       i2r_idp                    000000000003b8b8 f   OpensslLib:v3_crld.obj
 0001:0003b63c       i2r_crldp                  000000000003b8fc f   OpensslLib:v3_crld.obj
 0001:0003b80c       asn1_item_embed_new        000000000003bacc f   OpensslLib:tasn_new.obj
 0001:0003ba54       asn1_template_new          000000000003bd14 f   OpensslLib:tasn_new.obj
 0001:0003baec       asn1_template_clear        000000000003bdac f   OpensslLib:tasn_new.obj
 0001:0003bb68       asn1_primitive_new         000000000003be28 f   OpensslLib:tasn_new.obj
 0001:0003bcf0       policy_cache_create        000000000003bfb0 f   OpensslLib:pcy_cache.obj
 0001:0003be6c       policy_cache_new           000000000003c12c f   OpensslLib:pcy_cache.obj
 0001:0003c038       policy_data_cmp            000000000003c2f8 f   OpensslLib:pcy_cache.obj
 0001:0003c068       ia5ncasecmp                000000000003c328 f   OpensslLib:v3_ncons.obj
 0001:0003c0b0       v2i_NAME_CONSTRAINTS       000000000003c370 f   OpensslLib:v3_ncons.obj
 0001:0003c270       i2r_NAME_CONSTRAINTS       000000000003c530 f   OpensslLib:v3_ncons.obj
 0001:0003c2cc       do_i2r_name_constraints    000000000003c58c f   OpensslLib:v3_ncons.obj
 0001:0003c748       nc_match                   000000000003ca08 f   OpensslLib:v3_ncons.obj
 0001:0003c884       nc_match_single            000000000003cb44 f   OpensslLib:v3_ncons.obj
 0001:0003ca4c       nc_email                   000000000003cd0c f   OpensslLib:v3_ncons.obj
 0001:0003cba4       nc_uri                     000000000003ce64 f   OpensslLib:v3_ncons.obj
 0001:0003d094       asn1_item_flags_i2d        000000000003d354 f   OpensslLib:tasn_enc.obj
 0001:0003d4bc       asn1_template_ex_i2d       000000000003d77c f   OpensslLib:tasn_enc.obj
 0001:0003d7a0       der_cmp                    000000000003da60 f   OpensslLib:tasn_enc.obj
 0001:0003d7e0       asn1_set_seq_out           000000000003daa0 f   OpensslLib:tasn_enc.obj
 0001:0003da18       asn1_i2d_ex_primitive      000000000003dcd8 f   OpensslLib:tasn_enc.obj
 0001:0003db0c       asn1_ex_i2c                000000000003ddcc f   OpensslLib:tasn_enc.obj
 0001:0003dd54       trust_1oidany              000000000003e014 f   OpensslLib:x509_trs.obj
 0001:0003dd60       trust_1oid                 000000000003e020 f   OpensslLib:x509_trs.obj
 0001:0003dd6c       trust_compat               000000000003e02c f   OpensslLib:x509_trs.obj
 0001:0003ddb0       obj_trust                  000000000003e070 f   OpensslLib:x509_trs.obj
 0001:0003e640       x509v3_add_len_value       000000000003e900 f   OpensslLib:v3_utl.obj
 0001:0003e7f0       bignum_to_string           000000000003eab0 f   OpensslLib:v3_utl.obj
 0001:0003eec0       strip_spaces               000000000003f180 f   OpensslLib:v3_utl.obj
 0001:0003efa0       equal_nocase               000000000003f260 f   OpensslLib:v3_utl.obj
 0001:0003f024       equal_case                 000000000003f2e4 f   OpensslLib:v3_utl.obj
 0001:0003f088       equal_email                000000000003f348 f   OpensslLib:v3_utl.obj
 0001:0003f128       wildcard_match             000000000003f3e8 f   OpensslLib:v3_utl.obj
 0001:0003f258       valid_star                 000000000003f518 f   OpensslLib:v3_utl.obj
 0001:0003f3ac       equal_wildcard             000000000003f66c f   OpensslLib:v3_utl.obj
 0001:0003f450       do_check_string            000000000003f710 f   OpensslLib:v3_utl.obj
 0001:0003f588       do_x509_check              000000000003f848 f   OpensslLib:v3_utl.obj
 0001:0003f8d8       ipv4_from_asc              000000000003fb98 f   OpensslLib:v3_utl.obj
 0001:0003f95c       ipv6_from_asc              000000000003fc1c f   OpensslLib:v3_utl.obj
 0001:0003fa68       ipv6_cb                    000000000003fd28 f   OpensslLib:v3_utl.obj
 0001:0003fd48       PACKET_get_net_3           0000000000040008 f   OpensslLib:statem_clnt.obj
 0001:0003fd8c       PACKET_memdup              000000000004004c f   OpensslLib:extensions_srvr.obj
 0001:0003fd8c       PACKET_memdup              000000000004004c f   OpensslLib:statem_clnt.obj
 0001:0003fdf4       PACKET_get_length_prefixed_2 00000000000400b4 f   OpensslLib:extensions_srvr.obj
 0001:0003fdf4       PACKET_get_length_prefixed_2 00000000000400b4 f   OpensslLib:statem_clnt.obj
 0001:0003fe60       PACKET_as_length_prefixed_2 0000000000040120 f   OpensslLib:extensions_clnt.obj
 0001:0003fe60       PACKET_as_length_prefixed_2 0000000000040120 f   OpensslLib:extensions_srvr.obj
 0001:0003fe60       PACKET_as_length_prefixed_2 0000000000040120 f   OpensslLib:statem_clnt.obj
 0001:0003fed0       ossl_statem_client13_read_transition 0000000000040190 f   OpensslLib:statem_clnt.obj
 0001:000402e4       ossl_statem_client13_write_transition 00000000000405a4 f   OpensslLib:statem_clnt.obj
 0001:000412a8       set_client_ciphersuite     0000000000041568 f   OpensslLib:statem_clnt.obj
 0001:00041b2c       tls_process_as_hello_retry_request 0000000000041dec f   OpensslLib:statem_clnt.obj
 0001:0004216c       tls_process_ske_psk_preamble 000000000004242c f   OpensslLib:statem_clnt.obj
 0001:00042260       tls_process_ske_dhe        0000000000042520 f   OpensslLib:statem_clnt.obj
 0001:000424c8       tls_process_ske_ecdhe      0000000000042788 f   OpensslLib:statem_clnt.obj
 0001:0004339c       tls_construct_cke_psk_preamble 000000000004365c f   OpensslLib:statem_clnt.obj
 0001:000435f4       tls_construct_cke_rsa      00000000000438b4 f   OpensslLib:statem_clnt.obj
 0001:0004384c       tls_construct_cke_dhe      0000000000043b0c f   OpensslLib:statem_clnt.obj
 0001:00043940       tls_construct_cke_ecdhe    0000000000043c00 f   OpensslLib:statem_clnt.obj
 0001:00043bd4       ssl3_check_client_certificate 0000000000043e94 f   OpensslLib:statem_clnt.obj
 0001:000442c8       tls_process_encrypted_extensions 0000000000044588 f   OpensslLib:statem_clnt.obj
 0001:000443e8       ssl_cipher_list_to_bytes   00000000000446a8 f   OpensslLib:statem_clnt.obj
 0001:0004465c       ossl_assert_int            000000000004491c f   OpensslLib:packet.obj
 0001:00044800       wpacket_intern_init_len    0000000000044ac0 f   OpensslLib:packet.obj
 0001:000448a4       wpacket_intern_close       0000000000044b64 f   OpensslLib:packet.obj
 0001:00044c68       dtls1_hm_fragment_new      0000000000044f28 f   OpensslLib:statem_dtls.obj
 0001:00045488       dtls1_preprocess_fragment  0000000000045748 f   OpensslLib:statem_dtls.obj
 0001:00045588       dtls1_reassemble_fragment  0000000000045848 f   OpensslLib:statem_dtls.obj
 0001:000458a4       dtls1_process_out_of_seq_message 0000000000045b64 f   OpensslLib:statem_dtls.obj
 0001:00045ab0       dtls_get_reassembled_message 0000000000045d70 f   OpensslLib:statem_dtls.obj
 0001:00045f5c       int_ctx_new                000000000004621c f   OpensslLib:pmeth_lib.obj
 0001:00048634       tls1_PRF                   00000000000488f4 f   OpensslLib:t1_enc.obj
 0001:00049b40       ec_guess_cofactor          0000000000049e00 f   OpensslLib:ec_lib.obj
 0001:0004a800       ec_precompute_mont_data    000000000004aac0 f   OpensslLib:ec_lib.obj
 0001:0004a8f8       ec_field_inverse_mod_ord   000000000004abb8 f   OpensslLib:ec_lib.obj
 0001:0004acec       hmac_ctx_cleanup           000000000004afac f   OpensslLib:hmac.obj
 0001:0004ad84       hmac_ctx_alloc_mds         000000000004b044 f   OpensslLib:hmac.obj
 0001:0004b004       bn_free_d                  000000000004b2c4 f   OpensslLib:bn_lib.obj
 0001:0004b428       bn2binpad                  000000000004b6e8 f   OpensslLib:bn_lib.obj
 0001:0004b838       rsa_get_public_exp         000000000004baf8 f   OpensslLib:rsa_crpt.obj
 0001:0004ba98       ec_group_new_from_data     000000000004bd58 f   OpensslLib:ec_curve.obj
 0001:0004c3f8       i2v_AUTHORITY_INFO_ACCESS  000000000004c6b8 f   OpensslLib:v3_info.obj
 0001:0004c5a4       v2i_AUTHORITY_INFO_ACCESS  000000000004c864 f   OpensslLib:v3_info.obj
 0001:0004cafc       i2c_ibuf                   000000000004cdbc f   OpensslLib:a_int.obj
 0001:0004cbd0       c2i_ibuf                   000000000004ce90 f   OpensslLib:a_int.obj
 0001:0004ccec       asn1_get_uint64            000000000004cfac f   OpensslLib:a_int.obj
 0001:0004ce18       asn1_string_get_int64      000000000004d0d8 f   OpensslLib:a_int.obj
 0001:0004ceec       asn1_string_set_int64      000000000004d1ac f   OpensslLib:a_int.obj
 0001:0004cf4c       bn_to_asn1_string          000000000004d20c f   OpensslLib:a_int.obj
 0001:0004d034       asn1_string_to_bn          000000000004d2f4 f   OpensslLib:a_int.obj
 0001:0004d1c8       sigx_cmp_BSEARCH_CMP_FN    000000000004d488 f   OpensslLib:obj_xref.obj
 0001:0004d8d4       leap_year                  000000000004db94 f   OpensslLib:a_time.obj
 0001:0004d934       determine_days             000000000004dbf4 f   OpensslLib:a_time.obj
 0001:0004e1d0       ssl_set_option             000000000004e490 f   OpensslLib:ssl_conf.obj
 0001:0004e228       ssl_set_option_list        000000000004e4e8 f   OpensslLib:ssl_conf.obj
 0001:0004e2fc       cmd_SignatureAlgorithms    000000000004e5bc f   OpensslLib:ssl_conf.obj
 0001:0004e350       cmd_ClientSignatureAlgorithms 000000000004e610 f   OpensslLib:ssl_conf.obj
 0001:0004e3a8       cmd_Groups                 000000000004e668 f   OpensslLib:ssl_conf.obj
 0001:0004e430       cmd_Curves                 000000000004e6f0 f   OpensslLib:ssl_conf.obj
 0001:0004e438       cmd_ECDHParameters         000000000004e6f8 f   OpensslLib:ssl_conf.obj
 0001:0004e56c       cmd_CipherString           000000000004e82c f   OpensslLib:ssl_conf.obj
 0001:0004e640       cmd_Ciphersuites           000000000004e900 f   OpensslLib:ssl_conf.obj
 0001:0004e6f4       cmd_Protocol               000000000004e9b4 f   OpensslLib:ssl_conf.obj
 0001:0004e738       min_max_proto              000000000004e9f8 f   OpensslLib:ssl_conf.obj
 0001:0004e7d0       cmd_MinProtocol            000000000004ea90 f   OpensslLib:ssl_conf.obj
 0001:0004e7dc       cmd_MaxProtocol            000000000004ea9c f   OpensslLib:ssl_conf.obj
 0001:0004e7e8       cmd_Options                000000000004eaa8 f   OpensslLib:ssl_conf.obj
 0001:0004e834       cmd_VerifyMode             000000000004eaf4 f   OpensslLib:ssl_conf.obj
 0001:0004e880       cmd_Certificate            000000000004eb40 f   OpensslLib:ssl_conf.obj
 0001:0004e960       cmd_PrivateKey             000000000004ec20 f   OpensslLib:ssl_conf.obj
 0001:0004e9c0       cmd_ServerInfoFile         000000000004ec80 f   OpensslLib:ssl_conf.obj
 0001:0004e9e8       do_store                   000000000004eca8 f   OpensslLib:ssl_conf.obj
 0001:0004ea80       cmd_ChainCAPath            000000000004ed40 f   OpensslLib:ssl_conf.obj
 0001:0004ea90       cmd_ChainCAFile            000000000004ed50 f   OpensslLib:ssl_conf.obj
 0001:0004ea9c       cmd_VerifyCAPath           000000000004ed5c f   OpensslLib:ssl_conf.obj
 0001:0004eaac       cmd_VerifyCAFile           000000000004ed6c f   OpensslLib:ssl_conf.obj
 0001:0004eabc       cmd_RequestCAFile          000000000004ed7c f   OpensslLib:ssl_conf.obj
 0001:0004eb04       cmd_ClientCAFile           000000000004edc4 f   OpensslLib:ssl_conf.obj
 0001:0004eb0c       cmd_RequestCAPath          000000000004edcc f   OpensslLib:ssl_conf.obj
 0001:0004eb90       cmd_ClientCAPath           000000000004ee50 f   OpensslLib:ssl_conf.obj
 0001:0004eb98       cmd_DHParameters           000000000004ee58 f   OpensslLib:ssl_conf.obj
 0001:0004ec7c       cmd_RecordPadding          000000000004ef3c f   OpensslLib:ssl_conf.obj
 0001:0004ed14       cmd_NumTickets             000000000004efd4 f   OpensslLib:ssl_conf.obj
 0001:0004ed74       ssl_conf_cmd_skip_prefix   000000000004f034 f   OpensslLib:ssl_conf.obj
 0001:0004ee28       ssl_conf_cmd_lookup        000000000004f0e8 f   OpensslLib:ssl_conf.obj
 0001:0004f128       ssl_module_free            000000000004f3e8 f   OpensslLib:conf_ssl.obj
 0001:0004f1f4       ssl_module_init            000000000004f4b4 f   OpensslLib:conf_ssl.obj
 0001:0004f4f8       RandGetBytes               000000000004f7b8 f   OpensslLib:rand_pool.obj
 0001:0004f704       rand_drbg_new              000000000004f9c4 f   OpensslLib:drbg_lib.obj
 0001:000501c0       drbg_setup                 0000000000050480 f   OpensslLib:drbg_lib.obj
 0001:00050278       do_rand_drbg_init_ossl_    0000000000050538 f   OpensslLib:drbg_lib.obj
 0001:00050308       drbg_bytes                 00000000000505c8 f   OpensslLib:drbg_lib.obj
 0001:00050460       drbg_add                   0000000000050720 f   OpensslLib:drbg_lib.obj
 0001:00050584       drbg_seed                  0000000000050844 f   OpensslLib:drbg_lib.obj
 0001:00050594       drbg_status                0000000000050854 f   OpensslLib:drbg_lib.obj
 0001:00050878       make_kn                    0000000000050b38 f   OpensslLib:cmac.obj
 0001:00050c38       update                     0000000000050ef8 f   OpensslLib:m_sigver.obj
 0001:00050c58       do_sigver_init             0000000000050f18 f   OpensslLib:m_sigver.obj
 0001:00051610       i2v_BASIC_CONSTRAINTS      00000000000518d0 f   OpensslLib:v3_bcons.obj
 0001:00051694       v2i_BASIC_CONSTRAINTS      0000000000051954 f   OpensslLib:v3_bcons.obj
 0001:000517d0       send_bio_chars             0000000000051a90 f   OpensslLib:a_strex.obj
 0001:0005180c       do_esc_char                0000000000051acc f   OpensslLib:a_strex.obj
 0001:0005198c       do_buf                     0000000000051c4c f   OpensslLib:a_strex.obj
 0001:00051bb8       do_hex_dump                0000000000051e78 f   OpensslLib:a_strex.obj
 0001:00051c44       do_dump                    0000000000051f04 f   OpensslLib:a_strex.obj
 0001:00051d58       do_print_ex                0000000000052018 f   OpensslLib:a_strex.obj
 0001:00051f58       do_indent                  0000000000052218 f   OpensslLib:a_strex.obj
 0001:00051fc4       do_name_ex                 0000000000052284 f   OpensslLib:a_strex.obj
 0001:000534c0       pbe2_cmp_BSEARCH_CMP_FN    0000000000053780 f   OpensslLib:evp_pbe.obj
 0001:00055358       gcm_gmult_4bit             0000000000055618 f   OpensslLib:gcm128.obj
 0001:00056cec       crypto_128_unwrap_raw      0000000000056fac f   OpensslLib:wrap128.obj
 0001:00057494       cfbr_encrypt_block         0000000000057754 f   OpensslLib:cfb128.obj
 0001:00057b00       sha256_block_data_order    0000000000057dc0 f   OpensslLib:sha256.obj
 0001:00058388       sha512_block_data_order    0000000000058648 f   OpensslLib:sha512.obj
 0001:00058aa0       sha1_block_data_order      0000000000058d60 f   OpensslLib:sha1dgst.obj
 0001:00058d74       rotnr                      0000000000059034 f   OpensslLib:aria.obj
 0001:00058dfc       sl2                        00000000000590bc f   OpensslLib:aria.obj
 0001:00058e8c       a                          000000000005914c f   OpensslLib:aria.obj
 0001:00059008       FO                         00000000000592c8 f   OpensslLib:aria.obj
 0001:0005aa44       trans_cb                   000000000005ad04 f   OpensslLib:pmeth_gn.obj
 0001:0005b10c       tree_init                  000000000005b3cc f   OpensslLib:pcy_tree.obj
 0001:0005b478       tree_link_nodes            000000000005b738 f   OpensslLib:pcy_tree.obj
 0001:0005b64c       tree_add_unmatched         000000000005b90c f   OpensslLib:pcy_tree.obj
 0001:0005b6e0       tree_link_any              000000000005b9a0 f   OpensslLib:pcy_tree.obj
 0001:0005b8d4       tree_add_auth_node         000000000005bb94 f   OpensslLib:pcy_tree.obj
 0001:0005b950       tree_calculate_authority_set 000000000005bc10 f   OpensslLib:pcy_tree.obj
 0001:0005ba84       tree_calculate_user_set    000000000005bd44 f   OpensslLib:pcy_tree.obj
 0001:0005bbf4       tree_evaluate              000000000005beb4 f   OpensslLib:pcy_tree.obj
 0001:0005bdbc       exnode_free                000000000005c07c f   OpensslLib:pcy_tree.obj
 0001:0005c1fc       cmac_size                  000000000005c4bc f   OpensslLib:cm_ameth.obj
 0001:0005c204       cmac_key_free              000000000005c4c4 f   OpensslLib:cm_ameth.obj
 0001:0005c204       pkey_cmac_cleanup          000000000005c4c4 f   OpensslLib:cm_pmeth.obj
 0001:0005c210       ecx_key_op                 000000000005c4d0 f   OpensslLib:ecx_meth.obj
 0001:0005c4ec       ecx_pub_encode             000000000005c7ac f   OpensslLib:ecx_meth.obj
 0001:0005c5d8       ecx_pub_decode             000000000005c898 f   OpensslLib:ecx_meth.obj
 0001:0005c604       ecx_pub_cmp                000000000005c8c4 f   OpensslLib:ecx_meth.obj
 0001:0005c674       ecx_priv_decode            000000000005c934 f   OpensslLib:ecx_meth.obj
 0001:0005c708       ecx_priv_encode            000000000005c9c8 f   OpensslLib:ecx_meth.obj
 0001:0005c854       ecx_size                   000000000005cb14 f   OpensslLib:ecx_meth.obj
 0001:0005c880       ecx_bits                   000000000005cb40 f   OpensslLib:ecx_meth.obj
 0001:0005c8b0       ecx_security_bits          000000000005cb70 f   OpensslLib:ecx_meth.obj
 0001:0005c8d0       ecx_free                   000000000005cb90 f   OpensslLib:ecx_meth.obj
 0001:0005c948       ecx_key_print              000000000005cc08 f   OpensslLib:ecx_meth.obj
 0001:0005cae4       ecx_priv_print             000000000005cda4 f   OpensslLib:ecx_meth.obj
 0001:0005cafc       ecx_pub_print              000000000005cdbc f   OpensslLib:ecx_meth.obj
 0001:0005cb10       ecx_ctrl                   000000000005cdd0 f   OpensslLib:ecx_meth.obj
 0001:0005cbd8       ecd_ctrl                   000000000005ce98 f   OpensslLib:ecx_meth.obj
 0001:0005cbf0       ecx_set_priv_key           000000000005ceb0 f   OpensslLib:ecx_meth.obj
 0001:0005cc18       ecx_set_pub_key            000000000005ced8 f   OpensslLib:ecx_meth.obj
 0001:0005cc3c       ecx_get_priv_key           000000000005cefc f   OpensslLib:ecx_meth.obj
 0001:0005cd18       ecx_get_pub_key            000000000005cfd8 f   OpensslLib:ecx_meth.obj
 0001:0005cdec       ecd_size25519              000000000005d0ac f   OpensslLib:ecx_meth.obj
 0001:0005cdec       hmac_size                  000000000005d0ac f   OpensslLib:hm_ameth.obj
 0001:0005cdf4       ecd_size448                000000000005d0b4 f   OpensslLib:ecx_meth.obj
 0001:0005cdfc       ecd_item_verify            000000000005d0bc f   OpensslLib:ecx_meth.obj
 0001:0005ce78       ecd_item_sign25519         000000000005d138 f   OpensslLib:ecx_meth.obj
 0001:0005ced0       ecd_sig_info_set25519      000000000005d190 f   OpensslLib:ecx_meth.obj
 0001:0005cef0       ecd_item_sign448           000000000005d1b0 f   OpensslLib:ecx_meth.obj
 0001:0005cf48       ecd_sig_info_set448        000000000005d208 f   OpensslLib:ecx_meth.obj
 0001:0005cf68       pkey_ecx_keygen            000000000005d228 f   OpensslLib:ecx_meth.obj
 0001:0005cf94       validate_ecx_derive        000000000005d254 f   OpensslLib:ecx_meth.obj
 0001:0005d004       pkey_ecx_derive25519       000000000005d2c4 f   OpensslLib:ecx_meth.obj
 0001:0005d08c       pkey_ecx_derive448         000000000005d34c f   OpensslLib:ecx_meth.obj
 0001:0005d0ec       pkey_ecx_ctrl              000000000005d3ac f   OpensslLib:ecx_meth.obj
 0001:0005d0fc       pkey_ecd_digestsign25519   000000000005d3bc f   OpensslLib:ecx_meth.obj
 0001:0005d168       pkey_ecd_digestsign448     000000000005d428 f   OpensslLib:ecx_meth.obj
 0001:0005d1d4       pkey_ecd_digestverify25519 000000000005d494 f   OpensslLib:ecx_meth.obj
 0001:0005d1fc       pkey_ecd_digestverify448   000000000005d4bc f   OpensslLib:ecx_meth.obj
 0001:0005d23c       pkey_ecd_ctrl              000000000005d4fc f   OpensslLib:ecx_meth.obj
 0001:0005d284       eckey_param2type           000000000005d544 f   OpensslLib:ec_ameth.obj
 0001:0005d368       eckey_pub_encode           000000000005d628 f   OpensslLib:ec_ameth.obj
 0001:0005d51c       eckey_pub_decode           000000000005d7dc f   OpensslLib:ec_ameth.obj
 0001:0005d6a4       eckey_pub_cmp              000000000005d964 f   OpensslLib:ec_ameth.obj
 0001:0005d6f4       eckey_priv_decode          000000000005d9b4 f   OpensslLib:ec_ameth.obj
 0001:0005d870       eckey_priv_encode          000000000005db30 f   OpensslLib:ec_ameth.obj
 0001:0005d998       int_ec_size                000000000005dc58 f   OpensslLib:ec_ameth.obj
 0001:0005d9a4       ec_bits                    000000000005dc64 f   OpensslLib:ec_ameth.obj
 0001:0005d9b4       ec_security_bits           000000000005dc74 f   OpensslLib:ec_ameth.obj
 0001:0005da18       ec_missing_parameters      000000000005dcd8 f   OpensslLib:ec_ameth.obj
 0001:0005da34       ec_copy_parameters         000000000005dcf4 f   OpensslLib:ec_ameth.obj
 0001:0005daa4       ec_cmp_parameters          000000000005dd64 f   OpensslLib:ec_ameth.obj
 0001:0005dae0       int_ec_free                000000000005dda0 f   OpensslLib:ec_ameth.obj
 0001:0005daec       do_EC_KEY_print            000000000005ddac f   OpensslLib:ec_ameth.obj
 0001:0005dd68       eckey_param_decode         000000000005e028 f   OpensslLib:ec_ameth.obj
 0001:0005ddac       eckey_param_encode         000000000005e06c f   OpensslLib:ec_ameth.obj
 0001:0005dde4       eckey_param_print          000000000005e0a4 f   OpensslLib:ec_ameth.obj
 0001:0005ddf4       eckey_pub_print            000000000005e0b4 f   OpensslLib:ec_ameth.obj
 0001:0005de04       eckey_priv_print           000000000005e0c4 f   OpensslLib:ec_ameth.obj
 0001:0005de10       old_ec_priv_decode         000000000005e0d0 f   OpensslLib:ec_ameth.obj
 0001:0005de58       old_ec_priv_encode         000000000005e118 f   OpensslLib:ec_ameth.obj
 0001:0005de64       ec_pkey_ctrl               000000000005e124 f   OpensslLib:ec_ameth.obj
 0001:0005df6c       ec_pkey_check              000000000005e22c f   OpensslLib:ec_ameth.obj
 0001:0005dfa0       ec_pkey_public_check       000000000005e260 f   OpensslLib:ec_ameth.obj
 0001:0005dfac       ec_pkey_param_check        000000000005e26c f   OpensslLib:ec_ameth.obj
 0001:0005dfe0       siphash_size               000000000005e2a0 f   OpensslLib:siphash_ameth.obj
 0001:0005dfe8       hmac_key_free              000000000005e2a8 f   OpensslLib:hm_ameth.obj
 0001:0005dfe8       siphash_key_free           000000000005e2a8 f   OpensslLib:siphash_ameth.obj
 0001:0005e01c       dh_pkey_ctrl               000000000005e2dc f   OpensslLib:dh_ameth.obj
 0001:0005e01c       siphash_pkey_ctrl          000000000005e2dc f   OpensslLib:siphash_ameth.obj
 0001:0005e024       hmac_pkey_public_cmp       000000000005e2e4 f   OpensslLib:hm_ameth.obj
 0001:0005e024       siphash_pkey_public_cmp    000000000005e2e4 f   OpensslLib:siphash_ameth.obj
 0001:0005e044       siphash_set_priv_key       000000000005e304 f   OpensslLib:siphash_ameth.obj
 0001:0005e0b4       siphash_get_priv_key       000000000005e374 f   OpensslLib:siphash_ameth.obj
 0001:0005e104       hmac_pkey_ctrl             000000000005e3c4 f   OpensslLib:hm_ameth.obj
 0001:0005e11c       hmac_set_priv_key          000000000005e3dc f   OpensslLib:hm_ameth.obj
 0001:0005e190       hmac_get_priv_key          000000000005e450 f   OpensslLib:hm_ameth.obj
 0001:0005e1d8       rsa_param_encode           000000000005e498 f   OpensslLib:rsa_ameth.obj
 0001:0005e230       rsa_param_decode           000000000005e4f0 f   OpensslLib:rsa_ameth.obj
 0001:0005e2ac       rsa_pub_encode             000000000005e56c f   OpensslLib:rsa_ameth.obj
 0001:0005e3a4       rsa_pub_decode             000000000005e664 f   OpensslLib:rsa_ameth.obj
 0001:0005e43c       rsa_pub_cmp                000000000005e6fc f   OpensslLib:rsa_ameth.obj
 0001:0005e4a4       old_rsa_priv_decode        000000000005e764 f   OpensslLib:rsa_ameth.obj
 0001:0005e4f0       old_rsa_priv_encode        000000000005e7b0 f   OpensslLib:rsa_ameth.obj
 0001:0005e500       rsa_priv_encode            000000000005e7c0 f   OpensslLib:rsa_ameth.obj
 0001:0005e5d4       rsa_priv_decode            000000000005e894 f   OpensslLib:rsa_ameth.obj
 0001:0005e668       int_rsa_size               000000000005e928 f   OpensslLib:rsa_ameth.obj
 0001:0005e68c       rsa_bits                   000000000005e94c f   OpensslLib:rsa_ameth.obj
 0001:0005e69c       rsa_security_bits          000000000005e95c f   OpensslLib:rsa_ameth.obj
 0001:0005e758       int_rsa_free               000000000005ea18 f   OpensslLib:rsa_ameth.obj
 0001:0005e764       rsa_pss_param_print        000000000005ea24 f   OpensslLib:rsa_ameth.obj
 0001:0005ea48       pkey_rsa_print             000000000005ed08 f   OpensslLib:rsa_ameth.obj
 0001:0005edb0       rsa_pub_print              000000000005f070 f   OpensslLib:rsa_ameth.obj
 0001:0005edb8       rsa_priv_print             000000000005f078 f   OpensslLib:rsa_ameth.obj
 0001:0005edc4       rsa_pss_decode             000000000005f084 f   OpensslLib:rsa_ameth.obj
 0001:0005ee48       rsa_sig_print              000000000005f108 f   OpensslLib:rsa_ameth.obj
 0001:0005eef8       rsa_pkey_ctrl              000000000005f1b8 f   OpensslLib:rsa_ameth.obj
 0001:0005efec       rsa_md_to_algor            000000000005f2ac f   OpensslLib:rsa_ameth.obj
 0001:0005f05c       rsa_md_to_mgf1             000000000005f31c f   OpensslLib:rsa_ameth.obj
 0001:0005f264       rsa_ctx_to_pss_string      000000000005f524 f   OpensslLib:rsa_ameth.obj
 0001:0005f400       rsa_pss_to_ctx             000000000005f6c0 f   OpensslLib:rsa_ameth.obj
 0001:0005f7e8       rsa_item_verify            000000000005faa8 f   OpensslLib:rsa_ameth.obj
 0001:0005f848       rsa_item_sign              000000000005fb08 f   OpensslLib:rsa_ameth.obj
 0001:0005f918       rsa_sig_info_set           000000000005fbd8 f   OpensslLib:rsa_ameth.obj
 0001:0005f9ec       rsa_pkey_check             000000000005fcac f   OpensslLib:rsa_ameth.obj
 0001:0005f9f8       int_dh_free                000000000005fcb8 f   OpensslLib:dh_ameth.obj
 0001:0005fa04       dh_pub_decode              000000000005fcc4 f   OpensslLib:dh_ameth.obj
 0001:0005fbd4       dh_pub_encode              000000000005fe94 f   OpensslLib:dh_ameth.obj
 0001:0005fd44       dh_priv_decode             0000000000060004 f   OpensslLib:dh_ameth.obj
 0001:0005ff40       dh_priv_encode             0000000000060200 f   OpensslLib:dh_ameth.obj
 0001:0006008c       dh_param_decode            000000000006034c f   OpensslLib:dh_ameth.obj
 0001:000600ec       dh_param_encode            00000000000603ac f   OpensslLib:dh_ameth.obj
 0001:00060110       do_dh_print                00000000000603d0 f   OpensslLib:dh_ameth.obj
 0001:00060404       int_dh_size                00000000000606c4 f   OpensslLib:dh_ameth.obj
 0001:00060428       dh_bits                    00000000000606e8 f   OpensslLib:dh_ameth.obj
 0001:00060438       dh_security_bits           00000000000606f8 f   OpensslLib:dh_ameth.obj
 0001:00060480       dh_cmp_parameters          0000000000060740 f   OpensslLib:dh_ameth.obj
 0001:000604f4       int_dh_bn_cpy              00000000000607b4 f   OpensslLib:dh_ameth.obj
 0001:00060540       int_dh_param_copy          0000000000060800 f   OpensslLib:dh_ameth.obj
 0001:00060604       dh_copy_parameters         00000000000608c4 f   OpensslLib:dh_ameth.obj
 0001:00060660       dh_missing_parameters      0000000000060920 f   OpensslLib:dh_ameth.obj
 0001:00060680       dh_pub_cmp                 0000000000060940 f   OpensslLib:dh_ameth.obj
 0001:000606c8       dh_param_print             0000000000060988 f   OpensslLib:dh_ameth.obj
 0001:000606d4       dh_public_print            0000000000060994 f   OpensslLib:dh_ameth.obj
 0001:000606e4       dh_private_print           00000000000609a4 f   OpensslLib:dh_ameth.obj
 0001:000606f4       dh_pkey_public_check       00000000000609b4 f   OpensslLib:dh_ameth.obj
 0001:00060784       dh_pkey_param_check        0000000000060a44 f   OpensslLib:dh_ameth.obj
 0001:00060860       uint64_new                 0000000000060b20 f   OpensslLib:x_int64.obj
 0001:0006089c       uint32_free                0000000000060b5c f   OpensslLib:x_int64.obj
 0001:0006089c       uint64_free                0000000000060b5c f   OpensslLib:x_int64.obj
 0001:000608b8       uint64_clear               0000000000060b78 f   OpensslLib:x_int64.obj
 0001:000608c0       uint64_i2c                 0000000000060b80 f   OpensslLib:x_int64.obj
 0001:00060954       uint64_c2i                 0000000000060c14 f   OpensslLib:x_int64.obj
 0001:00060a18       uint64_print               0000000000060cd8 f   OpensslLib:x_int64.obj
 0001:00060a38       uint32_new                 0000000000060cf8 f   OpensslLib:x_int64.obj
 0001:00060a74       uint32_clear               0000000000060d34 f   OpensslLib:x_int64.obj
 0001:00060a7c       uint32_i2c                 0000000000060d3c f   OpensslLib:x_int64.obj
 0001:00060b14       uint32_c2i                 0000000000060dd4 f   OpensslLib:x_int64.obj
 0001:00060c00       uint32_print               0000000000060ec0 f   OpensslLib:x_int64.obj
 0001:00060df4       evp_decodeblock_int        00000000000610b4 f   OpensslLib:encode.obj
 0001:00061558       use_ecc                    0000000000061818 f   OpensslLib:extensions_clnt.obj
 0001:0006233c       add_key_share              00000000000625fc f   OpensslLib:extensions_clnt.obj
 0001:00064148       PACKET_as_length_prefixed_1 0000000000064408 f   OpensslLib:extensions_srvr.obj
 0001:00067210       BN_STACK_push              00000000000674d0 f   OpensslLib:bn_ctx.obj
 0001:000672c0       BN_POOL_get                0000000000067580 f   OpensslLib:bn_ctx.obj
 0001:00067a00       bnrand                     0000000000067cc0 f   OpensslLib:bn_rand.obj
 0001:00067b8c       bnrand_range               0000000000067e4c f   OpensslLib:bn_rand.obj
 0001:00068224       pkey_cb                    00000000000684e4 f   OpensslLib:p8_pkey.obj
 0001:000683d4       ec_asn1_group2fieldid      0000000000068694 f   OpensslLib:ec_asn1.obj
 0001:00068504       ec_asn1_group2curve        00000000000687c4 f   OpensslLib:ec_asn1.obj
 0001:00069730       dh_cb                      00000000000699f0 f   OpensslLib:dh_asn1.obj
 0001:00069ba8       rsa_ossl_public_encrypt    0000000000069e68 f   OpensslLib:rsa_ossl.obj
 0001:00069e48       rsa_get_blinding           000000000006a108 f   OpensslLib:rsa_ossl.obj
 0001:00069ec0       rsa_ossl_private_encrypt   000000000006a180 f   OpensslLib:rsa_ossl.obj
 0001:0006a304       rsa_ossl_private_decrypt   000000000006a5c4 f   OpensslLib:rsa_ossl.obj
 0001:0006a6c8       rsa_ossl_public_decrypt    000000000006a988 f   OpensslLib:rsa_ossl.obj
 0001:0006a9e4       rsa_ossl_mod_exp           000000000006aca4 f   OpensslLib:rsa_ossl.obj
 0001:0006b4d4       rsa_ossl_init              000000000006b794 f   OpensslLib:rsa_ossl.obj
 0001:0006b4e0       rsa_ossl_finish            000000000006b7a0 f   OpensslLib:rsa_ossl.obj
 0001:0006bad0       bn_new                     000000000006bd90 f   OpensslLib:x_bignum.obj
 0001:0006baf4       bn_secure_new              000000000006bdb4 f   OpensslLib:x_bignum.obj
 0001:0006bb20       bn_free                    000000000006bde0 f   OpensslLib:x_bignum.obj
 0001:0006bb50       bn_i2c                     000000000006be10 f   OpensslLib:x_bignum.obj
 0001:0006bbc8       bn_c2i                     000000000006be88 f   OpensslLib:x_bignum.obj
 0001:0006bc30       bn_secure_c2i              000000000006bef0 f   OpensslLib:x_bignum.obj
 0001:0006bcbc       bn_print                   000000000006bf7c f   OpensslLib:x_bignum.obj
 0001:0006c624       v2i_issuer_alt             000000000006c8e4 f   OpensslLib:v3_alt.obj
 0001:0006c74c       copy_issuer                000000000006ca0c f   OpensslLib:v3_alt.obj
 0001:0006c8a8       v2i_subject_alt            000000000006cb68 f   OpensslLib:v3_alt.obj
 0001:0006ca08       copy_email                 000000000006ccc8 f   OpensslLib:v3_alt.obj
 0001:0006cf90       do_othername               000000000006d250 f   OpensslLib:v3_alt.obj
 0001:0006d050       do_dirname                 000000000006d310 f   OpensslLib:v3_alt.obj
 0001:0006d158       i2v_POLICY_CONSTRAINTS     000000000006d418 f   OpensslLib:v3_pcons.obj
 0001:0006d19c       v2i_POLICY_CONSTRAINTS     000000000006d45c f   OpensslLib:v3_pcons.obj
 0001:0006d47c       r2i_certpol                000000000006d73c f   OpensslLib:v3_cpols.obj
 0001:0006d6c4       policy_section             000000000006d984 f   OpensslLib:v3_cpols.obj
 0001:0006d98c       displaytext_str2tag        000000000006dc4c f   OpensslLib:v3_cpols.obj
 0001:0006da64       notice_section             000000000006dd24 f   OpensslLib:v3_cpols.obj
 0001:0006de34       i2r_certpol                000000000006e0f4 f   OpensslLib:v3_cpols.obj
 0001:0006ded8       print_qualifiers           000000000006e198 f   OpensslLib:v3_cpols.obj
 0001:0006e9dc       pkey_dh_init               000000000006ec9c f   OpensslLib:dh_pmeth.obj
 0001:0006ea38       pkey_dh_cleanup            000000000006ecf8 f   OpensslLib:dh_pmeth.obj
 0001:0006ea68       pkey_dh_copy               000000000006ed28 f   OpensslLib:dh_pmeth.obj
 0001:0006eb1c       pkey_dh_ctrl               000000000006eddc f   OpensslLib:dh_pmeth.obj
 0001:0006eccc       pkey_dh_ctrl_str           000000000006ef8c f   OpensslLib:dh_pmeth.obj
 0001:0006ee6c       pkey_dh_paramgen           000000000006f12c f   OpensslLib:dh_pmeth.obj
 0001:0006f090       pkey_dh_keygen             000000000006f350 f   OpensslLib:dh_pmeth.obj
 0001:0006f11c       pkey_dh_derive             000000000006f3dc f   OpensslLib:dh_pmeth.obj
 0001:0006f2a8       pkey_cmac_init             000000000006f568 f   OpensslLib:cm_pmeth.obj
 0001:0006f2d0       pkey_cmac_copy             000000000006f590 f   OpensslLib:cm_pmeth.obj
 0001:0006f310       pkey_cmac_keygen           000000000006f5d0 f   OpensslLib:cm_pmeth.obj
 0001:0006f378       int_update                 000000000006f638 f   OpensslLib:cm_pmeth.obj
 0001:0006f46c       cmac_signctx_init          000000000006f72c f   OpensslLib:cm_pmeth.obj
 0001:0006f484       cmac_signctx               000000000006f744 f   OpensslLib:cm_pmeth.obj
 0001:0006f594       pkey_cmac_ctrl             000000000006f854 f   OpensslLib:cm_pmeth.obj
 0001:0006f620       pkey_cmac_ctrl_str         000000000006f8e0 f   OpensslLib:cm_pmeth.obj
 0001:0006f6f0       pkey_rsa_init              000000000006f9b0 f   OpensslLib:rsa_pmeth.obj
 0001:0006f754       pkey_rsa_copy              000000000006fa14 f   OpensslLib:rsa_pmeth.obj
 0001:0006f7e8       setup_tbuf                 000000000006faa8 f   OpensslLib:rsa_pmeth.obj
 0001:0006f854       pkey_rsa_cleanup           000000000006fb14 f   OpensslLib:rsa_pmeth.obj
 0001:0006f88c       pkey_rsa_sign              000000000006fb4c f   OpensslLib:rsa_pmeth.obj
 0001:0006fa9c       pkey_rsa_verifyrecover     000000000006fd5c f   OpensslLib:rsa_pmeth.obj
 0001:0006fc30       pkey_rsa_verify            000000000006fef0 f   OpensslLib:rsa_pmeth.obj
 0001:0006fddc       pkey_rsa_encrypt           000000000007009c f   OpensslLib:rsa_pmeth.obj
 0001:0006fee0       pkey_rsa_decrypt           00000000000701a0 f   OpensslLib:rsa_pmeth.obj
 0001:00070020       check_padding_md           00000000000702e0 f   OpensslLib:rsa_pmeth.obj
 0001:000700d8       pkey_rsa_ctrl              0000000000070398 f   OpensslLib:rsa_pmeth.obj
 0001:00070468       pkey_rsa_ctrl_str          0000000000070728 f   OpensslLib:rsa_pmeth.obj
 0001:00070918       pkey_rsa_keygen            0000000000070bd8 f   OpensslLib:rsa_pmeth.obj
 0001:00070abc       pkey_pss_init              0000000000070d7c f   OpensslLib:rsa_pmeth.obj
 0001:00070ba8       pkey_tls1_prf_init         0000000000070e68 f   OpensslLib:tls1_prf.obj
 0001:00070be4       pkey_tls1_prf_cleanup      0000000000070ea4 f   OpensslLib:tls1_prf.obj
 0001:00070c44       pkey_tls1_prf_ctrl         0000000000070f04 f   OpensslLib:tls1_prf.obj
 0001:00070d58       pkey_tls1_prf_ctrl_str     0000000000071018 f   OpensslLib:tls1_prf.obj
 0001:00070e6c       pkey_tls1_prf_derive       000000000007112c f   OpensslLib:tls1_prf.obj
 0001:00070ee0       tls1_prf_P_hash            00000000000711a0 f   OpensslLib:tls1_prf.obj
 0001:00071158       tls1_prf_alg               0000000000071418 f   OpensslLib:tls1_prf.obj
 0001:000712d8       pkey_hkdf_init             0000000000071598 f   OpensslLib:hkdf.obj
 0001:00071314       pkey_hkdf_cleanup          00000000000715d4 f   OpensslLib:hkdf.obj
 0001:0007139c       pkey_hkdf_ctrl             000000000007165c f   OpensslLib:hkdf.obj
 0001:00071504       pkey_hkdf_ctrl_str         00000000000717c4 f   OpensslLib:hkdf.obj
 0001:000716b0       pkey_hkdf_derive_init      0000000000071970 f   OpensslLib:hkdf.obj
 0001:00071744       pkey_hkdf_derive           0000000000071a04 f   OpensslLib:hkdf.obj
 0001:000718c4       HKDF_Extract               0000000000071b84 f   OpensslLib:hkdf.obj
 0001:000719ac       HKDF_Expand                0000000000071c6c f   OpensslLib:hkdf.obj
 0001:00071b94       pkey_sm2_init              0000000000071e54 f   OpensslLib:sm2_pmeth.obj
 0001:00071bd0       pkey_sm2_cleanup           0000000000071e90 f   OpensslLib:sm2_pmeth.obj
 0001:00071c10       pkey_sm2_copy              0000000000071ed0 f   OpensslLib:sm2_pmeth.obj
 0001:00071ccc       pkey_sm2_sign              0000000000071f8c f   OpensslLib:sm2_pmeth.obj
 0001:00071d60       pkey_sm2_verify            0000000000072020 f   OpensslLib:sm2_pmeth.obj
 0001:00071eb4       pkey_sm2_encrypt           0000000000072174 f   OpensslLib:sm2_pmeth.obj
 0001:00071fa4       pkey_sm2_decrypt           0000000000072264 f   OpensslLib:sm2_pmeth.obj
 0001:00072058       pkey_sm2_ctrl              0000000000072318 f   OpensslLib:sm2_pmeth.obj
 0001:000721a4       pkey_sm2_ctrl_str          0000000000072464 f   OpensslLib:sm2_pmeth.obj
 0001:00072288       pkey_sm2_digest_custom     0000000000072548 f   OpensslLib:sm2_pmeth.obj
 0001:00072358       pkey_siphash_init          0000000000072618 f   OpensslLib:siphash_pmeth.obj
 0001:000723a4       pkey_siphash_cleanup       0000000000072664 f   OpensslLib:siphash_pmeth.obj
 0001:00072418       pkey_siphash_copy          00000000000726d8 f   OpensslLib:siphash_pmeth.obj
 0001:0007248c       pkey_siphash_keygen        000000000007274c f   OpensslLib:siphash_pmeth.obj
 0001:000724c8       int_update                 0000000000072788 f   OpensslLib:siphash_pmeth.obj
 0001:000724e8       siphash_signctx_init       00000000000727a8 f   OpensslLib:siphash_pmeth.obj
 0001:00072548       siphash_signctx            0000000000072808 f   OpensslLib:siphash_pmeth.obj
 0001:0007256c       pkey_siphash_ctrl          000000000007282c f   OpensslLib:siphash_pmeth.obj
 0001:00072668       pkey_siphash_ctrl_str      0000000000072928 f   OpensslLib:siphash_pmeth.obj
 0001:00072720       pkey_ec_init               00000000000729e0 f   OpensslLib:ec_pmeth.obj
 0001:00072764       pkey_ec_copy               0000000000072a24 f   OpensslLib:ec_pmeth.obj
 0001:0007280c       pkey_ec_cleanup            0000000000072acc f   OpensslLib:ec_pmeth.obj
 0001:00072854       pkey_ec_sign               0000000000072b14 f   OpensslLib:ec_pmeth.obj
 0001:00072928       pkey_ec_verify             0000000000072be8 f   OpensslLib:ec_pmeth.obj
 0001:00072994       pkey_ec_derive             0000000000072c54 f   OpensslLib:ec_pmeth.obj
 0001:00072a50       pkey_ec_kdf_derive         0000000000072d10 f   OpensslLib:ec_pmeth.obj
 0001:00072b68       pkey_ec_ctrl               0000000000072e28 f   OpensslLib:ec_pmeth.obj
 0001:00072dcc       pkey_ec_ctrl_str           000000000007308c f   OpensslLib:ec_pmeth.obj
 0001:00072f3c       pkey_ec_paramgen           00000000000731fc f   OpensslLib:ec_pmeth.obj
 0001:00072fc0       pkey_ec_keygen             0000000000073280 f   OpensslLib:ec_pmeth.obj
 0001:000730ac       pkey_hmac_init             000000000007336c f   OpensslLib:hm_pmeth.obj
 0001:00073118       pkey_hmac_copy             00000000000733d8 f   OpensslLib:hm_pmeth.obj
 0001:00073190       pkey_hmac_cleanup          0000000000073450 f   OpensslLib:hm_pmeth.obj
 0001:000731fc       pkey_hmac_keygen           00000000000734bc f   OpensslLib:hm_pmeth.obj
 0001:00073240       int_update                 0000000000073500 f   OpensslLib:hm_pmeth.obj
 0001:00073278       hmac_signctx_init          0000000000073538 f   OpensslLib:hm_pmeth.obj
 0001:000732b8       hmac_signctx               0000000000073578 f   OpensslLib:hm_pmeth.obj
 0001:00073324       pkey_hmac_ctrl             00000000000735e4 f   OpensslLib:hm_pmeth.obj
 0001:00073394       pkey_hmac_ctrl_str         0000000000073654 f   OpensslLib:hm_pmeth.obj
 0001:00073410       tls1_md5_final_raw         00000000000736d0 f   OpensslLib:s3_cbc.obj
 0001:000734a0       tls1_sha1_final_raw        0000000000073760 f   OpensslLib:s3_cbc.obj
 0001:00073544       tls1_sha256_final_raw      0000000000073804 f   OpensslLib:s3_cbc.obj
 0001:00073574       tls1_sha512_final_raw      0000000000073834 f   OpensslLib:s3_cbc.obj
 0001:00073d00       bn_from_montgomery_word    0000000000073fc0 f   OpensslLib:bn_mont.obj
 0001:0007646c       bn_get_bits                000000000007672c f   OpensslLib:bn_exp.obj
 0001:000764c4       MOD_EXP_CTIME_COPY_TO_PREBUF 0000000000076784 f   OpensslLib:bn_exp.obj
 0001:0007651c       MOD_EXP_CTIME_COPY_FROM_PREBUF 00000000000767dc f   OpensslLib:bn_exp.obj
 0001:000772e0       bn_mod_inverse_no_branch   00000000000775a0 f   OpensslLib:bn_gcd.obj
 0001:000781a4       generate_key               0000000000078464 f   OpensslLib:dh_key.obj
 0001:000783fc       compute_key                00000000000786bc f   OpensslLib:dh_key.obj
 0001:00078568       dh_bn_mod_exp              0000000000078828 f   OpensslLib:dh_key.obj
 0001:000785a4       dh_init                    0000000000078864 f   OpensslLib:dh_key.obj
 0001:000785b0       dh_finish                  0000000000078870 f   OpensslLib:dh_key.obj
 0001:00078748       julian_adj                 0000000000078a08 f   OpensslLib:o_time.obj
 0001:00078864       julian_to_date             0000000000078b24 f   OpensslLib:o_time.obj
 0001:0007896c       ctr_XOR                    0000000000078c2c f   OpensslLib:drbg_ctr.obj
 0001:000789ec       ctr_BCC_block              0000000000078cac f   OpensslLib:drbg_ctr.obj
 0001:00078a58       ctr_BCC_blocks             0000000000078d18 f   OpensslLib:drbg_ctr.obj
 0001:00078ad4       ctr_BCC_update             0000000000078d94 f   OpensslLib:drbg_ctr.obj
 0001:00078b98       ctr_df                     0000000000078e58 f   OpensslLib:drbg_ctr.obj
 0001:00078dfc       ctr_update                 00000000000790bc f   OpensslLib:drbg_ctr.obj
 0001:00078ff0       drbg_ctr_instantiate       00000000000792b0 f   OpensslLib:drbg_ctr.obj
 0001:000790e8       drbg_ctr_reseed            00000000000793a8 f   OpensslLib:drbg_ctr.obj
 0001:00079154       drbg_ctr_generate          0000000000079414 f   OpensslLib:drbg_ctr.obj
 0001:000793c0       drbg_ctr_uninstantiate     0000000000079680 f   OpensslLib:drbg_ctr.obj
 0001:00079f60       traverse_string            000000000007a220 f   OpensslLib:a_mbstr.obj
 0001:0007a058       in_utf8                    000000000007a318 f   OpensslLib:a_mbstr.obj
 0001:0007a060       out_utf8                   000000000007a320 f   OpensslLib:a_mbstr.obj
 0001:0007a084       type_str                   000000000007a344 f   OpensslLib:a_mbstr.obj
 0001:0007a128       cpy_asc                    000000000007a3e8 f   OpensslLib:a_mbstr.obj
 0001:0007a138       cpy_bmp                    000000000007a3f8 f   OpensslLib:a_mbstr.obj
 0001:0007a154       cpy_univ                   000000000007a414 f   OpensslLib:a_mbstr.obj
 0001:0007a184       cpy_utf8                   000000000007a444 f   OpensslLib:a_mbstr.obj
 0001:0007afb0       sm4_init_key               000000000007b270 f   OpensslLib:e_sm4.obj
 0001:0007afd0       sm4_cbc_cipher             000000000007b290 f   OpensslLib:e_sm4.obj
 0001:0007b0d8       sm4_cfb128_cipher          000000000007b398 f   OpensslLib:e_sm4.obj
 0001:0007b188       sm4_ecb_cipher             000000000007b448 f   OpensslLib:e_sm4.obj
 0001:0007b20c       sm4_ofb_cipher             000000000007b4cc f   OpensslLib:e_sm4.obj
 0001:0007b30c       sm4_ctr_cipher             000000000007b5cc f   OpensslLib:e_sm4.obj
 0001:0007b374       init                       000000000007b634 f   OpensslLib:m_sha3.obj
 0001:0007b3f4       sha3_init                  000000000007b6b4 f   OpensslLib:m_sha3.obj
 0001:0007b3fc       shake_init                 000000000007b6bc f   OpensslLib:m_sha3.obj
 0001:0007b404       sha3_update                000000000007b6c4 f   OpensslLib:m_sha3.obj
 0001:0007b4fc       sha3_final                 000000000007b7bc f   OpensslLib:m_sha3.obj
 0001:0007b5a0       shake_ctrl                 000000000007b860 f   OpensslLib:m_sha3.obj
 0001:0007b5c0       init                       000000000007b880 f   OpensslLib:m_sm3.obj
 0001:0007b61c       update                     000000000007b8dc f   OpensslLib:m_sm3.obj
 0001:0007b730       final                      000000000007b9f0 f   OpensslLib:m_sm3.obj
 0001:0007b848       st_free                    000000000007bb08 f   OpensslLib:a_strnid.obj
 0001:0007b938       node_cmp                   000000000007bbf8 f   OpensslLib:pcy_node.obj
 0001:0007ba94       oneshot_hash               000000000007bd54 f   OpensslLib:eddsa.obj
 0001:0007bb38       hash_init_with_dom         000000000007bdf8 f   OpensslLib:eddsa.obj
 0001:0007c250       fe_frombytes               000000000007c510 f   OpensslLib:curve25519.obj
 0001:0007c508       fe_tobytes                 000000000007c7c8 f   OpensslLib:curve25519.obj
 0001:0007c778       fe_mul                     000000000007ca38 f   OpensslLib:curve25519.obj
 0001:0007d030       fe_sq                      000000000007d2f0 f   OpensslLib:curve25519.obj
 0001:0007d5bc       fe_invert                  000000000007d87c f   OpensslLib:curve25519.obj
 0001:0007d7fc       fe_sq2                     000000000007dabc f   OpensslLib:curve25519.obj
 0001:0007dd6c       fe_pow22523                000000000007e02c f   OpensslLib:curve25519.obj
 0001:0007dfb0       ge_p3_tobytes              000000000007e270 f   OpensslLib:curve25519.obj
 0001:0007e030       ge_frombytes_vartime       000000000007e2f0 f   OpensslLib:curve25519.obj
 0001:0007e288       ge_p3_to_cached            000000000007e548 f   OpensslLib:curve25519.obj
 0001:0007e308       ge_p1p1_to_p2              000000000007e5c8 f   OpensslLib:curve25519.obj
 0001:0007e364       ge_p1p1_to_p3              000000000007e624 f   OpensslLib:curve25519.obj
 0001:0007e3d8       ge_p2_dbl                  000000000007e698 f   OpensslLib:curve25519.obj
 0001:0007e4c4       ge_p3_dbl                  000000000007e784 f   OpensslLib:curve25519.obj
 0001:0007e534       ge_madd                    000000000007e7f4 f   OpensslLib:curve25519.obj
 0001:0007e674       ge_add                     000000000007e934 f   OpensslLib:curve25519.obj
 0001:0007e7c8       cmov                       000000000007ea88 f   OpensslLib:curve25519.obj
 0001:0007e848       table_select               000000000007eb08 f   OpensslLib:curve25519.obj
 0001:0007ea40       ge_scalarmult_base         000000000007ed00 f   OpensslLib:curve25519.obj
 0001:0007ec2c       x25519_scalar_mult_generic 000000000007eeec f   OpensslLib:curve25519.obj
 0001:0007f0f0       slide                      000000000007f3b0 f   OpensslLib:curve25519.obj
 0001:0007f1f0       ge_double_scalarmult_vartime 000000000007f4b0 f   OpensslLib:curve25519.obj
 0001:0007f758       x25519_sc_reduce           000000000007fa18 f   OpensslLib:curve25519.obj
 0001:00080590       sc_muladd                  0000000000080850 f   OpensslLib:curve25519.obj
 0001:00082978       gf_bias                    0000000000082c38 f   OpensslLib:curve448.obj
 0001:000829d8       gf_weak_reduce             0000000000082c98 f   OpensslLib:curve448.obj
 0001:000829d8       gf_weak_reduce             0000000000082c98 f   OpensslLib:f_generic.obj
 0001:00082a24       gf_sub_nr                  0000000000082ce4 f   OpensslLib:curve448.obj
 0001:00082a68       gf_cond_neg                0000000000082d28 f   OpensslLib:curve448.obj
 0001:00082ae0       gf_invert                  0000000000082da0 f   OpensslLib:curve448.obj
 0001:00082b6c       point_double_internal      0000000000082e2c f   OpensslLib:curve448.obj
 0001:00082d38       pt_to_pniels               0000000000082ff8 f   OpensslLib:curve448.obj
 0001:00082db8       pniels_to_pt               0000000000083078 f   OpensslLib:curve448.obj
 0001:00082e58       niels_to_pt                0000000000083118 f   OpensslLib:curve448.obj
 0001:00082ef4       add_niels_to_pt            00000000000831b4 f   OpensslLib:curve448.obj
 0001:00083068       sub_niels_from_pt          0000000000083328 f   OpensslLib:curve448.obj
 0001:000831d0       add_pniels_to_pt           0000000000083490 f   OpensslLib:curve448.obj
 0001:00083e5c       recode_wnaf                000000000008411c f   OpensslLib:curve448.obj
 0001:00084c98       print_bin                  0000000000084f58 f   OpensslLib:eck_prn.obj
 0001:0008592c       free_string                0000000000085bec f   OpensslLib:ui_lib.obj
 0001:00085974       general_allocate_string    0000000000085c34 f   OpensslLib:ui_lib.obj
 0001:00085a74       print_error                0000000000085d34 f   OpensslLib:ui_lib.obj
 0001:00086540       ecdsa_sign_setup           0000000000086800 f   OpensslLib:ecdsa_ossl.obj
 0001:00088cc8       generate_v3                0000000000088f88 f   OpensslLib:asn1_gen.obj
 0001:00088fd8       asn1_cb                    0000000000089298 f   OpensslLib:asn1_gen.obj
 0001:00089254       parse_tagging              0000000000089514 f   OpensslLib:asn1_gen.obj
 0001:00089300       asn1_multi                 00000000000895c0 f   OpensslLib:asn1_gen.obj
 0001:000894a8       append_exp                 0000000000089768 f   OpensslLib:asn1_gen.obj
 0001:0008953c       asn1_str2tag               00000000000897fc f   OpensslLib:asn1_gen.obj
 0001:000895d4       asn1_str2type              0000000000089894 f   OpensslLib:asn1_gen.obj
 0001:00089968       bitstr_cb                  0000000000089c28 f   OpensslLib:asn1_gen.obj
 0001:000899bc       mask_cb                    0000000000089c7c f   OpensslLib:asn1_gen.obj
 0001:00089a64       i2v_POLICY_MAPPINGS        0000000000089d24 f   OpensslLib:v3_pmaps.obj
 0001:00089b1c       v2i_POLICY_MAPPINGS        0000000000089ddc f   OpensslLib:v3_pmaps.obj
 0001:00089d04       i2v_EXTENDED_KEY_USAGE     0000000000089fc4 f   OpensslLib:v3_extku.obj
 0001:00089d90       v2i_EXTENDED_KEY_USAGE     000000000008a050 f   OpensslLib:v3_extku.obj
 0001:0008a09c       i2r_ocsp_crlid             000000000008a35c f   OpensslLib:v3_ocsp.obj
 0001:0008a1f0       i2r_ocsp_acutoff           000000000008a4b0 f   OpensslLib:v3_ocsp.obj
 0001:0008a23c       i2r_object                 000000000008a4fc f   OpensslLib:v3_ocsp.obj
 0001:0008a280       ocsp_nonce_new             000000000008a540 f   OpensslLib:v3_ocsp.obj
 0001:0008a28c       i2d_ocsp_nonce             000000000008a54c f   OpensslLib:v3_ocsp.obj
 0001:0008a2c4       d2i_ocsp_nonce             000000000008a584 f   OpensslLib:v3_ocsp.obj
 0001:0008a35c       i2r_ocsp_nonce             000000000008a61c f   OpensslLib:v3_ocsp.obj
 0001:0008a3a0       s2i_ocsp_nocheck           000000000008a660 f   OpensslLib:v3_ocsp.obj
 0001:0008a3ac       i2r_ocsp_serviceloc        000000000008a66c f   OpensslLib:v3_ocsp.obj
 0001:0008a4b8       i2v_AUTHORITY_KEYID        000000000008a778 f   OpensslLib:v3_akey.obj
 0001:0008a5f8       v2i_AUTHORITY_KEYID        000000000008a8b8 f   OpensslLib:v3_akey.obj
 0001:0008a9f8       s2i_asn1_int               000000000008acb8 f   OpensslLib:v3_int.obj
 0001:0008aa00       i2r_NAMING_AUTHORITY       000000000008acc0 f   OpensslLib:v3_admis.obj
 0001:0008abac       i2r_ADMISSION_SYNTAX       000000000008ae6c f   OpensslLib:v3_admis.obj
 0001:0008afe8       s2i_skey_id                000000000008b2a8 f   OpensslLib:v3_skey.obj
 0001:0008b1d4       i2r_PKEY_USAGE_PERIOD      000000000008b494 f   OpensslLib:v3_pku.obj
 0001:0008b27c       sxnet_i2r                  000000000008b53c f   OpensslLib:v3_sxnet.obj
 0001:0008b33c       sxnet_v2i                  000000000008b5fc f   OpensslLib:v3_sxnet.obj
 0001:0008b638       i2r_pci                    000000000008b8f8 f   OpensslLib:v3_pci.obj
 0001:0008b6dc       process_pci_value          000000000008b99c f   OpensslLib:v3_pci.obj
 0001:0008baf4       r2i_pci                    000000000008bdb4 f   OpensslLib:v3_pci.obj
 0001:0008bf20       i2v_TLS_FEATURE            000000000008c1e0 f   OpensslLib:v3_tlsf.obj
 0001:0008bfd4       v2i_TLS_FEATURE            000000000008c294 f   OpensslLib:v3_tlsf.obj
 0001:0008c738       witness                    000000000008c9f8 f   OpensslLib:bn_prime.obj
 0001:0008c818       probable_prime             000000000008cad8 f   OpensslLib:bn_prime.obj
 0001:0008c9ac       probable_prime_dh          000000000008cc6c f   OpensslLib:bn_prime.obj
 0001:0008cc9c       dh_param_init              000000000008cf5c f   OpensslLib:dh_rfc7919.obj
 0001:0008cd5c       dh_builtin_genparams       000000000008d01c f   OpensslLib:dh_gen.obj
 0001:0008d048       rsa_builtin_keygen         000000000008d308 f   OpensslLib:rsa_gen.obj
 0001:0008d9e8       encode_pkcs1               000000000008dca8 f   OpensslLib:rsa_sign.obj
 0001:0008e958       sm2_sig_gen                000000000008ec18 f   OpensslLib:sm2_sign.obj
 0001:0008ec04       sm2_sig_verify             000000000008eec4 f   OpensslLib:sm2_sign.obj
 0001:0008f010       ec_field_size              000000000008f2d0 f   OpensslLib:sm2_crypt.obj
 0001:00090ca0       nist_cp_bn_0               0000000000090f60 f   OpensslLib:bn_nist.obj
 0001:000926a0       SM4_T_slow                 0000000000092960 f   OpensslLib:sm4.obj
 0001:00093a2c       alg_module_init            0000000000093cec f   OpensslLib:evp_cnf.obj
 0001:00093b84       stbl_module_init           0000000000093e44 f   OpensslLib:asn_mstbl.obj
 0001:00093c60       stbl_module_finish         0000000000093f20 f   OpensslLib:asn_mstbl.obj
 0001:00093c8c       do_tcreate                 0000000000093f4c f   OpensslLib:asn_mstbl.obj
 0001:00093ff0       oid_module_init            00000000000942b0 f   OpensslLib:asn_moid.obj
 0001:000941d4       oid_module_finish          0000000000094494 f   OpensslLib:asn_moid.obj
 0001:000941d8       Round                      0000000000094498 f   OpensslLib:keccak1600.obj
 0001:000945a8       KeccakF1600                0000000000094868 f   OpensslLib:keccak1600.obj
 0001:000970a4       sc_subx                    0000000000097364 f   OpensslLib:scalar.obj
 0001:00097130       sc_montmul                 00000000000973f0 f   OpensslLib:scalar.obj
 0001:000974f4       gf_sqrn                    00000000000977b4 f   OpensslLib:f_generic.obj
 0001:0009bd2c       inet_pton4                 000000000009bfec f   BaseCryptLib:inet_pton.obj
 0001:0009bdfc       inet_pton6                 000000000009c0bc f   BaseCryptLib:inet_pton.obj
 0001:0009bfe4       QuickSortWorker            000000000009c2a4 f   BaseCryptLib:CrtWrapper.obj
 0002:00000c40       TlsCipherMappingTable      000000000009db40     TlsLib:TlsConfig.obj
 0002:00001ce0       secmem_method              000000000009ebe0     OpensslLib:bss_mem.obj
 0002:00001d40       mem_method                 000000000009ec40     OpensslLib:bss_mem.obj
 0002:00001da0       ?tlsv1_2_client_method_data@?1??tlsv1_2_client_method@@9@9 000000000009eca0     OpensslLib:methods.obj
 0002:00001e80       ?tlsv1_3_server_method_data@?1??tlsv1_3_server_method@@9@9 000000000009ed80     OpensslLib:methods.obj
 0002:00001f60       ?tlsv1_1_client_method_data@?1??tlsv1_1_client_method@@9@9 000000000009ee60     OpensslLib:methods.obj
 0002:00002040       ?tlsv1_1_server_method_data@?1??tlsv1_1_server_method@@9@9 000000000009ef40     OpensslLib:methods.obj
 0002:00002120       ?tlsv1_3_client_method_data@?1??tlsv1_3_client_method@@9@9 000000000009f020     OpensslLib:methods.obj
 0002:00002200       ?tlsv1_server_method_data@?1??tlsv1_server_method@@9@9 000000000009f100     OpensslLib:methods.obj
 0002:000022e0       ?tlsv1_client_method_data@?1??tlsv1_client_method@@9@9 000000000009f1e0     OpensslLib:methods.obj
 0002:000023c0       ?TLS_client_method_data@?1??TLS_client_method@@9@9 000000000009f2c0     OpensslLib:methods.obj
 0002:000024a0       ?tlsv1_2_server_method_data@?1??tlsv1_2_server_method@@9@9 000000000009f3a0     OpensslLib:methods.obj
 0002:000029b0       cipher_aliases             000000000009f8b0     OpensslLib:ssl_ciph.obj
 0002:00004170       ssl_cipher_table_mac       00000000000a1070     OpensslLib:ssl_ciph.obj
 0002:000041d0       ssl_cipher_table_cipher    00000000000a10d0     OpensslLib:ssl_ciph.obj
 0002:00004360       X509_CINF_seq_tt           00000000000a1260     OpensslLib:x_x509.obj
 0002:000044a0       X509_seq_tt                00000000000a13a0     OpensslLib:x_x509.obj
 0002:00004530       X509_CINF_aux              00000000000a1430     OpensslLib:x_x509.obj
 0002:00004558       X509_aux                   00000000000a1458     OpensslLib:x_x509.obj
 0002:00004600       default_table              00000000000a1500     OpensslLib:x509_vpm.obj
 0002:00004888       ?minbits_table@?1??ssl_get_security_level_bits@@9@9 00000000000a1788     OpensslLib:ssl_cert.obj
 0002:000048a0       ssl_cert_info              00000000000a17a0     OpensslLib:ssl_cert.obj
 0002:00004ca0       tls12_sigalgs              00000000000a1ba0     OpensslLib:t1_lib.obj
 0002:00004cc4       ecformats_default          00000000000a1bc4     OpensslLib:t1_lib.obj
 0002:00004cd0       legacy_rsa_sigalg          00000000000a1bd0     OpensslLib:t1_lib.obj
 0002:00004cf8       tls_default_sigalg         00000000000a1bf8     OpensslLib:t1_lib.obj
 0002:00004d10       nid_list                   00000000000a1c10     OpensslLib:t1_lib.obj
 0002:00004e80       sigalg_lookup_tbl          00000000000a1d80     OpensslLib:t1_lib.obj
 0002:00005150       eccurves_default           00000000000a2050     OpensslLib:t1_lib.obj
 0002:0000515c       suiteb_sigalgs             00000000000a205c     OpensslLib:t1_lib.obj
 0002:00005160       suiteb_curves              00000000000a2060     OpensslLib:t1_lib.obj
 0002:000051c0       X509_PUBKEY_aux            00000000000a20c0     OpensslLib:x_pubkey.obj
 0002:000051f0       X509_PUBKEY_seq_tt         00000000000a20f0     OpensslLib:x_pubkey.obj
 0002:000052c0       OCSP_SERVICELOC_seq_tt     00000000000a21c0     OpensslLib:ocsp_asn.obj
 0002:00005300       OCSP_CRLID_seq_tt          00000000000a2200     OpensslLib:ocsp_asn.obj
 0002:000053c0       OCSP_RESPID_ch_tt          00000000000a22c0     OpensslLib:ocsp_asn.obj
 0002:00005430       ?hexdig@?1??do_hex_dump@@9@9 00000000000a2330     OpensslLib:a_strex.obj
 0002:00005430       ?hexdig@?1??OPENSSL_buf2hexstr@@9@9 00000000000a2330     OpensslLib:o_str.obj
 0002:00005430       ?hex@?1??X509_NAME_oneline@@9@9 00000000000a2330     OpensslLib:x509_obj.obj
 0002:000054a3       ?null_compression@?1??tls_process_client_hello@@9@9 00000000000a23a3     OpensslLib:statem_srvr.obj
 0002:000054a8       ?nonce_label@?2??tls_construct_new_session_ticket@@9@9 00000000000a23a8     OpensslLib:statem_srvr.obj
 0002:000054b8       ?kSafariExtensionsBlock@?1??ssl_check_for_safari@@9@9 00000000000a23b8     OpensslLib:statem_srvr.obj
 0002:00005600       ?supported_nids@?1??X509_supported_extension@@9@9 00000000000a2500     OpensslLib:v3_purp.obj
 0002:000056d0       X509_NAME_ENTRIES_item_tt  00000000000a25d0     OpensslLib:x_name.obj
 0002:000056f0       X509_NAME_ENTRY_seq_tt     00000000000a25f0     OpensslLib:x_name.obj
 0002:00005760       X509_NAME_INTERNAL_item_tt 00000000000a2660     OpensslLib:x_name.obj
 0002:00005780       x509_name_ff               00000000000a2680     OpensslLib:x_name.obj
 0002:000057b8       X509_NAME_INTERNAL_it      00000000000a26b8     OpensslLib:x_name.obj
 0002:000057e8       X509_NAME_ENTRIES_it       00000000000a26e8     OpensslLib:x_name.obj
 0002:000060d0       nid_objs                   00000000000a2fd0     OpensslLib:obj_dat.obj
 0002:00011b90       ln_objs                    00000000000aea90     OpensslLib:obj_dat.obj
 0002:00012e20       so                         00000000000afd20     OpensslLib:obj_dat.obj
 0002:00014c80       obj_objs                   00000000000b1b80     OpensslLib:obj_dat.obj
 0002:00015d40       sn_objs                    00000000000b2c40     OpensslLib:obj_dat.obj
 0002:0001e8e0       methods_buffer             00000000000bb7e0     OpensslLib:bf_buff.obj
 0002:0001e9c0       X509_EXTENSION_seq_tt      00000000000bb8c0     OpensslLib:x_exten.obj
 0002:0001ea50       X509_EXTENSIONS_item_tt    00000000000bb950     OpensslLib:x_exten.obj
 0002:0001eb70       ?client_handshake_traffic@?1??tls13_change_cipher_state@@9@9 00000000000bba70     OpensslLib:tls13_enc.obj
 0002:0001eb80       ?application_traffic@?1??tls13_update_key@@9@9 00000000000bba80     OpensslLib:tls13_enc.obj
 0002:0001eb90       ?exporter_master_secret@?1??tls13_change_cipher_state@@9@9 00000000000bba90     OpensslLib:tls13_enc.obj
 0002:0001eba0       ?exporterlabel@?1??tls13_export_keying_material@@9@9 00000000000bbaa0     OpensslLib:tls13_enc.obj
 0002:0001ebb0       ?resumption_master_secret@?1??tls13_change_cipher_state@@9@9 00000000000bbab0     OpensslLib:tls13_enc.obj
 0002:0001ebbc       ?keylabel@?1??tls13_derive_key@@9@9 00000000000bbabc     OpensslLib:tls13_enc.obj
 0002:0001ebc0       ?server_handshake_traffic@?1??tls13_change_cipher_state@@9@9 00000000000bbac0     OpensslLib:tls13_enc.obj
 0002:0001ebd0       ?ivlabel@?1??tls13_derive_iv@@9@9 00000000000bbad0     OpensslLib:tls13_enc.obj
 0002:0001ebd4       ?label_prefix@?1??tls13_hkdf_expand@@9@9 00000000000bbad4     OpensslLib:tls13_enc.obj
 0002:0001ebe0       ?server_application_traffic@?1??tls13_change_cipher_state@@9@9 00000000000bbae0     OpensslLib:tls13_enc.obj
 0002:0001ebf0       ?early_exporter_master_secret@?1??tls13_change_cipher_state@@9@9 00000000000bbaf0     OpensslLib:tls13_enc.obj
 0002:0001ec00       ?derived_secret_label@?1??tls13_generate_secret@@9@9 00000000000bbb00     OpensslLib:tls13_enc.obj
 0002:0001ec08       ?client_early_traffic@?1??tls13_change_cipher_state@@9@9 00000000000bbb08     OpensslLib:tls13_enc.obj
 0002:0001ec18       ?client_application_traffic@?1??tls13_change_cipher_state@@9@9 00000000000bbb18     OpensslLib:tls13_enc.obj
 0002:0001ec28       ?finishedlabel@?1??tls13_derive_finishedkey@@9@9 00000000000bbb28     OpensslLib:tls13_enc.obj
 0002:0001ec80       dtls_version_table         00000000000bbb80     OpensslLib:statem_lib.obj
 0002:0001ece0       ?servercontext@?1??get_cert_verify_tbs_data@@9@9 00000000000bbbe0     OpensslLib:statem_lib.obj
 0002:0001ed10       ?clientcontext@?1??get_cert_verify_tbs_data@@9@9 00000000000bbc10     OpensslLib:statem_lib.obj
 0002:0001ed40       tls_version_table          00000000000bbc40     OpensslLib:statem_lib.obj
 0002:0001edd0       x509table                  00000000000bbcd0     OpensslLib:statem_lib.obj
 0002:0001ef50       aes_192_ecb                00000000000bbe50     OpensslLib:e_aes.obj
 0002:0001efb0       aes_192_ccm                00000000000bbeb0     OpensslLib:e_aes.obj
 0002:0001f010       aes_192_ctr                00000000000bbf10     OpensslLib:e_aes.obj
 0002:0001f070       aes_128_ofb                00000000000bbf70     OpensslLib:e_aes.obj
 0002:0001f0d0       aes_256_ccm                00000000000bbfd0     OpensslLib:e_aes.obj
 0002:0001f130       aes_192_gcm                00000000000bc030     OpensslLib:e_aes.obj
 0002:0001f190       aes_128_wrap_pad           00000000000bc090     OpensslLib:e_aes.obj
 0002:0001f1f0       aes_256_ctr                00000000000bc0f0     OpensslLib:e_aes.obj
 0002:0001f250       aes_192_cfb8               00000000000bc150     OpensslLib:e_aes.obj
 0002:0001f2b0       aes_192_cfb                00000000000bc1b0     OpensslLib:e_aes.obj
 0002:0001f310       aes_256_gcm                00000000000bc210     OpensslLib:e_aes.obj
 0002:0001f370       aes_128_gcm                00000000000bc270     OpensslLib:e_aes.obj
 0002:0001f3d0       aes_128_cfb1               00000000000bc2d0     OpensslLib:e_aes.obj
 0002:0001f430       aes_192_cbc                00000000000bc330     OpensslLib:e_aes.obj
 0002:0001f490       aes_128_xts                00000000000bc390     OpensslLib:e_aes.obj
 0002:0001f4f0       aes_128_ctr                00000000000bc3f0     OpensslLib:e_aes.obj
 0002:0001f550       aes_256_wrap               00000000000bc450     OpensslLib:e_aes.obj
 0002:0001f5b0       aes_256_cbc                00000000000bc4b0     OpensslLib:e_aes.obj
 0002:0001f610       aes_192_ofb                00000000000bc510     OpensslLib:e_aes.obj
 0002:0001f670       aes_256_wrap_pad           00000000000bc570     OpensslLib:e_aes.obj
 0002:0001f6d0       aes_128_ecb                00000000000bc5d0     OpensslLib:e_aes.obj
 0002:0001f730       aes_256_ofb                00000000000bc630     OpensslLib:e_aes.obj
 0002:0001f790       aes_256_cfb                00000000000bc690     OpensslLib:e_aes.obj
 0002:0001f7f0       aes_128_wrap               00000000000bc6f0     OpensslLib:e_aes.obj
 0002:0001f850       aes_256_cfb1               00000000000bc750     OpensslLib:e_aes.obj
 0002:0001f8b0       aes_128_cbc                00000000000bc7b0     OpensslLib:e_aes.obj
 0002:0001f910       aes_192_wrap_pad           00000000000bc810     OpensslLib:e_aes.obj
 0002:0001f970       aes_256_cfb8               00000000000bc870     OpensslLib:e_aes.obj
 0002:0001f9d0       aes_128_cfb8               00000000000bc8d0     OpensslLib:e_aes.obj
 0002:0001fa30       aes_256_ecb                00000000000bc930     OpensslLib:e_aes.obj
 0002:0001fa90       aes_256_xts                00000000000bc990     OpensslLib:e_aes.obj
 0002:0001faf0       aes_128_cfb                00000000000bc9f0     OpensslLib:e_aes.obj
 0002:0001fb50       aes_192_wrap               00000000000bca50     OpensslLib:e_aes.obj
 0002:0001fbb0       aes_192_cfb1               00000000000bcab0     OpensslLib:e_aes.obj
 0002:0001fc10       aes_128_ccm                00000000000bcb10     OpensslLib:e_aes.obj
 0002:0001fc70       sha1_md                    00000000000bcb70     OpensslLib:m_sha1.obj
 0002:0001fcc0       sha224_md                  00000000000bcbc0     OpensslLib:m_sha1.obj
 0002:0001fd10       sha512_224_md              00000000000bcc10     OpensslLib:m_sha1.obj
 0002:0001fd60       sha256_md                  00000000000bcc60     OpensslLib:m_sha1.obj
 0002:0001fdb0       sha512_md                  00000000000bccb0     OpensslLib:m_sha1.obj
 0002:0001fe00       sha384_md                  00000000000bcd00     OpensslLib:m_sha1.obj
 0002:0001fe50       sha512_256_md              00000000000bcd50     OpensslLib:m_sha1.obj
 0002:0001fea0       aria_256_ctr               00000000000bcda0     OpensslLib:e_aria.obj
 0002:0001ff00       aria_192_ofb               00000000000bce00     OpensslLib:e_aria.obj
 0002:0001ff60       aria_128_cbc               00000000000bce60     OpensslLib:e_aria.obj
 0002:0001ffc0       aria_192_ccm               00000000000bcec0     OpensslLib:e_aria.obj
 0002:00020020       aria_128_ofb               00000000000bcf20     OpensslLib:e_aria.obj
 0002:00020080       aria_128_gcm               00000000000bcf80     OpensslLib:e_aria.obj
 0002:000200e0       aria_192_cfb8              00000000000bcfe0     OpensslLib:e_aria.obj
 0002:00020140       aria_256_cbc               00000000000bd040     OpensslLib:e_aria.obj
 0002:000201a0       aria_192_cfb1              00000000000bd0a0     OpensslLib:e_aria.obj
 0002:00020200       aria_128_ecb               00000000000bd100     OpensslLib:e_aria.obj
 0002:00020260       aria_256_ecb               00000000000bd160     OpensslLib:e_aria.obj
 0002:000202c0       aria_192_ecb               00000000000bd1c0     OpensslLib:e_aria.obj
 0002:00020320       aria_128_cfb1              00000000000bd220     OpensslLib:e_aria.obj
 0002:00020380       aria_256_cfb8              00000000000bd280     OpensslLib:e_aria.obj
 0002:000203e0       aria_256_gcm               00000000000bd2e0     OpensslLib:e_aria.obj
 0002:00020440       aria_256_cfb1              00000000000bd340     OpensslLib:e_aria.obj
 0002:000204a0       aria_128_cfb128            00000000000bd3a0     OpensslLib:e_aria.obj
 0002:00020500       aria_256_cfb128            00000000000bd400     OpensslLib:e_aria.obj
 0002:00020560       aria_128_ctr               00000000000bd460     OpensslLib:e_aria.obj
 0002:000205c0       aria_128_cfb8              00000000000bd4c0     OpensslLib:e_aria.obj
 0002:00020620       aria_192_cfb128            00000000000bd520     OpensslLib:e_aria.obj
 0002:00020680       aria_192_cbc               00000000000bd580     OpensslLib:e_aria.obj
 0002:000206e0       aria_192_ctr               00000000000bd5e0     OpensslLib:e_aria.obj
 0002:00020740       aria_128_ccm               00000000000bd640     OpensslLib:e_aria.obj
 0002:000207a0       aria_256_ofb               00000000000bd6a0     OpensslLib:e_aria.obj
 0002:00020800       aria_256_ccm               00000000000bd700     OpensslLib:e_aria.obj
 0002:00020860       aria_192_gcm               00000000000bd760     OpensslLib:e_aria.obj
 0002:000208c0       md5_sha1_md                00000000000bd7c0     OpensslLib:m_md5_sha1.obj
 0002:00020910       md5_md                     00000000000bd810     OpensslLib:m_md5.obj
 0002:000226b0       X509_REVOKED_seq_tt        00000000000bf5b0     OpensslLib:x_crl.obj
 0002:00022710       X509_CRL_INFO_seq_tt       00000000000bf610     OpensslLib:x_crl.obj
 0002:000227f0       X509_CRL_seq_tt            00000000000bf6f0     OpensslLib:x_crl.obj
 0002:00022850       X509_CRL_INFO_aux          00000000000bf750     OpensslLib:x_crl.obj
 0002:000228a8       X509_CRL_aux               00000000000bf7a8     OpensslLib:x_crl.obj
 0002:000228d0       minbits_table              00000000000bf7d0     OpensslLib:x509_vfy.obj
 0002:00022900       n_cipher                   00000000000bf800     OpensslLib:e_null.obj
 0002:00022ad0       SSL_SESSION_ASN1_seq_tt    00000000000bf9d0     OpensslLib:ssl_asn1.obj
 0002:00022db0       SSL_SESSION_ASN1_it        00000000000bfcb0     OpensslLib:ssl_asn1.obj
 0002:00022f10       ?ENCRYPTED@?1??PEM_get_EVP_CIPHER_INFO@@9@9 00000000000bfe10     OpensslLib:pem_lib.obj
 0002:00022f20       endstr                     00000000000bfe20     OpensslLib:pem_lib.obj
 0002:00022f30       ?DEKInfo@?1??PEM_get_EVP_CIPHER_INFO@@9@9 00000000000bfe30     OpensslLib:pem_lib.obj
 0002:00022f40       beginstr                   00000000000bfe40     OpensslLib:pem_lib.obj
 0002:00022f4c       tailstr                    00000000000bfe4c     OpensslLib:pem_lib.obj
 0002:00022f58       ?ProcType@?1??PEM_get_EVP_CIPHER_INFO@@9@9 00000000000bfe58     OpensslLib:pem_lib.obj
 0002:00022f70       ext_defs                   00000000000bfe70     OpensslLib:extensions.obj
 0002:00023520       ?resumption_label@?1??tls_psk_do_binder@@9@9 00000000000c0420     OpensslLib:extensions.obj
 0002:00023530       ?external_label@?1??tls_psk_do_binder@@9@9 00000000000c0430     OpensslLib:extensions.obj
 0002:00023550       methods_filep              00000000000c0450     OpensslLib:bss_file.obj
 0002:000236e0       RSAPublicKey_seq_tt        00000000000c05e0     OpensslLib:rsa_asn1.obj
 0002:00023720       RSAPublicKey_aux           00000000000c0620     OpensslLib:rsa_asn1.obj
 0002:00023750       RSAPrivateKey_seq_tt       00000000000c0650     OpensslLib:rsa_asn1.obj
 0002:00023890       RSAPrivateKey_aux          00000000000c0790     OpensslLib:rsa_asn1.obj
 0002:000238e8       RSA_PSS_PARAMS_aux         00000000000c07e8     OpensslLib:rsa_asn1.obj
 0002:00023910       RSA_PSS_PARAMS_seq_tt      00000000000c0810     OpensslLib:rsa_asn1.obj
 0002:000239c0       RSA_PRIME_INFO_seq_tt      00000000000c08c0     OpensslLib:rsa_asn1.obj
 0002:00023bd0       ASN1_SEQUENCE_ANY_item_tt  00000000000c0ad0     OpensslLib:tasn_typ.obj
 0002:00023c80       ASN1_SET_ANY_item_tt       00000000000c0b80     OpensslLib:tasn_typ.obj
 0002:00023f60       tag2bit                    00000000000c0e60     OpensslLib:tasn_dec.obj
 0002:00024000       X509_ALGOR_seq_tt          00000000000c0f00     OpensslLib:x_algor.obj
 0002:00024308       CRL_DIST_POINTS_item_tt    00000000000c1208     OpensslLib:v3_crld.obj
 0002:00024330       ISSUING_DIST_POINT_seq_tt  00000000000c1230     OpensslLib:v3_crld.obj
 0002:000244c0       reason_flags               00000000000c13c0     OpensslLib:v3_crld.obj
 0002:00024650       DIST_POINT_NAME_ch_tt      00000000000c1550     OpensslLib:v3_crld.obj
 0002:00024700       DIST_POINT_seq_tt          00000000000c1600     OpensslLib:v3_crld.obj
 0002:00024790       DIST_POINT_NAME_aux        00000000000c1690     OpensslLib:v3_crld.obj
 0002:000247f0       X509_CERT_AUX_seq_tt       00000000000c16f0     OpensslLib:x_x509a.obj
 0002:00024910       AUTHORITY_KEYID_seq_tt     00000000000c1810     OpensslLib:v3_akeya.obj
 0002:00024ac0       OTHERNAME_seq_tt           00000000000c19c0     OpensslLib:v3_genn.obj
 0002:00024b00       EDIPARTYNAME_seq_tt        00000000000c1a00     OpensslLib:v3_genn.obj
 0002:00024b40       GENERAL_NAMES_item_tt      00000000000c1a40     OpensslLib:v3_genn.obj
 0002:00024bc0       GENERAL_NAME_ch_tt         00000000000c1ac0     OpensslLib:v3_genn.obj
 0002:00024d70       X509_VAL_seq_tt            00000000000c1c70     OpensslLib:x_val.obj
 0002:00024e70       NAME_CONSTRAINTS_seq_tt    00000000000c1d70     OpensslLib:v3_ncons.obj
 0002:00024f50       GENERAL_SUBTREE_seq_tt     00000000000c1e50     OpensslLib:v3_ncons.obj
 0002:000250c8       ?nonce_label@?N@??tls_process_new_session_ticket@@9@9 00000000000c1fc8     OpensslLib:statem_clnt.obj
 0002:00025260       bitmask_end_values         00000000000c2160     OpensslLib:statem_dtls.obj
 0002:00025268       bitmask_start_values       00000000000c2168     OpensslLib:statem_dtls.obj
 0002:00025dc0       ctype_char_map             00000000000c2cc0     OpensslLib:ctype.obj
 0002:00025ef6       ?dummy_key@?1??HMAC@@9@9   00000000000c2df6     OpensslLib:hmac.obj
 0002:00025ef8       ?const_one@?1??BN_value_one@@9@9 00000000000c2df8     OpensslLib:bn_lib.obj
 0002:00025f10       ?data_one@?1??BN_value_one@@9@9 00000000000c2e10     OpensslLib:bn_lib.obj
 0002:00026420       _EC_brainpoolP512t1        00000000000c3320     OpensslLib:ec_curve.obj
 0002:000265b0       _EC_WTLS_8                 00000000000c34b0     OpensslLib:ec_curve.obj
 0002:00026620       _EC_brainpoolP512r1        00000000000c3520     OpensslLib:ec_curve.obj
 0002:000267b0       _EC_X9_62_PRIME_239V3      00000000000c36b0     OpensslLib:ec_curve.obj
 0002:00026890       _EC_SECG_PRIME_224K1       00000000000c3790     OpensslLib:ec_curve.obj
 0002:00026950       _EC_SECG_PRIME_128R2       00000000000c3850     OpensslLib:ec_curve.obj
 0002:000269e0       _EC_sm2p256v1              00000000000c38e0     OpensslLib:ec_curve.obj
 0002:00026ab0       curve_list                 00000000000c39b0     OpensslLib:ec_curve.obj
 0002:00026fb0       _EC_brainpoolP256t1        00000000000c3eb0     OpensslLib:ec_curve.obj
 0002:00027080       _EC_SECG_PRIME_112R1       00000000000c3f80     OpensslLib:ec_curve.obj
 0002:00027100       _EC_NIST_PRIME_521         00000000000c4000     OpensslLib:ec_curve.obj
 0002:000272b0       _EC_NIST_PRIME_192         00000000000c41b0     OpensslLib:ec_curve.obj
 0002:00027370       _EC_NIST_PRIME_384         00000000000c4270     OpensslLib:ec_curve.obj
 0002:000274c0       _EC_SECG_PRIME_128R1       00000000000c43c0     OpensslLib:ec_curve.obj
 0002:00027550       _EC_WTLS_9                 00000000000c4450     OpensslLib:ec_curve.obj
 0002:000275e0       _EC_SECG_PRIME_160R2       00000000000c44e0     OpensslLib:ec_curve.obj
 0002:00027690       _EC_SECG_PRIME_192K1       00000000000c4590     OpensslLib:ec_curve.obj
 0002:00027730       _EC_NIST_PRIME_224         00000000000c4630     OpensslLib:ec_curve.obj
 0002:00027800       _EC_brainpoolP160t1        00000000000c4700     OpensslLib:ec_curve.obj
 0002:00027890       _EC_brainpoolP384r1        00000000000c4790     OpensslLib:ec_curve.obj
 0002:000279c0       _EC_WTLS_12                00000000000c48c0     OpensslLib:ec_curve.obj
 0002:00027a80       _EC_SECG_PRIME_160K1       00000000000c4980     OpensslLib:ec_curve.obj
 0002:00027b10       _EC_X9_62_PRIME_239V1      00000000000c4a10     OpensslLib:ec_curve.obj
 0002:00027bf0       _EC_brainpoolP160r1        00000000000c4af0     OpensslLib:ec_curve.obj
 0002:00027c80       _EC_brainpoolP224t1        00000000000c4b80     OpensslLib:ec_curve.obj
 0002:00027d40       _EC_X9_62_PRIME_239V2      00000000000c4c40     OpensslLib:ec_curve.obj
 0002:00027e20       _EC_X9_62_PRIME_192V2      00000000000c4d20     OpensslLib:ec_curve.obj
 0002:00027ee0       _EC_SECG_PRIME_256K1       00000000000c4de0     OpensslLib:ec_curve.obj
 0002:00027fb0       _EC_brainpoolP224r1        00000000000c4eb0     OpensslLib:ec_curve.obj
 0002:00028070       _EC_SECG_PRIME_112R2       00000000000c4f70     OpensslLib:ec_curve.obj
 0002:000280f0       _EC_brainpoolP192r1        00000000000c4ff0     OpensslLib:ec_curve.obj
 0002:00028190       _EC_brainpoolP320t1        00000000000c5090     OpensslLib:ec_curve.obj
 0002:00028290       _EC_brainpoolP320r1        00000000000c5190     OpensslLib:ec_curve.obj
 0002:00028390       _EC_SECG_PRIME_160R1       00000000000c5290     OpensslLib:ec_curve.obj
 0002:00028440       _EC_brainpoolP256r1        00000000000c5340     OpensslLib:ec_curve.obj
 0002:00028510       _EC_brainpoolP384t1        00000000000c5410     OpensslLib:ec_curve.obj
 0002:00028640       _EC_brainpoolP192t1        00000000000c5540     OpensslLib:ec_curve.obj
 0002:000286e0       _EC_X9_62_PRIME_192V3      00000000000c55e0     OpensslLib:ec_curve.obj
 0002:000287a0       _EC_X9_62_PRIME_256V1      00000000000c56a0     OpensslLib:ec_curve.obj
 0002:00028890       ?RFC2409_PRIME_1024@?1??BN_get_rfc2409_prime_1024@@9@9 00000000000c5790     OpensslLib:bn_const.obj
 0002:00028910       ?RFC3526_PRIME_3072@?1??BN_get_rfc3526_prime_3072@@9@9 00000000000c5810     OpensslLib:bn_const.obj
 0002:00028a90       ?RFC3526_PRIME_4096@?1??BN_get_rfc3526_prime_4096@@9@9 00000000000c5990     OpensslLib:bn_const.obj
 0002:00028c90       ?RFC3526_PRIME_8192@?1??BN_get_rfc3526_prime_8192@@9@9 00000000000c5b90     OpensslLib:bn_const.obj
 0002:00029090       ?RFC3526_PRIME_2048@?1??BN_get_rfc3526_prime_2048@@9@9 00000000000c5f90     OpensslLib:bn_const.obj
 0002:00029250       ACCESS_DESCRIPTION_seq_tt  00000000000c6150     OpensslLib:v3_info.obj
 0002:00029368       AUTHORITY_INFO_ACCESS_item_tt 00000000000c6268     OpensslLib:v3_info.obj
 0002:000293a0       sigoid_srt_xref            00000000000c62a0     OpensslLib:obj_xref.obj
 0002:00029500       sigoid_srt                 00000000000c6400     OpensslLib:obj_xref.obj
 0002:00029820       ?max@?1??asn1_time_to_tm@@9@9 00000000000c6720     OpensslLib:a_time.obj
 0002:00029850       ?min@?1??asn1_time_to_tm@@9@9 00000000000c6750     OpensslLib:a_time.obj
 0002:00029878       _asn1_mon                  00000000000c6778     OpensslLib:a_time.obj
 0002:000298a8       ?ydays@?1??determine_days@@9@9 00000000000c67a8     OpensslLib:a_time.obj
 0002:000298e0       ?mdays@?1??asn1_time_to_tm@@9@9 00000000000c67e0     OpensslLib:a_time.obj
 0002:00029eb0       ssl_cmd_switches           00000000000c6db0     OpensslLib:ssl_conf.obj
 0002:00029f60       ?ssl_vfy_list@?1??cmd_VerifyMode@@9@9 00000000000c6e60     OpensslLib:ssl_conf.obj
 0002:00029ff0       ?ssl_option_list@?1??cmd_Options@@9@9 00000000000c6ef0     OpensslLib:ssl_conf.obj
 0002:0002a160       ?ssl_protocol_list@?1??cmd_Protocol@@9@9 00000000000c7060     OpensslLib:ssl_conf.obj
 0002:0002a240       ssl_conf_cmds              00000000000c7140     OpensslLib:ssl_conf.obj
 0002:0002a840       ?versions@?1??protocol_from_string@@9@9 00000000000c7740     OpensslLib:ssl_conf.obj
 0002:0002a990       ossl_pers_string           00000000000c7890     OpensslLib:drbg_lib.obj
 0002:0002a9d0       X509_ATTRIBUTE_seq_tt      00000000000c78d0     OpensslLib:x_attrib.obj
 0002:0002aa40       ?zero_iv@?1??CMAC_Init@@9@9 00000000000c7940     OpensslLib:cmac.obj
 0002:0002aad0       PROXY_POLICY_seq_tt        00000000000c79d0     OpensslLib:v3_pcia.obj
 0002:0002ab40       PROXY_CERT_INFO_EXTENSION_seq_tt 00000000000c7a40     OpensslLib:v3_pcia.obj
 0002:0002abe0       BASIC_CONSTRAINTS_seq_tt   00000000000c7ae0     OpensslLib:v3_bcons.obj
 0002:0002ace0       tag2nbyte                  00000000000c7be0     OpensslLib:a_strex.obj
 0002:0002ad00       char_type                  00000000000c7c00     OpensslLib:a_strex.obj
 0002:0002ae20       Hex                        00000000000c7d20     OpensslLib:bn_print.obj
 0002:0002ae40       builtin_pbe                00000000000c7d40     OpensslLib:evp_pbe.obj
 0002:0002b0f0       Td2                        00000000000c7ff0     OpensslLib:aes_core.obj
 0002:0002b4f0       Td1                        00000000000c83f0     OpensslLib:aes_core.obj
 0002:0002b8f0       Td4                        00000000000c87f0     OpensslLib:aes_core.obj
 0002:0002b8f0       sb3                        00000000000c87f0     OpensslLib:aria.obj
 0002:0002b9f0       Td0                        00000000000c88f0     OpensslLib:aes_core.obj
 0002:0002bdf0       Te0                        00000000000c8cf0     OpensslLib:aes_core.obj
 0002:0002c1f0       rcon                       00000000000c90f0     OpensslLib:aes_core.obj
 0002:0002c220       Te3                        00000000000c9120     OpensslLib:aes_core.obj
 0002:0002c620       Te2                        00000000000c9520     OpensslLib:aes_core.obj
 0002:0002ca20       Td3                        00000000000c9920     OpensslLib:aes_core.obj
 0002:0002ce20       Te1                        00000000000c9d20     OpensslLib:aes_core.obj
 0002:0002d220       rem_4bit                   00000000000ca120     OpensslLib:gcm128.obj
 0002:0002d2a0       default_aiv                00000000000ca1a0     OpensslLib:wrap128.obj
 0002:0002d2a8       default_iv                 00000000000ca1a8     OpensslLib:wrap128.obj
 0002:0002d2b0       K256                       00000000000ca1b0     OpensslLib:sha256.obj
 0002:0002d3b0       K512                       00000000000ca2b0     OpensslLib:sha512.obj
 0002:0002d630       sb4                        00000000000ca530     OpensslLib:aria.obj
 0002:0002d730       c3                         00000000000ca630     OpensslLib:aria.obj
 0002:0002d740       c2                         00000000000ca640     OpensslLib:aria.obj
 0002:0002d750       c1                         00000000000ca650     OpensslLib:aria.obj
 0002:0002d760       sb2                        00000000000ca660     OpensslLib:aria.obj
 0002:0002d860       sb1                        00000000000ca760     OpensslLib:aria.obj
 0002:0002f410       srpdata_ascii2bin          00000000000cc310     OpensslLib:encode.obj
 0002:0002f490       data_ascii2bin             00000000000cc390     OpensslLib:encode.obj
 0002:0002f530       openssl_ec_key_method      00000000000cc430     OpensslLib:ec_kmeth.obj
 0002:0002f610       PKCS8_PRIV_KEY_INFO_seq_tt 00000000000cc510     OpensslLib:p8_pkey.obj
 0002:0002f690       PKCS8_PRIV_KEY_INFO_aux    00000000000cc590     OpensslLib:p8_pkey.obj
 0002:0002f700       X509_SIG_seq_tt            00000000000cc600     OpensslLib:x_sig.obj
 0002:0002f938       X9_62_CURVE_it             00000000000cc838     OpensslLib:ec_asn1.obj
 0002:0002f970       X9_62_FIELDID_seq_tt       00000000000cc870     OpensslLib:ec_asn1.obj
 0002:0002f9b0       X9_62_PENTANOMIAL_seq_tt   00000000000cc8b0     OpensslLib:ec_asn1.obj
 0002:0002fa10       fieldID_def_tt             00000000000cc910     OpensslLib:ec_asn1.obj
 0002:0002fa30       X9_62_CHARACTERISTIC_TWO_adb 00000000000cc930     OpensslLib:ec_asn1.obj
 0002:0002fa60       X9_62_CHARACTERISTIC_TWO_seq_tt 00000000000cc960     OpensslLib:ec_asn1.obj
 0002:0002fac0       ECDSA_SIG_seq_tt           00000000000cc9c0     OpensslLib:ec_asn1.obj
 0002:0002fb00       ECPARAMETERS_seq_tt        00000000000cca00     OpensslLib:ec_asn1.obj
 0002:0002fbc0       ECDSA_SIG_it               00000000000ccac0     OpensslLib:ec_asn1.obj
 0002:0002fbf0       X9_62_FIELDID_it           00000000000ccaf0     OpensslLib:ec_asn1.obj
 0002:0002fc20       X9_62_CHARACTERISTIC_TWO_it 00000000000ccb20     OpensslLib:ec_asn1.obj
 0002:0002fc50       ECPKPARAMETERS_ch_tt       00000000000ccb50     OpensslLib:ec_asn1.obj
 0002:0002fce0       EC_PRIVATEKEY_it           00000000000ccbe0     OpensslLib:ec_asn1.obj
 0002:0002fd10       X9_62_FIELDID_adb          00000000000ccc10     OpensslLib:ec_asn1.obj
 0002:0002fd40       EC_PRIVATEKEY_seq_tt       00000000000ccc40     OpensslLib:ec_asn1.obj
 0002:0002fdc0       X9_62_CURVE_seq_tt         00000000000cccc0     OpensslLib:ec_asn1.obj
 0002:0002fe20       X9_62_PENTANOMIAL_it       00000000000ccd20     OpensslLib:ec_asn1.obj
 0002:0002fe50       X9_62_CHARACTERISTIC_TWO_adbtbl 00000000000ccd50     OpensslLib:ec_asn1.obj
 0002:0002fec8       char_two_def_tt            00000000000ccdc8     OpensslLib:ec_asn1.obj
 0002:0002fef0       X9_62_FIELDID_adbtbl       00000000000ccdf0     OpensslLib:ec_asn1.obj
 0002:0002ffa0       DHvparams_it               00000000000ccea0     OpensslLib:dh_asn1.obj
 0002:0002ffd0       DHxparams_seq_tt           00000000000cced0     OpensslLib:dh_asn1.obj
 0002:000300a0       DHparams_seq_tt            00000000000ccfa0     OpensslLib:dh_asn1.obj
 0002:00030100       DHvparams_seq_tt           00000000000cd000     OpensslLib:dh_asn1.obj
 0002:00030140       DHparams_aux               00000000000cd040     OpensslLib:dh_asn1.obj
 0002:00030168       DHxparams_it               00000000000cd068     OpensslLib:dh_asn1.obj
 0002:00030530       POLICY_CONSTRAINTS_seq_tt  00000000000cd430     OpensslLib:v3_pcons.obj
 0002:00030760       POLICYQUALINFO_adb         00000000000cd660     OpensslLib:v3_cpols.obj
 0002:00030790       POLICYQUALINFO_adbtbl      00000000000cd690     OpensslLib:v3_cpols.obj
 0002:00030810       POLICYQUALINFO_seq_tt      00000000000cd710     OpensslLib:v3_cpols.obj
 0002:00030850       NOTICEREF_seq_tt           00000000000cd750     OpensslLib:v3_cpols.obj
 0002:00030890       policydefault_tt           00000000000cd790     OpensslLib:v3_cpols.obj
 0002:000308b0       USERNOTICE_seq_tt          00000000000cd7b0     OpensslLib:v3_cpols.obj
 0002:000308f0       CERTIFICATEPOLICIES_item_tt 00000000000cd7f0     OpensslLib:v3_cpols.obj
 0002:00030940       POLICYINFO_seq_tt          00000000000cd840     OpensslLib:v3_cpols.obj
 0002:00031828       ?df_key@?3??drbg_ctr_init@@9@9 00000000000ce728     OpensslLib:drbg_ctr.obj
 0002:000319e0       ?tag2str@?1??ASN1_tag2str@@9@9 00000000000ce8e0     OpensslLib:asn1_par.obj
 0002:00031b00       sm4_ecb                    00000000000cea00     OpensslLib:e_sm4.obj
 0002:00031b60       sm4_ctr_mode               00000000000cea60     OpensslLib:e_sm4.obj
 0002:00031bc0       sm4_cfb128                 00000000000ceac0     OpensslLib:e_sm4.obj
 0002:00031c20       sm4_cbc                    00000000000ceb20     OpensslLib:e_sm4.obj
 0002:00031c80       sm4_ofb                    00000000000ceb80     OpensslLib:e_sm4.obj
 0002:00031ce0       ?shake128_md@?1??EVP_shake128@@9@9 00000000000cebe0     OpensslLib:m_sha3.obj
 0002:00031d30       ?shake256_md@?1??EVP_shake256@@9@9 00000000000cec30     OpensslLib:m_sha3.obj
 0002:00031d80       ?sha3_224_md@?1??EVP_sha3_224@@9@9 00000000000cec80     OpensslLib:m_sha3.obj
 0002:00031dd0       ?sha3_384_md@?1??EVP_sha3_384@@9@9 00000000000cecd0     OpensslLib:m_sha3.obj
 0002:00031e20       ?sha3_256_md@?1??EVP_sha3_256@@9@9 00000000000ced20     OpensslLib:m_sha3.obj
 0002:00031e70       ?sha3_512_md@?1??EVP_sha3_512@@9@9 00000000000ced70     OpensslLib:m_sha3.obj
 0002:00031ec0       sm3_md                     00000000000cedc0     OpensslLib:m_sm3.obj
 0002:00031f10       tbl_standard               00000000000cee10     OpensslLib:a_strnid.obj
 0002:00032130       null_md                    00000000000cf030     OpensslLib:m_null.obj
 0002:00032190       ?order@?1??c448_ed448_verify@@9@9 00000000000cf090     OpensslLib:eddsa.obj
 0002:000321d0       ?zero@?1??fe_isnonzero@@9@9 00000000000cf0d0     OpensslLib:curve25519.obj
 0002:000321f0       d                          00000000000cf0f0     OpensslLib:curve25519.obj
 0002:00032218       d2                         00000000000cf118     OpensslLib:curve25519.obj
 0002:00032240       k25519Precomp              00000000000cf140     OpensslLib:curve25519.obj
 0002:00039a40       sqrtm1                     00000000000d6940     OpensslLib:curve25519.obj
 0002:00039a68       ?kZeros@?1??X25519@@9@9    00000000000d6968     OpensslLib:curve25519.obj
 0002:00039a90       Bi                         00000000000d6990     OpensslLib:curve25519.obj
 0002:00039e90       ONE                        00000000000d6d90     OpensslLib:curve448.obj
 0002:00039ed0       precomputed_scalarmul_adjustment 00000000000d6dd0     OpensslLib:curve448.obj
 0002:0003a010       ZERO                       00000000000d6f10     OpensslLib:curve448.obj
 0002:0003a2d0       ?tnst@?1??asn1_str2tag@@9@9 00000000000d71d0     OpensslLib:asn1_gen.obj
 0002:0003a6a0       POLICY_MAPPING_seq_tt      00000000000d75a0     OpensslLib:v3_pmaps.obj
 0002:0003a740       POLICY_MAPPINGS_item_tt    00000000000d7640     OpensslLib:v3_pmaps.obj
 0002:0003a850       EXTENDED_KEY_USAGE_item_tt 00000000000d7750     OpensslLib:v3_extku.obj
 0002:0003b6f0       ADMISSIONS_seq_tt          00000000000d85f0     OpensslLib:v3_admis.obj
 0002:0003b7b0       NAMING_AUTHORITY_seq_tt    00000000000d86b0     OpensslLib:v3_admis.obj
 0002:0003b810       PROFESSION_INFO_seq_tt     00000000000d8710     OpensslLib:v3_admis.obj
 0002:0003b8b0       ADMISSION_SYNTAX_seq_tt    00000000000d87b0     OpensslLib:v3_admis.obj
 0002:0003bae0       PKEY_USAGE_PERIOD_seq_tt   00000000000d89e0     OpensslLib:v3_pku.obj
 0002:0003bc00       SXNET_seq_tt               00000000000d8b00     OpensslLib:v3_sxnet.obj
 0002:0003bc70       SXNETID_seq_tt             00000000000d8b70     OpensslLib:v3_sxnet.obj
 0002:0003be30       TLS_FEATURE_it             00000000000d8d30     OpensslLib:v3_tlsf.obj
 0002:0003be60       TLS_FEATURE_item_tt        00000000000d8d60     OpensslLib:v3_tlsf.obj
 0002:0003be80       primes                     00000000000d8d80     OpensslLib:bn_prime.obj
 0002:0003ce80       zeroes                     00000000000d9d80     OpensslLib:rsa_pss.obj
 0002:0003ceb0       SM2_Ciphertext_seq_tt      00000000000d9db0     OpensslLib:sm2_crypt.obj
 0002:0003cf60       ?ret@?1??EC_GFp_nist_method@@9@9 00000000000d9e60     OpensslLib:ecp_nist.obj
 0002:0003d110       _nist_p_256                00000000000da010     OpensslLib:bn_nist.obj
 0002:0003d1b0       ?_bignum_nist_p_256_sqr@?1??BN_nist_mod_256@@9@9 00000000000da0b0     OpensslLib:bn_nist.obj
 0002:0003d1d0       _nist_p_521                00000000000da0d0     OpensslLib:bn_nist.obj
 0002:0003d218       _nist_p_192_sqr            00000000000da118     OpensslLib:bn_nist.obj
 0002:0003d248       _nist_p_224_sqr            00000000000da148     OpensslLib:bn_nist.obj
 0002:0003d280       _bignum_nist_p_521         00000000000da180     OpensslLib:bn_nist.obj
 0002:0003d298       _bignum_nist_p_256         00000000000da198     OpensslLib:bn_nist.obj
 0002:0003d2b0       _bignum_nist_p_384         00000000000da1b0     OpensslLib:bn_nist.obj
 0002:0003d2c8       ?_bignum_nist_p_521_sqr@?1??BN_nist_mod_521@@9@9 00000000000da1c8     OpensslLib:bn_nist.obj
 0002:0003d2e0       _nist_p_384_sqr            00000000000da1e0     OpensslLib:bn_nist.obj
 0002:0003d340       ?_bignum_nist_p_224_sqr@?1??BN_nist_mod_224@@9@9 00000000000da240     OpensslLib:bn_nist.obj
 0002:0003d360       _nist_p_224                00000000000da260     OpensslLib:bn_nist.obj
 0002:0003d3a0       ?_bignum_nist_p_384_sqr@?1??BN_nist_mod_384@@9@9 00000000000da2a0     OpensslLib:bn_nist.obj
 0002:0003d3b8       ?_bignum_nist_p_192_sqr@?1??BN_nist_mod_192@@9@9 00000000000da2b8     OpensslLib:bn_nist.obj
 0002:0003d3d0       _nist_p_521_sqr            00000000000da2d0     OpensslLib:bn_nist.obj
 0002:0003d460       _nist_p_256_sqr            00000000000da360     OpensslLib:bn_nist.obj
 0002:0003d4a0       _bignum_nist_p_224         00000000000da3a0     OpensslLib:bn_nist.obj
 0002:0003d4b8       _bignum_nist_p_192         00000000000da3b8     OpensslLib:bn_nist.obj
 0002:0003d4d0       _nist_p_384                00000000000da3d0     OpensslLib:bn_nist.obj
 0002:0003d5c0       _nist_p_192                00000000000da4c0     OpensslLib:bn_nist.obj
 0002:0003d610       ?ret@?1??EC_GFp_mont_method@@9@9 00000000000da510     OpensslLib:ecp_mont.obj
 0002:0003d810       PBEPARAM_seq_tt            00000000000da710     OpensslLib:p5_pbe.obj
 0002:0003d900       PBE2PARAM_seq_tt           00000000000da800     OpensslLib:p5_pbev2.obj
 0002:0003d940       PBKDF2PARAM_seq_tt         00000000000da840     OpensslLib:p5_pbev2.obj
 0002:0003d9c0       ?CK@?1??SM4_set_key@@9@9   00000000000da8c0     OpensslLib:sm4.obj
 0002:0003da40       SM4_S                      00000000000da940     OpensslLib:sm4.obj
 0002:0003db40       SM4_SBOX_T                 00000000000daa40     OpensslLib:sm4.obj
 0002:0003dfa0       iotas                      00000000000daea0     OpensslLib:keccak1600.obj
 0002:0003e0a0       sc_p                       00000000000dafa0     OpensslLib:scalar.obj
 0002:0003e120       sc_r2                      00000000000db020     OpensslLib:scalar.obj
 0002:0003e160       curve448_wnaf_base_table   00000000000db060     OpensslLib:curve448_tables.obj
 0002:0003f960       curve448_precomputed_base_table 00000000000dc860     OpensslLib:curve448_tables.obj
 0002:00043560       MODULUS                    00000000000e0460     OpensslLib:f_generic.obj
 0002:000435a0       ONE                        00000000000e04a0     OpensslLib:f_generic.obj
 0002:00043610       ui_null                    00000000000e0510     OpensslLib:ui_null.obj
 0002:00043660       ?tab@?1??BN_kronecker@@9@9 00000000000e0560     OpensslLib:bn_kron.obj
 0002:000437f0       dh1024_160_g               00000000000e06f0     OpensslLib:bn_dh.obj
 0002:00043870       ffdhe4096_p                00000000000e0770     OpensslLib:bn_dh.obj
 0002:00043a70       dh2048_256_q               00000000000e0970     OpensslLib:bn_dh.obj
 0002:00043a90       ffdhe3072_p                00000000000e0990     OpensslLib:bn_dh.obj
 0002:00043c10       dh2048_256_p               00000000000e0b10     OpensslLib:bn_dh.obj
 0002:00043d10       dh2048_256_g               00000000000e0c10     OpensslLib:bn_dh.obj
 0002:00043e10       dh2048_224_g               00000000000e0d10     OpensslLib:bn_dh.obj
 0002:00043f10       value_2                    00000000000e0e10     OpensslLib:bn_dh.obj
 0002:00043f18       dh2048_224_q               00000000000e0e18     OpensslLib:bn_dh.obj
 0002:00043f38       dh1024_160_q               00000000000e0e38     OpensslLib:bn_dh.obj
 0002:00043f50       dh2048_224_p               00000000000e0e50     OpensslLib:bn_dh.obj
 0002:00044050       ffdhe8192_p                00000000000e0f50     OpensslLib:bn_dh.obj
 0002:00044450       ffdhe2048_p                00000000000e1350     OpensslLib:bn_dh.obj
 0002:00044550       ffdhe6144_p                00000000000e1450     OpensslLib:bn_dh.obj
 0002:00044850       dh1024_160_p               00000000000e1750     OpensslLib:bn_dh.obj
 0002:000448f8       ?xdigits_u@?1??inet_pton6@@9@9 00000000000e17f8     BaseCryptLib:inet_pton.obj
 0002:00044910       ?xdigits_l@?1??inet_pton6@@9@9 00000000000e1810     BaseCryptLib:inet_pton.obj
 0002:00044928       ?digits@?1??inet_pton4@@9@9 00000000000e1828     BaseCryptLib:inet_pton.obj
 0002:00044e10       default_zeros              00000000000e1d10     OpensslLib:tls13_enc.obj
 0002:00044e50       allzeroes                  00000000000e1d50     OpensslLib:curve25519.obj
 0003:000000c8       allow_customize            00000000000e2788     OpensslLib:mem.obj
 0003:000000d0       ssl_mac_pkey_id            00000000000e2790     OpensslLib:ssl_ciph.obj
 0003:00000100       zlib_method_nozlib         00000000000e27c0     OpensslLib:c_zlib.obj
 0003:00000130       ssl_x509_store_ctx_idx     00000000000e27f0     OpensslLib:ssl_cert.obj
 0003:00000140       xstandard                  00000000000e2800     OpensslLib:v3_purp.obj
 0003:000002f0       new_nid                    00000000000e29b0     OpensslLib:obj_dat.obj
 0003:00000300       x509_dir_lookup            00000000000e29c0     OpensslLib:by_dir.obj
 0003:00000350       x509_file_lookup           00000000000e2a10     OpensslLib:by_file.obj
 0003:000003a0       destructor_key             00000000000e2a60     OpensslLib:init.obj
 0003:000003a8       memset_func                00000000000e2a68     OpensslLib:mem_clr.obj
 0003:000003b0       ssl3_scsvs                 00000000000e2a70     OpensslLib:s3_lib.obj
 0003:00000450       tls13_ciphers              00000000000e2b10     OpensslLib:s3_lib.obj
 0003:00000590       ssl3_ciphers               00000000000e2c50     OpensslLib:s3_lib.obj
 0003:00002b10       int_crl_meth               00000000000e51d0     OpensslLib:x_crl.obj
 0003:00002b40       standard_methods           00000000000e5200     OpensslLib:ameth_lib.obj
 0003:00002bb0       trstandard                 00000000000e5270     OpensslLib:x509_trs.obj
 0003:00002cf0       ?scsv@?N@??ssl_cipher_list_to_bytes@@9@9 00000000000e53b0     OpensslLib:statem_clnt.obj
 0003:00002d40       ?scsv@?P@??ssl_cipher_list_to_bytes@@9@9 00000000000e5400     OpensslLib:statem_clnt.obj
 0003:00002d90       standard_methods           00000000000e5450     OpensslLib:pmeth_lib.obj
 0003:00002e10       nist_curves                00000000000e54d0     OpensslLib:ec_curve.obj
 0003:00002f30       uint64_pf                  00000000000e55f0     OpensslLib:x_int64.obj
 0003:00002f70       uint32_pf                  00000000000e5630     OpensslLib:x_int64.obj
 0003:00002fb0       rsa_pkcs1_ossl_meth        00000000000e5670     OpensslLib:rsa_ossl.obj
 0003:00003030       bignum_pf                  00000000000e56f0     OpensslLib:x_bignum.obj
 0003:00003070       cbignum_pf                 00000000000e5730     OpensslLib:x_bignum.obj
 0003:000030b0       standard_exts              00000000000e5770     OpensslLib:v3_lib.obj
 0003:00003200       dh_ossl                    00000000000e58c0     OpensslLib:dh_key.obj
 0003:00003248       drbg_ctr_meth              00000000000e5908     OpensslLib:drbg_ctr.obj
 0003:00003268       ?c80@?1??ctr_df@@9@9       00000000000e5928     OpensslLib:drbg_ctr.obj
 0003:00003270       key_usage_type_table       00000000000e5930     OpensslLib:v3_bitst.obj
 0003:00003360       ns_cert_type_table         00000000000e5a20     OpensslLib:v3_bitst.obj
 0003:00003440       crl_reasons                00000000000e5b00     OpensslLib:v3_enum.obj
 0003:00003550       tls_feature_tbl            00000000000e5c10     OpensslLib:v3_tlsf.obj
 0003:000035ac       ?stoperrset@?1??OPENSSL_init_ssl@@9@9 00000000000e5c6c     OpensslLib:ssl_init.obj
 0003:000035b0       ossl_init_ssl_base_ossl_ret_ 00000000000e5c70     OpensslLib:ssl_init.obj
 0003:000035b4       ssl_base_inited            00000000000e5c74     OpensslLib:ssl_init.obj
 0003:000035b8       ssl_strings_inited         00000000000e5c78     OpensslLib:ssl_init.obj
 0003:000035bc       ssl_strings                00000000000e5c7c     OpensslLib:ssl_init.obj
 0003:000035c0       ossl_init_load_ssl_strings_ossl_ret_ 00000000000e5c80     OpensslLib:ssl_init.obj
 0003:000035c4       ssl_base                   00000000000e5c84     OpensslLib:ssl_init.obj
 0003:000035c8       ssl_load_builtin_comp_once 00000000000e5c88     OpensslLib:ssl_ciph.obj
 0003:000035cc       do_load_builtin_compressions_ossl_ret_ 00000000000e5c8c     OpensslLib:ssl_ciph.obj
 0003:000035d0       ssl_comp_methods           00000000000e5c90     OpensslLib:ssl_ciph.obj
 0003:000035e0       ssl_digest_methods         00000000000e5ca0     OpensslLib:ssl_ciph.obj
 0003:00003640       param_table                00000000000e5d00     OpensslLib:x509_vpm.obj
 0003:00003648       err_init                   00000000000e5d08     OpensslLib:err.obj
 0003:00003650       int_error_hash             00000000000e5d10     OpensslLib:err.obj
 0003:00003658       do_err_strings_init_ossl_ret_ 00000000000e5d18     OpensslLib:err.obj
 0003:0000365c       err_do_init_ossl_ret_      00000000000e5d1c     OpensslLib:err.obj
 0003:00003660       err_string_init            00000000000e5d20     OpensslLib:err.obj
 0003:00003664       ssl_x509_store_ctx_once    00000000000e5d24     OpensslLib:ssl_cert.obj
 0003:00003668       ssl_x509_store_ctx_init_ossl_ret_ 00000000000e5d28     OpensslLib:ssl_cert.obj
 0003:0000366c       ?thread_local_key@?1??CRYPTO_THREAD_init_local@@9@9 00000000000e5d2c     OpensslLib:threads_none.obj
 0003:00003670       rand_init                  00000000000e5d30     OpensslLib:rand_lib.obj
 0003:00003674       do_rand_init_ossl_ret_     00000000000e5d34     OpensslLib:rand_lib.obj
 0003:00003678       xptable                    00000000000e5d38     OpensslLib:v3_purp.obj
 0003:00003680       added                      00000000000e5d40     OpensslLib:obj_dat.obj
 0003:00003688       ex_data_lock               00000000000e5d48     OpensslLib:ex_data.obj
 0003:00003690       do_ex_data_init_ossl_ret_  00000000000e5d50     OpensslLib:ex_data.obj
 0003:00003694       ex_data_init               00000000000e5d54     OpensslLib:ex_data.obj
 0003:00003698       names_lh                   00000000000e5d58     OpensslLib:o_names.obj
 0003:000036a0       init                       00000000000e5d60     OpensslLib:o_names.obj
 0003:000036a8       obj_lock                   00000000000e5d68     OpensslLib:o_names.obj
 0003:000036b0       o_names_init_ossl_ret_     00000000000e5d70     OpensslLib:o_names.obj
 0003:000036b4       add_all_digests            00000000000e5d74     OpensslLib:init.obj
 0003:000036b8       ossl_init_load_crypto_strings_ossl_ret_ 00000000000e5d78     OpensslLib:init.obj
 0003:000036bc       ossl_init_base_ossl_ret_   00000000000e5d7c     OpensslLib:init.obj
 0003:000036c0       ossl_init_config_ossl_ret_ 00000000000e5d80     OpensslLib:init.obj
 0003:000036c8       init_lock                  00000000000e5d88     OpensslLib:init.obj
 0003:000036d0       register_atexit            00000000000e5d90     OpensslLib:init.obj
 0003:000036d8       conf_settings              00000000000e5d98     OpensslLib:init.obj
 0003:000036e0       stop_handlers              00000000000e5da0     OpensslLib:init.obj
 0003:000036e8       ossl_init_async_ossl_ret_  00000000000e5da8     OpensslLib:init.obj
 0003:000036ec       ossl_init_zlib_ossl_ret_   00000000000e5dac     OpensslLib:init.obj
 0003:000036f0       zlib                       00000000000e5db0     OpensslLib:init.obj
 0003:000036f4       ossl_init_register_atexit_ossl_ret_ 00000000000e5db4     OpensslLib:init.obj
 0003:000036f8       add_all_ciphers            00000000000e5db8     OpensslLib:init.obj
 0003:000036fc       ossl_init_load_crypto_nodelete_ossl_ret_ 00000000000e5dbc     OpensslLib:init.obj
 0003:00003700       config                     00000000000e5dc0     OpensslLib:init.obj
 0003:00003704       load_crypto_nodelete       00000000000e5dc4     OpensslLib:init.obj
 0003:00003708       async                      00000000000e5dc8     OpensslLib:init.obj
 0003:0000370c       ossl_init_add_all_ciphers_ossl_ret_ 00000000000e5dcc     OpensslLib:init.obj
 0003:00003710       stopped                    00000000000e5dd0     OpensslLib:init.obj
 0003:00003714       load_crypto_strings        00000000000e5dd4     OpensslLib:init.obj
 0003:00003718       ossl_init_add_all_digests_ossl_ret_ 00000000000e5dd8     OpensslLib:init.obj
 0003:0000371c       base                       00000000000e5ddc     OpensslLib:init.obj
 0003:00003720       app_methods                00000000000e5de0     OpensslLib:ameth_lib.obj
 0003:00003728       supported_modules          00000000000e5de8     OpensslLib:conf_mod.obj
 0003:00003730       trtable                    00000000000e5df0     OpensslLib:x509_trs.obj
 0003:00003738       app_pkey_methods           00000000000e5df8     OpensslLib:pmeth_lib.obj
 0003:00003740       do_rand_drbg_init_ossl_ret_ 00000000000e5e00     OpensslLib:drbg_lib.obj
 0003:00003744       rand_drbg_init             00000000000e5e04     OpensslLib:drbg_lib.obj
 0003:00003748       rand_drbg_flags            00000000000e5e08     OpensslLib:drbg_lib.obj
 0003:00003750       ?zeros@?1??CRYPTO_128_unwrap_pad@@9@9 00000000000e5e10     OpensslLib:wrap128.obj
 0003:00003758       openssl_configured         00000000000e5e18     OpensslLib:conf_sap.obj
 0003:00003760       ext_list                   00000000000e5e20     OpensslLib:v3_lib.obj
 0003:00003768       stable                     00000000000e5e28     OpensslLib:a_strnid.obj
 0003:00003770       default_UI_meth            00000000000e5e30     OpensslLib:ui_openssl.obj
 0003:00003780       mRunningOnQ35              00000000000e5e40     DxePciLibI440FxQ35:PciLib.obj
 0003:00003784       mAcpiTimerIoAddr           00000000000e5e44     DxeAcpiTimerLib:DxeAcpiTimerLib.obj
 0003:00003788       stopped                    00000000000e5e48     OpensslLib:ssl_init.obj
 0003:00003790       ssl_mac_secret_size        00000000000e5e50     OpensslLib:ssl_ciph.obj
 0003:000037f0       disabled_enc_mask          00000000000e5eb0     OpensslLib:ssl_ciph.obj
 0003:000037f4       disabled_mkey_mask         00000000000e5eb4     OpensslLib:ssl_ciph.obj
 0003:000037f8       disabled_mac_mask          00000000000e5eb8     OpensslLib:ssl_ciph.obj
 0003:00003800       ssl_cipher_methods         00000000000e5ec0     OpensslLib:ssl_ciph.obj
 0003:000038b0       disabled_auth_mask         00000000000e5f70     OpensslLib:ssl_ciph.obj
 0003:000038b4       err_thread_local           00000000000e5f74     OpensslLib:err.obj
 0003:000038b8       err_string_lock            00000000000e5f78     OpensslLib:err.obj
 0003:000038c0       ctxkey                     00000000000e5f80     OpensslLib:async.obj
 0003:000038c4       poolkey                    00000000000e5f84     OpensslLib:async.obj
 0003:000038c8       rand_nonce_count           00000000000e5f88     OpensslLib:rand_lib.obj
 0003:000038d0       thread_local_storage       00000000000e5f90     OpensslLib:threads_none.obj
 0003:000040d0       default_RAND_meth          00000000000e6790     OpensslLib:rand_lib.obj
 0003:000040d8       rand_nonce_lock            00000000000e6798     OpensslLib:rand_lib.obj
 0003:000040e0       rand_meth_lock             00000000000e67a0     OpensslLib:rand_lib.obj
 0003:000040e8       free_type                  00000000000e67a8     OpensslLib:o_names.obj
 0003:000040f0       ex_data                    00000000000e67b0     OpensslLib:ex_data.obj
 0003:00004170       name_funcs_stack           00000000000e6830     OpensslLib:o_names.obj
 0003:00004178       ?nilbn@?1??bn_init@@9@9    00000000000e6838     OpensslLib:bn_lib.obj
 0003:00004190       ?m@?1??HMAC@@9@9           00000000000e6850     OpensslLib:hmac.obj
 0003:000041d0       sigx_app                   00000000000e6890     OpensslLib:obj_xref.obj
 0003:000041d8       sig_app                    00000000000e6898     OpensslLib:obj_xref.obj
 0003:000041e0       ssl_names_count            00000000000e68a0     OpensslLib:conf_ssl.obj
 0003:000041e8       ssl_names                  00000000000e68a8     OpensslLib:conf_ssl.obj
 0003:000041f0       private_drbg               00000000000e68b0     OpensslLib:drbg_lib.obj
 0003:000041f4       public_drbg                00000000000e68b4     OpensslLib:drbg_lib.obj
 0003:000041f8       master_drbg                00000000000e68b8     OpensslLib:drbg_lib.obj
 0003:00004200       pbe_algs                   00000000000e68c0     OpensslLib:evp_pbe.obj
 0003:00004208       ?tntmp@?1??asn1_str2tag@@9@9 00000000000e68c8     OpensslLib:asn1_gen.obj
 0003:00004210       ?m@?1??SHA512@@9@9         00000000000e68d0     OpensslLib:sha512.obj
 0003:00004250       prompt_string              00000000000e6910     OpensslLib:evp_key.obj
 0005:00000000       $unwind$_DriverUnloadHandler 00000000000ec040     UefiDriverEntryPoint:DriverEntryPoint.obj
 0005:00000010       $unwind$ASN1_INTEGER_cmp   00000000000ec050     OpensslLib:a_int.obj
 0005:00000010       $unwind$cpy_utf8           00000000000ec050     OpensslLib:a_mbstr.obj
 0005:00000010       $unwind$out_utf8           00000000000ec050     OpensslLib:a_mbstr.obj
 0005:00000010       $unwind$send_bio_chars     00000000000ec050     OpensslLib:a_strex.obj
 0005:00000010       $unwind$ASN1_item_new      00000000000ec050     OpensslLib:tasn_new.obj
 0005:00000010       $unwind$bn_free            00000000000ec050     OpensslLib:x_bignum.obj
 0005:00000010       $unwind$bn_new             00000000000ec050     OpensslLib:x_bignum.obj
 0005:00000010       $unwind$bn_secure_new      00000000000ec050     OpensslLib:x_bignum.obj
 0005:00000010       $unwind$uint32_free        00000000000ec050     OpensslLib:x_int64.obj
 0005:00000010       $unwind$uint64_free        00000000000ec050     OpensslLib:x_int64.obj
 0005:00000010       $unwind$BIO_push           00000000000ec050     OpensslLib:bio_lib.obj
 0005:00000010       $unwind$bread_conv         00000000000ec050     OpensslLib:bio_meth.obj
 0005:00000010       $unwind$bwrite_conv        00000000000ec050     OpensslLib:bio_meth.obj
 0005:00000010       $unwind$mem_buf_sync       00000000000ec050     OpensslLib:bss_mem.obj
 0005:00000010       $unwind$mem_free           00000000000ec050     OpensslLib:bss_mem.obj
 0005:00000010       $unwind$mem_gets           00000000000ec050     OpensslLib:bss_mem.obj
 0005:00000010       $unwind$bn_free_d          00000000000ec050     OpensslLib:bn_lib.obj
 0005:00000010       $unwind$nist_cp_bn_0       00000000000ec050     OpensslLib:bn_nist.obj
 0005:00000010       $unwind$pkey_cmac_init     00000000000ec050     OpensslLib:cm_pmeth.obj
 0005:00000010       $unwind$dh_cb              00000000000ec050     OpensslLib:dh_asn1.obj
 0005:00000010       $unwind$pkey_dh_cleanup    00000000000ec050     OpensslLib:dh_pmeth.obj
 0005:00000010       $unwind$ec_cmp_parameters  00000000000ec050     OpensslLib:ec_ameth.obj
 0005:00000010       $unwind$ec_GFp_mont_group_clear_finish 00000000000ec050     OpensslLib:ecp_mont.obj
 0005:00000010       $unwind$ec_GFp_mont_group_finish 00000000000ec050     OpensslLib:ecp_mont.obj
 0005:00000010       $unwind$ec_GFp_mont_group_init 00000000000ec050     OpensslLib:ecp_mont.obj
 0005:00000010       $unwind$ec_GFp_simple_group_clear_finish 00000000000ec050     OpensslLib:ecp_smpl.obj
 0005:00000010       $unwind$ec_GFp_simple_group_finish 00000000000ec050     OpensslLib:ecp_smpl.obj
 0005:00000010       $unwind$ec_GFp_simple_group_init 00000000000ec050     OpensslLib:ecp_smpl.obj
 0005:00000010       $unwind$ec_GFp_simple_point_clear_finish 00000000000ec050     OpensslLib:ecp_smpl.obj
 0005:00000010       $unwind$ec_GFp_simple_point_finish 00000000000ec050     OpensslLib:ecp_smpl.obj
 0005:00000010       $unwind$ec_GFp_simple_point_init 00000000000ec050     OpensslLib:ecp_smpl.obj
 0005:00000010       $unwind$ecd_item_sign25519 00000000000ec050     OpensslLib:ecx_meth.obj
 0005:00000010       $unwind$ecd_item_sign448   00000000000ec050     OpensslLib:ecx_meth.obj
 0005:00000010       $unwind$ERR_pop_to_mark    00000000000ec050     OpensslLib:err.obj
 0005:00000010       $unwind$do_err_strings_init_ossl_ 00000000000ec050     OpensslLib:err.obj
 0005:00000010       $unwind$err_clear_last_constant_time 00000000000ec050     OpensslLib:err.obj
 0005:00000010       $unwind$openssl_add_all_ciphers_int 00000000000ec050     OpensslLib:c_allc.obj
 0005:00000010       $unwind$EVP_MD_CTX_reset   00000000000ec050     OpensslLib:digest.obj
 0005:00000010       $unwind$EVP_CIPHER_CTX_reset 00000000000ec050     OpensslLib:evp_enc.obj
 0005:00000010       $unwind$init               00000000000ec050     OpensslLib:m_md5_sha1.obj
 0005:00000010       $unwind$EVP_add_cipher     00000000000ec050     OpensslLib:names.obj
 0005:00000010       $unwind$EVP_get_cipherbyname 00000000000ec050     OpensslLib:names.obj
 0005:00000010       $unwind$EVP_get_digestbyname 00000000000ec050     OpensslLib:names.obj
 0005:00000010       $unwind$do_ex_data_init_ossl_ 00000000000ec050     OpensslLib:ex_data.obj
 0005:00000010       $unwind$hmac_key_free      00000000000ec050     OpensslLib:hm_ameth.obj
 0005:00000010       $unwind$pkey_hmac_keygen   00000000000ec050     OpensslLib:hm_pmeth.obj
 0005:00000010       $unwind$HMAC_CTX_new       00000000000ec050     OpensslLib:hmac.obj
 0005:00000010       $unwind$hmac_ctx_cleanup   00000000000ec050     OpensslLib:hmac.obj
 0005:00000010       $unwind$ossl_init_thread_start 00000000000ec050     OpensslLib:init.obj
 0005:00000010       $unwind$OPENSSL_LH_retrieve 00000000000ec050     OpensslLib:lhash.obj
 0005:00000010       $unwind$MD5_Init           00000000000ec050     OpensslLib:md5_dgst.obj
 0005:00000010       $unwind$CRYPTO_ccm128_setiv 00000000000ec050     OpensslLib:ccm128.obj
 0005:00000010       $unwind$CRYPTO_ccm128_tag  00000000000ec050     OpensslLib:ccm128.obj
 0005:00000010       $unwind$o_names_init_ossl_ 00000000000ec050     OpensslLib:o_names.obj
 0005:00000010       $unwind$obj_name_hash      00000000000ec050     OpensslLib:o_names.obj
 0005:00000010       $unwind$added_obj_hash     00000000000ec050     OpensslLib:obj_dat.obj
 0005:00000010       $unwind$do_rand_drbg_init_ossl_ 00000000000ec050     OpensslLib:drbg_lib.obj
 0005:00000010       $unwind$do_rand_init_ossl_ 00000000000ec050     OpensslLib:rand_lib.obj
 0005:00000010       $unwind$rand_drbg_cleanup_entropy 00000000000ec050     OpensslLib:rand_lib.obj
 0005:00000010       $unwind$rsa_param_encode   00000000000ec050     OpensslLib:rsa_ameth.obj
 0005:00000010       $unwind$rsa_security_bits  00000000000ec050     OpensslLib:rsa_ameth.obj
 0005:00000010       $unwind$rsa_multip_info_free 00000000000ec050     OpensslLib:rsa_mp.obj
 0005:00000010       $unwind$pkey_rsa_cleanup   00000000000ec050     OpensslLib:rsa_pmeth.obj
 0005:00000010       $unwind$pkey_rsa_init      00000000000ec050     OpensslLib:rsa_pmeth.obj
 0005:00000010       $unwind$SHA1_Init          00000000000ec050     OpensslLib:sha1dgst.obj
 0005:00000010       $unwind$SHA224_Init        00000000000ec050     OpensslLib:sha256.obj
 0005:00000010       $unwind$SHA256_Init        00000000000ec050     OpensslLib:sha256.obj
 0005:00000010       $unwind$siphash_get_priv_key 00000000000ec050     OpensslLib:siphash_ameth.obj
 0005:00000010       $unwind$siphash_key_free   00000000000ec050     OpensslLib:siphash_ameth.obj
 0005:00000010       $unwind$pkey_siphash_keygen 00000000000ec050     OpensslLib:siphash_pmeth.obj
 0005:00000010       $unwind$init               00000000000ec050     OpensslLib:m_sm3.obj
 0005:00000010       $unwind$free_string        00000000000ec050     OpensslLib:ui_lib.obj
 0005:00000010       $unwind$by_dir_entry_free  00000000000ec050     OpensslLib:by_dir.obj
 0005:00000010       $unwind$free_dir           00000000000ec050     OpensslLib:by_dir.obj
 0005:00000010       $unwind$X509_OBJECT_free   00000000000ec050     OpensslLib:x509_lu.obj
 0005:00000010       $unwind$X509V3_EXT_d2i     00000000000ec050     OpensslLib:v3_lib.obj
 0005:00000010       $unwind$check_purpose_timestamp_sign 00000000000ec050     OpensslLib:v3_purp.obj
 0005:00000010       $unwind$equal_case         00000000000ec050     OpensslLib:v3_utl.obj
 0005:00000010       $unwind$ipv6_cb            00000000000ec050     OpensslLib:v3_utl.obj
 0005:00000010       $unwind$dtls1_query_mtu    00000000000ec050     OpensslLib:d1_lib.obj
 0005:00000010       $unwind$dtls1_stop_timer   00000000000ec050     OpensslLib:d1_lib.obj
 0005:00000010       $unwind$WPACKET_get_length 00000000000ec050     OpensslLib:packet.obj
 0005:00000010       $unwind$WPACKET_get_total_written 00000000000ec050     OpensslLib:packet.obj
 0005:00000010       $unwind$wpacket_intern_close 00000000000ec050     OpensslLib:packet.obj
 0005:00000010       $unwind$ssl3_setup_buffers 00000000000ec050     OpensslLib:ssl3_buffer.obj
 0005:00000010       $unwind$ssl3_put_cipher_by_char 00000000000ec050     OpensslLib:s3_lib.obj
 0005:00000010       $unwind$ssl3_set_handshake_header 00000000000ec050     OpensslLib:s3_lib.obj
 0005:00000010       $unwind$cmd_ClientSignatureAlgorithms 00000000000ec050     OpensslLib:ssl_conf.obj
 0005:00000010       $unwind$cmd_ServerInfoFile 00000000000ec050     OpensslLib:ssl_conf.obj
 0005:00000010       $unwind$cmd_SignatureAlgorithms 00000000000ec050     OpensslLib:ssl_conf.obj
 0005:00000010       $unwind$dane_final         00000000000ec050     OpensslLib:ssl_lib.obj
 0005:00000010       $unwind$ssl_free_wbio_buffer 00000000000ec050     OpensslLib:ssl_lib.obj
 0005:00000010       $unwind$init_alpn          00000000000ec050     OpensslLib:extensions.obj
 0005:00000010       $unwind$init_certificate_authorities 00000000000ec050     OpensslLib:extensions.obj
 0005:00000010       $unwind$init_ec_point_formats 00000000000ec050     OpensslLib:extensions.obj
 0005:00000010       $unwind$init_server_name   00000000000ec050     OpensslLib:extensions.obj
 0005:00000010       $unwind$init_sig_algs      00000000000ec050     OpensslLib:extensions.obj
 0005:00000010       $unwind$init_sig_algs_cert 00000000000ec050     OpensslLib:extensions.obj
 0005:00000010       $unwind$init_status_request 00000000000ec050     OpensslLib:extensions.obj
 0005:00000010       $unwind$statem_flush       00000000000ec050     OpensslLib:statem.obj
 0005:00000010       $unwind$ossl_statem_client13_read_transition 00000000000ec050     OpensslLib:statem_clnt.obj
 0005:00000010       $unwind$rsa_pss_check_min_key_size 00000000000ec050     OpensslLib:t1_lib.obj
 0005:00000010       $unwind$ssl_set_client_disabled 00000000000ec050     OpensslLib:t1_lib.obj
 0005:00000010       $unwind$tls1_check_pkey_comp 00000000000ec050     OpensslLib:t1_lib.obj
 0005:00000010       $unwind$tls1_clear         00000000000ec050     OpensslLib:t1_lib.obj
 0005:00000010       $unwind$tls1_free          00000000000ec050     OpensslLib:t1_lib.obj
 0005:00000010       $unwind$tls1_get_legacy_sigalg 00000000000ec050     OpensslLib:t1_lib.obj
 0005:00000010       $unwind$tls1_new           00000000000ec050     OpensslLib:t1_lib.obj
 0005:00000010       $unwind$tls1_set_peer_legacy_sigalg 00000000000ec050     OpensslLib:t1_lib.obj
 0005:00000010       $unwind$MmioRead32         00000000000ec050     BaseIoLibIntrinsicSev:IoLib.obj
 0005:00000010       $unwind$IoRead32           00000000000ec050     BaseIoLibIntrinsicSev:IoLibMsc.obj
 0005:00000010       $unwind$SaveAndDisableInterrupts 00000000000ec050     BaseLib:Cpu.obj
 0005:00000010       $unwind$InternalBaseLibIsListValid 00000000000ec050     BaseLib:LinkedList.obj
 0005:00000010       $unwind$RemoveEntryList    00000000000ec050     BaseLib:LinkedList.obj
 0005:00000010       $unwind$StrnLenS           00000000000ec050     BaseLib:SafeString.obj
 0005:00000010       $unwind$PciExpressRead32   00000000000ec050     BasePciExpressLib:PciExpressLib.obj
 0005:00000010       $unwind$_ModuleEntryPoint  00000000000ec050     UefiDriverEntryPoint:DriverEntryPoint.obj
 0005:00000010       $unwind$AllocateZeroPool   00000000000ec050     UefiMemoryAllocationLib:MemoryAllocationLib.obj
 0005:00000018       $unwind$ProcessLibraryConstructorList 00000000000ec058     TlsDxe:AutoGen.obj
 0005:00000030       $unwind$asn1_primitive_free 00000000000ec070     OpensslLib:tasn_fre.obj
 0005:00000030       $unwind$X509_ALGOR_set0    00000000000ec070     OpensslLib:x_algor.obj
 0005:00000030       $unwind$BN_set_bit         00000000000ec070     OpensslLib:bn_lib.obj
 0005:00000030       $unwind$BN_MONT_CTX_set_locked 00000000000ec070     OpensslLib:bn_mont.obj
 0005:00000030       $unwind$BN_add_word        00000000000ec070     OpensslLib:bn_word.obj
 0005:00000030       $unwind$ge_p1p1_to_p2      00000000000ec070     OpensslLib:curve25519.obj
 0005:00000030       $unwind$niels_to_pt        00000000000ec070     OpensslLib:curve448.obj
 0005:00000030       $unwind$oneshot_hash       00000000000ec070     OpensslLib:eddsa.obj
 0005:00000030       $unwind$EC_curve_nist2nid  00000000000ec070     OpensslLib:ec_curve.obj
 0005:00000030       $unwind$ec_precompute_mont_data 00000000000ec070     OpensslLib:ec_lib.obj
 0005:00000030       $unwind$ERR_clear_error    00000000000ec070     OpensslLib:err.obj
 0005:00000030       $unwind$ERR_put_error      00000000000ec070     OpensslLib:err.obj
 0005:00000030       $unwind$aes_ccm_ctrl       00000000000ec070     OpensslLib:e_aes.obj
 0005:00000030       $unwind$aes_wrap_init_key  00000000000ec070     OpensslLib:e_aes.obj
 0005:00000030       $unwind$aria_ccm_ctrl      00000000000ec070     OpensslLib:e_aria.obj
 0005:00000030       $unwind$init               00000000000ec070     OpensslLib:m_sha3.obj
 0005:00000030       $unwind$sha3_final         00000000000ec070     OpensslLib:m_sha3.obj
 0005:00000030       $unwind$hmac_set_priv_key  00000000000ec070     OpensslLib:hm_ameth.obj
 0005:00000030       $unwind$pkey_hkdf_ctrl     00000000000ec070     OpensslLib:hkdf.obj
 0005:00000030       $unwind$pkey_tls1_prf_ctrl 00000000000ec070     OpensslLib:tls1_prf.obj
 0005:00000030       $unwind$CRYPTO_ccm128_init 00000000000ec070     OpensslLib:ccm128.obj
 0005:00000030       $unwind$ctr_BCC_update     00000000000ec070     OpensslLib:drbg_ctr.obj
 0005:00000030       $unwind$rsa_pss_params_create 00000000000ec070     OpensslLib:rsa_ameth.obj
 0005:00000030       $unwind$OPENSSL_sk_insert  00000000000ec070     OpensslLib:stack.obj
 0005:00000030       $unwind$x509_store_add     00000000000ec070     OpensslLib:x509_lu.obj
 0005:00000030       $unwind$X509_check_trust   00000000000ec070     OpensslLib:x509_trs.obj
 0005:00000030       $unwind$check_crl_time     00000000000ec070     OpensslLib:x509_vfy.obj
 0005:00000030       $unwind$crl_extension_match 00000000000ec070     OpensslLib:x509_vfy.obj
 0005:00000030       $unwind$x509_check_cert_time 00000000000ec070     OpensslLib:x509_vfy.obj
 0005:00000030       $unwind$asn1_string_canon  00000000000ec070     OpensslLib:x_name.obj
 0005:00000030       $unwind$tree_add_unmatched 00000000000ec070     OpensslLib:pcy_tree.obj
 0005:00000030       $unwind$do_othername       00000000000ec070     OpensslLib:v3_alt.obj
 0005:00000030       $unwind$print_gens         00000000000ec070     OpensslLib:v3_crld.obj
 0005:00000030       $unwind$print_reasons      00000000000ec070     OpensslLib:v3_crld.obj
 0005:00000030       $unwind$nc_uri             00000000000ec070     OpensslLib:v3_ncons.obj
 0005:00000030       $unwind$pqueue_find        00000000000ec070     OpensslLib:pqueue.obj
 0005:00000030       $unwind$ssl_cert_select_current 00000000000ec070     OpensslLib:ssl_cert.obj
 0005:00000030       $unwind$do_store           00000000000ec070     OpensslLib:ssl_conf.obj
 0005:00000030       $unwind$ssl_conf_cmd_lookup 00000000000ec070     OpensslLib:ssl_conf.obj
 0005:00000030       $unwind$ssl_update_cache   00000000000ec070     OpensslLib:ssl_lib.obj
 0005:00000030       $unwind$def_generate_session_id 00000000000ec070     OpensslLib:ssl_sess.obj
 0005:00000030       $unwind$remove_session_lock 00000000000ec070     OpensslLib:ssl_sess.obj
 0005:00000030       $unwind$check_cert_usable  00000000000ec070     OpensslLib:t1_lib.obj
 0005:00000030       $unwind$ssl_check_ca_name  00000000000ec070     OpensslLib:t1_lib.obj
 0005:00000030       $unwind$tls1_check_cert_param 00000000000ec070     OpensslLib:t1_lib.obj
 0005:00000030       $unwind$CompareMem         00000000000ec070     BaseMemoryLibRepStr:CompareMemWrapper.obj
 0005:00000030       $unwind$CopyMem            00000000000ec070     BaseMemoryLibRepStr:CopyMemWrapper.obj
 0005:00000030       $unwind$TlsCreateInstance  00000000000ec070     TlsDxe:TlsDriver.obj
 0005:00000044       $unwind$TlsDriverEntryPoint 00000000000ec084     TlsDxe:TlsDriver.obj
 0005:00000060       $unwind$tls_process_finished 00000000000ec0a0     OpensslLib:statem_lib.obj
 0005:00000060       $unwind$TlsServiceBindingCreateChild 00000000000ec0a0     TlsDxe:TlsDriver.obj
 0005:00000074       $unwind$uint64_i2c         00000000000ec0b4     OpensslLib:x_int64.obj
 0005:00000074       $unwind$TlsServiceBindingDestroyChild 00000000000ec0b4     TlsDxe:TlsDriver.obj
 0005:00000084       $unwind$pkey_ec_kdf_derive 00000000000ec0c4     OpensslLib:ec_pmeth.obj
 0005:00000084       $unwind$drbg_ctr_generate  00000000000ec0c4     OpensslLib:drbg_ctr.obj
 0005:00000084       $unwind$TlsSetSessionData  00000000000ec0c4     TlsDxe:TlsProtocol.obj
 0005:0000009c       $unwind$BN_uadd            00000000000ec0dc     OpensslLib:bn_add.obj
 0005:0000009c       $unwind$bn_div_words       00000000000ec0dc     OpensslLib:bn_asm.obj
 0005:0000009c       $unwind$BN_bin2bn          00000000000ec0dc     OpensslLib:bn_lib.obj
 0005:0000009c       $unwind$BN_num_bits        00000000000ec0dc     OpensslLib:bn_lib.obj
 0005:0000009c       $unwind$bn_from_mont_fixed_top 00000000000ec0dc     OpensslLib:bn_mont.obj
 0005:0000009c       $unwind$BN_div_word        00000000000ec0dc     OpensslLib:bn_word.obj
 0005:0000009c       $unwind$int_update         00000000000ec0dc     OpensslLib:cm_pmeth.obj
 0005:0000009c       $unwind$ec_GFp_simple_group_get_curve 00000000000ec0dc     OpensslLib:ecp_smpl.obj
 0005:0000009c       $unwind$EVP_Digest         00000000000ec0dc     OpensslLib:digest.obj
 0005:0000009c       $unwind$aes_ecb_cipher     00000000000ec0dc     OpensslLib:e_aes.obj
 0005:0000009c       $unwind$aria_128_ecb_cipher 00000000000ec0dc     OpensslLib:e_aria.obj
 0005:0000009c       $unwind$aria_192_ecb_cipher 00000000000ec0dc     OpensslLib:e_aria.obj
 0005:0000009c       $unwind$aria_256_ecb_cipher 00000000000ec0dc     OpensslLib:e_aria.obj
 0005:0000009c       $unwind$sm4_ecb_cipher     00000000000ec0dc     OpensslLib:e_sm4.obj
 0005:0000009c       $unwind$getrn              00000000000ec0dc     OpensslLib:lhash.obj
 0005:0000009c       $unwind$SHA1_Final         00000000000ec0dc     OpensslLib:sha1dgst.obj
 0005:0000009c       $unwind$SHA256_Final       00000000000ec0dc     OpensslLib:sha256.obj
 0005:0000009c       $unwind$SM4_decrypt        00000000000ec0dc     OpensslLib:sm4.obj
 0005:0000009c       $unwind$SM4_encrypt        00000000000ec0dc     OpensslLib:sm4.obj
 0005:0000009c       $unwind$obj_trust          00000000000ec0dc     OpensslLib:x509_trs.obj
 0005:0000009c       $unwind$augment_stack      00000000000ec0dc     OpensslLib:x509_vfy.obj
 0005:0000009c       $unwind$i2r_certpol        00000000000ec0dc     OpensslLib:v3_cpols.obj
 0005:0000009c       $unwind$crldp_from_section 00000000000ec0dc     OpensslLib:v3_crld.obj
 0005:0000009c       $unwind$update_cipher_list 00000000000ec0dc     OpensslLib:ssl_ciph.obj
 0005:0000009c       $unwind$cmd_Ciphersuites   00000000000ec0dc     OpensslLib:ssl_conf.obj
 0005:0000009c       $unwind$cmd_DHParameters   00000000000ec0dc     OpensslLib:ssl_conf.obj
 0005:0000009c       $unwind$min_max_proto      00000000000ec0dc     OpensslLib:ssl_conf.obj
 0005:0000009c       $unwind$ssl_set_option_list 00000000000ec0dc     OpensslLib:ssl_conf.obj
 0005:0000009c       $unwind$SSL_get1_supported_ciphers 00000000000ec0dc     OpensslLib:ssl_lib.obj
 0005:0000009c       $unwind$ssl_get_auto_dh    00000000000ec0dc     OpensslLib:t1_lib.obj
 0005:0000009c       $unwind$TlsGetSessionData  00000000000ec0dc     TlsDxe:TlsProtocol.obj
 0005:000000b4       $unwind$ASN1_BIT_STRING_set_bit 00000000000ec0f4     OpensslLib:a_bitstr.obj
 0005:000000b4       $unwind$BN_usub            00000000000ec0f4     OpensslLib:bn_add.obj
 0005:000000b4       $unwind$BN_mod_mul_reciprocal 00000000000ec0f4     OpensslLib:bn_recp.obj
 0005:000000b4       $unwind$DH_check_pub_key   00000000000ec0f4     OpensslLib:dh_check.obj
 0005:000000b4       $unwind$ec_field_inverse_mod_ord 00000000000ec0f4     OpensslLib:ec_lib.obj
 0005:000000b4       $unwind$ec_guess_cofactor  00000000000ec0f4     OpensslLib:ec_lib.obj
 0005:000000b4       $unwind$ec_GFp_mont_field_inv 00000000000ec0f4     OpensslLib:ecp_mont.obj
 0005:000000b4       $unwind$ec_GFp_nist_field_mul 00000000000ec0f4     OpensslLib:ecp_nist.obj
 0005:000000b4       $unwind$ec_GFp_nist_group_set_curve 00000000000ec0f4     OpensslLib:ecp_nist.obj
 0005:000000b4       $unwind$ec_GFp_simple_field_inv 00000000000ec0f4     OpensslLib:ecp_smpl.obj
 0005:000000b4       $unwind$ec_GFp_simple_make_affine 00000000000ec0f4     OpensslLib:ecp_smpl.obj
 0005:000000b4       $unwind$get_name           00000000000ec0f4     OpensslLib:pem_lib.obj
 0005:000000b4       $unwind$X509_STORE_CTX_get_by_subject 00000000000ec0f4     OpensslLib:x509_lu.obj
 0005:000000b4       $unwind$v2i_issuer_alt     00000000000ec0f4     OpensslLib:v3_alt.obj
 0005:000000b4       $unwind$v2i_subject_alt    00000000000ec0f4     OpensslLib:v3_alt.obj
 0005:000000b4       $unwind$x509v3_add_len_value 00000000000ec0f4     OpensslLib:v3_utl.obj
 0005:000000b4       $unwind$ssl_handshake_hash 00000000000ec0f4     OpensslLib:ssl_lib.obj
 0005:000000b4       $unwind$tls_parse_all_extensions 00000000000ec0f4     OpensslLib:extensions.obj
 0005:000000b4       $unwind$tls_construct_ctos_use_srtp 00000000000ec0f4     OpensslLib:extensions_clnt.obj
 0005:000000b4       $unwind$ssl_add_cert_chain 00000000000ec0f4     OpensslLib:statem_lib.obj
 0005:000000b4       $unwind$tls12_copy_sigalgs 00000000000ec0f4     OpensslLib:t1_lib.obj
 0005:000000b4       $unwind$TlsBuildResponsePacket 00000000000ec0f4     TlsDxe:TlsProtocol.obj
 0005:000000d0       $unwind$i2c_ASN1_BIT_STRING 00000000000ec110     OpensslLib:a_bitstr.obj
 0005:000000d0       $unwind$EVP_PKEY_asn1_find_str 00000000000ec110     OpensslLib:ameth_lib.obj
 0005:000000d0       $unwind$mem_ctrl           00000000000ec110     OpensslLib:bss_mem.obj
 0005:000000d0       $unwind$BN_mul_word        00000000000ec110     OpensslLib:bn_word.obj
 0005:000000d0       $unwind$cmac_signctx       00000000000ec110     OpensslLib:cm_pmeth.obj
 0005:000000d0       $unwind$ssl_module_free    00000000000ec110     OpensslLib:conf_ssl.obj
 0005:000000d0       $unwind$DH_check_params    00000000000ec110     OpensslLib:dh_check.obj
 0005:000000d0       $unwind$ge_p1p1_to_p3      00000000000ec110     OpensslLib:curve25519.obj
 0005:000000d0       $unwind$EVP_CIPHER_set_asn1_iv 00000000000ec110     OpensslLib:evp_lib.obj
 0005:000000d0       $unwind$sha3_update        00000000000ec110     OpensslLib:m_sha3.obj
 0005:000000d0       $unwind$expand             00000000000ec110     OpensslLib:lhash.obj
 0005:000000d0       $unwind$MD5_Final          00000000000ec110     OpensslLib:md5_dgst.obj
 0005:000000d0       $unwind$MD5_Update         00000000000ec110     OpensslLib:md5_dgst.obj
 0005:000000d0       $unwind$CRYPTO_realloc     00000000000ec110     OpensslLib:mem.obj
 0005:000000d0       $unwind$OBJ_NAME_add       00000000000ec110     OpensslLib:o_names.obj
 0005:000000d0       $unwind$SHA3_absorb        00000000000ec110     OpensslLib:keccak1600.obj
 0005:000000d0       $unwind$SHA1_Update        00000000000ec110     OpensslLib:sha1dgst.obj
 0005:000000d0       $unwind$SHA256_Update      00000000000ec110     OpensslLib:sha256.obj
 0005:000000d0       $unwind$SHA512_Update      00000000000ec110     OpensslLib:sha512.obj
 0005:000000d0       $unwind$update             00000000000ec110     OpensslLib:m_sm3.obj
 0005:000000d0       $unwind$sm3_final          00000000000ec110     OpensslLib:sm3.obj
 0005:000000d0       $unwind$check_crl          00000000000ec110     OpensslLib:x509_vfy.obj
 0005:000000d0       $unwind$dane_verify        00000000000ec110     OpensslLib:x509_vfy.obj
 0005:000000d0       $unwind$internal_verify    00000000000ec110     OpensslLib:x509_vfy.obj
 0005:000000d0       $unwind$X509_VERIFY_PARAM_inherit 00000000000ec110     OpensslLib:x509_vpm.obj
 0005:000000d0       $unwind$int_x509_param_set_hosts 00000000000ec110     OpensslLib:x509_vpm.obj
 0005:000000d0       $unwind$i2v_GENERAL_NAMES  00000000000ec110     OpensslLib:v3_alt.obj
 0005:000000d0       $unwind$i2r_crldp          00000000000ec110     OpensslLib:v3_crld.obj
 0005:000000d0       $unwind$SXNET_get_id_INTEGER 00000000000ec110     OpensslLib:v3_sxnet.obj
 0005:000000d0       $unwind$cmd_Certificate    00000000000ec110     OpensslLib:ssl_conf.obj
 0005:000000d0       $unwind$cmd_ECDHParameters 00000000000ec110     OpensslLib:ssl_conf.obj
 0005:000000d0       $unwind$check_in_list      00000000000ec110     OpensslLib:statem_lib.obj
 0005:000000d0       $unwind$ssl_version_supported 00000000000ec110     OpensslLib:statem_lib.obj
 0005:000000d0       $unwind$TlsConfigurationGetData 00000000000ec110     TlsDxe:TlsConfigProtocol.obj
 0005:000000d0       $unwind$TlsConfigurationSetData 00000000000ec110     TlsDxe:TlsConfigProtocol.obj
 0005:000000d0       $unwind$TlsProcessPacket   00000000000ec110     TlsDxe:TlsProtocol.obj
 0005:000000e8       $unwind$sm2_sig_verify     00000000000ec128     OpensslLib:sm2_sign.obj
 0005:000000e8       $unwind$TlsDecryptPacket   00000000000ec128     TlsDxe:TlsImpl.obj
 0005:000000e8       $unwind$TlsEncryptPacket   00000000000ec128     TlsDxe:TlsImpl.obj
 0005:00000100       $unwind$strchr             00000000000ec140     BaseCryptLib:CrtWrapper.obj
 0005:00000100       $unwind$AES_set_decrypt_key 00000000000ec140     OpensslLib:aes_core.obj
 0005:00000100       $unwind$ASN1_STRING_cmp    00000000000ec140     OpensslLib:asn1_lib.obj
 0005:00000100       $unwind$ASN1_STRING_copy   00000000000ec140     OpensslLib:asn1_lib.obj
 0005:00000100       $unwind$ASN1_STRING_dup    00000000000ec140     OpensslLib:asn1_lib.obj
 0005:00000100       $unwind$der_cmp            00000000000ec140     OpensslLib:tasn_enc.obj
 0005:00000100       $unwind$async_release_job  00000000000ec140     OpensslLib:async.obj
 0005:00000100       $unwind$buffer_free        00000000000ec140     OpensslLib:bf_buff.obj
 0005:00000100       $unwind$BIO_indent         00000000000ec140     OpensslLib:bio_lib.obj
 0005:00000100       $unwind$BIO_pop            00000000000ec140     OpensslLib:bio_lib.obj
 0005:00000100       $unwind$mem_buf_free       00000000000ec140     OpensslLib:bss_mem.obj
 0005:00000100       $unwind$BN_dup             00000000000ec140     OpensslLib:bn_lib.obj
 0005:00000100       $unwind$BN_set_word        00000000000ec140     OpensslLib:bn_lib.obj
 0005:00000100       $unwind$BN_mod_lshift1_quick 00000000000ec140     OpensslLib:bn_mod.obj
 0005:00000100       $unwind$BN_mod_sub_quick   00000000000ec140     OpensslLib:bn_mod.obj
 0005:00000100       $unwind$BN_MONT_CTX_copy   00000000000ec140     OpensslLib:bn_mont.obj
 0005:00000100       $unwind$BN_lshift1         00000000000ec140     OpensslLib:bn_shift.obj
 0005:00000100       $unwind$BN_mod_word        00000000000ec140     OpensslLib:bn_word.obj
 0005:00000100       $unwind$pkey_cmac_copy     00000000000ec140     OpensslLib:cm_pmeth.obj
 0005:00000100       $unwind$dh_pub_cmp         00000000000ec140     OpensslLib:dh_ameth.obj
 0005:00000100       $unwind$dh_security_bits   00000000000ec140     OpensslLib:dh_ameth.obj
 0005:00000100       $unwind$int_dh_bn_cpy      00000000000ec140     OpensslLib:dh_ameth.obj
 0005:00000100       $unwind$pkey_dh_copy       00000000000ec140     OpensslLib:dh_pmeth.obj
 0005:00000100       $unwind$dh_param_init      00000000000ec140     OpensslLib:dh_rfc7919.obj
 0005:00000100       $unwind$ge_p3_to_cached    00000000000ec140     OpensslLib:curve25519.obj
 0005:00000100       $unwind$gf_strong_reduce   00000000000ec140     OpensslLib:f_generic.obj
 0005:00000100       $unwind$ec_copy_parameters 00000000000ec140     OpensslLib:ec_ameth.obj
 0005:00000100       $unwind$EC_KEY_dup         00000000000ec140     OpensslLib:ec_key.obj
 0005:00000100       $unwind$EC_GROUP_dup       00000000000ec140     OpensslLib:ec_lib.obj
 0005:00000100       $unwind$pkey_ec_cleanup    00000000000ec140     OpensslLib:ec_pmeth.obj
 0005:00000100       $unwind$pkey_ec_copy       00000000000ec140     OpensslLib:ec_pmeth.obj
 0005:00000100       $unwind$ec_GFp_mont_group_copy 00000000000ec140     OpensslLib:ecp_mont.obj
 0005:00000100       $unwind$ec_GFp_simple_group_copy 00000000000ec140     OpensslLib:ecp_smpl.obj
 0005:00000100       $unwind$ec_GFp_simple_invert 00000000000ec140     OpensslLib:ecp_smpl.obj
 0005:00000100       $unwind$ec_GFp_simple_point_copy 00000000000ec140     OpensslLib:ecp_smpl.obj
 0005:00000100       $unwind$ecx_free           00000000000ec140     OpensslLib:ecx_meth.obj
 0005:00000100       $unwind$aes_gcm_cipher     00000000000ec140     OpensslLib:e_aes.obj
 0005:00000100       $unwind$aes_gcm_cleanup    00000000000ec140     OpensslLib:e_aes.obj
 0005:00000100       $unwind$aria_gcm_cipher    00000000000ec140     OpensslLib:e_aria.obj
 0005:00000100       $unwind$final              00000000000ec140     OpensslLib:m_md5_sha1.obj
 0005:00000100       $unwind$EVP_add_digest     00000000000ec140     OpensslLib:names.obj
 0005:00000100       $unwind$EVP_PKEY_cmp       00000000000ec140     OpensslLib:p_lib.obj
 0005:00000100       $unwind$HMAC_CTX_copy      00000000000ec140     OpensslLib:hmac.obj
 0005:00000100       $unwind$hmac_ctx_alloc_mds 00000000000ec140     OpensslLib:hmac.obj
 0005:00000100       $unwind$ossl_init_base_ossl_ 00000000000ec140     OpensslLib:init.obj
 0005:00000100       $unwind$pkey_hkdf_cleanup  00000000000ec140     OpensslLib:hkdf.obj
 0005:00000100       $unwind$pkey_hkdf_derive_init 00000000000ec140     OpensslLib:hkdf.obj
 0005:00000100       $unwind$pkey_tls1_prf_cleanup 00000000000ec140     OpensslLib:tls1_prf.obj
 0005:00000100       $unwind$CRYPTO_malloc      00000000000ec140     OpensslLib:mem.obj
 0005:00000100       $unwind$CRYPTO_zalloc      00000000000ec140     OpensslLib:mem.obj
 0005:00000100       $unwind$CRYPTO_gcm128_tag  00000000000ec140     OpensslLib:gcm128.obj
 0005:00000100       $unwind$CRYPTO_strdup      00000000000ec140     OpensslLib:o_str.obj
 0005:00000100       $unwind$i2d_ocsp_nonce     00000000000ec140     OpensslLib:v3_ocsp.obj
 0005:00000100       $unwind$pem_check_suffix   00000000000ec140     OpensslLib:pem_lib.obj
 0005:00000100       $unwind$RAND_priv_bytes    00000000000ec140     OpensslLib:rand_lib.obj
 0005:00000100       $unwind$rsa_pub_cmp        00000000000ec140     OpensslLib:rsa_ameth.obj
 0005:00000100       $unwind$pkey_rsa_copy      00000000000ec140     OpensslLib:rsa_pmeth.obj
 0005:00000100       $unwind$pkey_sm2_cleanup   00000000000ec140     OpensslLib:sm2_pmeth.obj
 0005:00000100       $unwind$internal_delete    00000000000ec140     OpensslLib:stack.obj
 0005:00000100       $unwind$X509_cmp           00000000000ec140     OpensslLib:x509_cmp.obj
 0005:00000100       $unwind$check_suite_b      00000000000ec140     OpensslLib:x509_cmp.obj
 0005:00000100       $unwind$trust_compat       00000000000ec140     OpensslLib:x509_trs.obj
 0005:00000100       $unwind$X509v3_get_ext_by_NID 00000000000ec140     OpensslLib:x509_v3.obj
 0005:00000100       $unwind$X509_STORE_CTX_cleanup 00000000000ec140     OpensslLib:x509_vfy.obj
 0005:00000100       $unwind$check_dane_issuer  00000000000ec140     OpensslLib:x509_vfy.obj
 0005:00000100       $unwind$check_key_level    00000000000ec140     OpensslLib:x509_vfy.obj
 0005:00000100       $unwind$verify_chain       00000000000ec140     OpensslLib:x509_vfy.obj
 0005:00000100       $unwind$X509_NAME_get_index_by_NID 00000000000ec140     OpensslLib:x509name.obj
 0005:00000100       $unwind$X509_PUBKEY_set0_param 00000000000ec140     OpensslLib:x_pubkey.obj
 0005:00000100       $unwind$pubkey_cb          00000000000ec140     OpensslLib:x_pubkey.obj
 0005:00000100       $unwind$displaytext_str2tag 00000000000ec140     OpensslLib:v3_cpols.obj
 0005:00000100       $unwind$i2r_idp            00000000000ec140     OpensslLib:v3_crld.obj
 0005:00000100       $unwind$i2r_PKEY_USAGE_PERIOD 00000000000ec140     OpensslLib:v3_pku.obj
 0005:00000100       $unwind$X509_check_akid    00000000000ec140     OpensslLib:v3_purp.obj
 0005:00000100       $unwind$check_purpose_ns_ssl_server 00000000000ec140     OpensslLib:v3_purp.obj
 0005:00000100       $unwind$x509_likely_issued 00000000000ec140     OpensslLib:v3_purp.obj
 0005:00000100       $unwind$a2i_ipadd          00000000000ec140     OpensslLib:v3_utl.obj
 0005:00000100       $unwind$name_cmp           00000000000ec140     OpensslLib:v3_utl.obj
 0005:00000100       $unwind$dtls1_clear_received_buffer 00000000000ec140     OpensslLib:d1_lib.obj
 0005:00000100       $unwind$dtls1_clear_sent_buffer 00000000000ec140     OpensslLib:d1_lib.obj
 0005:00000100       $unwind$dtls1_start_timer  00000000000ec140     OpensslLib:d1_lib.obj
 0005:00000100       $unwind$WPACKET_allocate_bytes 00000000000ec140     OpensslLib:packet.obj
 0005:00000100       $unwind$WPACKET_cleanup    00000000000ec140     OpensslLib:packet.obj
 0005:00000100       $unwind$WPACKET_finish     00000000000ec140     OpensslLib:packet.obj
 0005:00000100       $unwind$WPACKET_init_static_len 00000000000ec140     OpensslLib:packet.obj
 0005:00000100       $unwind$WPACKET_memcpy     00000000000ec140     OpensslLib:packet.obj
 0005:00000100       $unwind$WPACKET_put_bytes__ 00000000000ec140     OpensslLib:packet.obj
 0005:00000100       $unwind$WPACKET_reserve_bytes 00000000000ec140     OpensslLib:packet.obj
 0005:00000100       $unwind$dtls1_reset_seq_numbers 00000000000ec140     OpensslLib:rec_layer_d1.obj
 0005:00000100       $unwind$RECORD_LAYER_release 00000000000ec140     OpensslLib:rec_layer_s3.obj
 0005:00000100       $unwind$ssl3_cleanup_key_block 00000000000ec140     OpensslLib:s3_enc.obj
 0005:00000100       $unwind$ssl3_free_digest_list 00000000000ec140     OpensslLib:s3_enc.obj
 0005:00000100       $unwind$ssl3_clear         00000000000ec140     OpensslLib:s3_lib.obj
 0005:00000100       $unwind$ssl_dh_to_pkey     00000000000ec140     OpensslLib:s3_lib.obj
 0005:00000100       $unwind$ssl_fill_hello_random 00000000000ec140     OpensslLib:s3_lib.obj
 0005:00000100       $unwind$ssl_session_memcpy 00000000000ec140     OpensslLib:ssl_asn1.obj
 0005:00000100       $unwind$ssl_session_strndup 00000000000ec140     OpensslLib:ssl_asn1.obj
 0005:00000100       $unwind$SSL_CTX_set_ciphersuites 00000000000ec140     OpensslLib:ssl_ciph.obj
 0005:00000100       $unwind$cmd_NumTickets     00000000000ec140     OpensslLib:ssl_conf.obj
 0005:00000100       $unwind$cmd_RequestCAFile  00000000000ec140     OpensslLib:ssl_conf.obj
 0005:00000100       $unwind$ssl_conf_cmd_skip_prefix 00000000000ec140     OpensslLib:ssl_conf.obj
 0005:00000100       $unwind$SSL_ctrl           00000000000ec140     OpensslLib:ssl_lib.obj
 0005:00000100       $unwind$SSL_set0_wbio      00000000000ec140     OpensslLib:ssl_lib.obj
 0005:00000100       $unwind$clear_ciphers      00000000000ec140     OpensslLib:ssl_lib.obj
 0005:00000100       $unwind$ssl_replace_hash   00000000000ec140     OpensslLib:ssl_lib.obj
 0005:00000100       $unwind$timeout_cb         00000000000ec140     OpensslLib:ssl_sess.obj
 0005:00000100       $unwind$use_ecc            00000000000ec140     OpensslLib:extensions_clnt.obj
 0005:00000100       $unwind$PACKET_copy_bytes  00000000000ec140     OpensslLib:statem_clnt.obj
 0005:00000100       $unwind$dtls1_get_message_header 00000000000ec140     OpensslLib:statem_dtls.obj
 0005:00000100       $unwind$ssl3_take_mac      00000000000ec140     OpensslLib:statem_lib.obj
 0005:00000100       $unwind$tls_close_construct_packet 00000000000ec140     OpensslLib:statem_lib.obj
 0005:00000100       $unwind$PACKET_copy_bytes  00000000000ec140     OpensslLib:statem_srvr.obj
 0005:00000100       $unwind$InsertTailList     00000000000ec140     BaseLib:LinkedList.obj
 0005:00000100       $unwind$AsciiStrCmp        00000000000ec140     BaseLib:String.obj
 0005:00000100       $unwind$AsciiStrLen        00000000000ec140     BaseLib:String.obj
 0005:00000100       $unwind$AsciiStriCmp       00000000000ec140     BaseLib:String.obj
 0005:00000100       $unwind$ZeroMem            00000000000ec140     BaseMemoryLibRepStr:ZeroMemWrapper.obj
 0005:00000100       $unwind$GetRandomNumber64  00000000000ec140     BaseRngLibTimerLib:RngLibTimer.obj
 0005:0000010c       $unwind$DebugPrint         00000000000ec14c     BaseDebugLibSerialPort:DebugLib.obj
 0005:00000114       $unwind$DebugPrintMarker   00000000000ec154     BaseDebugLibSerialPort:DebugLib.obj
 0005:00000128       $unwind$DebugAssert        00000000000ec168     BaseDebugLibSerialPort:DebugLib.obj
 0005:00000130       $unwind$strspn             00000000000ec170     BaseCryptLib:CrtWrapper.obj
 0005:00000130       $unwind$ASN1_ENUMERATED_get 00000000000ec170     OpensslLib:a_int.obj
 0005:00000130       $unwind$ASN1_INTEGER_get   00000000000ec170     OpensslLib:a_int.obj
 0005:00000130       $unwind$asn1_string_set_int64 00000000000ec170     OpensslLib:a_int.obj
 0005:00000130       $unwind$st_free            00000000000ec170     OpensslLib:a_strnid.obj
 0005:00000130       $unwind$stbl_module_finish 00000000000ec170     OpensslLib:asn_mstbl.obj
 0005:00000130       $unwind$PKCS8_PRIV_KEY_INFO_free 00000000000ec170     OpensslLib:p8_pkey.obj
 0005:00000130       $unwind$pkey_cb            00000000000ec170     OpensslLib:p8_pkey.obj
 0005:00000130       $unwind$ASN1_TYPE_free     00000000000ec170     OpensslLib:tasn_typ.obj
 0005:00000130       $unwind$X509_ALGOR_free    00000000000ec170     OpensslLib:x_algor.obj
 0005:00000130       $unwind$ASYNC_get_current_job 00000000000ec170     OpensslLib:async.obj
 0005:00000130       $unwind$BN_GENCB_call      00000000000ec170     OpensslLib:bn_prime.obj
 0005:00000130       $unwind$int_dh_size        00000000000ec170     OpensslLib:dh_ameth.obj
 0005:00000130       $unwind$dh_finish          00000000000ec170     OpensslLib:dh_key.obj
 0005:00000130       $unwind$gf_sub_nr          00000000000ec170     OpensslLib:curve448.obj
 0005:00000130       $unwind$ec_security_bits   00000000000ec170     OpensslLib:ec_ameth.obj
 0005:00000130       $unwind$eckey_pub_cmp      00000000000ec170     OpensslLib:ec_ameth.obj
 0005:00000130       $unwind$ERR_set_mark       00000000000ec170     OpensslLib:err.obj
 0005:00000130       $unwind$aria_gcm_cleanup   00000000000ec170     OpensslLib:e_aria.obj
 0005:00000130       $unwind$null_cipher        00000000000ec170     OpensslLib:e_null.obj
 0005:00000130       $unwind$sm4_init_key       00000000000ec170     OpensslLib:e_sm4.obj
 0005:00000130       $unwind$EVP_CIPHER_CTX_iv_length 00000000000ec170     OpensslLib:evp_lib.obj
 0005:00000130       $unwind$EVP_PKEY_get1_tls_encodedpoint 00000000000ec170     OpensslLib:p_lib.obj
 0005:00000130       $unwind$EVP_PKEY_set1_tls_encodedpoint 00000000000ec170     OpensslLib:p_lib.obj
 0005:00000130       $unwind$hmac_get_priv_key  00000000000ec170     OpensslLib:hm_ameth.obj
 0005:00000130       $unwind$hmac_pkey_public_cmp 00000000000ec170     OpensslLib:hm_ameth.obj
 0005:00000130       $unwind$int_update         00000000000ec170     OpensslLib:hm_pmeth.obj
 0005:00000130       $unwind$ossl_init_add_all_digests_ossl_ 00000000000ec170     OpensslLib:init.obj
 0005:00000130       $unwind$ossl_init_config_ossl_ 00000000000ec170     OpensslLib:init.obj
 0005:00000130       $unwind$obj_name_cmp       00000000000ec170     OpensslLib:o_names.obj
 0005:00000130       $unwind$added_obj_cmp      00000000000ec170     OpensslLib:obj_dat.obj
 0005:00000130       $unwind$obj_cmp_BSEARCH_CMP_FN 00000000000ec170     OpensslLib:obj_dat.obj
 0005:00000130       $unwind$OCSP_RESPID_free   00000000000ec170     OpensslLib:ocsp_asn.obj
 0005:00000130       $unwind$i2r_object         00000000000ec170     OpensslLib:v3_ocsp.obj
 0005:00000130       $unwind$i2r_ocsp_acutoff   00000000000ec170     OpensslLib:v3_ocsp.obj
 0005:00000130       $unwind$i2r_ocsp_nonce     00000000000ec170     OpensslLib:v3_ocsp.obj
 0005:00000130       $unwind$RAND_DRBG_get0_master 00000000000ec170     OpensslLib:drbg_lib.obj
 0005:00000130       $unwind$drbg_status        00000000000ec170     OpensslLib:drbg_lib.obj
 0005:00000130       $unwind$RAND_get_rand_method 00000000000ec170     OpensslLib:rand_lib.obj
 0005:00000130       $unwind$int_rsa_size       00000000000ec170     OpensslLib:rsa_ameth.obj
 0005:00000130       $unwind$rsa_pss_cb         00000000000ec170     OpensslLib:rsa_asn1.obj
 0005:00000130       $unwind$siphash_pkey_public_cmp 00000000000ec170     OpensslLib:siphash_ameth.obj
 0005:00000130       $unwind$int_update         00000000000ec170     OpensslLib:siphash_pmeth.obj
 0005:00000130       $unwind$x509_object_cmp    00000000000ec170     OpensslLib:x509_lu.obj
 0005:00000130       $unwind$check_issued       00000000000ec170     OpensslLib:x509_vfy.obj
 0005:00000130       $unwind$X509_ATTRIBUTE_free 00000000000ec170     OpensslLib:x_attrib.obj
 0005:00000130       $unwind$X509_CRL_free      00000000000ec170     OpensslLib:x_crl.obj
 0005:00000130       $unwind$X509_EXTENSION_free 00000000000ec170     OpensslLib:x_exten.obj
 0005:00000130       $unwind$X509_NAME_ENTRY_free 00000000000ec170     OpensslLib:x_name.obj
 0005:00000130       $unwind$X509_NAME_free     00000000000ec170     OpensslLib:x_name.obj
 0005:00000130       $unwind$X509_free          00000000000ec170     OpensslLib:x_x509.obj
 0005:00000130       $unwind$policy_data_cmp    00000000000ec170     OpensslLib:pcy_cache.obj
 0005:00000130       $unwind$node_cmp           00000000000ec170     OpensslLib:pcy_node.obj
 0005:00000130       $unwind$exnode_free        00000000000ec170     OpensslLib:pcy_tree.obj
 0005:00000130       $unwind$POLICYINFO_free    00000000000ec170     OpensslLib:v3_cpols.obj
 0005:00000130       $unwind$POLICYQUALINFO_free 00000000000ec170     OpensslLib:v3_cpols.obj
 0005:00000130       $unwind$DIST_POINT_free    00000000000ec170     OpensslLib:v3_crld.obj
 0005:00000130       $unwind$dpn_cb             00000000000ec170     OpensslLib:v3_crld.obj
 0005:00000130       $unwind$GENERAL_NAMES_free 00000000000ec170     OpensslLib:v3_genn.obj
 0005:00000130       $unwind$GENERAL_NAME_free  00000000000ec170     OpensslLib:v3_genn.obj
 0005:00000130       $unwind$ACCESS_DESCRIPTION_free 00000000000ec170     OpensslLib:v3_info.obj
 0005:00000130       $unwind$POLICY_MAPPING_free 00000000000ec170     OpensslLib:v3_pmaps.obj
 0005:00000130       $unwind$check_purpose_crl_sign 00000000000ec170     OpensslLib:v3_purp.obj
 0005:00000130       $unwind$check_purpose_smime_encrypt 00000000000ec170     OpensslLib:v3_purp.obj
 0005:00000130       $unwind$check_purpose_smime_sign 00000000000ec170     OpensslLib:v3_purp.obj
 0005:00000130       $unwind$check_purpose_ssl_client 00000000000ec170     OpensslLib:v3_purp.obj
 0005:00000130       $unwind$check_purpose_ssl_server 00000000000ec170     OpensslLib:v3_purp.obj
 0005:00000130       $unwind$purpose_smime      00000000000ec170     OpensslLib:v3_purp.obj
 0005:00000130       $unwind$dtls1_min_mtu      00000000000ec170     OpensslLib:d1_lib.obj
 0005:00000130       $unwind$ossl_assert_int    00000000000ec170     OpensslLib:packet.obj
 0005:00000130       $unwind$do_load_builtin_compressions_ossl_ 00000000000ec170     OpensslLib:ssl_ciph.obj
 0005:00000130       $unwind$ssl_handshake_md   00000000000ec170     OpensslLib:ssl_ciph.obj
 0005:00000130       $unwind$ssl_library_stop   00000000000ec170     OpensslLib:ssl_init.obj
 0005:00000130       $unwind$ssl_clear_bad_session 00000000000ec170     OpensslLib:ssl_sess.obj
 0005:00000130       $unwind$custom_ext_free_old_cb_wrap 00000000000ec170     OpensslLib:extensions_cust.obj
 0005:00000130       $unwind$ossl_statem_client_pre_work 00000000000ec170     OpensslLib:statem_clnt.obj
 0005:00000130       $unwind$tls_construct_cert_status 00000000000ec170     OpensslLib:statem_srvr.obj
 0005:00000130       $unwind$tls_construct_server_done 00000000000ec170     OpensslLib:statem_srvr.obj
 0005:00000130       $unwind$sigalg_security_bits 00000000000ec170     OpensslLib:t1_lib.obj
 0005:00000130       $unwind$tls1_get_group_id  00000000000ec170     OpensslLib:t1_lib.obj
 0005:00000130       $unwind$TlsSetConnectionEnd 00000000000ec170     TlsLib:TlsConfig.obj
 0005:00000130       $unwind$GetPcdProtocol     00000000000ec170     DxePcdLib:DxePcdLib.obj
 0005:00000130       $unwind$FreePool           00000000000ec170     UefiMemoryAllocationLib:MemoryAllocationLib.obj
 0005:00000130       $unwind$InternalAllocatePool 00000000000ec170     UefiMemoryAllocationLib:MemoryAllocationLib.obj
 0005:00000138       $unwind$strncasecmp        00000000000ec178     BaseCryptLib:CrtWrapper.obj
 0005:00000138       $unwind$asn1_str2tag       00000000000ec178     OpensslLib:asn1_gen.obj
 0005:00000138       $unwind$mask_cb            00000000000ec178     OpensslLib:asn1_gen.obj
 0005:00000138       $unwind$ASN1_STRING_set0   00000000000ec178     OpensslLib:asn1_lib.obj
 0005:00000138       $unwind$PKCS8_pkey_set0    00000000000ec178     OpensslLib:p8_pkey.obj
 0005:00000138       $unwind$bn_c2i             00000000000ec178     OpensslLib:x_bignum.obj
 0005:00000138       $unwind$bn_i2c             00000000000ec178     OpensslLib:x_bignum.obj
 0005:00000138       $unwind$buffer_new         00000000000ec178     OpensslLib:bf_buff.obj
 0005:00000138       $unwind$mem_init           00000000000ec178     OpensslLib:bss_mem.obj
 0005:00000138       $unwind$mem_read           00000000000ec178     OpensslLib:bss_mem.obj
 0005:00000138       $unwind$BN_add             00000000000ec178     OpensslLib:bn_add.obj
 0005:00000138       $unwind$BN_sub             00000000000ec178     OpensslLib:bn_add.obj
 0005:00000138       $unwind$BN_copy            00000000000ec178     OpensslLib:bn_lib.obj
 0005:00000138       $unwind$BN_sub_word        00000000000ec178     OpensslLib:bn_word.obj
 0005:00000138       $unwind$sec_alloc_realloc  00000000000ec178     OpensslLib:buffer.obj
 0005:00000138       $unwind$pkey_cmac_keygen   00000000000ec178     OpensslLib:cm_pmeth.obj
 0005:00000138       $unwind$CMAC_CTX_copy      00000000000ec178     OpensslLib:cmac.obj
 0005:00000138       $unwind$dh_cmp_parameters  00000000000ec178     OpensslLib:dh_ameth.obj
 0005:00000138       $unwind$dh_copy_parameters 00000000000ec178     OpensslLib:dh_ameth.obj
 0005:00000138       $unwind$int_dh_param_copy  00000000000ec178     OpensslLib:dh_ameth.obj
 0005:00000138       $unwind$d2i_DHxparams      00000000000ec178     OpensslLib:dh_asn1.obj
 0005:00000138       $unwind$pkey_dh_ctrl       00000000000ec178     OpensslLib:dh_pmeth.obj
 0005:00000138       $unwind$pt_to_pniels       00000000000ec178     OpensslLib:curve448.obj
 0005:00000138       $unwind$EC_KEY_set_group   00000000000ec178     OpensslLib:ec_key.obj
 0005:00000138       $unwind$ecx_get_priv_key   00000000000ec178     OpensslLib:ecx_meth.obj
 0005:00000138       $unwind$ecx_get_pub_key    00000000000ec178     OpensslLib:ecx_meth.obj
 0005:00000138       $unwind$err_set_error_data_int 00000000000ec178     OpensslLib:err.obj
 0005:00000138       $unwind$EVP_DigestFinal_ex 00000000000ec178     OpensslLib:digest.obj
 0005:00000138       $unwind$cleanup_old_md_data 00000000000ec178     OpensslLib:digest.obj
 0005:00000138       $unwind$aes_gcm_init_key   00000000000ec178     OpensslLib:e_aes.obj
 0005:00000138       $unwind$update             00000000000ec178     OpensslLib:m_md5_sha1.obj
 0005:00000138       $unwind$EVP_PKEY_CTX_hex2ctrl 00000000000ec178     OpensslLib:pmeth_lib.obj
 0005:00000138       $unwind$pkey_hmac_cleanup  00000000000ec178     OpensslLib:hm_pmeth.obj
 0005:00000138       $unwind$pkey_hmac_copy     00000000000ec178     OpensslLib:hm_pmeth.obj
 0005:00000138       $unwind$pkey_hmac_ctrl_str 00000000000ec178     OpensslLib:hm_pmeth.obj
 0005:00000138       $unwind$OPENSSL_LH_new     00000000000ec178     OpensslLib:lhash.obj
 0005:00000138       $unwind$CRYPTO_clear_realloc 00000000000ec178     OpensslLib:mem.obj
 0005:00000138       $unwind$CRYPTO_strndup     00000000000ec178     OpensslLib:o_str.obj
 0005:00000138       $unwind$check_pem          00000000000ec178     OpensslLib:pem_lib.obj
 0005:00000138       $unwind$drbg_ctr_uninstantiate 00000000000ec178     OpensslLib:drbg_ctr.obj
 0005:00000138       $unwind$rsa_md_to_algor    00000000000ec178     OpensslLib:rsa_ameth.obj
 0005:00000138       $unwind$rsa_cb             00000000000ec178     OpensslLib:rsa_asn1.obj
 0005:00000138       $unwind$rsa_get_blinding   00000000000ec178     OpensslLib:rsa_ossl.obj
 0005:00000138       $unwind$rsa_ossl_finish    00000000000ec178     OpensslLib:rsa_ossl.obj
 0005:00000138       $unwind$siphash_set_priv_key 00000000000ec178     OpensslLib:siphash_ameth.obj
 0005:00000138       $unwind$pkey_siphash_cleanup 00000000000ec178     OpensslLib:siphash_pmeth.obj
 0005:00000138       $unwind$pkey_siphash_copy  00000000000ec178     OpensslLib:siphash_pmeth.obj
 0005:00000138       $unwind$pkey_siphash_ctrl_str 00000000000ec178     OpensslLib:siphash_pmeth.obj
 0005:00000138       $unwind$OPENSSL_sk_new_reserve 00000000000ec178     OpensslLib:stack.obj
 0005:00000138       $unwind$X509_chain_up_ref  00000000000ec178     OpensslLib:x509_cmp.obj
 0005:00000138       $unwind$check_revocation   00000000000ec178     OpensslLib:x509_vfy.obj
 0005:00000138       $unwind$X509_NAME_delete_entry 00000000000ec178     OpensslLib:x509name.obj
 0005:00000138       $unwind$x509_name_ex_i2d   00000000000ec178     OpensslLib:x_name.obj
 0005:00000138       $unwind$tree_add_auth_node 00000000000ec178     OpensslLib:pcy_tree.obj
 0005:00000138       $unwind$X509_check_purpose 00000000000ec178     OpensslLib:v3_purp.obj
 0005:00000138       $unwind$X509V3_add_value_int 00000000000ec178     OpensslLib:v3_utl.obj
 0005:00000138       $unwind$WPACKET_sub_allocate_bytes__ 00000000000ec178     OpensslLib:packet.obj
 0005:00000138       $unwind$WPACKET_sub_memcpy__ 00000000000ec178     OpensslLib:packet.obj
 0005:00000138       $unwind$ssl3_release_write_buffer 00000000000ec178     OpensslLib:ssl3_buffer.obj
 0005:00000138       $unwind$SSL3_RECORD_clear  00000000000ec178     OpensslLib:ssl3_record.obj
 0005:00000138       $unwind$ssl3_set_req_cert_type 00000000000ec178     OpensslLib:s3_lib.obj
 0005:00000138       $unwind$ssl3_send_alert    00000000000ec178     OpensslLib:s3_msg.obj
 0005:00000138       $unwind$ssl_cert_set1_chain 00000000000ec178     OpensslLib:ssl_cert.obj
 0005:00000138       $unwind$update_cipher_list_by_id 00000000000ec178     OpensslLib:ssl_ciph.obj
 0005:00000138       $unwind$cmd_PrivateKey     00000000000ec178     OpensslLib:ssl_conf.obj
 0005:00000138       $unwind$cmd_RecordPadding  00000000000ec178     OpensslLib:ssl_conf.obj
 0005:00000138       $unwind$SSL_CTX_add_session 00000000000ec178     OpensslLib:ssl_sess.obj
 0005:00000138       $unwind$custom_exts_free   00000000000ec178     OpensslLib:extensions_cust.obj
 0005:00000138       $unwind$check_for_downgrade 00000000000ec178     OpensslLib:statem_lib.obj
 0005:00000138       $unwind$is_tls13_capable   00000000000ec178     OpensslLib:statem_lib.obj
 0005:00000138       $unwind$get_sigorhash      00000000000ec178     OpensslLib:t1_lib.obj
 0005:00000138       $unwind$tls1_check_sig_alg 00000000000ec178     OpensslLib:t1_lib.obj
 0005:00000138       $unwind$rand_pool_acquire_entropy 00000000000ec178     OpensslLib:rand_pool.obj
 0005:00000138       $unwind$DivU64x32Remainder 00000000000ec178     BaseLib:DivU64x32Remainder.obj
 0005:00000138       $unwind$AsciiStrnCmp       00000000000ec178     BaseLib:String.obj
 0005:00000138       $unwind$ScanMem8           00000000000ec178     BaseMemoryLibRepStr:ScanMem8Wrapper.obj
 0005:00000138       $unwind$SetMem             00000000000ec178     BaseMemoryLibRepStr:SetMemWrapper.obj
 0005:00000138       $unwind$PciCf8Read32       00000000000ec178     BasePciCf8Lib:PciCf8Lib.obj
 0005:00000138       $unwind$GetHobList         00000000000ec178     DxeHobLib:HobLib.obj
 0005:00000138       $unwind$InternalAcpiDelay  00000000000ec178     DxeAcpiTimerLib:AcpiTimerLib.obj
 0005:00000148       $unwind$BN_nist_mod_192    00000000000ec188     OpensslLib:bn_nist.obj
 0005:00000148       $unwind$generate_key       00000000000ec188     OpensslLib:dh_key.obj
 0005:00000148       $unwind$aes_ccm_cipher     00000000000ec188     OpensslLib:e_aes.obj
 0005:00000148       $unwind$aes_ccm_tls_cipher 00000000000ec188     OpensslLib:e_aes.obj
 0005:00000148       $unwind$aria_ccm_cipher    00000000000ec188     OpensslLib:e_aria.obj
 0005:00000148       $unwind$aria_ccm_tls_cipher 00000000000ec188     OpensslLib:e_aria.obj
 0005:00000148       $unwind$drbg_ctr_instantiate 00000000000ec188     OpensslLib:drbg_ctr.obj
 0005:00000148       $unwind$RAND_DRBG_bytes    00000000000ec188     OpensslLib:drbg_lib.obj
 0005:00000148       $unwind$ssl_cipher_get_evp 00000000000ec188     OpensslLib:ssl_ciph.obj
 0005:00000148       $unwind$TlsNew             00000000000ec188     TlsLib:TlsInit.obj
 0005:00000164       $unwind$TlsSetCipherList   00000000000ec1a4     TlsLib:TlsConfig.obj
 0005:0000017c       $unwind$BIO_ctrl           00000000000ec1bc     OpensslLib:bio_lib.obj
 0005:0000017c       $unwind$bio_read_intern    00000000000ec1bc     OpensslLib:bio_lib.obj
 0005:0000017c       $unwind$bio_write_intern   00000000000ec1bc     OpensslLib:bio_lib.obj
 0005:0000017c       $unwind$ossl_ecdsa_verify  00000000000ec1bc     OpensslLib:ecdsa_ossl.obj
 0005:0000017c       $unwind$rand_drbg_get_nonce 00000000000ec1bc     OpensslLib:rand_lib.obj
 0005:0000017c       $unwind$a2i_IPADDRESS_NC   00000000000ec1bc     OpensslLib:v3_utl.obj
 0005:0000017c       $unwind$TlsSetVerifyHost   00000000000ec1bc     TlsLib:TlsConfig.obj
 0005:00000190       $unwind$TlsSetCaCertificate 00000000000ec1d0     TlsLib:TlsConfig.obj
 0005:000001a4       $unwind$TlsSetHostPublicCert 00000000000ec1e4     TlsLib:TlsConfig.obj
 0005:000001b4       $unwind$TlsGetHostPublicCert 00000000000ec1f4     TlsLib:TlsConfig.obj
 0005:000001c0       $unwind$TlsDoHandshake     00000000000ec200     TlsLib:TlsProcess.obj
 0005:000001d8       $unwind$ssl_set_sig_mask   00000000000ec218     OpensslLib:t1_lib.obj
 0005:000001d8       $unwind$TlsHandleAlert     00000000000ec218     TlsLib:TlsProcess.obj
 0005:000001f0       $unwind$pkey_rsa_decrypt   00000000000ec230     OpensslLib:rsa_pmeth.obj
 0005:000001f0       $unwind$TlsCloseNotify     00000000000ec230     TlsLib:TlsProcess.obj
 0005:00000204       $unwind$strcpy             00000000000ec244     BaseCryptLib:CrtWrapper.obj
 0005:00000204       $unwind$BIO_free           00000000000ec244     OpensslLib:bio_lib.obj
 0005:00000204       $unwind$pkey_ecd_digestsign448 00000000000ec244     OpensslLib:ecx_meth.obj
 0005:00000204       $unwind$aes_ctr_cipher     00000000000ec244     OpensslLib:e_aes.obj
 0005:00000204       $unwind$ssl3_shutdown      00000000000ec244     OpensslLib:s3_lib.obj
 0005:00000204       $unwind$tls_parse_stoc_psk 00000000000ec244     OpensslLib:extensions_clnt.obj
 0005:00000204       $unwind$tls_parse_stoc_use_srtp 00000000000ec244     OpensslLib:extensions_clnt.obj
 0005:00000204       $unwind$tls_parse_ctos_ec_pt_formats 00000000000ec244     OpensslLib:extensions_srvr.obj
 0005:00000204       $unwind$tls_parse_ctos_sig_algs 00000000000ec244     OpensslLib:extensions_srvr.obj
 0005:00000204       $unwind$tls_parse_ctos_sig_algs_cert 00000000000ec244     OpensslLib:extensions_srvr.obj
 0005:00000204       $unwind$AsciiStrCatS       00000000000ec244     BaseLib:SafeString.obj
 0005:00000204       $unwind$AsciiStrDecimalToUintnS 00000000000ec244     BaseLib:SafeString.obj
 0005:00000204       $unwind$AsciiStrnCpyS      00000000000ec244     BaseLib:SafeString.obj
 0005:0000020c       $unwind$nc_match           00000000000ec24c     OpensslLib:v3_ncons.obj
 0005:0000020c       $unwind$tls12_shared_sigalgs 00000000000ec24c     OpensslLib:t1_lib.obj
 0005:0000020c       $unwind$CompareGuid        00000000000ec24c     BaseMemoryLibRepStr:MemLibGuid.obj
 0005:00000224       $unwind$AsciiSPrint        00000000000ec264     BasePrintLib:PrintLib.obj
 0005:0000022c       $unwind$rsa_pss_decode     00000000000ec26c     OpensslLib:rsa_ameth.obj
 0005:0000022c       $unwind$ssl_session_hash   00000000000ec26c     OpensslLib:ssl_lib.obj
 0005:0000022c       $unwind$BasePrintLibValueToString 00000000000ec26c     BasePrintLib:PrintLibInternal.obj
 0005:00000238       $unwind$BasePrintLibSPrintMarker 00000000000ec278     BasePrintLib:PrintLibInternal.obj
 0005:00000254       $unwind$BasePrintLibSPrint 00000000000ec294     BasePrintLib:PrintLibInternal.obj
 0005:0000025c       $unwind$free               00000000000ec29c     BaseCryptLib:BaseMemAllocation.obj
 0005:0000025c       $unwind$ASN1_OBJECT_free   00000000000ec29c     OpensslLib:a_object.obj
 0005:0000025c       $unwind$ASN1_STRING_clear_free 00000000000ec29c     OpensslLib:asn1_lib.obj
 0005:0000025c       $unwind$asn1_ex_i2c        00000000000ec29c     OpensslLib:tasn_enc.obj
 0005:0000025c       $unwind$BN_BLINDING_free   00000000000ec29c     OpensslLib:bn_blind.obj
 0005:0000025c       $unwind$BN_clear_free      00000000000ec29c     OpensslLib:bn_lib.obj
 0005:0000025c       $unwind$BN_MONT_CTX_free   00000000000ec29c     OpensslLib:bn_mont.obj
 0005:0000025c       $unwind$EC_GROUP_free      00000000000ec29c     OpensslLib:ec_lib.obj
 0005:0000025c       $unwind$EC_POINT_clear_free 00000000000ec29c     OpensslLib:ec_lib.obj
 0005:0000025c       $unwind$EC_POINT_free      00000000000ec29c     OpensslLib:ec_lib.obj
 0005:0000025c       $unwind$EVP_PKEY_free      00000000000ec29c     OpensslLib:p_lib.obj
 0005:0000025c       $unwind$EVP_PKEY_CTX_free  00000000000ec29c     OpensslLib:pmeth_lib.obj
 0005:0000025c       $unwind$RAND_DRBG_free     00000000000ec29c     OpensslLib:drbg_lib.obj
 0005:0000025c       $unwind$rand_drbg_cleanup_nonce 00000000000ec29c     OpensslLib:rand_lib.obj
 0005:0000025c       $unwind$OPENSSL_sk_sort    00000000000ec29c     OpensslLib:stack.obj
 0005:0000025c       $unwind$X509_VERIFY_PARAM_free 00000000000ec29c     OpensslLib:x509_vpm.obj
 0005:0000025c       $unwind$local_sk_X509_NAME_ENTRY_free 00000000000ec29c     OpensslLib:x_name.obj
 0005:0000025c       $unwind$policy_data_free   00000000000ec29c     OpensslLib:pcy_data.obj
 0005:0000025c       $unwind$i2v_BASIC_CONSTRAINTS 00000000000ec29c     OpensslLib:v3_bcons.obj
 0005:0000025c       $unwind$i2v_POLICY_CONSTRAINTS 00000000000ec29c     OpensslLib:v3_pcons.obj
 0005:0000025c       $unwind$X509V3_conf_free   00000000000ec29c     OpensslLib:v3_utl.obj
 0005:0000025c       $unwind$tlsa_free          00000000000ec29c     OpensslLib:ssl_lib.obj
 0005:00000264       $unwind$UTF8_getc          00000000000ec2a4     OpensslLib:a_utf8.obj
 0005:00000264       $unwind$bn_add_words       00000000000ec2a4     OpensslLib:bn_asm.obj
 0005:00000264       $unwind$MOD_EXP_CTIME_COPY_TO_PREBUF 00000000000ec2a4     OpensslLib:bn_exp.obj
 0005:00000264       $unwind$cmov               00000000000ec2a4     OpensslLib:curve25519.obj
 0005:00000264       $unwind$OPENSSL_LH_strhash 00000000000ec2a4     OpensslLib:lhash.obj
 0005:00000264       $unwind$openssl_lh_strcasehash 00000000000ec2a4     OpensslLib:lhash.obj
 0005:00000264       $unwind$sanitize_line      00000000000ec2a4     OpensslLib:pem_lib.obj
 0005:00000264       $unwind$ctr_XOR            00000000000ec2a4     OpensslLib:drbg_ctr.obj
 0005:00000264       $unwind$ssl_check_allowed_versions 00000000000ec2a4     OpensslLib:ssl_lib.obj
 0005:0000026c       $unwind$SSL_clear          00000000000ec2ac     OpensslLib:ssl_lib.obj
 0005:0000026c       $unwind$ossl_statem_client_read_transition 00000000000ec2ac     OpensslLib:statem_clnt.obj
 0005:0000026c       $unwind$tls_process_change_cipher_spec 00000000000ec2ac     OpensslLib:statem_lib.obj
 0005:0000027c       $unwind$ASYNC_start_job    00000000000ec2bc     OpensslLib:async.obj
 0005:0000027c       $unwind$CRYPTO_128_wrap_pad 00000000000ec2bc     OpensslLib:wrap128.obj
 0005:0000027c       $unwind$RAND_DRBG_generate 00000000000ec2bc     OpensslLib:drbg_lib.obj
 0005:0000027c       $unwind$X509_load_cert_file 00000000000ec2bc     OpensslLib:by_file.obj
 0005:0000027c       $unwind$X509_NAME_add_entry 00000000000ec2bc     OpensslLib:x509name.obj
 0005:0000027c       $unwind$SSL_new            00000000000ec2bc     OpensslLib:ssl_lib.obj
 0005:00000298       $unwind$SSL_has_matching_session_id 00000000000ec2d8     OpensslLib:ssl_lib.obj
 0005:000002a4       $unwind$SHA3_squeeze       00000000000ec2e4     OpensslLib:keccak1600.obj
 0005:000002a4       $unwind$SSL_free           00000000000ec2e4     OpensslLib:ssl_lib.obj
 0005:000002b8       $unwind$dh_pkey_param_check 00000000000ec2f8     OpensslLib:dh_ameth.obj
 0005:000002b8       $unwind$pkey_sm2_sign      00000000000ec2f8     OpensslLib:sm2_pmeth.obj
 0005:000002b8       $unwind$DIST_POINT_set_dpname 00000000000ec2f8     OpensslLib:v3_crld.obj
 0005:000002b8       $unwind$ssl_start_async_job 00000000000ec2f8     OpensslLib:ssl_lib.obj
 0005:000002b8       $unwind$ssl_generate_session_id 00000000000ec2f8     OpensslLib:ssl_sess.obj
 0005:000002b8       $unwind$dtls_construct_hello_verify_request 00000000000ec2f8     OpensslLib:statem_srvr.obj
 0005:000002b8       $unwind$tls_construct_certificate_request 00000000000ec2f8     OpensslLib:statem_srvr.obj
 0005:000002cc       $unwind$add_pniels_to_pt   00000000000ec30c     OpensslLib:curve448.obj
 0005:000002cc       $unwind$pniels_to_pt       00000000000ec30c     OpensslLib:curve448.obj
 0005:000002cc       $unwind$gf_serialize       00000000000ec30c     OpensslLib:f_generic.obj
 0005:000002cc       $unwind$ssl_read_internal  00000000000ec30c     OpensslLib:ssl_lib.obj
 0005:000002cc       $unwind$ssl_write_internal 00000000000ec30c     OpensslLib:ssl_lib.obj
 0005:000002e0       $unwind$SSL_CTX_ctrl       00000000000ec320     OpensslLib:ssl_lib.obj
 0005:000002f4       $unwind$asn1_get_uint64    00000000000ec334     OpensslLib:a_int.obj
 0005:000002f4       $unwind$bitstr_cb          00000000000ec334     OpensslLib:asn1_gen.obj
 0005:000002f4       $unwind$parse_tagging      00000000000ec334     OpensslLib:asn1_gen.obj
 0005:000002f4       $unwind$BN_CTX_new         00000000000ec334     OpensslLib:bn_ctx.obj
 0005:000002f4       $unwind$BN_mod_exp         00000000000ec334     OpensslLib:bn_exp.obj
 0005:000002f4       $unwind$BN_new             00000000000ec334     OpensslLib:bn_lib.obj
 0005:000002f4       $unwind$BN_MONT_CTX_new    00000000000ec334     OpensslLib:bn_mont.obj
 0005:000002f4       $unwind$BUF_MEM_new        00000000000ec334     OpensslLib:buffer.obj
 0005:000002f4       $unwind$DH_new_by_nid      00000000000ec334     OpensslLib:dh_rfc7919.obj
 0005:000002f4       $unwind$ec_pkey_check      00000000000ec334     OpensslLib:ec_ameth.obj
 0005:000002f4       $unwind$ec_pkey_param_check 00000000000ec334     OpensslLib:ec_ameth.obj
 0005:000002f4       $unwind$EC_GROUP_new_from_ecpkparameters 00000000000ec334     OpensslLib:ec_asn1.obj
 0005:000002f4       $unwind$EC_KEY_check_key   00000000000ec334     OpensslLib:ec_key.obj
 0005:000002f4       $unwind$ec_key_simple_generate_public_key 00000000000ec334     OpensslLib:ec_key.obj
 0005:000002f4       $unwind$EC_POINT_add       00000000000ec334     OpensslLib:ec_lib.obj
 0005:000002f4       $unwind$EC_POINT_cmp       00000000000ec334     OpensslLib:ec_lib.obj
 0005:000002f4       $unwind$EC_POINT_copy      00000000000ec334     OpensslLib:ec_lib.obj
 0005:000002f4       $unwind$EC_POINT_dbl       00000000000ec334     OpensslLib:ec_lib.obj
 0005:000002f4       $unwind$EC_POINT_invert    00000000000ec334     OpensslLib:ec_lib.obj
 0005:000002f4       $unwind$EC_POINT_is_at_infinity 00000000000ec334     OpensslLib:ec_lib.obj
 0005:000002f4       $unwind$EC_POINT_is_on_curve 00000000000ec334     OpensslLib:ec_lib.obj
 0005:000002f4       $unwind$EC_POINT_set_to_infinity 00000000000ec334     OpensslLib:ec_lib.obj
 0005:000002f4       $unwind$EC_POINT_oct2point 00000000000ec334     OpensslLib:ec_oct.obj
 0005:000002f4       $unwind$EC_POINT_point2oct 00000000000ec334     OpensslLib:ec_oct.obj
 0005:000002f4       $unwind$EC_POINT_set_compressed_coordinates 00000000000ec334     OpensslLib:ec_oct.obj
 0005:000002f4       $unwind$ossl_ecdh_compute_key 00000000000ec334     OpensslLib:ecdh_ossl.obj
 0005:000002f4       $unwind$ossl_ecdsa_sign_setup 00000000000ec334     OpensslLib:ecdsa_ossl.obj
 0005:000002f4       $unwind$ecx_priv_print     00000000000ec334     OpensslLib:ecx_meth.obj
 0005:000002f4       $unwind$ecx_pub_decode     00000000000ec334     OpensslLib:ecx_meth.obj
 0005:000002f4       $unwind$ecx_pub_print      00000000000ec334     OpensslLib:ecx_meth.obj
 0005:000002f4       $unwind$ecx_set_priv_key   00000000000ec334     OpensslLib:ecx_meth.obj
 0005:000002f4       $unwind$ecx_set_pub_key    00000000000ec334     OpensslLib:ecx_meth.obj
 0005:000002f4       $unwind$pkey_ecd_ctrl      00000000000ec334     OpensslLib:ecx_meth.obj
 0005:000002f4       $unwind$pkey_ecx_keygen    00000000000ec334     OpensslLib:ecx_meth.obj
 0005:000002f4       $unwind$validate_ecx_derive 00000000000ec334     OpensslLib:ecx_meth.obj
 0005:000002f4       $unwind$ERR_peek_last_error 00000000000ec334     OpensslLib:err.obj
 0005:000002f4       $unwind$aria_init_key      00000000000ec334     OpensslLib:e_aria.obj
 0005:000002f4       $unwind$EVP_CIPHER_CTX_ctrl 00000000000ec334     OpensslLib:evp_enc.obj
 0005:000002f4       $unwind$EVP_CIPHER_CTX_set_key_length 00000000000ec334     OpensslLib:evp_enc.obj
 0005:000002f4       $unwind$update             00000000000ec334     OpensslLib:m_sigver.obj
 0005:000002f4       $unwind$EVP_PKEY_get0_DH   00000000000ec334     OpensslLib:p_lib.obj
 0005:000002f4       $unwind$EVP_PKEY_get0_RSA  00000000000ec334     OpensslLib:p_lib.obj
 0005:000002f4       $unwind$EVP_PKEY_verify    00000000000ec334     OpensslLib:pmeth_fn.obj
 0005:000002f4       $unwind$pkey_hmac_ctrl     00000000000ec334     OpensslLib:hm_pmeth.obj
 0005:000002f4       $unwind$rand_pool_add_end  00000000000ec334     OpensslLib:rand_lib.obj
 0005:000002f4       $unwind$RSA_pkey_ctx_ctrl  00000000000ec334     OpensslLib:rsa_lib.obj
 0005:000002f4       $unwind$check_padding_md   00000000000ec334     OpensslLib:rsa_pmeth.obj
 0005:000002f4       $unwind$siphash_signctx_init 00000000000ec334     OpensslLib:siphash_pmeth.obj
 0005:000002f4       $unwind$X509_LOOKUP_ctrl   00000000000ec334     OpensslLib:x509_lu.obj
 0005:000002f4       $unwind$X509_OBJECT_new    00000000000ec334     OpensslLib:x509_lu.obj
 0005:000002f4       $unwind$X509_VERIFY_PARAM_new 00000000000ec334     OpensslLib:x509_vpm.obj
 0005:000002f4       $unwind$def_crl_verify     00000000000ec334     OpensslLib:x_crl.obj
 0005:000002f4       $unwind$GENERAL_NAME_print 00000000000ec334     OpensslLib:v3_alt.obj
 0005:000002f4       $unwind$X509V3_get_section 00000000000ec334     OpensslLib:v3_conf.obj
 0005:000002f4       $unwind$ssl3_peek          00000000000ec334     OpensslLib:s3_lib.obj
 0005:000002f4       $unwind$ssl3_read          00000000000ec334     OpensslLib:s3_lib.obj
 0005:000002f4       $unwind$cmd_Options        00000000000ec334     OpensslLib:ssl_conf.obj
 0005:000002f4       $unwind$cmd_Protocol       00000000000ec334     OpensslLib:ssl_conf.obj
 0005:000002f4       $unwind$cmd_VerifyMode     00000000000ec334     OpensslLib:ssl_conf.obj
 0005:000002f4       $unwind$SSL_set_cipher_list 00000000000ec334     OpensslLib:ssl_lib.obj
 0005:000002f4       $unwind$ssl_undefined_function 00000000000ec334     OpensslLib:ssl_lib.obj
 0005:000002f4       $unwind$ssl_undefined_void_function 00000000000ec334     OpensslLib:ssl_lib.obj
 0005:000002f4       $unwind$serverinfoex_srv_add_cb 00000000000ec334     OpensslLib:ssl_rsa.obj
 0005:000002f4       $unwind$final_ec_pt_formats 00000000000ec334     OpensslLib:extensions.obj
 0005:000002f4       $unwind$final_ems          00000000000ec334     OpensslLib:extensions.obj
 0005:000002f4       $unwind$final_maxfragmentlen 00000000000ec334     OpensslLib:extensions.obj
 0005:000002f4       $unwind$final_psk          00000000000ec334     OpensslLib:extensions.obj
 0005:000002f4       $unwind$final_renegotiate  00000000000ec334     OpensslLib:extensions.obj
 0005:000002f4       $unwind$final_sig_algs     00000000000ec334     OpensslLib:extensions.obj
 0005:000002f4       $unwind$tls_parse_stoc_early_data 00000000000ec334     OpensslLib:extensions_clnt.obj
 0005:000002f4       $unwind$tls_parse_stoc_maxfragmentlen 00000000000ec334     OpensslLib:extensions_clnt.obj
 0005:000002f4       $unwind$tls_parse_stoc_status_request 00000000000ec334     OpensslLib:extensions_clnt.obj
 0005:000002f4       $unwind$custom_ext_add_old_cb_wrap 00000000000ec334     OpensslLib:extensions_cust.obj
 0005:000002f4       $unwind$custom_ext_parse_old_cb_wrap 00000000000ec334     OpensslLib:extensions_cust.obj
 0005:000002f4       $unwind$tls_parse_ctos_early_data 00000000000ec334     OpensslLib:extensions_srvr.obj
 0005:000002f4       $unwind$tls_parse_ctos_ems 00000000000ec334     OpensslLib:extensions_srvr.obj
 0005:000002f4       $unwind$tls_parse_ctos_maxfragmentlen 00000000000ec334     OpensslLib:extensions_srvr.obj
 0005:000002f4       $unwind$tls_parse_ctos_post_handshake_auth 00000000000ec334     OpensslLib:extensions_srvr.obj
 0005:000002f4       $unwind$ossl_statem_client13_write_transition 00000000000ec334     OpensslLib:statem_clnt.obj
 0005:000002f4       $unwind$ossl_statem_client_construct_message 00000000000ec334     OpensslLib:statem_clnt.obj
 0005:000002f4       $unwind$ossl_statem_client_post_process_message 00000000000ec334     OpensslLib:statem_clnt.obj
 0005:000002f4       $unwind$tls_construct_end_of_early_data 00000000000ec334     OpensslLib:statem_clnt.obj
 0005:000002f4       $unwind$ssl_allow_compression 00000000000ec334     OpensslLib:statem_lib.obj
 0005:000002f4       $unwind$PACKET_get_length_prefixed_2 00000000000ec334     OpensslLib:statem_srvr.obj
 0005:000002f4       $unwind$ossl_statem_server13_write_transition 00000000000ec334     OpensslLib:statem_srvr.obj
 0005:000002f4       $unwind$ossl_statem_server_construct_message 00000000000ec334     OpensslLib:statem_srvr.obj
 0005:000002f4       $unwind$ossl_statem_server_write_transition 00000000000ec334     OpensslLib:statem_srvr.obj
 0005:000002f4       $unwind$tls_curve_allowed  00000000000ec334     OpensslLib:t1_lib.obj
 0005:000002f4       $unwind$tls_use_ticket     00000000000ec334     OpensslLib:t1_lib.obj
 0005:000002fc       $unwind$qsort              00000000000ec33c     BaseCryptLib:CrtWrapper.obj
 0005:000002fc       $unwind$ASN1_STRING_set    00000000000ec33c     OpensslLib:asn1_lib.obj
 0005:000002fc       $unwind$ASN1_item_pack     00000000000ec33c     OpensslLib:asn_pack.obj
 0005:000002fc       $unwind$bn_secure_c2i      00000000000ec33c     OpensslLib:x_bignum.obj
 0005:000002fc       $unwind$mem_write          00000000000ec33c     OpensslLib:bss_mem.obj
 0005:000002fc       $unwind$witness            00000000000ec33c     OpensslLib:bn_prime.obj
 0005:000002fc       $unwind$CONF_parse_list    00000000000ec33c     OpensslLib:conf_mod.obj
 0005:000002fc       $unwind$ec_asn1_group2fieldid 00000000000ec33c     OpensslLib:ec_asn1.obj
 0005:000002fc       $unwind$EC_GROUP_new_curve_GFp 00000000000ec33c     OpensslLib:ec_cvt.obj
 0005:000002fc       $unwind$ec_key_simple_check_key 00000000000ec33c     OpensslLib:ec_key.obj
 0005:000002fc       $unwind$EC_GROUP_set_generator 00000000000ec33c     OpensslLib:ec_lib.obj
 0005:000002fc       $unwind$pkey_ec_keygen     00000000000ec33c     OpensslLib:ec_pmeth.obj
 0005:000002fc       $unwind$ecx_key_print      00000000000ec33c     OpensslLib:ecx_meth.obj
 0005:000002fc       $unwind$EVP_CipherInit_ex  00000000000ec33c     OpensslLib:evp_enc.obj
 0005:000002fc       $unwind$RSA_padding_add_PKCS1_type_2 00000000000ec33c     OpensslLib:rsa_pk1.obj
 0005:000002fc       $unwind$RSA_padding_add_SSLv23 00000000000ec33c     OpensslLib:rsa_ssl.obj
 0005:000002fc       $unwind$ec_field_size      00000000000ec33c     OpensslLib:sm2_crypt.obj
 0005:000002fc       $unwind$UI_process         00000000000ec33c     OpensslLib:ui_lib.obj
 0005:000002fc       $unwind$check_id           00000000000ec33c     OpensslLib:x509_vfy.obj
 0005:000002fc       $unwind$level_add_node     00000000000ec33c     OpensslLib:pcy_node.obj
 0005:000002fc       $unwind$copy_issuer        00000000000ec33c     OpensslLib:v3_alt.obj
 0005:000002fc       $unwind$v2i_GENERAL_NAME_ex 00000000000ec33c     OpensslLib:v3_alt.obj
 0005:000002fc       $unwind$NAME_CONSTRAINTS_check 00000000000ec33c     OpensslLib:v3_ncons.obj
 0005:000002fc       $unwind$do_i2r_name_constraints 00000000000ec33c     OpensslLib:v3_ncons.obj
 0005:000002fc       $unwind$ssl_cert_dup       00000000000ec33c     OpensslLib:ssl_cert.obj
 0005:000002fc       $unwind$ssl_verify_cert_chain 00000000000ec33c     OpensslLib:ssl_cert.obj
 0005:000002fc       $unwind$SSL_CTX_new        00000000000ec33c     OpensslLib:ssl_lib.obj
 0005:000002fc       $unwind$dtls1_hm_fragment_new 00000000000ec33c     OpensslLib:statem_dtls.obj
 0005:00000314       $unwind$CMAC_CTX_free      00000000000ec354     OpensslLib:cmac.obj
 0005:00000314       $unwind$EC_GROUP_clear_free 00000000000ec354     OpensslLib:ec_lib.obj
 0005:00000314       $unwind$ssl3_free          00000000000ec354     OpensslLib:s3_lib.obj
 0005:00000314       $unwind$SSL_CTX_free       00000000000ec354     OpensslLib:ssl_lib.obj
 0005:00000320       $unwind$ssl_set_masks      00000000000ec360     OpensslLib:ssl_lib.obj
 0005:0000033c       $unwind$asn1_string_to_bn  00000000000ec37c     OpensslLib:a_int.obj
 0005:0000033c       $unwind$ASN1_TYPE_unpack_sequence 00000000000ec37c     OpensslLib:a_type.obj
 0005:0000033c       $unwind$ASN1_generate_v3   00000000000ec37c     OpensslLib:asn1_gen.obj
 0005:0000033c       $unwind$append_exp         00000000000ec37c     OpensslLib:asn1_gen.obj
 0005:0000033c       $unwind$ASN1_STRING_type_new 00000000000ec37c     OpensslLib:asn1_lib.obj
 0005:0000033c       $unwind$uint32_new         00000000000ec37c     OpensslLib:x_int64.obj
 0005:0000033c       $unwind$uint64_new         00000000000ec37c     OpensslLib:x_int64.obj
 0005:0000033c       $unwind$BN_CTX_get         00000000000ec37c     OpensslLib:bn_ctx.obj
 0005:0000033c       $unwind$BN_CTX_start       00000000000ec37c     OpensslLib:bn_ctx.obj
 0005:0000033c       $unwind$BN_lshift          00000000000ec37c     OpensslLib:bn_shift.obj
 0005:0000033c       $unwind$BN_rshift          00000000000ec37c     OpensslLib:bn_shift.obj
 0005:0000033c       $unwind$pkey_cmac_ctrl     00000000000ec37c     OpensslLib:cm_pmeth.obj
 0005:0000033c       $unwind$CMAC_CTX_new       00000000000ec37c     OpensslLib:cmac.obj
 0005:0000033c       $unwind$dh_param_decode    00000000000ec37c     OpensslLib:dh_ameth.obj
 0005:0000033c       $unwind$dh_pkey_public_check 00000000000ec37c     OpensslLib:dh_ameth.obj
 0005:0000033c       $unwind$dh_bn_mod_exp      00000000000ec37c     OpensslLib:dh_key.obj
 0005:0000033c       $unwind$pkey_dh_init       00000000000ec37c     OpensslLib:dh_pmeth.obj
 0005:0000033c       $unwind$curve448_scalar_add 00000000000ec37c     OpensslLib:scalar.obj
 0005:0000033c       $unwind$eckey_param_decode 00000000000ec37c     OpensslLib:ec_ameth.obj
 0005:0000033c       $unwind$eckey_param_encode 00000000000ec37c     OpensslLib:ec_ameth.obj
 0005:0000033c       $unwind$old_ec_priv_decode 00000000000ec37c     OpensslLib:ec_ameth.obj
 0005:0000033c       $unwind$ECDSA_SIG_new      00000000000ec37c     OpensslLib:ec_asn1.obj
 0005:0000033c       $unwind$pkey_ec_init       00000000000ec37c     OpensslLib:ec_pmeth.obj
 0005:0000033c       $unwind$pkey_ec_verify     00000000000ec37c     OpensslLib:ec_pmeth.obj
 0005:0000033c       $unwind$ec_GFp_mont_field_decode 00000000000ec37c     OpensslLib:ecp_mont.obj
 0005:0000033c       $unwind$ec_GFp_mont_field_encode 00000000000ec37c     OpensslLib:ecp_mont.obj
 0005:0000033c       $unwind$ec_GFp_mont_field_mul 00000000000ec37c     OpensslLib:ecp_mont.obj
 0005:0000033c       $unwind$ec_GFp_mont_field_set_to_one 00000000000ec37c     OpensslLib:ecp_mont.obj
 0005:0000033c       $unwind$ec_GFp_mont_field_sqr 00000000000ec37c     OpensslLib:ecp_mont.obj
 0005:0000033c       $unwind$ec_GFp_simple_point_set_affine_coordinates 00000000000ec37c     OpensslLib:ecp_smpl.obj
 0005:0000033c       $unwind$pkey_ecd_digestsign25519 00000000000ec37c     OpensslLib:ecx_meth.obj
 0005:0000033c       $unwind$aes_cbc_cipher     00000000000ec37c     OpensslLib:e_aes.obj
 0005:0000033c       $unwind$EVP_PKEY_get0_EC_KEY 00000000000ec37c     OpensslLib:p_lib.obj
 0005:0000033c       $unwind$EVP_PKEY_new       00000000000ec37c     OpensslLib:p_lib.obj
 0005:0000033c       $unwind$EVP_PKEY_derive_init 00000000000ec37c     OpensslLib:pmeth_fn.obj
 0005:0000033c       $unwind$EVP_PKEY_encrypt_init 00000000000ec37c     OpensslLib:pmeth_fn.obj
 0005:0000033c       $unwind$EVP_PKEY_sign_init 00000000000ec37c     OpensslLib:pmeth_fn.obj
 0005:0000033c       $unwind$EVP_PKEY_verify_init 00000000000ec37c     OpensslLib:pmeth_fn.obj
 0005:0000033c       $unwind$EVP_PKEY_keygen_init 00000000000ec37c     OpensslLib:pmeth_gn.obj
 0005:0000033c       $unwind$EVP_PKEY_CTX_ctrl  00000000000ec37c     OpensslLib:pmeth_lib.obj
 0005:0000033c       $unwind$hmac_signctx       00000000000ec37c     OpensslLib:hm_pmeth.obj
 0005:0000033c       $unwind$pkey_hkdf_init     00000000000ec37c     OpensslLib:hkdf.obj
 0005:0000033c       $unwind$pkey_tls1_prf_init 00000000000ec37c     OpensslLib:tls1_prf.obj
 0005:0000033c       $unwind$ctr_BCC_block      00000000000ec37c     OpensslLib:drbg_ctr.obj
 0005:0000033c       $unwind$rand_pool_add_begin 00000000000ec37c     OpensslLib:rand_lib.obj
 0005:0000033c       $unwind$old_rsa_priv_decode 00000000000ec37c     OpensslLib:rsa_ameth.obj
 0005:0000033c       $unwind$rsa_multip_info_new 00000000000ec37c     OpensslLib:rsa_mp.obj
 0005:0000033c       $unwind$RSA_padding_check_PKCS1_type_1 00000000000ec37c     OpensslLib:rsa_pk1.obj
 0005:0000033c       $unwind$setup_tbuf         00000000000ec37c     OpensslLib:rsa_pmeth.obj
 0005:0000033c       $unwind$pkey_siphash_init  00000000000ec37c     OpensslLib:siphash_pmeth.obj
 0005:0000033c       $unwind$pkey_sm2_decrypt   00000000000ec37c     OpensslLib:sm2_pmeth.obj
 0005:0000033c       $unwind$pkey_sm2_init      00000000000ec37c     OpensslLib:sm2_pmeth.obj
 0005:0000033c       $unwind$dir_ctrl           00000000000ec37c     OpensslLib:by_dir.obj
 0005:0000033c       $unwind$by_file_ctrl       00000000000ec37c     OpensslLib:by_file.obj
 0005:0000033c       $unwind$X509_check_private_key 00000000000ec37c     OpensslLib:x509_cmp.obj
 0005:0000033c       $unwind$x509_name_ex_print 00000000000ec37c     OpensslLib:x_name.obj
 0005:0000033c       $unwind$X509_PUBKEY_get0   00000000000ec37c     OpensslLib:x_pubkey.obj
 0005:0000033c       $unwind$wpacket_intern_init_len 00000000000ec37c     OpensslLib:packet.obj
 0005:0000033c       $unwind$early_data_count_ok 00000000000ec37c     OpensslLib:ssl3_record.obj
 0005:0000033c       $unwind$ssl_cert_new       00000000000ec37c     OpensslLib:ssl_cert.obj
 0005:0000033c       $unwind$ossl_init_ssl_base_ossl_ 00000000000ec37c     OpensslLib:ssl_init.obj
 0005:0000033c       $unwind$SSL_get_error      00000000000ec37c     OpensslLib:ssl_lib.obj
 0005:0000033c       $unwind$SSL_SESSION_new    00000000000ec37c     OpensslLib:ssl_sess.obj
 0005:0000033c       $unwind$final_early_data   00000000000ec37c     OpensslLib:extensions.obj
 0005:0000033c       $unwind$PACKET_as_length_prefixed_2 00000000000ec37c     OpensslLib:extensions_clnt.obj
 0005:0000033c       $unwind$tls_parse_stoc_server_name 00000000000ec37c     OpensslLib:extensions_clnt.obj
 0005:0000033c       $unwind$PACKET_as_length_prefixed_2 00000000000ec37c     OpensslLib:extensions_srvr.obj
 0005:0000033c       $unwind$PACKET_get_length_prefixed_2 00000000000ec37c     OpensslLib:extensions_srvr.obj
 0005:0000033c       $unwind$tls_parse_ctos_renegotiate 00000000000ec37c     OpensslLib:extensions_srvr.obj
 0005:0000033c       $unwind$tls_parse_ctos_session_ticket 00000000000ec37c     OpensslLib:extensions_srvr.obj
 0005:0000033c       $unwind$PACKET_as_length_prefixed_2 00000000000ec37c     OpensslLib:statem_clnt.obj
 0005:0000033c       $unwind$PACKET_get_length_prefixed_2 00000000000ec37c     OpensslLib:statem_clnt.obj
 0005:0000033c       $unwind$ssl3_check_client_certificate 00000000000ec37c     OpensslLib:statem_clnt.obj
 0005:0000033c       $unwind$tls_process_initial_server_flight 00000000000ec37c     OpensslLib:statem_clnt.obj
 0005:0000033c       $unwind$tls13_restore_handshake_digest_for_pha 00000000000ec37c     OpensslLib:statem_lib.obj
 0005:0000033c       $unwind$tls_construct_change_cipher_spec 00000000000ec37c     OpensslLib:statem_lib.obj
 0005:0000033c       $unwind$tls_construct_key_update 00000000000ec37c     OpensslLib:statem_lib.obj
 0005:0000033c       $unwind$tls_process_key_update 00000000000ec37c     OpensslLib:statem_lib.obj
 0005:0000033c       $unwind$ossl_statem_server_post_process_message 00000000000ec37c     OpensslLib:statem_srvr.obj
 0005:0000033c       $unwind$ossl_statem_server_post_work 00000000000ec37c     OpensslLib:statem_srvr.obj
 0005:0000033c       $unwind$ossl_statem_server_pre_work 00000000000ec37c     OpensslLib:statem_srvr.obj
 0005:0000033c       $unwind$ossl_statem_server_process_message 00000000000ec37c     OpensslLib:statem_srvr.obj
 0005:0000033c       $unwind$ossl_statem_server_read_transition 00000000000ec37c     OpensslLib:statem_srvr.obj
 0005:0000033c       $unwind$tls_construct_encrypted_extensions 00000000000ec37c     OpensslLib:statem_srvr.obj
 0005:0000033c       $unwind$tls_handle_status_request 00000000000ec37c     OpensslLib:statem_srvr.obj
 0005:0000033c       $unwind$tls_post_process_client_hello 00000000000ec37c     OpensslLib:statem_srvr.obj
 0005:0000033c       $unwind$tls13_generate_handshake_secret 00000000000ec37c     OpensslLib:tls13_enc.obj
 0005:00000344       $unwind$gf_cond_neg        00000000000ec384     OpensslLib:curve448.obj
 0005:00000344       $unwind$gf_sqrn            00000000000ec384     OpensslLib:f_generic.obj
 0005:00000344       $unwind$SSL_do_handshake   00000000000ec384     OpensslLib:ssl_lib.obj
 0005:00000350       $unwind$policy_cache_create 00000000000ec390     OpensslLib:pcy_cache.obj
 0005:00000350       $unwind$nss_keylog_int     00000000000ec390     OpensslLib:ssl_lib.obj
 0005:0000036c       $unwind$c2i_uint64_int     00000000000ec3ac     OpensslLib:a_int.obj
 0005:0000036c       $unwind$OBJ_NAME_get       00000000000ec3ac     OpensslLib:o_names.obj
 0005:0000036c       $unwind$equal_wildcard     00000000000ec3ac     OpensslLib:v3_utl.obj
 0005:0000036c       $unwind$ssl3_read_internal 00000000000ec3ac     OpensslLib:s3_lib.obj
 0005:0000036c       $unwind$ssl_cache_cipherlist 00000000000ec3ac     OpensslLib:ssl_lib.obj
 0005:0000036c       $unwind$ssl_security_cert_key 00000000000ec3ac     OpensslLib:t1_lib.obj
 0005:00000384       $unwind$asn1_multi         00000000000ec3c4     OpensslLib:asn1_gen.obj
 0005:00000384       $unwind$probable_prime     00000000000ec3c4     OpensslLib:bn_prime.obj
 0005:00000384       $unwind$BN_bn2dec          00000000000ec3c4     OpensslLib:bn_print.obj
 0005:00000384       $unwind$ec_GFp_simple_group_set_curve 00000000000ec3c4     OpensslLib:ecp_smpl.obj
 0005:00000384       $unwind$aria_128_cbc_cipher 00000000000ec3c4     OpensslLib:e_aria.obj
 0005:00000384       $unwind$aria_192_cbc_cipher 00000000000ec3c4     OpensslLib:e_aria.obj
 0005:00000384       $unwind$aria_256_cbc_cipher 00000000000ec3c4     OpensslLib:e_aria.obj
 0005:00000384       $unwind$sm4_cbc_cipher     00000000000ec3c4     OpensslLib:e_sm4.obj
 0005:00000384       $unwind$EVP_DecryptUpdate  00000000000ec3c4     OpensslLib:evp_enc.obj
 0005:00000384       $unwind$add_cert_dir       00000000000ec3c4     OpensslLib:by_dir.obj
 0005:00000384       $unwind$check_hosts        00000000000ec3c4     OpensslLib:x509_vfy.obj
 0005:00000384       $unwind$check_name_constraints 00000000000ec3c4     OpensslLib:x509_vfy.obj
 0005:00000384       $unwind$X509V3_NAME_from_section 00000000000ec3c4     OpensslLib:v3_utl.obj
 0005:00000384       $unwind$bytes_to_cipher_list 00000000000ec3c4     OpensslLib:ssl_lib.obj
 0005:00000384       $unwind$ssl_session_dup    00000000000ec3c4     OpensslLib:ssl_sess.obj
 0005:00000384       $unwind$tls1_PRF           00000000000ec3c4     OpensslLib:t1_enc.obj
 0005:00000384       $unwind$tls1_set_groups    00000000000ec3c4     OpensslLib:t1_lib.obj
 0005:000003a0       $unwind$time               00000000000ec3e0     BaseCryptLib:TimerWrapper.obj
 0005:000003a0       $unwind$ASN1_item_digest   00000000000ec3e0     OpensslLib:a_digest.obj
 0005:000003a0       $unwind$ASN1_item_dup      00000000000ec3e0     OpensslLib:a_dup.obj
 0005:000003a0       $unwind$asn1_template_new  00000000000ec3e0     OpensslLib:tasn_new.obj
 0005:000003a0       $unwind$asn1_do_adb        00000000000ec3e0     OpensslLib:tasn_utl.obj
 0005:000003a0       $unwind$asn1_do_lock       00000000000ec3e0     OpensslLib:tasn_utl.obj
 0005:000003a0       $unwind$ASYNC_init_thread  00000000000ec3e0     OpensslLib:async.obj
 0005:000003a0       $unwind$BN_BLINDING_new    00000000000ec3e0     OpensslLib:bn_blind.obj
 0005:000003a0       $unwind$BN_POOL_get        00000000000ec3e0     OpensslLib:bn_ctx.obj
 0005:000003a0       $unwind$BN_div             00000000000ec3e0     OpensslLib:bn_div.obj
 0005:000003a0       $unwind$BN_nnmod           00000000000ec3e0     OpensslLib:bn_mod.obj
 0005:000003a0       $unwind$COMP_CTX_new       00000000000ec3e0     OpensslLib:comp_lib.obj
 0005:000003a0       $unwind$pkey_dh_keygen     00000000000ec3e0     OpensslLib:dh_pmeth.obj
 0005:000003a0       $unwind$EC_GROUP_get_ecpkparameters 00000000000ec3e0     OpensslLib:ec_asn1.obj
 0005:000003a0       $unwind$i2d_ECPKParameters 00000000000ec3e0     OpensslLib:ec_asn1.obj
 0005:000003a0       $unwind$EC_KEY_new_method  00000000000ec3e0     OpensslLib:ec_kmeth.obj
 0005:000003a0       $unwind$EC_GROUP_new       00000000000ec3e0     OpensslLib:ec_lib.obj
 0005:000003a0       $unwind$EC_POINT_new       00000000000ec3e0     OpensslLib:ec_lib.obj
 0005:000003a0       $unwind$EC_POINTs_make_affine 00000000000ec3e0     OpensslLib:ec_lib.obj
 0005:000003a0       $unwind$pkey_ec_derive     00000000000ec3e0     OpensslLib:ec_pmeth.obj
 0005:000003a0       $unwind$ecd_item_verify    00000000000ec3e0     OpensslLib:ecx_meth.obj
 0005:000003a0       $unwind$EVP_DigestInit_ex  00000000000ec3e0     OpensslLib:digest.obj
 0005:000003a0       $unwind$aes_init_key       00000000000ec3e0     OpensslLib:e_aes.obj
 0005:000003a0       $unwind$aes_xts_cipher     00000000000ec3e0     OpensslLib:e_aes.obj
 0005:000003a0       $unwind$EVP_CIPHER_CTX_copy 00000000000ec3e0     OpensslLib:evp_enc.obj
 0005:000003a0       $unwind$EVP_DecryptFinal_ex 00000000000ec3e0     OpensslLib:evp_enc.obj
 0005:000003a0       $unwind$EVP_CIPHER_asn1_to_param 00000000000ec3e0     OpensslLib:evp_lib.obj
 0005:000003a0       $unwind$EVP_PKEY_copy_parameters 00000000000ec3e0     OpensslLib:p_lib.obj
 0005:000003a0       $unwind$EVP_PKEY_derive_set_peer 00000000000ec3e0     OpensslLib:pmeth_fn.obj
 0005:000003a0       $unwind$EVP_PKEY_keygen    00000000000ec3e0     OpensslLib:pmeth_gn.obj
 0005:000003a0       $unwind$EVP_PKEY_CTX_dup   00000000000ec3e0     OpensslLib:pmeth_lib.obj
 0005:000003a0       $unwind$pkey_hmac_init     00000000000ec3e0     OpensslLib:hm_pmeth.obj
 0005:000003a0       $unwind$CRYPTO_memdup      00000000000ec3e0     OpensslLib:o_str.obj
 0005:000003a0       $unwind$OPENSSL_buf2hexstr 00000000000ec3e0     OpensslLib:o_str.obj
 0005:000003a0       $unwind$OBJ_dup            00000000000ec3e0     OpensslLib:obj_lib.obj
 0005:000003a0       $unwind$PEM_def_callback   00000000000ec3e0     OpensslLib:pem_lib.obj
 0005:000003a0       $unwind$drbg_setup         00000000000ec3e0     OpensslLib:drbg_lib.obj
 0005:000003a0       $unwind$rand_drbg_new      00000000000ec3e0     OpensslLib:drbg_lib.obj
 0005:000003a0       $unwind$RAND_bytes         00000000000ec3e0     OpensslLib:rand_lib.obj
 0005:000003a0       $unwind$rand_pool_add      00000000000ec3e0     OpensslLib:rand_lib.obj
 0005:000003a0       $unwind$rand_pool_bytes_needed 00000000000ec3e0     OpensslLib:rand_lib.obj
 0005:000003a0       $unwind$rsa_item_verify    00000000000ec3e0     OpensslLib:rsa_ameth.obj
 0005:000003a0       $unwind$pkey_siphash_ctrl  00000000000ec3e0     OpensslLib:siphash_pmeth.obj
 0005:000003a0       $unwind$OPENSSL_sk_dup     00000000000ec3e0     OpensslLib:stack.obj
 0005:000003a0       $unwind$sk_reserve         00000000000ec3e0     OpensslLib:stack.obj
 0005:000003a0       $unwind$new_dir            00000000000ec3e0     OpensslLib:by_dir.obj
 0005:000003a0       $unwind$X509_STORE_new     00000000000ec3e0     OpensslLib:x509_lu.obj
 0005:000003a0       $unwind$X509_verify_cert   00000000000ec3e0     OpensslLib:x509_vfy.obj
 0005:000003a0       $unwind$x509_name_ex_new   00000000000ec3e0     OpensslLib:x_name.obj
 0005:000003a0       $unwind$i2s_ASN1_IA5STRING 00000000000ec3e0     OpensslLib:v3_ia5.obj
 0005:000003a0       $unwind$s2i_ASN1_IA5STRING 00000000000ec3e0     OpensslLib:v3_ia5.obj
 0005:000003a0       $unwind$i2s_ASN1_INTEGER   00000000000ec3e0     OpensslLib:v3_utl.obj
 0005:000003a0       $unwind$ssl3_init_finished_mac 00000000000ec3e0     OpensslLib:s3_enc.obj
 0005:000003a0       $unwind$ssl_cert_add0_chain_cert 00000000000ec3e0     OpensslLib:ssl_cert.obj
 0005:000003a0       $unwind$cmd_RequestCAPath  00000000000ec3e0     OpensslLib:ssl_conf.obj
 0005:000003a0       $unwind$OPENSSL_init_ssl   00000000000ec3e0     OpensslLib:ssl_init.obj
 0005:000003a0       $unwind$SSL_CTX_use_certificate 00000000000ec3e0     OpensslLib:ssl_rsa.obj
 0005:000003a0       $unwind$SSL_use_certificate 00000000000ec3e0     OpensslLib:ssl_rsa.obj
 0005:000003a0       $unwind$tls_parse_certificate_authorities 00000000000ec3e0     OpensslLib:extensions.obj
 0005:000003a0       $unwind$tls_construct_ctos_ems 00000000000ec3e0     OpensslLib:extensions_clnt.obj
 0005:000003a0       $unwind$tls_construct_ctos_etm 00000000000ec3e0     OpensslLib:extensions_clnt.obj
 0005:000003a0       $unwind$tls_construct_ctos_maxfragmentlen 00000000000ec3e0     OpensslLib:extensions_clnt.obj
 0005:000003a0       $unwind$tls_construct_ctos_npn 00000000000ec3e0     OpensslLib:extensions_clnt.obj
 0005:000003a0       $unwind$tls_construct_ctos_post_handshake_auth 00000000000ec3e0     OpensslLib:extensions_clnt.obj
 0005:000003a0       $unwind$tls_construct_ctos_renegotiate 00000000000ec3e0     OpensslLib:extensions_clnt.obj
 0005:000003a0       $unwind$tls_parse_stoc_renegotiate 00000000000ec3e0     OpensslLib:extensions_clnt.obj
 0005:000003a0       $unwind$tls_parse_stoc_session_ticket 00000000000ec3e0     OpensslLib:extensions_clnt.obj
 0005:000003a0       $unwind$tls_construct_stoc_ems 00000000000ec3e0     OpensslLib:extensions_srvr.obj
 0005:000003a0       $unwind$tls_construct_stoc_etm 00000000000ec3e0     OpensslLib:extensions_srvr.obj
 0005:000003a0       $unwind$tls_construct_stoc_maxfragmentlen 00000000000ec3e0     OpensslLib:extensions_srvr.obj
 0005:000003a0       $unwind$tls_construct_stoc_renegotiate 00000000000ec3e0     OpensslLib:extensions_srvr.obj
 0005:000003a0       $unwind$tls_construct_stoc_server_name 00000000000ec3e0     OpensslLib:extensions_srvr.obj
 0005:000003a0       $unwind$tls_construct_stoc_session_ticket 00000000000ec3e0     OpensslLib:extensions_srvr.obj
 0005:000003a0       $unwind$tls_construct_stoc_status_request 00000000000ec3e0     OpensslLib:extensions_srvr.obj
 0005:000003a0       $unwind$ossl_statem_fatal  00000000000ec3e0     OpensslLib:statem.obj
 0005:000003a0       $unwind$ossl_statem_client_post_work 00000000000ec3e0     OpensslLib:statem_clnt.obj
 0005:000003a0       $unwind$tls_construct_client_certificate 00000000000ec3e0     OpensslLib:statem_clnt.obj
 0005:000003a0       $unwind$dtls_construct_change_cipher_spec 00000000000ec3e0     OpensslLib:statem_dtls.obj
 0005:000003a0       $unwind$tls13_save_handshake_digest_for_pha 00000000000ec3e0     OpensslLib:statem_lib.obj
 0005:000003a0       $unwind$tls_construct_cert_status_body 00000000000ec3e0     OpensslLib:statem_srvr.obj
 0005:000003ac       $unwind$CRYPTO_ccm128_aad  00000000000ec3ec     OpensslLib:ccm128.obj
 0005:000003ac       $unwind$X509_STORE_free    00000000000ec3ec     OpensslLib:x509_lu.obj
 0005:000003c4       $unwind$c2i_ibuf           00000000000ec404     OpensslLib:a_int.obj
 0005:000003c4       $unwind$BIO_new            00000000000ec404     OpensslLib:bio_lib.obj
 0005:000003c4       $unwind$bn_expand2         00000000000ec404     OpensslLib:bn_lib.obj
 0005:000003c4       $unwind$BN_mod_sqr         00000000000ec404     OpensslLib:bn_mod.obj
 0005:000003c4       $unwind$BN_bn2hex          00000000000ec404     OpensslLib:bn_print.obj
 0005:000003c4       $unwind$BUF_MEM_grow       00000000000ec404     OpensslLib:buffer.obj
 0005:000003c4       $unwind$BUF_MEM_grow_clean 00000000000ec404     OpensslLib:buffer.obj
 0005:000003c4       $unwind$DH_new             00000000000ec404     OpensslLib:dh_lib.obj
 0005:000003c4       $unwind$d2i_ECParameters   00000000000ec404     OpensslLib:ec_asn1.obj
 0005:000003c4       $unwind$EC_KEY_copy        00000000000ec404     OpensslLib:ec_key.obj
 0005:000003c4       $unwind$EC_KEY_oct2key     00000000000ec404     OpensslLib:ec_key.obj
 0005:000003c4       $unwind$ec_key_simple_oct2priv 00000000000ec404     OpensslLib:ec_key.obj
 0005:000003c4       $unwind$EC_GROUP_copy      00000000000ec404     OpensslLib:ec_lib.obj
 0005:000003c4       $unwind$EC_GROUP_set_seed  00000000000ec404     OpensslLib:ec_lib.obj
 0005:000003c4       $unwind$EC_POINT_set_affine_coordinates 00000000000ec404     OpensslLib:ec_lib.obj
 0005:000003c4       $unwind$pkey_ec_ctrl       00000000000ec404     OpensslLib:ec_pmeth.obj
 0005:000003c4       $unwind$pkey_ec_ctrl_str   00000000000ec404     OpensslLib:ec_pmeth.obj
 0005:000003c4       $unwind$pkey_ec_paramgen   00000000000ec404     OpensslLib:ec_pmeth.obj
 0005:000003c4       $unwind$ecx_ctrl           00000000000ec404     OpensslLib:ecx_meth.obj
 0005:000003c4       $unwind$EVP_DigestFinalXOF 00000000000ec404     OpensslLib:digest.obj
 0005:000003c4       $unwind$EVP_MD_CTX_copy_ex 00000000000ec404     OpensslLib:digest.obj
 0005:000003c4       $unwind$aes_ccm_init_key   00000000000ec404     OpensslLib:e_aes.obj
 0005:000003c4       $unwind$EVP_DigestSign     00000000000ec404     OpensslLib:m_sigver.obj
 0005:000003c4       $unwind$EVP_DigestVerify   00000000000ec404     OpensslLib:m_sigver.obj
 0005:000003c4       $unwind$EVP_PKEY_assign    00000000000ec404     OpensslLib:p_lib.obj
 0005:000003c4       $unwind$EVP_PKEY_new_raw_private_key 00000000000ec404     OpensslLib:p_lib.obj
 0005:000003c4       $unwind$EVP_PKEY_derive    00000000000ec404     OpensslLib:pmeth_fn.obj
 0005:000003c4       $unwind$EVP_PKEY_CTX_md    00000000000ec404     OpensslLib:pmeth_lib.obj
 0005:000003c4       $unwind$OPENSSL_init_crypto 00000000000ec404     OpensslLib:init.obj
 0005:000003c4       $unwind$pkey_hkdf_ctrl_str 00000000000ec404     OpensslLib:hkdf.obj
 0005:000003c4       $unwind$pkey_tls1_prf_ctrl_str 00000000000ec404     OpensslLib:tls1_prf.obj
 0005:000003c4       $unwind$OPENSSL_hexstr2buf 00000000000ec404     OpensslLib:o_str.obj
 0005:000003c4       $unwind$rsa_param_decode   00000000000ec404     OpensslLib:rsa_ameth.obj
 0005:000003c4       $unwind$pkey_sm2_copy      00000000000ec404     OpensslLib:sm2_pmeth.obj
 0005:000003c4       $unwind$pkey_sm2_ctrl_str  00000000000ec404     OpensslLib:sm2_pmeth.obj
 0005:000003c4       $unwind$pkey_sm2_encrypt   00000000000ec404     OpensslLib:sm2_pmeth.obj
 0005:000003c4       $unwind$X509_STORE_load_locations 00000000000ec404     OpensslLib:x509_d2.obj
 0005:000003c4       $unwind$X509_STORE_add_lookup 00000000000ec404     OpensslLib:x509_lu.obj
 0005:000003c4       $unwind$check_policy       00000000000ec404     OpensslLib:x509_vfy.obj
 0005:000003c4       $unwind$X509_NAME_ENTRY_create_by_OBJ 00000000000ec404     OpensslLib:x509name.obj
 0005:000003c4       $unwind$x509_pubkey_decode 00000000000ec404     OpensslLib:x_pubkey.obj
 0005:000003c4       $unwind$i2s_ASN1_ENUMERATED_TABLE 00000000000ec404     OpensslLib:v3_enum.obj
 0005:000003c4       $unwind$i2r_NAME_CONSTRAINTS 00000000000ec404     OpensslLib:v3_ncons.obj
 0005:000003c4       $unwind$i2r_pci            00000000000ec404     OpensslLib:v3_pci.obj
 0005:000003c4       $unwind$bignum_to_string   00000000000ec404     OpensslLib:v3_utl.obj
 0005:000003c4       $unwind$pitem_new          00000000000ec404     OpensslLib:pqueue.obj
 0005:000003c4       $unwind$ssl3_setup_read_buffer 00000000000ec404     OpensslLib:ssl3_buffer.obj
 0005:000003c4       $unwind$ssl3_do_compress   00000000000ec404     OpensslLib:ssl3_record.obj
 0005:000003c4       $unwind$ssl3_do_uncompress 00000000000ec404     OpensslLib:ssl3_record.obj
 0005:000003c4       $unwind$ssl_generate_param_group 00000000000ec404     OpensslLib:s3_lib.obj
 0005:000003c4       $unwind$SSL_COMP_add_compression_method 00000000000ec404     OpensslLib:ssl_ciph.obj
 0005:000003c4       $unwind$set_ciphersuites   00000000000ec404     OpensslLib:ssl_ciph.obj
 0005:000003c4       $unwind$SSL_CTX_use_serverinfo_ex 00000000000ec404     OpensslLib:ssl_rsa.obj
 0005:000003c4       $unwind$ssl_get_new_session 00000000000ec404     OpensslLib:ssl_sess.obj
 0005:000003c4       $unwind$tls_construct_certificate_authorities 00000000000ec404     OpensslLib:extensions.obj
 0005:000003c4       $unwind$tls_construct_ctos_alpn 00000000000ec404     OpensslLib:extensions_clnt.obj
 0005:000003c4       $unwind$tls_construct_ctos_server_name 00000000000ec404     OpensslLib:extensions_clnt.obj
 0005:000003c4       $unwind$tls_construct_ctos_session_ticket 00000000000ec404     OpensslLib:extensions_clnt.obj
 0005:000003c4       $unwind$tls_construct_stoc_alpn 00000000000ec404     OpensslLib:extensions_srvr.obj
 0005:000003c4       $unwind$tls_construct_stoc_early_data 00000000000ec404     OpensslLib:extensions_srvr.obj
 0005:000003c4       $unwind$tls_construct_stoc_supported_versions 00000000000ec404     OpensslLib:extensions_srvr.obj
 0005:000003c4       $unwind$tls_construct_stoc_use_srtp 00000000000ec404     OpensslLib:extensions_srvr.obj
 0005:000003c4       $unwind$ossl_statem_client_write_transition 00000000000ec404     OpensslLib:statem_clnt.obj
 0005:000003c4       $unwind$set_client_ciphersuite 00000000000ec404     OpensslLib:statem_clnt.obj
 0005:000003c4       $unwind$ssl3_check_cert_and_algorithm 00000000000ec404     OpensslLib:statem_clnt.obj
 0005:000003c4       $unwind$tls_construct_client_key_exchange 00000000000ec404     OpensslLib:statem_clnt.obj
 0005:000003c4       $unwind$dtls1_preprocess_fragment 00000000000ec404     OpensslLib:statem_dtls.obj
 0005:000003c4       $unwind$ssl3_output_cert_chain 00000000000ec404     OpensslLib:statem_lib.obj
 0005:000003c4       $unwind$ssl_method_error   00000000000ec404     OpensslLib:statem_lib.obj
 0005:000003c4       $unwind$tls_construct_finished 00000000000ec404     OpensslLib:statem_lib.obj
 0005:000003c4       $unwind$tls_process_client_key_exchange 00000000000ec404     OpensslLib:statem_srvr.obj
 0005:000003d4       $unwind$ED25519_sign       00000000000ec414     OpensslLib:curve25519.obj
 0005:000003d4       $unwind$x509_object_idx_cnt 00000000000ec414     OpensslLib:x509_lu.obj
 0005:000003f0       $unwind$X509_STORE_CTX_get1_certs 00000000000ec430     OpensslLib:x509_lu.obj
 0005:0000040c       $unwind$X509_STORE_CTX_get1_crls 00000000000ec44c     OpensslLib:x509_lu.obj
 0005:00000428       $unwind$X509_OBJECT_retrieve_match 00000000000ec468     OpensslLib:x509_lu.obj
 0005:00000440       $unwind$X509_STORE_CTX_get1_issuer 00000000000ec480     OpensslLib:x509_lu.obj
 0005:0000045c       $unwind$bio_call_callback  00000000000ec49c     OpensslLib:bio_lib.obj
 0005:0000045c       $unwind$aes_cfb8_cipher    00000000000ec49c     OpensslLib:e_aes.obj
 0005:0000045c       $unwind$X509V3_get_value_bool 00000000000ec49c     OpensslLib:v3_utl.obj
 0005:0000045c       $unwind$tls_parse_stoc_ec_pt_formats 00000000000ec49c     OpensslLib:extensions_clnt.obj
 0005:0000045c       $unwind$ossl_statem_client_process_message 00000000000ec49c     OpensslLib:statem_clnt.obj
 0005:0000045c       $unwind$nid_cb             00000000000ec49c     OpensslLib:t1_lib.obj
 0005:0000046c       $unwind$BIO_puts           00000000000ec4ac     OpensslLib:bio_lib.obj
 0005:0000046c       $unwind$tls_parse_ctos_use_srtp 00000000000ec4ac     OpensslLib:extensions_srvr.obj
 0005:0000046c       $unwind$tls_process_certificate_request 00000000000ec4ac     OpensslLib:statem_clnt.obj
 0005:0000047c       $unwind$BIO_gets           00000000000ec4bc     OpensslLib:bio_lib.obj
 0005:0000047c       $unwind$pkey_ec_sign       00000000000ec4bc     OpensslLib:ec_pmeth.obj
 0005:0000047c       $unwind$pkey_rsa_verifyrecover 00000000000ec4bc     OpensslLib:rsa_pmeth.obj
 0005:00000490       $unwind$BIO_callback_ctrl  00000000000ec4d0     OpensslLib:bio_lib.obj
 0005:00000498       $unwind$ASN1_STRING_free   00000000000ec4d8     OpensslLib:asn1_lib.obj
 0005:00000498       $unwind$async_empty_pool   00000000000ec4d8     OpensslLib:async.obj
 0005:00000498       $unwind$BIO_free_all       00000000000ec4d8     OpensslLib:bio_lib.obj
 0005:00000498       $unwind$BN_free            00000000000ec4d8     OpensslLib:bn_lib.obj
 0005:00000498       $unwind$BUF_MEM_free       00000000000ec4d8     OpensslLib:buffer.obj
 0005:00000498       $unwind$EC_ec_pre_comp_free 00000000000ec4d8     OpensslLib:ec_mult.obj
 0005:00000498       $unwind$HMAC_CTX_free      00000000000ec4d8     OpensslLib:hmac.obj
 0005:00000498       $unwind$rand_pool_free     00000000000ec4d8     OpensslLib:rand_lib.obj
 0005:00000498       $unwind$x509_name_ex_free  00000000000ec4d8     OpensslLib:x_name.obj
 0005:00000498       $unwind$i2v_ASN1_BIT_STRING 00000000000ec4d8     OpensslLib:v3_bitst.obj
 0005:00000498       $unwind$ssl_cert_clear_certs 00000000000ec4d8     OpensslLib:ssl_cert.obj
 0005:00000498       $unwind$dtls1_hm_fragment_free 00000000000ec4d8     OpensslLib:statem_dtls.obj
 0005:000004a4       $unwind$ssl_load_ciphers   00000000000ec4e4     OpensslLib:ssl_ciph.obj
 0005:000004b4       $unwind$ssl_cipher_collect_ciphers 00000000000ec4f4     OpensslLib:ssl_ciph.obj
 0005:000004d0       $unwind$ssl_cipher_apply_rule 00000000000ec510     OpensslLib:ssl_ciph.obj
 0005:000004e8       $unwind$ssl_cipher_strength_sort 00000000000ec528     OpensslLib:ssl_ciph.obj
 0005:00000500       $unwind$RSA_padding_add_PKCS1_OAEP_mgf1 00000000000ec540     OpensslLib:rsa_oaep.obj
 0005:00000500       $unwind$ssl_cipher_process_rulestr 00000000000ec540     OpensslLib:ssl_ciph.obj
 0005:00000518       $unwind$check_suiteb_cipher_list 00000000000ec558     OpensslLib:ssl_ciph.obj
 0005:0000052c       $unwind$ciphersuite_cb     00000000000ec56c     OpensslLib:ssl_ciph.obj
 0005:00000538       $unwind$ssl_create_cipher_list 00000000000ec578     OpensslLib:ssl_ciph.obj
 0005:00000550       $unwind$lookup_sess_in_cache 00000000000ec590     OpensslLib:ssl_sess.obj
 0005:00000568       $unwind$ssl_get_prev_session 00000000000ec5a8     OpensslLib:ssl_sess.obj
 0005:00000568       $unwind$add_key_share      00000000000ec5a8     OpensslLib:extensions_clnt.obj
 0005:00000568       $unwind$tls_construct_stoc_key_share 00000000000ec5a8     OpensslLib:extensions_srvr.obj
 0005:00000580       $unwind$DH_free            00000000000ec5c0     OpensslLib:dh_lib.obj
 0005:00000580       $unwind$EC_KEY_free        00000000000ec5c0     OpensslLib:ec_key.obj
 0005:00000580       $unwind$RSA_free           00000000000ec5c0     OpensslLib:rsa_lib.obj
 0005:00000580       $unwind$ssl_cert_free      00000000000ec5c0     OpensslLib:ssl_cert.obj
 0005:00000580       $unwind$SSL_SESSION_free   00000000000ec5c0     OpensslLib:ssl_sess.obj
 0005:00000588       $unwind$EVP_PBE_find       00000000000ec5c8     OpensslLib:evp_pbe.obj
 0005:00000588       $unwind$SSL_CTX_flush_sessions 00000000000ec5c8     OpensslLib:ssl_sess.obj
 0005:00000594       $unwind$PACKET_get_length_prefixed_2 00000000000ec5d4     OpensslLib:ssl_rsa.obj
 0005:00000594       $unwind$PACKET_get_length_prefixed_3 00000000000ec5d4     OpensslLib:extensions.obj
 0005:00000594       $unwind$PACKET_get_length_prefixed_1 00000000000ec5d4     OpensslLib:extensions_clnt.obj
 0005:00000594       $unwind$PACKET_as_length_prefixed_1 00000000000ec5d4     OpensslLib:extensions_srvr.obj
 0005:00000594       $unwind$PACKET_get_length_prefixed_1 00000000000ec5d4     OpensslLib:extensions_srvr.obj
 0005:00000594       $unwind$PACKET_get_length_prefixed_1 00000000000ec5d4     OpensslLib:statem_clnt.obj
 0005:00000594       $unwind$PACKET_get_length_prefixed_1 00000000000ec5d4     OpensslLib:statem_srvr.obj
 0005:0000059c       $unwind$bn_to_asn1_string  00000000000ec5dc     OpensslLib:a_int.obj
 0005:0000059c       $unwind$BN_BLINDING_convert_ex 00000000000ec5dc     OpensslLib:bn_blind.obj
 0005:0000059c       $unwind$BN_BLINDING_invert_ex 00000000000ec5dc     OpensslLib:bn_blind.obj
 0005:0000059c       $unwind$BN_BLINDING_update 00000000000ec5dc     OpensslLib:bn_blind.obj
 0005:0000059c       $unwind$BN_STACK_push      00000000000ec5dc     OpensslLib:bn_ctx.obj
 0005:0000059c       $unwind$BN_mod_inverse     00000000000ec5dc     OpensslLib:bn_gcd.obj
 0005:0000059c       $unwind$BN_mod_lshift_quick 00000000000ec5dc     OpensslLib:bn_mod.obj
 0005:0000059c       $unwind$bnrand_range       00000000000ec5dc     OpensslLib:bn_rand.obj
 0005:0000059c       $unwind$pkey_cmac_ctrl_str 00000000000ec5dc     OpensslLib:cm_pmeth.obj
 0005:0000059c       $unwind$module_add         00000000000ec5dc     OpensslLib:conf_mod.obj
 0005:0000059c       $unwind$i2o_ECPublicKey    00000000000ec5dc     OpensslLib:ec_asn1.obj
 0005:0000059c       $unwind$EC_GROUP_check     00000000000ec5dc     OpensslLib:ec_check.obj
 0005:0000059c       $unwind$ec_key_simple_priv2oct 00000000000ec5dc     OpensslLib:ec_key.obj
 0005:0000059c       $unwind$EC_POINT_get_affine_coordinates 00000000000ec5dc     OpensslLib:ec_lib.obj
 0005:0000059c       $unwind$ecx_pub_encode     00000000000ec5dc     OpensslLib:ecx_meth.obj
 0005:0000059c       $unwind$aria_ccm_init_key  00000000000ec5dc     OpensslLib:e_aria.obj
 0005:0000059c       $unwind$aria_gcm_init_key  00000000000ec5dc     OpensslLib:e_aria.obj
 0005:0000059c       $unwind$EVP_EncryptFinal_ex 00000000000ec5dc     OpensslLib:evp_enc.obj
 0005:0000059c       $unwind$EVP_CIPHER_get_asn1_iv 00000000000ec5dc     OpensslLib:evp_lib.obj
 0005:0000059c       $unwind$EVP_PKEY_encrypt   00000000000ec5dc     OpensslLib:pmeth_fn.obj
 0005:0000059c       $unwind$EVP_PKEY_sign      00000000000ec5dc     OpensslLib:pmeth_fn.obj
 0005:0000059c       $unwind$CRYPTO_set_ex_data 00000000000ec5dc     OpensslLib:ex_data.obj
 0005:0000059c       $unwind$OBJ_create         00000000000ec5dc     OpensslLib:obj_dat.obj
 0005:0000059c       $unwind$d2i_ocsp_nonce     00000000000ec5dc     OpensslLib:v3_ocsp.obj
 0005:0000059c       $unwind$load_iv            00000000000ec5dc     OpensslLib:pem_lib.obj
 0005:0000059c       $unwind$RAND_DRBG_set      00000000000ec5dc     OpensslLib:drbg_lib.obj
 0005:0000059c       $unwind$drbg_bytes         00000000000ec5dc     OpensslLib:drbg_lib.obj
 0005:0000059c       $unwind$rand_pool_grow     00000000000ec5dc     OpensslLib:rand_lib.obj
 0005:0000059c       $unwind$pkey_sm2_ctrl      00000000000ec5dc     OpensslLib:sm2_pmeth.obj
 0005:0000059c       $unwind$X509_STORE_CTX_init 00000000000ec5dc     OpensslLib:x509_vfy.obj
 0005:0000059c       $unwind$X509_get_pubkey_parameters 00000000000ec5dc     OpensslLib:x509_vfy.obj
 0005:0000059c       $unwind$policy_data_new    00000000000ec5dc     OpensslLib:pcy_data.obj
 0005:0000059c       $unwind$gnames_from_sectname 00000000000ec5dc     OpensslLib:v3_crld.obj
 0005:0000059c       $unwind$equal_email        00000000000ec5dc     OpensslLib:v3_utl.obj
 0005:0000059c       $unwind$ssl3_write         00000000000ec5dc     OpensslLib:s3_lib.obj
 0005:0000059c       $unwind$cmd_CipherString   00000000000ec5dc     OpensslLib:ssl_conf.obj
 0005:0000059c       $unwind$SSL_CTX_use_PrivateKey_file 00000000000ec5dc     OpensslLib:ssl_rsa.obj
 0005:0000059c       $unwind$SSL_use_PrivateKey_file 00000000000ec5dc     OpensslLib:ssl_rsa.obj
 0005:0000059c       $unwind$ssl_set_pkey       00000000000ec5dc     OpensslLib:ssl_rsa.obj
 0005:0000059c       $unwind$tls_construct_ctos_ec_pt_formats 00000000000ec5dc     OpensslLib:extensions_clnt.obj
 0005:0000059c       $unwind$tls_construct_ctos_psk_kex_modes 00000000000ec5dc     OpensslLib:extensions_clnt.obj
 0005:0000059c       $unwind$tls_construct_stoc_ec_pt_formats 00000000000ec5dc     OpensslLib:extensions_srvr.obj
 0005:0000059c       $unwind$create_ticket_prequel 00000000000ec5dc     OpensslLib:statem_srvr.obj
 0005:0000059c       $unwind$tls_construct_server_certificate 00000000000ec5dc     OpensslLib:statem_srvr.obj
 0005:0000059c       $unwind$ssl_cipher_disabled 00000000000ec5dc     OpensslLib:t1_lib.obj
 0005:0000059c       $unwind$ssl_security_cert_chain 00000000000ec5dc     OpensslLib:t1_lib.obj
 0005:0000059c       $unwind$tls1_check_group_id 00000000000ec5dc     OpensslLib:t1_lib.obj
 0005:0000059c       $unwind$tls13_generate_master_secret 00000000000ec5dc     OpensslLib:tls13_enc.obj
 0005:000005b0       $unwind$eckey_param2type   00000000000ec5f0     OpensslLib:ec_ameth.obj
 0005:000005b0       $unwind$EC_KEY_priv2buf    00000000000ec5f0     OpensslLib:ec_key.obj
 0005:000005b0       $unwind$CRYPTO_gcm128_init 00000000000ec5f0     OpensslLib:gcm128.obj
 0005:000005b0       $unwind$ssl_x509_store_ctx_init_ossl_ 00000000000ec5f0     OpensslLib:ssl_cert.obj
 0005:000005b0       $unwind$ssl_set_cert       00000000000ec5f0     OpensslLib:ssl_rsa.obj
 0005:000005c4       $unwind$EC_GROUP_new_from_ecparameters 00000000000ec604     OpensslLib:ec_asn1.obj
 0005:000005c4       $unwind$ec_asn1_group2curve 00000000000ec604     OpensslLib:ec_asn1.obj
 0005:000005c4       $unwind$ec_GFp_mont_group_set_curve 00000000000ec604     OpensslLib:ecp_mont.obj
 0005:000005c4       $unwind$ec_GFp_simple_group_check_discriminant 00000000000ec604     OpensslLib:ecp_smpl.obj
 0005:000005c4       $unwind$rand_drbg_restart  00000000000ec604     OpensslLib:drbg_lib.obj
 0005:000005c4       $unwind$use_certificate_chain_file 00000000000ec604     OpensslLib:ssl_rsa.obj
 0005:000005c4       $unwind$state_machine      00000000000ec604     OpensslLib:statem.obj
 0005:000005e0       $unwind$serverinfo_find_extension 00000000000ec620     OpensslLib:ssl_rsa.obj
 0005:000005f4       $unwind$serverinfo_srv_add_cb 00000000000ec634     OpensslLib:ssl_rsa.obj
 0005:000005fc       $unwind$serverinfo_process_buffer 00000000000ec63c     OpensslLib:ssl_rsa.obj
 0005:00000608       $unwind$tls1_prf_P_hash    00000000000ec648     OpensslLib:tls1_prf.obj
 0005:00000608       $unwind$SSL_CTX_use_serverinfo_file 00000000000ec648     OpensslLib:ssl_rsa.obj
 0005:00000624       $unwind$x509_cb            00000000000ec664     OpensslLib:x_x509.obj
 0005:00000638       $unwind$buffer_gets        00000000000ec678     OpensslLib:bf_buff.obj
 0005:00000638       $unwind$X509v3_get_ext_by_OBJ 00000000000ec678     OpensslLib:x509_v3.obj
 0005:00000638       $unwind$X509_NAME_get_index_by_OBJ 00000000000ec678     OpensslLib:x509name.obj
 0005:00000638       $unwind$d2i_X509_AUX       00000000000ec678     OpensslLib:x_x509.obj
 0005:0000064c       $unwind$drbg_ctr_init      00000000000ec68c     OpensslLib:drbg_ctr.obj
 0005:0000064c       $unwind$sk_OPENSSL_STRING_deep_copy 00000000000ec68c     OpensslLib:x509_vpm.obj
 0005:00000664       $unwind$determine_days     00000000000ec6a4     OpensslLib:a_time.obj
 0005:00000664       $unwind$BN_rshift1         00000000000ec6a4     OpensslLib:bn_shift.obj
 0005:00000664       $unwind$X509_get_signature_info 00000000000ec6a4     OpensslLib:x509_set.obj
 0005:00000664       $unwind$int_x509_param_set1 00000000000ec6a4     OpensslLib:x509_vpm.obj
 0005:00000664       $unwind$pqueue_insert      00000000000ec6a4     OpensslLib:pqueue.obj
 0005:00000664       $unwind$DTLS_RECORD_LAYER_clear 00000000000ec6a4     OpensslLib:rec_layer_d1.obj
 0005:00000664       $unwind$SSL_CONF_CTX_finish 00000000000ec6a4     OpensslLib:ssl_conf.obj
 0005:00000664       $unwind$PACKET_memdup      00000000000ec6a4     OpensslLib:extensions_srvr.obj
 0005:00000664       $unwind$PACKET_memdup      00000000000ec6a4     OpensslLib:statem_clnt.obj
 0005:00000678       $unwind$gmtime             00000000000ec6b8     BaseCryptLib:TimerWrapper.obj
 0005:00000678       $unwind$BN_kronecker       00000000000ec6b8     OpensslLib:bn_kron.obj
 0005:00000678       $unwind$bn_lshift_fixed_top 00000000000ec6b8     OpensslLib:bn_shift.obj
 0005:00000678       $unwind$bn_rshift_fixed_top 00000000000ec6b8     OpensslLib:bn_shift.obj
 0005:00000678       $unwind$aes_gcm_tls_cipher 00000000000ec6b8     OpensslLib:e_aes.obj
 0005:00000678       $unwind$aria_gcm_tls_cipher 00000000000ec6b8     OpensslLib:e_aria.obj
 0005:00000678       $unwind$CRYPTO_ctr128_encrypt 00000000000ec6b8     OpensslLib:ctr128.obj
 0005:00000678       $unwind$CRYPTO_gcm128_aad  00000000000ec6b8     OpensslLib:gcm128.obj
 0005:00000678       $unwind$rsa_pss_param_print 00000000000ec6b8     OpensslLib:rsa_ameth.obj
 0005:00000678       $unwind$rsa_get_public_exp 00000000000ec6b8     OpensslLib:rsa_crpt.obj
 0005:00000678       $unwind$SipHash_Update     00000000000ec6b8     OpensslLib:siphash.obj
 0005:00000678       $unwind$X509_chain_check_suiteb 00000000000ec6b8     OpensslLib:x509_cmp.obj
 0005:00000678       $unwind$check_auth_level   00000000000ec6b8     OpensslLib:x509_vfy.obj
 0005:00000678       $unwind$crl_akid_check     00000000000ec6b8     OpensslLib:x509_vfy.obj
 0005:00000678       $unwind$X509_VERIFY_PARAM_set1_policies 00000000000ec6b8     OpensslLib:x509_vpm.obj
 0005:00000678       $unwind$X509V3_get_d2i     00000000000ec6b8     OpensslLib:v3_lib.obj
 0005:00000678       $unwind$find_sig_alg       00000000000ec6b8     OpensslLib:t1_lib.obj
 0005:00000694       $unwind$X509_VERIFY_PARAM_lookup 00000000000ec6d4     OpensslLib:x509_vpm.obj
 0005:000006a0       $unwind$ERR_STATE_free     00000000000ec6e0     OpensslLib:err.obj
 0005:000006a0       $unwind$OPENSSL_sk_pop_free 00000000000ec6e0     OpensslLib:stack.obj
 0005:000006b4       $unwind$bn_mul_normal      00000000000ec6f4     OpensslLib:bn_mul.obj
 0005:000006b4       $unwind$BN_hex2bn          00000000000ec6f4     OpensslLib:bn_print.obj
 0005:000006b4       $unwind$ec_GFp_simple_get_Jprojective_coordinates_GFp 00000000000ec6f4     OpensslLib:ecp_smpl.obj
 0005:000006b4       $unwind$ec_GFp_simple_set_Jprojective_coordinates_GFp 00000000000ec6f4     OpensslLib:ecp_smpl.obj
 0005:000006b4       $unwind$get_error_values   00000000000ec6f4     OpensslLib:err.obj
 0005:000006b4       $unwind$CRYPTO_cfb128_encrypt 00000000000ec6f4     OpensslLib:cfb128.obj
 0005:000006b4       $unwind$CRYPTO_gcm128_finish 00000000000ec6f4     OpensslLib:gcm128.obj
 0005:000006b4       $unwind$CRYPTO_ofb128_encrypt 00000000000ec6f4     OpensslLib:ofb128.obj
 0005:000006b4       $unwind$OBJ_bsearch_ex_    00000000000ec6f4     OpensslLib:obj_dat.obj
 0005:000006b4       $unwind$SHA512_Final       00000000000ec6f4     OpensslLib:sha512.obj
 0005:000006b4       $unwind$tree_evaluate      00000000000ec6f4     OpensslLib:pcy_tree.obj
 0005:000006b4       $unwind$set_reasons        00000000000ec6f4     OpensslLib:v3_crld.obj
 0005:000006b4       $unwind$nc_email           00000000000ec6f4     OpensslLib:v3_ncons.obj
 0005:000006b4       $unwind$valid_star         00000000000ec6f4     OpensslLib:v3_utl.obj
 0005:000006b4       $unwind$add_custom_ext_intern 00000000000ec6f4     OpensslLib:extensions_cust.obj
 0005:000006b4       $unwind$custom_exts_copy   00000000000ec6f4     OpensslLib:extensions_cust.obj
 0005:000006d0       $unwind$ERR_error_string_n 00000000000ec710     OpensslLib:err.obj
 0005:000006ec       $unwind$ERR_get_state      00000000000ec72c     OpensslLib:err.obj
 0005:00000700       $unwind$ERR_add_error_data 00000000000ec740     OpensslLib:err.obj
 0005:00000714       $unwind$read_state_machine 00000000000ec754     OpensslLib:statem.obj
 0005:0000072c       $unwind$write_state_machine 00000000000ec76c     OpensslLib:statem.obj
 0005:00000744       $unwind$evp_EncryptDecryptUpdate 00000000000ec784     OpensslLib:evp_enc.obj
 0005:00000760       $unwind$ECDH_compute_key   00000000000ec7a0     OpensslLib:ec_kmeth.obj
 0005:00000760       $unwind$pkey_set_type      00000000000ec7a0     OpensslLib:p_lib.obj
 0005:00000760       $unwind$internal_find      00000000000ec7a0     OpensslLib:stack.obj
 0005:0000076c       $unwind$ASN1_get_object    00000000000ec7ac     OpensslLib:asn1_lib.obj
 0005:0000076c       $unwind$asn1_item_embed_new 00000000000ec7ac     OpensslLib:tasn_new.obj
 0005:0000076c       $unwind$DH_check           00000000000ec7ac     OpensslLib:dh_check.obj
 0005:0000076c       $unwind$pkey_dh_paramgen   00000000000ec7ac     OpensslLib:dh_pmeth.obj
 0005:0000076c       $unwind$ec_key_simple_generate_key 00000000000ec7ac     OpensslLib:ec_key.obj
 0005:0000076c       $unwind$EC_POINT_point2buf 00000000000ec7ac     OpensslLib:ec_oct.obj
 0005:0000076c       $unwind$ec_GFp_nist_field_sqr 00000000000ec7ac     OpensslLib:ecp_nist.obj
 0005:0000076c       $unwind$ec_GFp_simple_blind_coordinates 00000000000ec7ac     OpensslLib:ecp_smpl.obj
 0005:0000076c       $unwind$aes_xts_init_key   00000000000ec7ac     OpensslLib:e_aes.obj
 0005:0000076c       $unwind$i2r_ocsp_serviceloc 00000000000ec7ac     OpensslLib:v3_ocsp.obj
 0005:0000076c       $unwind$PKCS12_pbe_crypt   00000000000ec7ac     OpensslLib:p12_decr.obj
 0005:0000076c       $unwind$OPENSSL_asc2uni    00000000000ec7ac     OpensslLib:p12_utl.obj
 0005:0000076c       $unwind$rand_pool_new      00000000000ec7ac     OpensslLib:rand_lib.obj
 0005:0000076c       $unwind$RSA_setup_blinding 00000000000ec7ac     OpensslLib:rsa_crpt.obj
 0005:0000076c       $unwind$pkey_rsa_ctrl      00000000000ec7ac     OpensslLib:rsa_pmeth.obj
 0005:0000076c       $unwind$pkey_rsa_keygen    00000000000ec7ac     OpensslLib:rsa_pmeth.obj
 0005:0000076c       $unwind$general_allocate_string 00000000000ec7ac     OpensslLib:ui_lib.obj
 0005:0000076c       $unwind$copy_email         00000000000ec7ac     OpensslLib:v3_alt.obj
 0005:0000076c       $unwind$do_dirname         00000000000ec7ac     OpensslLib:v3_alt.obj
 0005:0000076c       $unwind$v2i_GENERAL_NAMES  00000000000ec7ac     OpensslLib:v3_alt.obj
 0005:0000076c       $unwind$set_dist_point_name 00000000000ec7ac     OpensslLib:v3_crld.obj
 0005:0000076c       $unwind$sxnet_i2r          00000000000ec7ac     OpensslLib:v3_sxnet.obj
 0005:0000076c       $unwind$ssl3_setup_write_buffer 00000000000ec7ac     OpensslLib:ssl3_buffer.obj
 0005:0000076c       $unwind$ssl_cert_set0_chain 00000000000ec7ac     OpensslLib:ssl_cert.obj
 0005:0000076c       $unwind$construct_key_exchange_tbs 00000000000ec7ac     OpensslLib:statem_lib.obj
 0005:0000076c       $unwind$tls_process_cke_ecdhe 00000000000ec7ac     OpensslLib:statem_srvr.obj
 0005:0000076c       $unwind$tls1_save_u16      00000000000ec7ac     OpensslLib:t1_lib.obj
 0005:0000076c       $unwind$tls1_set_raw_sigalgs 00000000000ec7ac     OpensslLib:t1_lib.obj
 0005:0000076c       $unwind$tls1_set_sigalgs   00000000000ec7ac     OpensslLib:t1_lib.obj
 0005:00000784       $unwind$xname_cmp          00000000000ec7c4     OpensslLib:ssl_cert.obj
 0005:00000798       $unwind$BN_BLINDING_create_param 00000000000ec7d8     OpensslLib:bn_blind.obj
 0005:00000798       $unwind$pkey_dh_derive     00000000000ec7d8     OpensslLib:dh_pmeth.obj
 0005:00000798       $unwind$aes_wrap_cipher    00000000000ec7d8     OpensslLib:e_aes.obj
 0005:00000798       $unwind$RAND_DRBG_reseed   00000000000ec7d8     OpensslLib:drbg_lib.obj
 0005:00000798       $unwind$i2d_name_canon     00000000000ec7d8     OpensslLib:x_name.obj
 0005:00000798       $unwind$do_check_string    00000000000ec7d8     OpensslLib:v3_utl.obj
 0005:00000798       $unwind$SSL_add_file_cert_subjects_to_stack 00000000000ec7d8     OpensslLib:ssl_cert.obj
 0005:00000798       $unwind$tls_construct_cke_dhe 00000000000ec7d8     OpensslLib:statem_clnt.obj
 0005:00000798       $unwind$tls_construct_cke_ecdhe 00000000000ec7d8     OpensslLib:statem_clnt.obj
 0005:00000798       $unwind$tls1_set_server_sigalgs 00000000000ec7d8     OpensslLib:t1_lib.obj
 0005:000007ac       $unwind$ssl_build_cert_chain 00000000000ec7ec     OpensslLib:ssl_cert.obj
 0005:000007c4       $unwind$pkey_ecd_digestverify448 00000000000ec804     OpensslLib:ecx_meth.obj
 0005:000007c4       $unwind$pkey_tls1_prf_derive 00000000000ec804     OpensslLib:tls1_prf.obj
 0005:000007c4       $unwind$ssl_security       00000000000ec804     OpensslLib:ssl_cert.obj
 0005:000007c4       $unwind$tls_parse_ctos_psk_kex_modes 00000000000ec804     OpensslLib:extensions_srvr.obj
 0005:000007cc       $unwind$RECORD_LAYER_clear 00000000000ec80c     OpensslLib:rec_layer_s3.obj
 0005:000007d8       $unwind$bn_mul_fixed_top   00000000000ec818     OpensslLib:bn_mul.obj
 0005:000007d8       $unwind$OPENSSL_utf82uni   00000000000ec818     OpensslLib:p12_utl.obj
 0005:000007d8       $unwind$ssl3_read_n        00000000000ec818     OpensslLib:rec_layer_s3.obj
 0005:000007f4       $unwind$ssl3_write_bytes   00000000000ec834     OpensslLib:rec_layer_s3.obj
 0005:00000810       $unwind$do_ssl3_write      00000000000ec850     OpensslLib:rec_layer_s3.obj
 0005:00000828       $unwind$ssl3_write_pending 00000000000ec868     OpensslLib:rec_layer_s3.obj
 0005:00000828       $unwind$get_cert_verify_tbs_data 00000000000ec868     OpensslLib:statem_lib.obj
 0005:00000828       $unwind$tls_construct_server_hello 00000000000ec868     OpensslLib:statem_srvr.obj
 0005:0000083c       $unwind$ssl3_read_bytes    00000000000ec87c     OpensslLib:rec_layer_s3.obj
 0005:00000854       $unwind$ASN1_item_d2i_bio  00000000000ec894     OpensslLib:a_d2i_fp.obj
 0005:00000854       $unwind$BN_CTX_free        00000000000ec894     OpensslLib:bn_ctx.obj
 0005:00000854       $unwind$OPENSSL_LH_free    00000000000ec894     OpensslLib:lhash.obj
 0005:00000864       $unwind$OPENSSL_LH_insert  00000000000ec8a4     OpensslLib:lhash.obj
 0005:00000878       $unwind$OPENSSL_LH_delete  00000000000ec8b8     OpensslLib:lhash.obj
 0005:00000878       $unwind$cert_crl           00000000000ec8b8     OpensslLib:x509_vfy.obj
 0005:00000878       $unwind$check_leaf_suiteb  00000000000ec8b8     OpensslLib:x509_vfy.obj
 0005:00000878       $unwind$check_sig_alg_match 00000000000ec8b8     OpensslLib:v3_purp.obj
 0005:00000878       $unwind$ssl3_get_req_cert_type 00000000000ec8b8     OpensslLib:s3_lib.obj
 0005:00000878       $unwind$ssl_generate_pkey  00000000000ec8b8     OpensslLib:s3_lib.obj
 0005:00000888       $unwind$doall_util_fn      00000000000ec8c8     OpensslLib:lhash.obj
 0005:000008a0       $unwind$bn_mod_sub_fixed_top 00000000000ec8e0     OpensslLib:bn_mod.obj
 0005:000008a0       $unwind$idp_check_dp       00000000000ec8e0     OpensslLib:x509_vfy.obj
 0005:000008a0       $unwind$tls1_shared_group  00000000000ec8e0     OpensslLib:t1_lib.obj
 0005:000008b8       $unwind$tls1_set_groups_list 00000000000ec8f8     OpensslLib:t1_lib.obj
 0005:000008d8       $unwind$tls12_check_peer_sigalg 00000000000ec918     OpensslLib:t1_lib.obj
 0005:000008ec       $unwind$ssl_module_init    00000000000ec92c     OpensslLib:conf_ssl.obj
 0005:000008ec       $unwind$tls_decrypt_ticket 00000000000ec92c     OpensslLib:t1_lib.obj
 0005:00000904       $unwind$tls12_sigalg_allowed 00000000000ec944     OpensslLib:t1_lib.obj
 0005:0000091c       $unwind$pkey_rsa_sign      00000000000ec95c     OpensslLib:rsa_pmeth.obj
 0005:0000091c       $unwind$SXNET_add_id_INTEGER 00000000000ec95c     OpensslLib:v3_sxnet.obj
 0005:0000091c       $unwind$tls1_process_sigalgs 00000000000ec95c     OpensslLib:t1_lib.obj
 0005:00000934       $unwind$sig_cb             00000000000ec974     OpensslLib:t1_lib.obj
 0005:00000948       $unwind$tls1_set_sigalgs_list 00000000000ec988     OpensslLib:t1_lib.obj
 0005:00000954       $unwind$tls1_check_chain   00000000000ec994     OpensslLib:t1_lib.obj
 0005:0000096c       $unwind$ssl_security_cert  00000000000ec9ac     OpensslLib:t1_lib.obj
 0005:0000097c       $unwind$tls_choose_sigalg  00000000000ec9bc     OpensslLib:t1_lib.obj
 0005:00000994       $unwind$X509_NAME_cmp      00000000000ec9d4     OpensslLib:x509_cmp.obj
 0005:00000994       $unwind$ssl3_finish_mac    00000000000ec9d4     OpensslLib:s3_enc.obj
 0005:000009a0       $unwind$ASN1_STRING_TABLE_get 00000000000ec9e0     OpensslLib:a_strnid.obj
 0005:000009a0       $unwind$X509_NAME_hash     00000000000ec9e0     OpensslLib:x509_cmp.obj
 0005:000009a8       $unwind$int_rsa_verify     00000000000ec9e8     OpensslLib:rsa_sign.obj
 0005:000009a8       $unwind$ssl_do_config      00000000000ec9e8     OpensslLib:ssl_mcnf.obj
 0005:000009c4       $unwind$rand_drbg_get_entropy 00000000000eca04     OpensslLib:rand_lib.obj
 0005:000009d8       $unwind$pkey_ecx_derive25519 00000000000eca18     OpensslLib:ecx_meth.obj
 0005:000009d8       $unwind$pkey_ecx_derive448 00000000000eca18     OpensslLib:ecx_meth.obj
 0005:000009d8       $unwind$rsa_pkey_ctrl      00000000000eca18     OpensslLib:rsa_ameth.obj
 0005:000009d8       $unwind$ssl_check_for_safari 00000000000eca18     OpensslLib:statem_srvr.obj
 0005:000009e4       $unwind$tls_process_client_hello 00000000000eca24     OpensslLib:statem_srvr.obj
 0005:000009fc       $unwind$tls_early_post_process_client_hello 00000000000eca3c     OpensslLib:statem_srvr.obj
 0005:00000a14       $unwind$tls_handle_alpn    00000000000eca54     OpensslLib:statem_srvr.obj
 0005:00000a2c       $unwind$ec_curve_nid_from_params 00000000000eca6c     OpensslLib:ec_curve.obj
 0005:00000a2c       $unwind$tls_construct_server_key_exchange 00000000000eca6c     OpensslLib:statem_srvr.obj
 0005:00000a44       $unwind$tls_process_cke_psk_preamble 00000000000eca84     OpensslLib:statem_srvr.obj
 0005:00000a54       $unwind$tls_process_cke_rsa 00000000000eca94     OpensslLib:statem_srvr.obj
 0005:00000a6c       $unwind$tls_process_cke_dhe 00000000000ecaac     OpensslLib:statem_srvr.obj
 0005:00000a84       $unwind$asn1_collect       00000000000ecac4     OpensslLib:tasn_dec.obj
 0005:00000a84       $unwind$tls_process_client_certificate 00000000000ecac4     OpensslLib:statem_srvr.obj
 0005:00000a9c       $unwind$construct_stateless_ticket 00000000000ecadc     OpensslLib:statem_srvr.obj
 0005:00000ab4       $unwind$tls_construct_new_session_ticket 00000000000ecaf4     OpensslLib:statem_srvr.obj
 0005:00000ac8       $unwind$tls_parse_ctos_server_name 00000000000ecb08     OpensslLib:extensions_srvr.obj
 0005:00000ac8       $unwind$tls_process_next_proto 00000000000ecb08     OpensslLib:statem_srvr.obj
 0005:00000ad4       $unwind$ECDSA_size         00000000000ecb14     OpensslLib:ec_asn1.obj
 0005:00000ad4       $unwind$EC_GROUP_new_by_curve_name 00000000000ecb14     OpensslLib:ec_curve.obj
 0005:00000ad4       $unwind$X509_TRUST_get_by_id 00000000000ecb14     OpensslLib:x509_trs.obj
 0005:00000ad4       $unwind$X509_PURPOSE_get_by_id 00000000000ecb14     OpensslLib:v3_purp.obj
 0005:00000adc       $unwind$x509v3_cache_extensions 00000000000ecb1c     OpensslLib:v3_purp.obj
 0005:00000af4       $unwind$x509_name_ex_d2i   00000000000ecb34     OpensslLib:x_name.obj
 0005:00000b10       $unwind$x509_name_encode   00000000000ecb50     OpensslLib:x_name.obj
 0005:00000b28       $unwind$x509_name_canon    00000000000ecb68     OpensslLib:x_name.obj
 0005:00000b40       $unwind$X509_NAME_print    00000000000ecb80     OpensslLib:x_name.obj
 0005:00000b58       $unwind$custom_ext_parse   00000000000ecb98     OpensslLib:extensions_cust.obj
 0005:00000b6c       $unwind$ecdh_KDF_X9_63     00000000000ecbac     OpensslLib:ecdh_kdf.obj
 0005:00000b6c       $unwind$custom_ext_add     00000000000ecbac     OpensslLib:extensions_cust.obj
 0005:00000b84       $unwind$add_old_custom_ext 00000000000ecbc4     OpensslLib:extensions_cust.obj
 0005:00000b98       $unwind$OBJ_add_object     00000000000ecbd8     OpensslLib:obj_dat.obj
 0005:00000b98       $unwind$ssl3_get_cipher_by_std_name 00000000000ecbd8     OpensslLib:s3_lib.obj
 0005:00000bac       $unwind$OBJ_nid2ln         00000000000ecbec     OpensslLib:obj_dat.obj
 0005:00000bac       $unwind$OBJ_nid2obj        00000000000ecbec     OpensslLib:obj_dat.obj
 0005:00000bac       $unwind$OBJ_nid2sn         00000000000ecbec     OpensslLib:obj_dat.obj
 0005:00000bb4       $unwind$OBJ_obj2nid        00000000000ecbf4     OpensslLib:obj_dat.obj
 0005:00000bbc       $unwind$OBJ_txt2obj        00000000000ecbfc     OpensslLib:obj_dat.obj
 0005:00000bbc       $unwind$sxnet_v2i          00000000000ecbfc     OpensslLib:v3_sxnet.obj
 0005:00000bd0       $unwind$CRYPTO_ccm128_decrypt_ccm64 00000000000ecc10     OpensslLib:ccm128.obj
 0005:00000bd0       $unwind$CRYPTO_ccm128_encrypt_ccm64 00000000000ecc10     OpensslLib:ccm128.obj
 0005:00000bd0       $unwind$OBJ_obj2txt        00000000000ecc10     OpensslLib:obj_dat.obj
 0005:00000be8       $unwind$OBJ_ln2nid         00000000000ecc28     OpensslLib:obj_dat.obj
 0005:00000be8       $unwind$OBJ_sn2nid         00000000000ecc28     OpensslLib:obj_dat.obj
 0005:00000bf0       $unwind$get_and_lock       00000000000ecc30     OpensslLib:ex_data.obj
 0005:00000bf8       $unwind$CRYPTO_new_ex_data 00000000000ecc38     OpensslLib:ex_data.obj
 0005:00000c10       $unwind$CRYPTO_dup_ex_data 00000000000ecc50     OpensslLib:ex_data.obj
 0005:00000c2c       $unwind$CRYPTO_free_ex_data 00000000000ecc6c     OpensslLib:ex_data.obj
 0005:00000c48       $unwind$buffer_read        00000000000ecc88     OpensslLib:bf_buff.obj
 0005:00000c48       $unwind$buffer_write       00000000000ecc88     OpensslLib:bf_buff.obj
 0005:00000c60       $unwind$buffer_ctrl        00000000000ecca0     OpensslLib:bf_buff.obj
 0005:00000c78       $unwind$get_cert_by_subject 00000000000eccb8     OpensslLib:by_dir.obj
 0005:00000c90       $unwind$tls13_hkdf_expand  00000000000eccd0     OpensslLib:tls13_enc.obj
 0005:00000cb0       $unwind$tls13_generate_secret 00000000000eccf0     OpensslLib:tls13_enc.obj
 0005:00000cd0       $unwind$tls13_final_finish_mac 00000000000ecd10     OpensslLib:tls13_enc.obj
 0005:00000cf0       $unwind$OBJ_find_sigid_by_algs 00000000000ecd30     OpensslLib:obj_xref.obj
 0005:00000cf0       $unwind$tls13_setup_key_block 00000000000ecd30     OpensslLib:tls13_enc.obj
 0005:00000cf8       $unwind$derive_secret_key_and_iv 00000000000ecd38     OpensslLib:tls13_enc.obj
 0005:00000d18       $unwind$tls13_change_cipher_state 00000000000ecd58     OpensslLib:tls13_enc.obj
 0005:00000d34       $unwind$table_select       00000000000ecd74     OpensslLib:curve25519.obj
 0005:00000d34       $unwind$tls13_update_key   00000000000ecd74     OpensslLib:tls13_enc.obj
 0005:00000d54       $unwind$tls13_export_keying_material 00000000000ecd94     OpensslLib:tls13_enc.obj
 0005:00000d74       $unwind$ssl3_do_write      00000000000ecdb4     OpensslLib:statem_lib.obj
 0005:00000d84       $unwind$tls_setup_handshake 00000000000ecdc4     OpensslLib:statem_lib.obj
 0005:00000d94       $unwind$tls_construct_cert_verify 00000000000ecdd4     OpensslLib:statem_lib.obj
 0005:00000dac       $unwind$tls_process_cert_verify 00000000000ecdec     OpensslLib:statem_lib.obj
 0005:00000dc8       $unwind$ssl_add_cert_to_wpacket 00000000000ece08     OpensslLib:statem_lib.obj
 0005:00000ddc       $unwind$tls_finish_handshake 00000000000ece1c     OpensslLib:statem_lib.obj
 0005:00000df8       $unwind$tls_get_message_header 00000000000ece38     OpensslLib:statem_lib.obj
 0005:00000e0c       $unwind$tls_get_message_body 00000000000ece4c     OpensslLib:statem_lib.obj
 0005:00000e20       $unwind$ssl_choose_server_version 00000000000ece60     OpensslLib:statem_lib.obj
 0005:00000e34       $unwind$ssl_choose_client_version 00000000000ece74     OpensslLib:statem_lib.obj
 0005:00000e44       $unwind$ssl_get_min_max_version 00000000000ece84     OpensslLib:statem_lib.obj
 0005:00000e5c       $unwind$create_synthetic_message_hash 00000000000ece9c     OpensslLib:statem_lib.obj
 0005:00000e6c       $unwind$parse_ca_names     00000000000eceac     OpensslLib:statem_lib.obj
 0005:00000e84       $unwind$compute_key        00000000000ecec4     OpensslLib:dh_key.obj
 0005:00000e84       $unwind$tls_construct_ctos_status_request 00000000000ecec4     OpensslLib:extensions_clnt.obj
 0005:00000e84       $unwind$construct_ca_names 00000000000ecec4     OpensslLib:statem_lib.obj
 0005:00000e9c       $unwind$ASN1_STRING_set_by_NID 00000000000ecedc     OpensslLib:a_strnid.obj
 0005:00000e9c       $unwind$aes_cfb_cipher     00000000000ecedc     OpensslLib:e_aes.obj
 0005:00000e9c       $unwind$aes_ofb_cipher     00000000000ecedc     OpensslLib:e_aes.obj
 0005:00000e9c       $unwind$aria_ctr_cipher    00000000000ecedc     OpensslLib:e_aria.obj
 0005:00000e9c       $unwind$sm4_ctr_cipher     00000000000ecedc     OpensslLib:e_sm4.obj
 0005:00000e9c       $unwind$tls_construct_stoc_next_proto_neg 00000000000ecedc     OpensslLib:extensions_srvr.obj
 0005:00000ea8       $unwind$ASN1_item_verify   00000000000ecee8     OpensslLib:a_verify.obj
 0005:00000ea8       $unwind$ASN1_bn_print      00000000000ecee8     OpensslLib:t_pkey.obj
 0005:00000ea8       $unwind$aes_cfb1_cipher    00000000000ecee8     OpensslLib:e_aes.obj
 0005:00000ea8       $unwind$aria_128_ofb_cipher 00000000000ecee8     OpensslLib:e_aria.obj
 0005:00000ea8       $unwind$aria_192_ofb_cipher 00000000000ecee8     OpensslLib:e_aria.obj
 0005:00000ea8       $unwind$aria_256_ofb_cipher 00000000000ecee8     OpensslLib:e_aria.obj
 0005:00000ea8       $unwind$sm4_ofb_cipher     00000000000ecee8     OpensslLib:e_sm4.obj
 0005:00000ea8       $unwind$tls1_prf_alg       00000000000ecee8     OpensslLib:tls1_prf.obj
 0005:00000ea8       $unwind$policy_cache_set_mapping 00000000000ecee8     OpensslLib:pcy_map.obj
 0005:00000ea8       $unwind$policy_section     00000000000ecee8     OpensslLib:v3_cpols.obj
 0005:00000ea8       $unwind$r2i_certpol        00000000000ecee8     OpensslLib:v3_cpols.obj
 0005:00000ea8       $unwind$v2i_idp            00000000000ecee8     OpensslLib:v3_crld.obj
 0005:00000ea8       $unwind$v2i_POLICY_MAPPINGS 00000000000ecee8     OpensslLib:v3_pmaps.obj
 0005:00000ea8       $unwind$v2i_TLS_FEATURE    00000000000ecee8     OpensslLib:v3_tlsf.obj
 0005:00000ec4       $unwind$aes_gcm_ctrl       00000000000ecf04     OpensslLib:e_aes.obj
 0005:00000ec4       $unwind$aria_gcm_ctrl      00000000000ecf04     OpensslLib:e_aria.obj
 0005:00000edc       $unwind$ctrl               00000000000ecf1c     OpensslLib:m_sha1.obj
 0005:00000eec       $unwind$dh_priv_encode     00000000000ecf2c     OpensslLib:dh_ameth.obj
 0005:00000eec       $unwind$aria_128_cfb128_cipher 00000000000ecf2c     OpensslLib:e_aria.obj
 0005:00000eec       $unwind$aria_192_cfb128_cipher 00000000000ecf2c     OpensslLib:e_aria.obj
 0005:00000eec       $unwind$aria_256_cfb128_cipher 00000000000ecf2c     OpensslLib:e_aria.obj
 0005:00000eec       $unwind$sm4_cfb128_cipher  00000000000ecf2c     OpensslLib:e_sm4.obj
 0005:00000eec       $unwind$v2i_BASIC_CONSTRAINTS 00000000000ecf2c     OpensslLib:v3_bcons.obj
 0005:00000eec       $unwind$v2i_POLICY_CONSTRAINTS 00000000000ecf2c     OpensslLib:v3_pcons.obj
 0005:00000f00       $unwind$aria_encrypt       00000000000ecf40     OpensslLib:aria.obj
 0005:00000f00       $unwind$bn2binpad          00000000000ecf40     OpensslLib:bn_lib.obj
 0005:00000f00       $unwind$aria_128_cfb1_cipher 00000000000ecf40     OpensslLib:e_aria.obj
 0005:00000f00       $unwind$aria_128_cfb8_cipher 00000000000ecf40     OpensslLib:e_aria.obj
 0005:00000f00       $unwind$aria_192_cfb1_cipher 00000000000ecf40     OpensslLib:e_aria.obj
 0005:00000f00       $unwind$aria_192_cfb8_cipher 00000000000ecf40     OpensslLib:e_aria.obj
 0005:00000f00       $unwind$aria_256_cfb1_cipher 00000000000ecf40     OpensslLib:e_aria.obj
 0005:00000f00       $unwind$aria_256_cfb8_cipher 00000000000ecf40     OpensslLib:e_aria.obj
 0005:00000f00       $unwind$pkey_rsa_encrypt   00000000000ecf40     OpensslLib:rsa_pmeth.obj
 0005:00000f00       $unwind$RSA_sign           00000000000ecf40     OpensslLib:rsa_sign.obj
 0005:00000f00       $unwind$a2i_GENERAL_NAME   00000000000ecf40     OpensslLib:v3_alt.obj
 0005:00000f00       $unwind$v2i_EXTENDED_KEY_USAGE 00000000000ecf40     OpensslLib:v3_extku.obj
 0005:00000f18       $unwind$ctrl               00000000000ecf58     OpensslLib:m_md5_sha1.obj
 0005:00000f30       $unwind$ossl_init_get_thread_local 00000000000ecf70     OpensslLib:init.obj
 0005:00000f38       $unwind$do_dtls1_write     00000000000ecf78     OpensslLib:rec_layer_d1.obj
 0005:00000f54       $unwind$bn_print           00000000000ecf94     OpensslLib:x_bignum.obj
 0005:00000f54       $unwind$X509V3_parse_list  00000000000ecf94     OpensslLib:v3_utl.obj
 0005:00000f54       $unwind$ssl3_ctrl          00000000000ecf94     OpensslLib:s3_lib.obj
 0005:00000f6c       $unwind$ssl3_ctx_ctrl      00000000000ecfac     OpensslLib:s3_lib.obj
 0005:00000f80       $unwind$ssl3_get_cipher_by_id 00000000000ecfc0     OpensslLib:s3_lib.obj
 0005:00000f88       $unwind$ssl3_choose_cipher 00000000000ecfc8     OpensslLib:s3_lib.obj
 0005:00000f88       $unwind$ssl_cipher_list_to_bytes 00000000000ecfc8     OpensslLib:statem_clnt.obj
 0005:00000fa0       $unwind$EC_GROUP_cmp       00000000000ecfe0     OpensslLib:ec_lib.obj
 0005:00000fa0       $unwind$ssl_generate_master_secret 00000000000ecfe0     OpensslLib:s3_lib.obj
 0005:00000fb8       $unwind$ssl_generate_pkey_group 00000000000ecff8     OpensslLib:s3_lib.obj
 0005:00000fcc       $unwind$dh_pub_encode      00000000000ed00c     OpensslLib:dh_ameth.obj
 0005:00000fcc       $unwind$ssl_derive         00000000000ed00c     OpensslLib:s3_lib.obj
 0005:00000fe0       $unwind$ssl3_dispatch_alert 00000000000ed020     OpensslLib:s3_msg.obj
 0005:00000fec       $unwind$crl_cb             00000000000ed02c     OpensslLib:x_crl.obj
 0005:00001004       $unwind$def_crl_lookup     00000000000ed044     OpensslLib:x_crl.obj
 0005:0000101c       $unwind$find_issuer        00000000000ed05c     OpensslLib:x509_vfy.obj
 0005:00001034       $unwind$rsa_multip_calc_product 00000000000ed074     OpensslLib:rsa_mp.obj
 0005:00001034       $unwind$check_chain_extensions 00000000000ed074     OpensslLib:x509_vfy.obj
 0005:0000104c       $unwind$CRYPTO_gcm128_decrypt 00000000000ed08c     OpensslLib:gcm128.obj
 0005:0000104c       $unwind$CRYPTO_gcm128_encrypt 00000000000ed08c     OpensslLib:gcm128.obj
 0005:0000104c       $unwind$CRYPTO_gcm128_setiv 00000000000ed08c     OpensslLib:gcm128.obj
 0005:0000104c       $unwind$check_dane_pkeys   00000000000ed08c     OpensslLib:x509_vfy.obj
 0005:0000104c       $unwind$check_trust        00000000000ed08c     OpensslLib:x509_vfy.obj
 0005:0000104c       $unwind$tree_calculate_authority_set 00000000000ed08c     OpensslLib:pcy_tree.obj
 0005:0000104c       $unwind$tls_validate_all_contexts 00000000000ed08c     OpensslLib:extensions.obj
 0005:00001068       $unwind$check_cert         00000000000ed0a8     OpensslLib:x509_vfy.obj
 0005:0000107c       $unwind$get_crl_sk         00000000000ed0bc     OpensslLib:x509_vfy.obj
 0005:00001094       $unwind$check_crl_path     00000000000ed0d4     OpensslLib:x509_vfy.obj
 0005:000010a4       $unwind$crl_crldp_check    00000000000ed0e4     OpensslLib:x509_vfy.obj
 0005:000010bc       $unwind$X509_cmp_time      00000000000ed0fc     OpensslLib:x509_vfy.obj
 0005:000010cc       $unwind$bn_mod_add_fixed_top 00000000000ed10c     OpensslLib:bn_mod.obj
 0005:000010cc       $unwind$dane_match         00000000000ed10c     OpensslLib:x509_vfy.obj
 0005:000010e8       $unwind$build_chain        00000000000ed128     OpensslLib:x509_vfy.obj
 0005:00001100       $unwind$EVP_PKEY_asn1_find 00000000000ed140     OpensslLib:ameth_lib.obj
 0005:0000110c       $unwind$i2d_SSL_SESSION    00000000000ed14c     OpensslLib:ssl_asn1.obj
 0005:00001120       $unwind$d2i_PrivateKey     00000000000ed160     OpensslLib:d2i_pr.obj
 0005:00001120       $unwind$d2i_SSL_SESSION    00000000000ed160     OpensslLib:ssl_asn1.obj
 0005:00001134       $unwind$PEM_ASN1_read_bio  00000000000ed174     OpensslLib:pem_oth.obj
 0005:00001144       $unwind$pem_bytes_read_bio_flags 00000000000ed184     OpensslLib:pem_lib.obj
 0005:00001160       $unwind$get_header_and_data 00000000000ed1a0     OpensslLib:pem_lib.obj
 0005:00001178       $unwind$PEM_read_bio_ex    00000000000ed1b8     OpensslLib:pem_lib.obj
 0005:00001190       $unwind$BN_is_prime_fasttest_ex 00000000000ed1d0     OpensslLib:bn_prime.obj
 0005:00001190       $unwind$BN_mod_sqrt        00000000000ed1d0     OpensslLib:bn_sqrt.obj
 0005:00001190       $unwind$do_x509_check      00000000000ed1d0     OpensslLib:v3_utl.obj
 0005:00001190       $unwind$tls_collect_extensions 00000000000ed1d0     OpensslLib:extensions.obj
 0005:000011a8       $unwind$tls_parse_extension 00000000000ed1e8     OpensslLib:extensions.obj
 0005:000011bc       $unwind$tls_construct_extensions 00000000000ed1fc     OpensslLib:extensions.obj
 0005:000011d8       $unwind$final_server_name  00000000000ed218     OpensslLib:extensions.obj
 0005:000011ec       $unwind$final_key_share    00000000000ed22c     OpensslLib:extensions.obj
 0005:00001200       $unwind$BN_mod_exp_recp    00000000000ed240     OpensslLib:bn_exp.obj
 0005:00001200       $unwind$tls_psk_do_binder  00000000000ed240     OpensslLib:extensions.obj
 0005:0000121c       $unwind$uint32_i2c         00000000000ed25c     OpensslLib:x_int64.obj
 0005:0000121c       $unwind$X509_verify        00000000000ed25c     OpensslLib:x_all.obj
 0005:0000121c       $unwind$WPACKET_start_sub_packet_len__ 00000000000ed25c     OpensslLib:packet.obj
 0005:0000121c       $unwind$ssl3_digest_cached_records 00000000000ed25c     OpensslLib:s3_enc.obj
 0005:0000121c       $unwind$tls_construct_ctos_padding 00000000000ed25c     OpensslLib:extensions_clnt.obj
 0005:0000121c       $unwind$tls_parse_stoc_alpn 00000000000ed25c     OpensslLib:extensions_clnt.obj
 0005:0000121c       $unwind$tls_construct_next_proto 00000000000ed25c     OpensslLib:statem_clnt.obj
 0005:0000121c       $unwind$tls_process_as_hello_retry_request 00000000000ed25c     OpensslLib:statem_clnt.obj
 0005:0000122c       $unwind$PEM_read_bio_PrivateKey 00000000000ed26c     OpensslLib:pem_pkey.obj
 0005:00001248       $unwind$PEM_read_bio_DHparams 00000000000ed288     OpensslLib:pem_pkey.obj
 0005:00001258       $unwind$RSA_new_method     00000000000ed298     OpensslLib:rsa_lib.obj
 0005:00001264       $unwind$ASN1_STRING_to_UTF8 00000000000ed2a4     OpensslLib:a_strex.obj
 0005:00001264       $unwind$ASN1_item_d2i      00000000000ed2a4     OpensslLib:tasn_dec.obj
 0005:0000126c       $unwind$stbl_module_init   00000000000ed2ac     OpensslLib:asn_mstbl.obj
 0005:0000126c       $unwind$ASN1_item_ex_d2i   00000000000ed2ac     OpensslLib:tasn_dec.obj
 0005:0000126c       $unwind$ctr_BCC_blocks     00000000000ed2ac     OpensslLib:drbg_ctr.obj
 0005:0000127c       $unwind$asn1_item_embed_d2i 00000000000ed2bc     OpensslLib:tasn_dec.obj
 0005:00001294       $unwind$asn1_template_ex_d2i 00000000000ed2d4     OpensslLib:tasn_dec.obj
 0005:000012ac       $unwind$asn1_template_noexp_d2i 00000000000ed2ec     OpensslLib:tasn_dec.obj
 0005:000012c4       $unwind$asn1_d2i_ex_primitive 00000000000ed304     OpensslLib:tasn_dec.obj
 0005:000012e4       $unwind$asn1_ex_c2i        00000000000ed324     OpensslLib:tasn_dec.obj
 0005:000012e4       $unwind$ec_GFp_simple_point2oct 00000000000ed324     OpensslLib:ecp_oct.obj
 0005:000012e4       $unwind$ec_GFp_simple_set_compressed_coordinates 00000000000ed324     OpensslLib:ecp_oct.obj
 0005:000012e4       $unwind$pkey_rsa_print     00000000000ed324     OpensslLib:rsa_ameth.obj
 0005:00001300       $unwind$asn1_find_end      00000000000ed340     OpensslLib:tasn_dec.obj
 0005:00001310       $unwind$asn1_check_tlen    00000000000ed350     OpensslLib:tasn_dec.obj
 0005:00001310       $unwind$sha1_block_data_order 00000000000ed350     OpensslLib:sha1dgst.obj
 0005:0000132c       $unwind$c2i_ASN1_BIT_STRING 00000000000ed36c     OpensslLib:a_bitstr.obj
 0005:0000132c       $unwind$v2i_crld           00000000000ed36c     OpensslLib:v3_crld.obj
 0005:00001348       $unwind$print_distpoint    00000000000ed388     OpensslLib:v3_crld.obj
 0005:00001348       $unwind$tls_parse_ctos_alpn 00000000000ed388     OpensslLib:extensions_srvr.obj
 0005:00001350       $unwind$asn1_primitive_new 00000000000ed390     OpensslLib:tasn_new.obj
 0005:00001364       $unwind$policy_cache_new   00000000000ed3a4     OpensslLib:pcy_cache.obj
 0005:00001378       $unwind$v2i_NAME_CONSTRAINTS 00000000000ed3b8     OpensslLib:v3_ncons.obj
 0005:00001390       $unwind$NAME_CONSTRAINTS_check_CN 00000000000ed3d0     OpensslLib:v3_ncons.obj
 0005:000013a8       $unwind$nc_match_single    00000000000ed3e8     OpensslLib:v3_ncons.obj
 0005:000013b8       $unwind$asn1_item_embed_free 00000000000ed3f8     OpensslLib:tasn_fre.obj
 0005:000013d0       $unwind$asn1_template_free 00000000000ed410     OpensslLib:tasn_fre.obj
 0005:000013e4       $unwind$asn1_item_flags_i2d 00000000000ed424     OpensslLib:tasn_enc.obj
 0005:000013f4       $unwind$ASN1_item_ex_i2d   00000000000ed434     OpensslLib:tasn_enc.obj
 0005:000013f4       $unwind$dtls1_do_write     00000000000ed434     OpensslLib:statem_dtls.obj
 0005:00001410       $unwind$asn1_template_ex_i2d 00000000000ed450     OpensslLib:tasn_enc.obj
 0005:0000142c       $unwind$asn1_set_seq_out   00000000000ed46c     OpensslLib:tasn_enc.obj
 0005:00001448       $unwind$asn1_i2d_ex_primitive 00000000000ed488     OpensslLib:tasn_enc.obj
 0005:00001460       $unwind$a2d_ASN1_OBJECT    00000000000ed4a0     OpensslLib:a_object.obj
 0005:00001478       $unwind$i2a_ASN1_OBJECT    00000000000ed4b8     OpensslLib:a_object.obj
 0005:0000148c       $unwind$d2i_ASN1_OBJECT    00000000000ed4cc     OpensslLib:a_object.obj
 0005:00001494       $unwind$c2i_ASN1_OBJECT    00000000000ed4d4     OpensslLib:a_object.obj
 0005:00001494       $unwind$BN_nist_mod_256    00000000000ed4d4     OpensslLib:bn_nist.obj
 0005:00001494       $unwind$ec_GFp_simple_dbl  00000000000ed4d4     OpensslLib:ecp_smpl.obj
 0005:00001494       $unwind$tree_calculate_user_set 00000000000ed4d4     OpensslLib:pcy_tree.obj
 0005:000014b0       $unwind$s2i_ASN1_INTEGER   00000000000ed4f0     OpensslLib:v3_utl.obj
 0005:000014c0       $unwind$OBJ_find_sigid_algs 00000000000ed500     OpensslLib:obj_xref.obj
 0005:000014c0       $unwind$drbg_ctr_reseed    00000000000ed500     OpensslLib:drbg_ctr.obj
 0005:000014c0       $unwind$X509V3_get_value_int 00000000000ed500     OpensslLib:v3_utl.obj
 0005:000014c0       $unwind$tls_parse_stoc_cookie 00000000000ed500     OpensslLib:extensions_clnt.obj
 0005:000014c0       $unwind$tls_parse_stoc_supported_versions 00000000000ed500     OpensslLib:extensions_clnt.obj
 0005:000014c0       $unwind$tls_parse_ctos_supported_groups 00000000000ed500     OpensslLib:extensions_srvr.obj
 0005:000014cc       $unwind$wildcard_match     00000000000ed50c     OpensslLib:v3_utl.obj
 0005:000014e8       $unwind$ipv4_from_asc      00000000000ed528     OpensslLib:v3_utl.obj
 0005:000014f0       $unwind$ipv6_from_asc      00000000000ed530     OpensslLib:v3_utl.obj
 0005:00001500       $unwind$tls_construct_client_hello 00000000000ed540     OpensslLib:statem_clnt.obj
 0005:00001518       $unwind$asn1_time_to_tm    00000000000ed558     OpensslLib:a_time.obj
 0005:00001518       $unwind$tls_process_server_hello 00000000000ed558     OpensslLib:statem_clnt.obj
 0005:00001530       $unwind$tls_process_server_certificate 00000000000ed570     OpensslLib:statem_clnt.obj
 0005:00001548       $unwind$tls_process_ske_psk_preamble 00000000000ed588     OpensslLib:statem_clnt.obj
 0005:00001558       $unwind$r2i_pci            00000000000ed598     OpensslLib:v3_pci.obj
 0005:00001558       $unwind$tls_process_ske_dhe 00000000000ed598     OpensslLib:statem_clnt.obj
 0005:00001570       $unwind$tls_process_ske_ecdhe 00000000000ed5b0     OpensslLib:statem_clnt.obj
 0005:00001584       $unwind$tls_process_key_exchange 00000000000ed5c4     OpensslLib:statem_clnt.obj
 0005:00001598       $unwind$tls13_enc          00000000000ed5d8     OpensslLib:ssl3_record_tls13.obj
 0005:00001598       $unwind$tls_process_new_session_ticket 00000000000ed5d8     OpensslLib:statem_clnt.obj
 0005:000015b0       $unwind$asn1_string_get_int64 00000000000ed5f0     OpensslLib:a_int.obj
 0005:000015b0       $unwind$ec_pkey_ctrl       00000000000ed5f0     OpensslLib:ec_ameth.obj
 0005:000015b0       $unwind$tls_process_cert_status_body 00000000000ed5f0     OpensslLib:statem_clnt.obj
 0005:000015c0       $unwind$tls_construct_cke_psk_preamble 00000000000ed600     OpensslLib:statem_clnt.obj
 0005:000015e0       $unwind$tls_construct_cke_rsa 00000000000ed620     OpensslLib:statem_clnt.obj
 0005:000015f4       $unwind$tls_prepare_client_certificate 00000000000ed634     OpensslLib:statem_clnt.obj
 0005:0000160c       $unwind$OPENSSL_gmtime_diff 00000000000ed64c     OpensslLib:o_time.obj
 0005:0000160c       $unwind$tls_process_encrypted_extensions 00000000000ed64c     OpensslLib:statem_clnt.obj
 0005:0000161c       $unwind$dtls_get_message   00000000000ed65c     OpensslLib:statem_dtls.obj
 0005:00001630       $unwind$dtls1_reassemble_fragment 00000000000ed670     OpensslLib:statem_dtls.obj
 0005:00001648       $unwind$dtls1_process_out_of_seq_message 00000000000ed688     OpensslLib:statem_dtls.obj
 0005:00001660       $unwind$dtls_get_reassembled_message 00000000000ed6a0     OpensslLib:statem_dtls.obj
 0005:0000167c       $unwind$int_ctx_new        00000000000ed6bc     OpensslLib:pmeth_lib.obj
 0005:00001690       $unwind$ssl3_get_record    00000000000ed6d0     OpensslLib:ssl3_record.obj
 0005:000016a8       $unwind$tls1_enc           00000000000ed6e8     OpensslLib:ssl3_record.obj
 0005:000016c4       $unwind$tls1_mac           00000000000ed704     OpensslLib:ssl3_record.obj
 0005:000016e0       $unwind$tls1_cbc_remove_padding 00000000000ed720     OpensslLib:ssl3_record.obj
 0005:000016f0       $unwind$ssl3_cbc_copy_mac  00000000000ed730     OpensslLib:ssl3_record.obj
 0005:0000170c       $unwind$tls1_change_cipher_state 00000000000ed74c     OpensslLib:t1_enc.obj
 0005:00001724       $unwind$tls1_setup_key_block 00000000000ed764     OpensslLib:t1_enc.obj
 0005:00001734       $unwind$tls1_final_finish_mac 00000000000ed774     OpensslLib:t1_enc.obj
 0005:0000174c       $unwind$tls1_generate_master_secret 00000000000ed78c     OpensslLib:t1_enc.obj
 0005:00001764       $unwind$tls1_export_keying_material 00000000000ed7a4     OpensslLib:t1_enc.obj
 0005:0000177c       $unwind$EC_POINT_mul       00000000000ed7bc     OpensslLib:ec_lib.obj
 0005:00001794       $unwind$HMAC_Init_ex       00000000000ed7d4     OpensslLib:hmac.obj
 0005:000017b4       $unwind$HMAC_Final         00000000000ed7f4     OpensslLib:hmac.obj
 0005:000017c4       $unwind$BN_consttime_swap  00000000000ed804     OpensslLib:bn_lib.obj
 0005:000017d0       $unwind$ec_group_new_from_data 00000000000ed810     OpensslLib:ec_curve.obj
 0005:000017e8       $unwind$i2v_AUTHORITY_INFO_ACCESS 00000000000ed828     OpensslLib:v3_info.obj
 0005:00001804       $unwind$v2i_AUTHORITY_INFO_ACCESS 00000000000ed844     OpensslLib:v3_info.obj
 0005:00001820       $unwind$X509_NAME_oneline  00000000000ed860     OpensslLib:x509_obj.obj
 0005:0000183c       $unwind$i2c_ibuf           00000000000ed87c     OpensslLib:a_int.obj
 0005:0000183c       $unwind$ASN1_put_object    00000000000ed87c     OpensslLib:asn1_lib.obj
 0005:0000183c       $unwind$make_kn            00000000000ed87c     OpensslLib:cmac.obj
 0005:0000183c       $unwind$gf_mulw_unsigned   00000000000ed87c     OpensslLib:f_impl.obj
 0005:0000183c       $unwind$sc_subx            00000000000ed87c     OpensslLib:scalar.obj
 0005:0000183c       $unwind$gcm_gmult_4bit     00000000000ed87c     OpensslLib:gcm128.obj
 0005:0000183c       $unwind$julian_to_date     00000000000ed87c     OpensslLib:o_time.obj
 0005:0000183c       $unwind$SipHash_Final      00000000000ed87c     OpensslLib:siphash.obj
 0005:0000184c       $unwind$c2i_ASN1_INTEGER   00000000000ed88c     OpensslLib:a_int.obj
 0005:00001860       $unwind$asn1_time_from_tm  00000000000ed8a0     OpensslLib:a_time.obj
 0005:00001878       $unwind$ASN1_TIME_adj      00000000000ed8b8     OpensslLib:a_time.obj
 0005:00001880       $unwind$ASN1_TIME_diff     00000000000ed8c0     OpensslLib:a_time.obj
 0005:00001894       $unwind$ASN1_TIME_print    00000000000ed8d4     OpensslLib:a_time.obj
 0005:000018ac       $unwind$cmd_Groups         00000000000ed8ec     OpensslLib:ssl_conf.obj
 0005:000018b8       $unwind$SSL_CONF_cmd       00000000000ed8f8     OpensslLib:ssl_conf.obj
 0005:000018cc       $unwind$RandGetBytes       00000000000ed90c     OpensslLib:rand_pool.obj
 0005:000018dc       $unwind$RAND_DRBG_instantiate 00000000000ed91c     OpensslLib:drbg_lib.obj
 0005:000018f0       $unwind$drbg_add           00000000000ed930     OpensslLib:drbg_lib.obj
 0005:00001900       $unwind$RAND_DRBG_get0_private 00000000000ed940     OpensslLib:drbg_lib.obj
 0005:00001910       $unwind$ASN1_TYPE_set      00000000000ed950     OpensslLib:a_type.obj
 0005:0000191c       $unwind$CMAC_Init          00000000000ed95c     OpensslLib:cmac.obj
 0005:00001934       $unwind$do_sigver_init     00000000000ed974     OpensslLib:m_sigver.obj
 0005:00001948       $unwind$EVP_DigestSignFinal 00000000000ed988     OpensslLib:m_sigver.obj
 0005:00001948       $unwind$EVP_DigestVerifyFinal 00000000000ed988     OpensslLib:m_sigver.obj
 0005:00001960       $unwind$do_esc_char        00000000000ed9a0     OpensslLib:a_strex.obj
 0005:00001968       $unwind$do_buf             00000000000ed9a8     OpensslLib:a_strex.obj
 0005:00001980       $unwind$do_hex_dump        00000000000ed9c0     OpensslLib:a_strex.obj
 0005:00001994       $unwind$do_dump            00000000000ed9d4     OpensslLib:a_strex.obj
 0005:000019a4       $unwind$do_print_ex        00000000000ed9e4     OpensslLib:a_strex.obj
 0005:000019bc       $unwind$do_indent          00000000000ed9fc     OpensslLib:a_strex.obj
 0005:000019cc       $unwind$do_name_ex         00000000000eda0c     OpensslLib:a_strex.obj
 0005:000019e8       $unwind$BN_dec2bn          00000000000eda28     OpensslLib:bn_print.obj
 0005:00001a00       $unwind$EVP_PBE_CipherInit 00000000000eda40     OpensslLib:evp_pbe.obj
 0005:00001a18       $unwind$CRYPTO_xts128_encrypt 00000000000eda58     OpensslLib:xts128.obj
 0005:00001a34       $unwind$AES_set_encrypt_key 00000000000eda74     OpensslLib:aes_core.obj
 0005:00001a50       $unwind$AES_decrypt        00000000000eda90     OpensslLib:aes_core.obj
 0005:00001a50       $unwind$AES_encrypt        00000000000eda90     OpensslLib:aes_core.obj
 0005:00001a6c       $unwind$CRYPTO_ccm128_encrypt 00000000000edaac     OpensslLib:ccm128.obj
 0005:00001a84       $unwind$CRYPTO_ccm128_decrypt 00000000000edac4     OpensslLib:ccm128.obj
 0005:00001a84       $unwind$tree_link_any      00000000000edac4     OpensslLib:pcy_tree.obj
 0005:00001a9c       $unwind$CRYPTO_cbc128_encrypt 00000000000edadc     OpensslLib:cbc128.obj
 0005:00001ab4       $unwind$CRYPTO_cbc128_decrypt 00000000000edaf4     OpensslLib:cbc128.obj
 0005:00001acc       $unwind$CRYPTO_128_wrap    00000000000edb0c     OpensslLib:wrap128.obj
 0005:00001ae8       $unwind$crypto_128_unwrap_raw 00000000000edb28     OpensslLib:wrap128.obj
 0005:00001b00       $unwind$CRYPTO_128_unwrap_pad 00000000000edb40     OpensslLib:wrap128.obj
 0005:00001b18       $unwind$BN_gcd             00000000000edb58     OpensslLib:bn_gcd.obj
 0005:00001b18       $unwind$ec_GFp_simple_oct2point 00000000000edb58     OpensslLib:ecp_oct.obj
 0005:00001b18       $unwind$ec_GFp_simple_ladder_pre 00000000000edb58     OpensslLib:ecp_smpl.obj
 0005:00001b18       $unwind$CRYPTO_ctr128_encrypt_ctr32 00000000000edb58     OpensslLib:ctr128.obj
 0005:00001b18       $unwind$print_qualifiers   00000000000edb58     OpensslLib:v3_cpols.obj
 0005:00001b30       $unwind$ge_p2_dbl          00000000000edb70     OpensslLib:curve25519.obj
 0005:00001b30       $unwind$PKCS5_v2_PBE_keyivgen 00000000000edb70     OpensslLib:p5_crpt2.obj
 0005:00001b30       $unwind$cfbr_encrypt_block 00000000000edb70     OpensslLib:cfb128.obj
 0005:00001b48       $unwind$CRYPTO_cfb128_1_encrypt 00000000000edb88     OpensslLib:cfb128.obj
 0005:00001b60       $unwind$CRYPTO_cfb128_8_encrypt 00000000000edba0     OpensslLib:cfb128.obj
 0005:00001b7c       $unwind$sha256_block_data_order 00000000000edbbc     OpensslLib:sha256.obj
 0005:00001b94       $unwind$sha512_block_data_order 00000000000edbd4     OpensslLib:sha512.obj
 0005:00001bac       $unwind$rotnr              00000000000edbec     OpensslLib:aria.obj
 0005:00001bb8       $unwind$FO                 00000000000edbf8     OpensslLib:aria.obj
 0005:00001bb8       $unwind$rsa_priv_decode    00000000000edbf8     OpensslLib:rsa_ameth.obj
 0005:00001bb8       $unwind$rsa_pub_decode     00000000000edbf8     OpensslLib:rsa_ameth.obj
 0005:00001bc8       $unwind$aria_set_encrypt_key 00000000000edc08     OpensslLib:aria.obj
 0005:00001bec       $unwind$aria_set_decrypt_key 00000000000edc2c     OpensslLib:aria.obj
 0005:00001c04       $unwind$md5_block_data_order 00000000000edc44     OpensslLib:md5_dgst.obj
 0005:00001c1c       $unwind$RSA_check_key_ex   00000000000edc5c     OpensslLib:rsa_chk.obj
 0005:00001c1c       $unwind$tree_init          00000000000edc5c     OpensslLib:pcy_tree.obj
 0005:00001c34       $unwind$rsa_ossl_public_encrypt 00000000000edc74     OpensslLib:rsa_ossl.obj
 0005:00001c34       $unwind$RSA_padding_add_PKCS1_PSS_mgf1 00000000000edc74     OpensslLib:rsa_pss.obj
 0005:00001c34       $unwind$tree_link_nodes    00000000000edc74     OpensslLib:pcy_tree.obj
 0005:00001c4c       $unwind$X509_policy_tree_free 00000000000edc8c     OpensslLib:pcy_tree.obj
 0005:00001c5c       $unwind$X509_policy_check  00000000000edc9c     OpensslLib:pcy_tree.obj
 0005:00001c74       $unwind$ecx_key_op         00000000000edcb4     OpensslLib:ecx_meth.obj
 0005:00001c94       $unwind$ecx_priv_decode    00000000000edcd4     OpensslLib:ecx_meth.obj
 0005:00001ca4       $unwind$ecx_priv_encode    00000000000edce4     OpensslLib:ecx_meth.obj
 0005:00001cb4       $unwind$dh_pub_decode      00000000000edcf4     OpensslLib:dh_ameth.obj
 0005:00001cb4       $unwind$eckey_pub_encode   00000000000edcf4     OpensslLib:ec_ameth.obj
 0005:00001cb4       $unwind$rsa_pub_encode     00000000000edcf4     OpensslLib:rsa_ameth.obj
 0005:00001cc4       $unwind$eckey_priv_decode  00000000000edd04     OpensslLib:ec_ameth.obj
 0005:00001cc4       $unwind$eckey_pub_decode   00000000000edd04     OpensslLib:ec_ameth.obj
 0005:00001cdc       $unwind$eckey_priv_encode  00000000000edd1c     OpensslLib:ec_ameth.obj
 0005:00001cf0       $unwind$do_EC_KEY_print    00000000000edd30     OpensslLib:ec_ameth.obj
 0005:00001d0c       $unwind$PKCS8_decrypt      00000000000edd4c     OpensslLib:p12_p8d.obj
 0005:00001d0c       $unwind$rsa_priv_encode    00000000000edd4c     OpensslLib:rsa_ameth.obj
 0005:00001d1c       $unwind$rsa_sig_print      00000000000edd5c     OpensslLib:rsa_ameth.obj
 0005:00001d30       $unwind$rsa_md_to_mgf1     00000000000edd70     OpensslLib:rsa_ameth.obj
 0005:00001d40       $unwind$rsa_ctx_to_pss_string 00000000000edd80     OpensslLib:rsa_ameth.obj
 0005:00001d50       $unwind$rsa_pss_to_ctx     00000000000edd90     OpensslLib:rsa_ameth.obj
 0005:00001d68       $unwind$rsa_pss_get_param  00000000000edda8     OpensslLib:rsa_ameth.obj
 0005:00001d80       $unwind$rsa_item_sign      00000000000eddc0     OpensslLib:rsa_ameth.obj
 0005:00001d90       $unwind$rsa_sig_info_set   00000000000eddd0     OpensslLib:rsa_ameth.obj
 0005:00001da0       $unwind$dh_priv_decode     00000000000edde0     OpensslLib:dh_ameth.obj
 0005:00001db4       $unwind$do_dh_print        00000000000eddf4     OpensslLib:dh_ameth.obj
 0005:00001dcc       $unwind$uint64_c2i         00000000000ede0c     OpensslLib:x_int64.obj
 0005:00001ddc       $unwind$uint32_c2i         00000000000ede1c     OpensslLib:x_int64.obj
 0005:00001df0       $unwind$EVP_DecodeUpdate   00000000000ede30     OpensslLib:encode.obj
 0005:00001e04       $unwind$fe_tobytes         00000000000ede44     OpensslLib:curve25519.obj
 0005:00001e04       $unwind$evp_decodeblock_int 00000000000ede44     OpensslLib:encode.obj
 0005:00001e20       $unwind$EVP_read_pw_string_min 00000000000ede60     OpensslLib:evp_key.obj
 0005:00001e3c       $unwind$bn_div_fixed_top   00000000000ede7c     OpensslLib:bn_div.obj
 0005:00001e3c       $unwind$EVP_BytesToKey     00000000000ede7c     OpensslLib:evp_key.obj
 0005:00001e54       $unwind$tls_construct_ctos_supported_groups 00000000000ede94     OpensslLib:extensions_clnt.obj
 0005:00001e6c       $unwind$tls_construct_ctos_sig_algs 00000000000edeac     OpensslLib:extensions_clnt.obj
 0005:00001e7c       $unwind$tls_construct_ctos_supported_versions 00000000000edebc     OpensslLib:extensions_clnt.obj
 0005:00001e8c       $unwind$tls_construct_ctos_key_share 00000000000edecc     OpensslLib:extensions_clnt.obj
 0005:00001ea4       $unwind$tls_construct_ctos_cookie 00000000000edee4     OpensslLib:extensions_clnt.obj
 0005:00001eb4       $unwind$tls_construct_ctos_early_data 00000000000edef4     OpensslLib:extensions_clnt.obj
 0005:00001ed0       $unwind$tls_construct_ctos_psk 00000000000edf10     OpensslLib:extensions_clnt.obj
 0005:00001eec       $unwind$tls_parse_stoc_npn 00000000000edf2c     OpensslLib:extensions_clnt.obj
 0005:00001ef8       $unwind$tls_parse_stoc_key_share 00000000000edf38     OpensslLib:extensions_clnt.obj
 0005:00001f08       $unwind$tls_parse_ctos_status_request 00000000000edf48     OpensslLib:extensions_srvr.obj
 0005:00001f20       $unwind$tls_parse_ctos_key_share 00000000000edf60     OpensslLib:extensions_srvr.obj
 0005:00001f38       $unwind$tls_parse_ctos_cookie 00000000000edf78     OpensslLib:extensions_srvr.obj
 0005:00001f58       $unwind$tls_parse_ctos_psk 00000000000edf98     OpensslLib:extensions_srvr.obj
 0005:00001f74       $unwind$tls_construct_stoc_supported_groups 00000000000edfb4     OpensslLib:extensions_srvr.obj
 0005:00001f8c       $unwind$tls_construct_stoc_cookie 00000000000edfcc     OpensslLib:extensions_srvr.obj
 0005:00001fa8       $unwind$tls_construct_stoc_cryptopro_bug 00000000000edfe8     OpensslLib:extensions_srvr.obj
 0005:00001fb4       $unwind$tls_construct_stoc_psk 00000000000edff4     OpensslLib:extensions_srvr.obj
 0005:00001fc0       $unwind$bn_compute_wNAF    00000000000ee000     OpensslLib:bn_intern.obj
 0005:00001fd8       $unwind$bnrand             00000000000ee018     OpensslLib:bn_rand.obj
 0005:00001ff4       $unwind$BN_generate_dsa_nonce 00000000000ee034     OpensslLib:bn_rand.obj
 0005:00002014       $unwind$asn1_d2i_read_bio  00000000000ee054     OpensslLib:a_d2i_fp.obj
 0005:0000202c       $unwind$EVP_PKCS82PKEY     00000000000ee06c     OpensslLib:evp_pkey.obj
 0005:0000203c       $unwind$EC_GROUP_get_ecparameters 00000000000ee07c     OpensslLib:ec_asn1.obj
 0005:0000204c       $unwind$d2i_ECPKParameters 00000000000ee08c     OpensslLib:ec_asn1.obj
 0005:0000204c       $unwind$d2i_ECPrivateKey   00000000000ee08c     OpensslLib:ec_asn1.obj
 0005:0000205c       $unwind$i2d_ECPrivateKey   00000000000ee09c     OpensslLib:ec_asn1.obj
 0005:00002074       $unwind$i2d_DHxparams      00000000000ee0b4     OpensslLib:dh_asn1.obj
 0005:0000207c       $unwind$BN_generate_prime_ex 00000000000ee0bc     OpensslLib:bn_prime.obj
 0005:0000207c       $unwind$rsa_ossl_private_encrypt 00000000000ee0bc     OpensslLib:rsa_ossl.obj
 0005:00002094       $unwind$rsa_ossl_private_decrypt 00000000000ee0d4     OpensslLib:rsa_ossl.obj
 0005:000020ac       $unwind$rsa_ossl_public_decrypt 00000000000ee0ec     OpensslLib:rsa_ossl.obj
 0005:000020c4       $unwind$rsa_ossl_mod_exp   00000000000ee104     OpensslLib:rsa_ossl.obj
 0005:000020e0       $unwind$i2v_GENERAL_NAME   00000000000ee120     OpensslLib:v3_alt.obj
 0005:000020f0       $unwind$notice_section     00000000000ee130     OpensslLib:v3_cpols.obj
 0005:00002108       $unwind$BIO_dump_indent_cb 00000000000ee148     OpensslLib:b_dump.obj
 0005:00002124       $unwind$X509V3_EXT_get_nid 00000000000ee164     OpensslLib:v3_lib.obj
 0005:00002130       $unwind$pkey_dh_ctrl_str   00000000000ee170     OpensslLib:dh_pmeth.obj
 0005:00002144       $unwind$pkey_rsa_verify    00000000000ee184     OpensslLib:rsa_pmeth.obj
 0005:00002158       $unwind$pkey_rsa_ctrl_str  00000000000ee198     OpensslLib:rsa_pmeth.obj
 0005:00002170       $unwind$pkey_pss_init      00000000000ee1b0     OpensslLib:rsa_pmeth.obj
 0005:00002180       $unwind$pkey_hkdf_derive   00000000000ee1c0     OpensslLib:hkdf.obj
 0005:00002198       $unwind$HKDF_Extract       00000000000ee1d8     OpensslLib:hkdf.obj
 0005:000021b0       $unwind$HKDF_Expand        00000000000ee1f0     OpensslLib:hkdf.obj
 0005:000021c8       $unwind$pkey_sm2_verify    00000000000ee208     OpensslLib:sm2_pmeth.obj
 0005:000021dc       $unwind$pkey_sm2_digest_custom 00000000000ee21c     OpensslLib:sm2_pmeth.obj
 0005:000021f4       $unwind$ssl3_cbc_digest_record 00000000000ee234     OpensslLib:s3_cbc.obj
 0005:0000220c       $unwind$BN_mod_mul         00000000000ee24c     OpensslLib:bn_mod.obj
 0005:0000220c       $unwind$bn_mul_mont_fixed_top 00000000000ee24c     OpensslLib:bn_mont.obj
 0005:00002224       $unwind$bn_from_montgomery_word 00000000000ee264     OpensslLib:bn_mont.obj
 0005:0000223c       $unwind$BN_MONT_CTX_set    00000000000ee27c     OpensslLib:bn_mont.obj
 0005:00002258       $unwind$ec_scalar_mul_ladder 00000000000ee298     OpensslLib:ec_mult.obj
 0005:00002258       $unwind$ec_GFp_simple_ladder_post 00000000000ee298     OpensslLib:ecp_smpl.obj
 0005:00002258       $unwind$ec_GFp_simple_points_make_affine 00000000000ee298     OpensslLib:ecp_smpl.obj
 0005:00002270       $unwind$ec_wNAF_mul        00000000000ee2b0     OpensslLib:ec_mult.obj
 0005:0000228c       $unwind$BN_mod_exp_mont    00000000000ee2cc     OpensslLib:bn_exp.obj
 0005:000022ac       $unwind$MOD_EXP_CTIME_COPY_FROM_PREBUF 00000000000ee2ec     OpensslLib:bn_exp.obj
 0005:000022c4       $unwind$BN_mod_exp_mont_consttime 00000000000ee304     OpensslLib:bn_exp.obj
 0005:000022c4       $unwind$bn_mod_inverse_no_branch 00000000000ee304     OpensslLib:bn_gcd.obj
 0005:000022dc       $unwind$BN_mod_exp_mont_word 00000000000ee31c     OpensslLib:bn_exp.obj
 0005:000022dc       $unwind$ec_GFp_simple_ladder_step 00000000000ee31c     OpensslLib:ecp_smpl.obj
 0005:000022f4       $unwind$int_bn_mod_inverse 00000000000ee334     OpensslLib:bn_gcd.obj
 0005:000022f4       $unwind$ossl_ecdsa_sign_sig 00000000000ee334     OpensslLib:ecdsa_ossl.obj
 0005:0000230c       $unwind$OPENSSL_gmtime_adj 00000000000ee34c     OpensslLib:o_time.obj
 0005:00002314       $unwind$bn_sub_words       00000000000ee354     OpensslLib:bn_asm.obj
 0005:00002314       $unwind$curve448_scalar_halve 00000000000ee354     OpensslLib:scalar.obj
 0005:00002314       $unwind$julian_adj         00000000000ee354     OpensslLib:o_time.obj
 0005:00002320       $unwind$ctr_df             00000000000ee360     OpensslLib:drbg_ctr.obj
 0005:00002338       $unwind$ctr_update         00000000000ee378     OpensslLib:drbg_ctr.obj
 0005:00002358       $unwind$ASN1_mbstring_ncopy 00000000000ee398     OpensslLib:a_mbstr.obj
 0005:00002370       $unwind$traverse_string    00000000000ee3b0     OpensslLib:a_mbstr.obj
 0005:00002384       $unwind$bn_mul_add_words   00000000000ee3c4     OpensslLib:bn_asm.obj
 0005:00002384       $unwind$gf_deserialize     00000000000ee3c4     OpensslLib:f_generic.obj
 0005:00002398       $unwind$bn_mul_words       00000000000ee3d8     OpensslLib:bn_asm.obj
 0005:000023b0       $unwind$PKCS5_PBE_keyivgen 00000000000ee3f0     OpensslLib:p5_crpt.obj
 0005:000023cc       $unwind$PKCS5_PBKDF2_HMAC  00000000000ee40c     OpensslLib:p5_crpt2.obj
 0005:000023e4       $unwind$PKCS5_v2_PBKDF2_keyivgen 00000000000ee424     OpensslLib:p5_crpt2.obj
 0005:000023fc       $unwind$PKCS12_PBE_keyivgen 00000000000ee43c     OpensslLib:p12_crpt.obj
 0005:0000241c       $unwind$ASN1_STRING_print  00000000000ee45c     OpensslLib:a_print.obj
 0005:00002430       $unwind$hash_init_with_dom 00000000000ee470     OpensslLib:eddsa.obj
 0005:00002430       $unwind$ossl_ecdsa_sign    00000000000ee470     OpensslLib:ecdsa_ossl.obj
 0005:00002438       $unwind$c448_ed448_sign    00000000000ee478     OpensslLib:eddsa.obj
 0005:00002458       $unwind$c448_ed448_verify  00000000000ee498     OpensslLib:eddsa.obj
 0005:00002478       $unwind$ED448_public_from_private 00000000000ee4b8     OpensslLib:eddsa.obj
 0005:00002494       $unwind$fe_frombytes       00000000000ee4d4     OpensslLib:curve25519.obj
 0005:000024ac       $unwind$fe_mul             00000000000ee4ec     OpensslLib:curve25519.obj
 0005:000024c4       $unwind$fe_sq              00000000000ee504     OpensslLib:curve25519.obj
 0005:000024c4       $unwind$fe_sq2             00000000000ee504     OpensslLib:curve25519.obj
 0005:000024dc       $unwind$fe_invert          00000000000ee51c     OpensslLib:curve25519.obj
 0005:000024f8       $unwind$fe_pow22523        00000000000ee538     OpensslLib:curve25519.obj
 0005:00002514       $unwind$ge_p3_tobytes      00000000000ee554     OpensslLib:curve25519.obj
 0005:00002524       $unwind$ge_frombytes_vartime 00000000000ee564     OpensslLib:curve25519.obj
 0005:00002540       $unwind$ge_p3_dbl          00000000000ee580     OpensslLib:curve25519.obj
 0005:00002554       $unwind$ge_add             00000000000ee594     OpensslLib:curve25519.obj
 0005:00002554       $unwind$ge_madd            00000000000ee594     OpensslLib:curve25519.obj
 0005:00002570       $unwind$ge_scalarmult_base 00000000000ee5b0     OpensslLib:curve25519.obj
 0005:0000258c       $unwind$x25519_scalar_mult_generic 00000000000ee5cc     OpensslLib:curve25519.obj
 0005:000025a8       $unwind$slide              00000000000ee5e8     OpensslLib:curve25519.obj
 0005:000025c0       $unwind$ge_double_scalarmult_vartime 00000000000ee600     OpensslLib:curve25519.obj
 0005:000025e0       $unwind$x25519_sc_reduce   00000000000ee620     OpensslLib:curve25519.obj
 0005:000025f8       $unwind$sc_muladd          00000000000ee638     OpensslLib:curve25519.obj
 0005:00002610       $unwind$ED25519_verify     00000000000ee650     OpensslLib:curve25519.obj
 0005:00002630       $unwind$X25519_public_from_private 00000000000ee670     OpensslLib:curve25519.obj
 0005:00002640       $unwind$ASN1_buf_print     00000000000ee680     OpensslLib:t_pkey.obj
 0005:00002654       $unwind$gf_invert          00000000000ee694     OpensslLib:curve448.obj
 0005:00002668       $unwind$point_double_internal 00000000000ee6a8     OpensslLib:curve448.obj
 0005:00002688       $unwind$add_niels_to_pt    00000000000ee6c8     OpensslLib:curve448.obj
 0005:00002688       $unwind$sub_niels_from_pt  00000000000ee6c8     OpensslLib:curve448.obj
 0005:000026a8       $unwind$curve448_precomputed_scalarmul 00000000000ee6e8     OpensslLib:curve448.obj
 0005:000026c4       $unwind$curve448_point_mul_by_ratio_and_encode_like_eddsa 00000000000ee704     OpensslLib:curve448.obj
 0005:000026d8       $unwind$curve448_point_decode_like_eddsa_and_mul_by_ratio 00000000000ee718     OpensslLib:curve448.obj
 0005:000026f8       $unwind$x448_int           00000000000ee738     OpensslLib:curve448.obj
 0005:00002718       $unwind$recode_wnaf        00000000000ee758     OpensslLib:curve448.obj
 0005:00002734       $unwind$curve448_base_double_scalarmul_non_secret 00000000000ee774     OpensslLib:curve448.obj
 0005:00002754       $unwind$X448_public_from_private 00000000000ee794     OpensslLib:curve448.obj
 0005:0000276c       $unwind$ECPKParameters_print 00000000000ee7ac     OpensslLib:eck_prn.obj
 0005:00002784       $unwind$print_bin          00000000000ee7c4     OpensslLib:eck_prn.obj
 0005:000027a0       $unwind$X509_signature_dump 00000000000ee7e0     OpensslLib:t_x509.obj
 0005:000027bc       $unwind$i2a_ASN1_INTEGER   00000000000ee7fc     OpensslLib:f_int.obj
 0005:000027d0       $unwind$print_error        00000000000ee810     OpensslLib:ui_lib.obj
 0005:000027dc       $unwind$ecdsa_sign_setup   00000000000ee81c     OpensslLib:ecdsa_ossl.obj
 0005:000027f4       $unwind$ossl_ecdsa_verify_sig 00000000000ee834     OpensslLib:ecdsa_ossl.obj
 0005:0000280c       $unwind$ecdh_simple_compute_key 00000000000ee84c     OpensslLib:ecdh_ossl.obj
 0005:00002824       $unwind$RSA_padding_check_PKCS1_type_2 00000000000ee864     OpensslLib:rsa_pk1.obj
 0005:00002840       $unwind$RSA_padding_check_SSLv23 00000000000ee880     OpensslLib:rsa_ssl.obj
 0005:0000285c       $unwind$RSA_padding_check_PKCS1_OAEP_mgf1 00000000000ee89c     OpensslLib:rsa_oaep.obj
 0005:00002878       $unwind$PKCS1_MGF1         00000000000ee8b8     OpensslLib:rsa_oaep.obj
 0005:00002890       $unwind$generate_v3        00000000000ee8d0     OpensslLib:asn1_gen.obj
 0005:000028b0       $unwind$asn1_cb            00000000000ee8f0     OpensslLib:asn1_gen.obj
 0005:000028c8       $unwind$asn1_str2type      00000000000ee908     OpensslLib:asn1_gen.obj
 0005:000028dc       $unwind$i2v_POLICY_MAPPINGS 00000000000ee91c     OpensslLib:v3_pmaps.obj
 0005:000028f4       $unwind$i2v_EXTENDED_KEY_USAGE 00000000000ee934     OpensslLib:v3_extku.obj
 0005:00002904       $unwind$v2i_ASN1_BIT_STRING 00000000000ee944     OpensslLib:v3_bitst.obj
 0005:00002920       $unwind$i2r_ocsp_crlid     00000000000ee960     OpensslLib:v3_ocsp.obj
 0005:00002934       $unwind$i2v_AUTHORITY_KEYID 00000000000ee974     OpensslLib:v3_akey.obj
 0005:00002944       $unwind$v2i_AUTHORITY_KEYID 00000000000ee984     OpensslLib:v3_akey.obj
 0005:0000295c       $unwind$i2r_NAMING_AUTHORITY 00000000000ee99c     OpensslLib:v3_admis.obj
 0005:00002978       $unwind$i2r_ADMISSION_SYNTAX 00000000000ee9b8     OpensslLib:v3_admis.obj
 0005:00002998       $unwind$s2i_skey_id        00000000000ee9d8     OpensslLib:v3_skey.obj
 0005:000029a8       $unwind$process_pci_value  00000000000ee9e8     OpensslLib:v3_pci.obj
 0005:000029c4       $unwind$i2v_TLS_FEATURE    00000000000eea04     OpensslLib:v3_tlsf.obj
 0005:000029d8       $unwind$probable_prime_dh  00000000000eea18     OpensslLib:bn_prime.obj
 0005:000029f0       $unwind$dh_builtin_genparams 00000000000eea30     OpensslLib:dh_gen.obj
 0005:00002a0c       $unwind$RSA_sign_ASN1_OCTET_STRING 00000000000eea4c     OpensslLib:rsa_saos.obj
 0005:00002a24       $unwind$rsa_builtin_keygen 00000000000eea64     OpensslLib:rsa_gen.obj
 0005:00002a40       $unwind$encode_pkcs1       00000000000eea80     OpensslLib:rsa_sign.obj
 0005:00002a54       $unwind$RSA_verify_PKCS1_PSS_mgf1 00000000000eea94     OpensslLib:rsa_pss.obj
 0005:00002a70       $unwind$sm2_compute_z_digest 00000000000eeab0     OpensslLib:sm2_sign.obj
 0005:00002a8c       $unwind$sm2_sig_gen        00000000000eeacc     OpensslLib:sm2_sign.obj
 0005:00002aa4       $unwind$sm2_sign           00000000000eeae4     OpensslLib:sm2_sign.obj
 0005:00002ab8       $unwind$sm2_encrypt        00000000000eeaf8     OpensslLib:sm2_crypt.obj
 0005:00002ad4       $unwind$sm2_decrypt        00000000000eeb14     OpensslLib:sm2_crypt.obj
 0005:00002af0       $unwind$bn_sqr_fixed_top   00000000000eeb30     OpensslLib:bn_sqr.obj
 0005:00002b10       $unwind$bn_sqr_normal      00000000000eeb50     OpensslLib:bn_sqr.obj
 0005:00002b28       $unwind$BN_div_recp        00000000000eeb68     OpensslLib:bn_recp.obj
 0005:00002b40       $unwind$BN_nist_mod_224    00000000000eeb80     OpensslLib:bn_nist.obj
 0005:00002b5c       $unwind$BN_nist_mod_384    00000000000eeb9c     OpensslLib:bn_nist.obj
 0005:00002b74       $unwind$BN_nist_mod_521    00000000000eebb4     OpensslLib:bn_nist.obj
 0005:00002b90       $unwind$PKCS12_key_gen_utf8 00000000000eebd0     OpensslLib:p12_key.obj
 0005:00002ba4       $unwind$PKCS12_key_gen_uni 00000000000eebe4     OpensslLib:p12_key.obj
 0005:00002bbc       $unwind$SM4_set_key        00000000000eebfc     OpensslLib:sm4.obj
 0005:00002bcc       $unwind$alg_module_init    00000000000eec0c     OpensslLib:evp_cnf.obj
 0005:00002be0       $unwind$do_tcreate         00000000000eec20     OpensslLib:asn_mstbl.obj
 0005:00002bf8       $unwind$oid_module_init    00000000000eec38     OpensslLib:asn_moid.obj
 0005:00002bf8       $unwind$ec_GFp_simple_is_on_curve 00000000000eec38     OpensslLib:ecp_smpl.obj
 0005:00002bf8       $unwind$ec_GFp_simple_point_get_affine_coordinates 00000000000eec38     OpensslLib:ecp_smpl.obj
 0005:00002c14       $unwind$Round              00000000000eec54     OpensslLib:keccak1600.obj
 0005:00002c2c       $unwind$KeccakF1600        00000000000eec6c     OpensslLib:keccak1600.obj
 0005:00002c3c       $unwind$sm3_block_data_order 00000000000eec7c     OpensslLib:sm3.obj
 0005:00002c54       $unwind$sc_montmul         00000000000eec94     OpensslLib:scalar.obj
 0005:00002c6c       $unwind$curve448_scalar_decode_long 00000000000eecac     OpensslLib:scalar.obj
 0005:00002c88       $unwind$gf_eq              00000000000eecc8     OpensslLib:f_generic.obj
 0005:00002c90       $unwind$gf_isr             00000000000eecd0     OpensslLib:f_generic.obj
 0005:00002ca4       $unwind$gf_mul             00000000000eece4     OpensslLib:f_impl.obj
 0005:00002cbc       $unwind$ERR_print_errors_cb 00000000000eecfc     OpensslLib:err_prn.obj
 0005:00002ccc       $unwind$i2a_ASN1_STRING    00000000000eed0c     OpensslLib:f_string.obj
 0005:00002ce0       $unwind$ec_GFp_simple_add  00000000000eed20     OpensslLib:ecp_smpl.obj
 0005:00002cf8       $unwind$ec_GFp_simple_cmp  00000000000eed38     OpensslLib:ecp_smpl.obj
 0005:00002d14       $unwind$inet_pton4         00000000000eed54     BaseCryptLib:inet_pton.obj
 0005:00002d2c       $unwind$inet_pton6         00000000000eed6c     BaseCryptLib:inet_pton.obj
 0005:00002d44       $unwind$QuickSortWorker    00000000000eed84     BaseCryptLib:CrtWrapper.obj
