 FaultTolerantWriteDxe

 Timestamp is 62c26a17 (Mon Jul  4 12:18:31 2022)

 Preferred load address is 0000000000000000

 Start         Length     Name                   Class
 0001:00000000 000001d8H .text                   CODE
 0001:000001d8 000044c8H .text$mn                CODE
 0002:00000000 00001810H .rdata                  DATA
 0002:00001810 00000030H .rdata$voltmd           DATA
 0002:00001840 00000168H .rdata$zzzdbg           DATA
 0003:00000000 000000a0H .data                   DATA
 0003:000000a0 0000006aH .bss                    DATA
 0004:00000000 00000258H .pdata                  DATA
 0005:00000000 0000021cH .xdata                  DATA

  Address         Publics by Value              Rva+Base               Lib:Object

 0000:00000000       __x64_code_ranges_to_entry_points_count 0000000000000000     <absolute>
 0000:00000000       __guard_iat_table          0000000000000000     <absolute>
 0000:00000000       __guard_longjmp_table      0000000000000000     <absolute>
 0000:00000000       __x64_code_ranges_to_entry_points 0000000000000000     <absolute>
 0000:00000000       __guard_fids_count         0000000000000000     <absolute>
 0000:00000000       __guard_iat_count          0000000000000000     <absolute>
 0000:00000000       __guard_longjmp_count      0000000000000000     <absolute>
 0000:00000000       __arm64x_extra_rfe_table   0000000000000000     <absolute>
 0000:00000000       __hybrid_code_map_count    0000000000000000     <absolute>
 0000:00000000       __dynamic_value_reloc_table 0000000000000000     <absolute>
 0000:00000000       __hybrid_auxiliary_iat     0000000000000000     <absolute>
 0000:00000000       __hybrid_auxiliary_iat_copy 0000000000000000     <absolute>
 0000:00000000       __hybrid_code_map          0000000000000000     <absolute>
 0000:00000000       __arm64x_redirection_metadata 0000000000000000     <absolute>
 0000:00000000       __arm64x_extra_rfe_table_size 0000000000000000     <absolute>
 0000:00000000       __AbsoluteZero             0000000000000000     <absolute>
 0000:00000000       __guard_check_icall_a64n_fptr 0000000000000000     <absolute>
 0000:00000000       __arm64x_native_entrypoint 0000000000000000     <absolute>
 0000:00000000       __guard_fids_table         0000000000000000     <absolute>
 0000:00000000       __guard_flags              0000000000000000     <absolute>
 0000:00000000       __guard_eh_cont_table      0000000000000000     <absolute>
 0000:00000000       __guard_eh_cont_count      0000000000000000     <absolute>
 0000:00000000       __arm64x_redirection_metadata_count 0000000000000000     <absolute>
 0000:00000000       __enclave_config           0000000000000000     <absolute>
 0001:00000000       CpuPause                   0000000000000280     BaseLib:CpuPause.obj
 0001:00000010       InternalMemSetMem          0000000000000290     BaseMemoryLibRepStr:SetMem.obj
 0001:00000030       InternalMemCopyMem         00000000000002b0     BaseMemoryLibRepStr:CopyMem.obj
 0001:00000070       InternalMemCompareMem      00000000000002f0     BaseMemoryLibRepStr:CompareMem.obj
 0001:00000090       InternalMemSetMem64        0000000000000310     BaseMemoryLibRepStr:SetMem64.obj
 0001:000000b0       InternalMemSetMem32        0000000000000330     BaseMemoryLibRepStr:SetMem32.obj
 0001:000000d0       InternalMemZeroMem         0000000000000350     BaseMemoryLibRepStr:ZeroMem.obj
 0001:000000f0       TdVmCall                   0000000000000370     BaseLib:TdVmcall.obj
 0001:00000180       TdCall                     0000000000000400     BaseLib:TdCall.obj
 0001:000001d8       _ModuleEntryPoint          0000000000000458 f   UefiDriverEntryPoint:DriverEntryPoint.obj
 0001:00000208       ProcessLibraryConstructorList 0000000000000488 f   FaultTolerantWriteDxe:AutoGen.obj
 0001:000003b4       FvbNotificationEvent       0000000000000634 f   FaultTolerantWriteDxe:FaultTolerantWriteDxe.obj
 0001:00000494       GetFvbByAddress            0000000000000714 f   FaultTolerantWriteDxe:FtwMisc.obj
 0001:00000588       IsBootBlock                0000000000000808 f   FaultTolerantWriteDxe:FtwMisc.obj
 0001:00000624       FlushSpareBlockToBootBlock 00000000000008a4 f   FaultTolerantWriteDxe:FtwMisc.obj
 0001:00000840       FlushSpareBlockToTargetBlock 0000000000000ac0 f   FaultTolerantWriteDxe:FtwMisc.obj
 0001:000009b0       FlushSpareBlockToWorkingBlock 0000000000000c30 f   FaultTolerantWriteDxe:FtwMisc.obj
 0001:00000bec       FtwUpdateFvState           0000000000000e6c f   FaultTolerantWriteDxe:FtwMisc.obj
 0001:00000c8c       FtwGetLastWriteHeader      0000000000000f0c f   FaultTolerantWriteDxe:FtwMisc.obj
 0001:00000cd4       FtwGetLastWriteRecord      0000000000000f54 f   FaultTolerantWriteDxe:FtwMisc.obj
 0001:00000d2c       InitFtwDevice              0000000000000fac f   FaultTolerantWriteDxe:FtwMisc.obj
 0001:00000f28       FindFvbForFtw              00000000000011a8 f   FaultTolerantWriteDxe:FtwMisc.obj
 0001:00001304       InitFtwProtocol            0000000000001584 f   FaultTolerantWriteDxe:FtwMisc.obj
 0001:000017e8       InitializeLocalWorkSpaceHeader 0000000000001a68 f   FaultTolerantWriteDxe:UpdateWorkingBlock.obj
 0001:000018b0       IsValidWorkSpace           0000000000001b30 f   FaultTolerantWriteDxe:UpdateWorkingBlock.obj
 0001:00001958       ReadWorkSpaceData          0000000000001bd8 f   FaultTolerantWriteDxe:UpdateWorkingBlock.obj
 0001:00001a0c       WriteWorkSpaceData         0000000000001c8c f   FaultTolerantWriteDxe:UpdateWorkingBlock.obj
 0001:00001ac0       WorkSpaceRefresh           0000000000001d40 f   FaultTolerantWriteDxe:UpdateWorkingBlock.obj
 0001:00001c30       FtwReclaimWorkSpace        0000000000001eb0 f   FaultTolerantWriteDxe:UpdateWorkingBlock.obj
 0001:0000202c       FtwGetMaxBlockSize         00000000000022ac f   FaultTolerantWriteDxe:FaultTolerantWrite.obj
 0001:00002078       FtwAllocate                00000000000022f8 f   FaultTolerantWriteDxe:FaultTolerantWrite.obj
 0001:00002228       FtwWriteRecord             00000000000024a8 f   FaultTolerantWriteDxe:FaultTolerantWrite.obj
 0001:000023f0       FtwWrite                   0000000000002670 f   FaultTolerantWriteDxe:FaultTolerantWrite.obj
 0001:00002948       FtwRestart                 0000000000002bc8 f   FaultTolerantWriteDxe:FaultTolerantWrite.obj
 0001:00002a94       FtwAbort                   0000000000002d14 f   FaultTolerantWriteDxe:FaultTolerantWrite.obj
 0001:00002b58       FtwGetLastWrite            0000000000002dd8 f   FaultTolerantWriteDxe:FaultTolerantWrite.obj
 0001:00002d14       SetMem                     0000000000002f94 f   BaseMemoryLibRepStr:SetMemWrapper.obj
 0001:00002d6c       CopyMem                    0000000000002fec f   BaseMemoryLibRepStr:CopyMemWrapper.obj
 0001:00002e08       CompareGuid                0000000000003088 f   BaseMemoryLibRepStr:MemLibGuid.obj
 0001:00002ecc       DebugPrint                 000000000000314c f   BaseDebugLibSerialPort:DebugLib.obj
 0001:00002ef0       DebugPrintMarker           0000000000003170 f   BaseDebugLibSerialPort:DebugLib.obj
 0001:00002f7c       DebugAssert                00000000000031fc f   BaseDebugLibSerialPort:DebugLib.obj
 0001:00002fe4       InternalAllocatePool       0000000000003264 f   UefiMemoryAllocationLib:MemoryAllocationLib.obj
 0001:00003014       FreePool                   0000000000003294 f   UefiMemoryAllocationLib:MemoryAllocationLib.obj
 0001:00003058       EfiCreateProtocolNotifyEvent 00000000000032d8 f   UefiLib:UefiLib.obj
 0001:00003124       GetHobList                 00000000000033a4 f   DxeHobLib:HobLib.obj
 0001:00003204       GetNextGuidHob             0000000000003484 f   DxeHobLib:HobLib.obj
 0001:00003288       InternalReportStatusCode   0000000000003508 f   DxeReportStatusCodeLib:ReportStatusCodeLib.obj
 0001:00003398       AsciiStrLen                0000000000003618 f   BaseLib:String.obj
 0001:00003404       StrnLenS                   0000000000003684 f   BaseLib:SafeString.obj
 0001:0000345c       GetPcdProtocol             00000000000036dc f   DxePcdLib:DxePcdLib.obj
 0001:000034e8       ZeroMem                    0000000000003768 f   BaseMemoryLibRepStr:ZeroMemWrapper.obj
 0001:00003558       SerialPortWrite            00000000000037d8 f   PcAtSerialPortLib:SerialPortLib.obj
 0001:000035d0       AsciiSPrint                0000000000003850 f   BasePrintLib:PrintLib.obj
 0001:000035fc       BasePrintLibFillBuffer     000000000000387c f   BasePrintLib:PrintLibInternal.obj
 0001:00003630       BasePrintLibValueToString  00000000000038b0 f   BasePrintLib:PrintLibInternal.obj
 0001:0000369c       BasePrintLibSPrintMarker   000000000000391c f   BasePrintLib:PrintLibInternal.obj
 0001:000045a8       BasePrintLibSPrint         0000000000004828 f   BasePrintLib:PrintLibInternal.obj
 0001:000045cc       IoWrite8                   000000000000484c f   BaseIoLibIntrinsicSev:IoLibMsc.obj
 0001:000045f8       TdIoRead8                  0000000000004878 f   BaseIoLibIntrinsicSev:IoLibInternalTdx.obj
 0001:00004650       TdIoWrite8                 00000000000048d0 f   BaseIoLibIntrinsicSev:IoLibInternalTdx.obj
 0002:00000000       ??_C@_0CB@DMEJJJHA@?6ASSERT_EFI_ERROR?5?$CIStatus?5?$DN?5?$CFr?$CJ@ 0000000000004920     UefiDriverEntryPoint:DriverEntryPoint.obj
 0002:00000028       ??_C@_0CH@BBNBJKHK@?$CB?$CI?$CI?$CIINTN?$CJ?$CIRETURN_STATUS?$CJ?$CIStatus@ 0000000000004948     UefiDriverEntryPoint:DriverEntryPoint.obj
 0002:00000050       ??_C@_0BG@NKBOLOPP@FaultTolerantWriteDxe@ 0000000000004970     FaultTolerantWriteDxe:AutoGen.obj
 0002:00000070       ??_C@_0IB@KNHHHGBN@d?3?2myedk2?2edk2?2Build?2OvmfX64?2DE@ 0000000000004990     FaultTolerantWriteDxe:AutoGen.obj
 0002:00000100       ??_C@_0FE@BFAOIONA@d?3?2myedk2?2edk2?2MdeModulePkg?2Uni@ 0000000000004a20     FaultTolerantWriteDxe:FaultTolerantWriteDxe.obj
 0002:00000158       ??_C@_0CC@PPHPCOCA@Ftw?3?5Get?5Top?5Swapped?5status?5?9?5?$CF@ 0000000000004a78     FaultTolerantWriteDxe:FtwMisc.obj
 0002:00000180       ??_C@_0CA@NHHELBNK@Ftw?3?5FVB?5Write?5boot?5block?5?9?5?$CFr?6@ 0000000000004aa0     FaultTolerantWriteDxe:FtwMisc.obj
 0002:000001a0       ??_C@_0BL@MCCHPMGL@Ftw?3?5FVB?5Write?5block?5?9?5?$CFr?6@ 0000000000004ac0     FaultTolerantWriteDxe:FtwMisc.obj
 0002:000001c0       ??_C@_0EG@HFAHCFLO@d?3?2myedk2?2edk2?2MdeModulePkg?2Uni@ 0000000000004ae0     FaultTolerantWriteDxe:FtwMisc.obj
 0002:00000208       ??_C@_0CP@IHIPCMPI@Ftw?3?5Workspace?5or?5Spare?5block?5d@ 0000000000004b28     FaultTolerantWriteDxe:FtwMisc.obj
 0002:00000240       ??_C@_0HA@COHEAACO@Ftw?3?5Work?5space?5address?5or?5leng@ 0000000000004b60     FaultTolerantWriteDxe:FtwMisc.obj
 0002:000002b0       ??_C@_0BC@FEDIJHFF@?$CI?$CIBOOLEAN?$CJ?$CI0?$DN?$DN1?$CJ?$CJ@ 0000000000004bd0     FaultTolerantWriteDxe:FtwMisc.obj
 0002:000002d0       ??_C@_0GD@MDMKKAMJ@Ftw?3?5The?5work?5space?5range?5shoul@ 0000000000004bf0     FaultTolerantWriteDxe:FtwMisc.obj
 0002:00000338       ??_C@_0CE@DKBGIJGC@Ftw?3?5Spare?5area?5is?5out?5of?5FV?5ra@ 0000000000004c58     FaultTolerantWriteDxe:FtwMisc.obj
 0002:00000360       ??_C@_0DN@CLKJCBCE@Ftw?3?5Spare?5area?5address?5or?5leng@ 0000000000004c80     FaultTolerantWriteDxe:FtwMisc.obj
 0002:000003a0       ??_C@_0EO@MIBJJCAI@Ftw?3?5FtwWorkSpaceLba?5?9?50x?$CFlx?0?5W@ 0000000000004cc0     FaultTolerantWriteDxe:FtwMisc.obj
 0002:000003f0       ??_C@_0DF@BKMJCLGI@Ftw?3?5FtwSpareLba?5?5?5?5?5?9?50x?$CFlx?0?5S@ 0000000000004d10     FaultTolerantWriteDxe:FtwMisc.obj
 0002:00000428       ??_C@_0DI@EJPLLFAE@Ftw?3?5NumberOfWorkBlock?5?9?50x?$CFx?0?5@ 0000000000004d48     FaultTolerantWriteDxe:FtwMisc.obj
 0002:00000460       ??_C@_0DP@KMIEGNOM@Ftw?3?5WorkSpaceLbaInSpare?5?9?50x?$CFl@ 0000000000004d80     FaultTolerantWriteDxe:FtwMisc.obj
 0002:000004a0       ??_C@_0BA@FLKCGOGE@InitFtwProtocol@ 0000000000004dc0     FaultTolerantWriteDxe:FtwMisc.obj
 0002:000004b0       ??_C@_0DA@NKOMJLJP@Ftw?3?5Restart?5working?5block?5upda@ 0000000000004dd0     FaultTolerantWriteDxe:FtwMisc.obj
 0002:000004e0       ??_C@_0EA@JLKCNOBE@Ftw?3?5Both?5working?5and?5spare?5blo@ 0000000000004e00     FaultTolerantWriteDxe:FtwMisc.obj
 0002:00000520       ??_C@_0DL@FPJGMKBA@Ftw?3?5Init?4?4?5find?5first?5record?5n@ 0000000000004e40     FaultTolerantWriteDxe:FtwMisc.obj
 0002:00000560       ??_C@_0EA@JALAFPLH@Ftw?3?5Init?4?4?5find?5last?5record?5co@ 0000000000004e80     FaultTolerantWriteDxe:FtwMisc.obj
 0002:000005a0       ??_C@_0CF@BMPMBOAA@Ftw?3?5Restart?5boot?5block?5update?5@ 0000000000004ec0     FaultTolerantWriteDxe:FtwMisc.obj
 0002:000005c8       ??_C@_0BO@NPMENBFC@Ftw?3?5Restart?5last?5write?5?9?5?$CFr?6@ 0000000000004ee8     FaultTolerantWriteDxe:FtwMisc.obj
 0002:000005e8       ??_C@_0CH@HODOJID@Ftw?3?5Work?5block?5header?5check?5mi@ 0000000000004f08     FaultTolerantWriteDxe:UpdateWorkingBlock.obj
 0002:00000610       ??_C@_0CF@GGECFOHG@Ftw?3?5Remaining?5work?5space?5size?5@ 0000000000004f30     FaultTolerantWriteDxe:UpdateWorkingBlock.obj
 0002:00000638       ??_C@_0BN@NDGGPIIC@Ftw?3?5Reclaim?5workspace?5?9?5?$CFr?6@ 0000000000004f58     FaultTolerantWriteDxe:UpdateWorkingBlock.obj
 0002:00000658       ??_C@_0CC@OBFDAACJ@Ftw?3?5start?5to?5reclaim?5work?5spac@ 0000000000004f78     FaultTolerantWriteDxe:UpdateWorkingBlock.obj
 0002:00000680       ??_C@_0CG@NIFCGFAB@Ftw?3?5reclaim?5work?5space?5success@ 0000000000004fa0     FaultTolerantWriteDxe:UpdateWorkingBlock.obj
 0002:000006a8       ??_C@_0BF@NDBIKIKC@CR?5has?5Bad?5Signature@ 0000000000004fc8     FaultTolerantWriteDxe:FaultTolerantWrite.obj
 0002:000006c0       ??_C@_0FB@MPFGGHEC@d?3?2myedk2?2edk2?2MdeModulePkg?2Uni@ 0000000000004fe0     FaultTolerantWriteDxe:FaultTolerantWrite.obj
 0002:00000718       ??_C@_0DG@HKHGGMHG@Ftw?3?5Allocate?$CI?$CJ?5request?5exceed?5@ 0000000000005038     FaultTolerantWriteDxe:FaultTolerantWrite.obj
 0002:00000750       ??_C@_0CK@LMNPAEFA@Ftw?3?5Allocate?$CI?$CJ?5success?0?5Caller@ 0000000000005070     FaultTolerantWriteDxe:FaultTolerantWrite.obj
 0002:00000780       ??_C@_0CL@KIHMAOA@Ftw?3?5no?5allocates?5space?5for?5wri@ 00000000000050a0     FaultTolerantWriteDxe:FaultTolerantWrite.obj
 0002:000007b0       ??_C@_0DO@GPFALGHI@Ftw?3?5Allocate?5service?5should?5be@ 00000000000050d0     FaultTolerantWriteDxe:FaultTolerantWrite.obj
 0002:000007f0       ??_C@_0CN@MGEOMEP@Ftw?3?5Write?$CI?$CJ?0?5Get?5FVB?5physical?5@ 0000000000005110     FaultTolerantWriteDxe:FaultTolerantWrite.obj
 0002:00000820       ??_C@_0CD@JKGLPJIJ@Ftw?3?5Write?$CI?$CJ?0?5Get?5block?5size?5?9?5@ 0000000000005140     FaultTolerantWriteDxe:FaultTolerantWrite.obj
 0002:00000848       ??_C@_0DL@JMLLFNBN@Ftw?3?5Write?$CI?$CJ?0?5BlockSize?5?9?50x?$CFx?0@ 0000000000005168     FaultTolerantWriteDxe:FaultTolerantWrite.obj
 0002:00000890       ??_C@_0GD@NPCEELLE@?$CIBlockSize?5?$DN?$DN?5FtwDevice?9?$DOSpareB@ 00000000000051b0     FaultTolerantWriteDxe:FaultTolerantWrite.obj
 0002:000008f8       ??_C@_0DN@CBIECKEC@Ftw?3?5Write?$CI?$CJ?5success?0?5?$CILba?3Offs@ 0000000000005218     FaultTolerantWriteDxe:FaultTolerantWrite.obj
 0002:00000938       ??_C@_0CF@GNNLMMJK@Ftw?3?5Restart?$CI?$CJ?0?5Get?5block?5size?5@ 0000000000005258     FaultTolerantWriteDxe:FaultTolerantWrite.obj
 0002:00000960       ??_C@_0L@BBDACIHC@FtwRestart@ 0000000000005280     FaultTolerantWriteDxe:FaultTolerantWrite.obj
 0002:00000970       ??_C@_0P@PGGBPJEP@?$CFa?$CI?$CJ?3?5success?6@ 0000000000005290     FaultTolerantWriteDxe:FaultTolerantWrite.obj
 0002:00000980       ??_C@_08ONDOPKGO@FtwAbort@ 00000000000052a0     FaultTolerantWriteDxe:FaultTolerantWrite.obj
 0002:00000990       ??_C@_0BH@KMLLJMAP@Record?5?$CB?$DN?5?$CI?$CIvoid?5?$CK?$CJ?50?$CJ@ 00000000000052b0     FaultTolerantWriteDxe:FaultTolerantWrite.obj
 0002:000009a8       ??_C@_0BA@DJHOFMOB@FtwGetLastWrite@ 00000000000052c8     FaultTolerantWriteDxe:FaultTolerantWrite.obj
 0002:000009b8       ??_C@_0DI@DAGDPLPG@?$CILength?5?9?51?$CJ?5?$DM?$DN?5?$CI0xFFFFFFFFFFFF@ 00000000000052d8     BaseMemoryLibRepStr:SetMemWrapper.obj
 0002:000009f0       ??_C@_0EC@NJPJFNGD@d?3?2myedk2?2edk2?2MdePkg?2Library?2B@ 0000000000005310     BaseMemoryLibRepStr:SetMemWrapper.obj
 0002:00000a40       ??_C@_0ED@MKGCMJG@?$CILength?5?9?51?$CJ?5?$DM?$DN?5?$CI0xFFFFFFFFFFFF@ 0000000000005360     BaseMemoryLibRepStr:CopyMemWrapper.obj
 0002:00000a90       ??_C@_0ED@JAIIHABO@d?3?2myedk2?2edk2?2MdePkg?2Library?2B@ 00000000000053b0     BaseMemoryLibRepStr:CopyMemWrapper.obj
 0002:00000ad8       ??_C@_0DO@MAOBOFEG@?$CILength?5?9?51?$CJ?5?$DM?$DN?5?$CI0xFFFFFFFFFFFF@ 00000000000053f8     BaseMemoryLibRepStr:CopyMemWrapper.obj
 0002:00000b20       ??_C@_0EG@FCOMBDPM@d?3?2myedk2?2edk2?2MdePkg?2Library?2B@ 0000000000005440     BaseMemoryLibRepStr:CompareMemWrapper.obj
 0002:00000b68       ??_C@_0DG@EEENIGGL@Length?5?$DM?$DN?5?$CI0xFFFFFFFFFFFFFFFFUL@ 0000000000005488     BaseMemoryLibRepStr:MemLibGuid.obj
 0002:00000ba0       ??_C@_0BH@IACGKAP@Buffer?5?$CB?$DN?5?$CI?$CIvoid?5?$CK?$CJ?50?$CJ@ 00000000000054c0     BaseMemoryLibRepStr:SetMem64Wrapper.obj
 0002:00000bb8       ??_C@_0BH@LKMBFCBF@Format?5?$CB?$DN?5?$CI?$CIvoid?5?$CK?$CJ?50?$CJ@ 00000000000054d8     BaseDebugLibSerialPort:DebugLib.obj
 0002:00000bd0       ??_C@_0EA@MCEJFCHO@d?3?2myedk2?2edk2?2MdePkg?2Library?2B@ 00000000000054f0     BaseDebugLibSerialPort:DebugLib.obj
 0002:00000c10       ??_C@_0BI@NOCKJDBJ@ASSERT?5?$FL?$CFa?$FN?5?$CFa?$CI?$CFd?$CJ?3?5?$CFa?6@ 0000000000005530     BaseDebugLibSerialPort:DebugLib.obj
 0002:00000c28       ??_C@_0BN@COECPDCC@gImageHandle?5?$CB?$DN?5?$CI?$CIvoid?5?$CK?$CJ?50?$CJ@ 0000000000005548     UefiBootServicesTableLib:UefiBootServicesTableLib.obj
 0002:00000c50       ??_C@_0FC@HJEJKBBP@d?3?2myedk2?2edk2?2MdePkg?2Library?2U@ 0000000000005570     UefiBootServicesTableLib:UefiBootServicesTableLib.obj
 0002:00000ca8       ??_C@_0BE@DGNHAHIL@gST?5?$CB?$DN?5?$CI?$CIvoid?5?$CK?$CJ?50?$CJ@ 00000000000055c8     UefiBootServicesTableLib:UefiBootServicesTableLib.obj
 0002:00000cc0       ??_C@_0BE@BDFJLGLN@gBS?5?$CB?$DN?5?$CI?$CIvoid?5?$CK?$CJ?50?$CJ@ 00000000000055e0     UefiBootServicesTableLib:UefiBootServicesTableLib.obj
 0002:00000ce0       ??_C@_0EM@BLKCBDHP@d?3?2myedk2?2edk2?2MdePkg?2Library?2U@ 0000000000005600     UefiMemoryAllocationLib:MemoryAllocationLib.obj
 0002:00000d30       ??_C@_0BE@OBDFIHND@gRT?5?$CB?$DN?5?$CI?$CIvoid?5?$CK?$CJ?50?$CJ@ 0000000000005650     UefiRuntimeServicesTableLib:UefiRuntimeServicesTableLib.obj
 0002:00000d50       ??_C@_0FI@ELFALICJ@d?3?2myedk2?2edk2?2MdePkg?2Library?2U@ 0000000000005670     UefiRuntimeServicesTableLib:UefiRuntimeServicesTableLib.obj
 0002:00000db0       ??_C@_0FG@PKIHNGDJ@d?3?2myedk2?2edk2?2MdePkg?2Library?2U@ 00000000000056d0     UefiDevicePathLibDevicePathProtocol:UefiDevicePathLib.obj
 0002:00000e08       ??_C@_0DC@CNNBPJA@mDevicePathLibDevicePathUtiliti@ 0000000000005728     UefiDevicePathLibDevicePathProtocol:UefiDevicePathLib.obj
 0002:00000e40       ??_C@_0DA@MHLDPJPP@d?3?2myedk2?2edk2?2MdePkg?2Library?2U@ 0000000000005760     UefiLib:UefiLib.obj
 0002:00000e70       ??_C@_0DB@IMLKCNBK@d?3?2myedk2?2edk2?2MdePkg?2Library?2D@ 0000000000005790     DxeHobLib:HobLib.obj
 0002:00000ea8       ??_C@_0BJ@OBFMLLDO@mHobList?5?$CB?$DN?5?$CI?$CIvoid?5?$CK?$CJ?50?$CJ@ 00000000000057c8     DxeHobLib:HobLib.obj
 0002:00000ec8       ??_C@_0BJ@NOLLDKJB@HobStart?5?$CB?$DN?5?$CI?$CIvoid?5?$CK?$CJ?50?$CJ@ 00000000000057e8     DxeHobLib:HobLib.obj
 0002:00000ee8       ??_C@_0DC@HLELONJE@ERROR?3?5Found?5two?5variable?5flash@ 0000000000005808     BaseVariableFlashInfoLib:BaseVariableFlashInfoLib.obj
 0002:00000f20       ??_C@_0FI@DFPMNHFN@d?3?2myedk2?2edk2?2MdeModulePkg?2Lib@ 0000000000005840     BaseVariableFlashInfoLib:BaseVariableFlashInfoLib.obj
 0002:00000f78       ??_C@_0DC@DDBICJIK@d?3?2myedk2?2edk2?2MdePkg?2Library?2B@ 0000000000005898     BaseLib:Unaligned.obj
 0002:00000fb0       ??_C@_0BH@MAAHKCPC@String?5?$CB?$DN?5?$CI?$CIvoid?5?$CK?$CJ?50?$CJ@ 00000000000058d0     BaseLib:String.obj
 0002:00000fc8       ??_C@_0CP@DJBLNMJI@d?3?2myedk2?2edk2?2MdePkg?2Library?2B@ 00000000000058e8     BaseLib:String.obj
 0002:00000ff8       ??_C@_0CC@GFNLNIOC@?$CI?$CIUINTN?$CJString?5?$CG?50x00000001?$CJ?5?$DN?$DN@ 0000000000005918     BaseLib:String.obj
 0002:00001020       ??_C@_0DI@MDIKFADO@Length?5?$DM?5_gPcd_FixedAtBuild_Pcd@ 0000000000005940     BaseLib:String.obj
 0002:00001058       ??_C@_0DD@OKIGPFG@d?3?2myedk2?2edk2?2MdePkg?2Library?2B@ 0000000000005978     BaseLib:SafeString.obj
 0002:00001090       ??_C@_0BJ@CNKJJNE@?$CIBuffer?5?$CB?$DN?5?$CI?$CIvoid?5?$CK?$CJ?50?$CJ?$CJ@ 00000000000059b0     BaseLib:SafeString.obj
 0002:000010b0       ??_C@_0N@KGHEHMDL@Divisor?5?$CB?$DN?50@ 00000000000059d0     BaseLib:DivU64x32.obj
 0002:000010c0       ??_C@_0DE@IBFOALAL@d?3?2myedk2?2edk2?2MdePkg?2Library?2D@ 00000000000059e0     DxePcdLib:DxePcdLib.obj
 0002:000010f8       ??_C@_0BF@OOKDELHM@mPcd?5?$CB?$DN?5?$CI?$CIvoid?5?$CK?$CJ?50?$CJ@ 0000000000005a18     DxePcdLib:DxePcdLib.obj
 0002:00001110       ??_C@_0ED@CECKBBNJ@d?3?2myedk2?2edk2?2MdePkg?2Library?2B@ 0000000000005a30     BaseMemoryLibRepStr:ZeroMemWrapper.obj
 0002:00001158       ??_C@_0DO@DLJLNPNA@d?3?2myedk2?2edk2?2MdePkg?2Library?2B@ 0000000000005a78     BasePrintLib:PrintLibInternal.obj
 0002:000011a0       ??_C@_0EB@HDGIDCIO@?$CIBufferSize?5?$DM?$DN?5?$CI_gPcd_FixedAtBu@ 0000000000005ac0     BasePrintLib:PrintLibInternal.obj
 0002:000011e8       ??_C@_0BJ@PPAKKDJG@?$CIFormat?5?$CB?$DN?5?$CI?$CIvoid?5?$CK?$CJ?50?$CJ?$CJ@ 0000000000005b08     BasePrintLib:PrintLibInternal.obj
 0002:00001210       ??_C@_0ED@LPDDCECB@?$CIBufferSize?5?$DM?$DN?5?$CI_gPcd_FixedAtBu@ 0000000000005b30     BasePrintLib:PrintLibInternal.obj
 0002:00001260       ??_C@_0IM@BFJJFLGB@?$CIStrnLenS?5?$CI?$CICHAR16?5?$CK?$CJFormat?0?5?$CI_@ 0000000000005b80     BasePrintLib:PrintLibInternal.obj
 0002:000012f0       ??_C@_0ID@PLGJGION@?$CIAsciiStrnLenS?5?$CIFormat?0?5?$CI_gPcd_@ 0000000000005c10     BasePrintLib:PrintLibInternal.obj
 0002:00001378       ??_C@_0O@MLOLIMFM@?$DMnull?5string?$DO@ 0000000000005c98     BasePrintLib:PrintLibInternal.obj
 0002:00001388       ??_C@_0M@BJJDNPHK@?$DMnull?5guid?$DO@ 0000000000005ca8     BasePrintLib:PrintLibInternal.obj
 0002:00001398       ??_C@_0DB@PMLHLBMO@?$CF08x?9?$CF04x?9?$CF04x?9?$CF02x?$CF02x?9?$CF02x?$CF02@ 0000000000005cb8     BasePrintLib:PrintLibInternal.obj
 0002:000013d0       ??_C@_0M@LHGBCIKM@?$DMnull?5time?$DO@ 0000000000005cf0     BasePrintLib:PrintLibInternal.obj
 0002:000013e0       ??_C@_0BK@FCPKCIDD@?$CF02d?1?$CF02d?1?$CF04d?5?5?$CF02d?3?$CF02d@ 0000000000005d00     BasePrintLib:PrintLibInternal.obj
 0002:000013fc       ??_C@_04JIMNDDED@?$CF08X@  0000000000005d1c     BasePrintLib:PrintLibInternal.obj
 0002:00001404       ??_C@_02PCIJFNDE@?$AN?6@   0000000000005d24     BasePrintLib:PrintLibInternal.obj
 0002:00001408       ??_C@_01LIIJDEN@?$AN@      0000000000005d28     BasePrintLib:PrintLibInternal.obj
 0002:00001410       mWarningString             0000000000005d30     BasePrintLib:PrintLibInternal.obj
 0002:000014b0       mErrorString               0000000000005dd0     BasePrintLib:PrintLibInternal.obj
 0002:00001770       mHexStr                    0000000000006090     BasePrintLib:PrintLibInternal.obj
 0002:00001780       ??_C@_0DL@JEBMKBEC@d?3?2myedk2?2edk2?2MdePkg?2Library?2B@ 00000000000060a0     BaseLib:DivU64x32Remainder.obj
 0002:00001810       __volatile_metadata        0000000000006130     <linker-defined>
 0003:00000000       gEfiStatusCodeRuntimeProtocolGuid 00000000000062e0     FaultTolerantWriteDxe:AutoGen.obj
 0003:00000010       gEfiFirmwareVolumeBlockProtocolGuid 00000000000062f0     FaultTolerantWriteDxe:AutoGen.obj
 0003:00000020       gPcdProtocolGuid           0000000000006300     FaultTolerantWriteDxe:AutoGen.obj
 0003:00000030       gVariableFlashInfoHobGuid  0000000000006310     FaultTolerantWriteDxe:AutoGen.obj
 0003:00000040       gEdkiiWorkingBlockSignatureGuid 0000000000006320     FaultTolerantWriteDxe:AutoGen.obj
 0003:00000050       gEfiFaultTolerantWriteProtocolGuid 0000000000006330     FaultTolerantWriteDxe:AutoGen.obj
 0003:00000060       gEfiDevicePathUtilitiesProtocolGuid 0000000000006340     FaultTolerantWriteDxe:AutoGen.obj
 0003:00000070       gEfiHobListGuid            0000000000006350     FaultTolerantWriteDxe:AutoGen.obj
 0003:00000080       gEfiSwapAddressRangeProtocolGuid 0000000000006360     FaultTolerantWriteDxe:AutoGen.obj
 0003:00000090       gEfiCallerIdGuid           0000000000006370     FaultTolerantWriteDxe:AutoGen.obj
 0003:000000a0       mFvbRegistration           0000000000006380     FaultTolerantWriteDxe:FaultTolerantWriteDxe.obj
 0003:000000a8       mWorkingBlockHeader        0000000000006388     FaultTolerantWriteDxe:UpdateWorkingBlock.obj
 0003:000000c8       gST                        00000000000063a8     UefiBootServicesTableLib:UefiBootServicesTableLib.obj
 0003:000000d0       gBS                        00000000000063b0     UefiBootServicesTableLib:UefiBootServicesTableLib.obj
 0003:000000d8       gImageHandle               00000000000063b8     UefiBootServicesTableLib:UefiBootServicesTableLib.obj
 0003:000000e0       gRT                        00000000000063c0     UefiRuntimeServicesTableLib:UefiRuntimeServicesTableLib.obj
 0003:000000e8       mDevicePathLibDevicePathUtilities 00000000000063c8     UefiDevicePathLibDevicePathProtocol:UefiDevicePathLib.obj
 0003:000000f0       mHobList                   00000000000063d0     DxeHobLib:HobLib.obj
 0003:000000f8       mReportStatusCodeLibStatusCodeProtocol 00000000000063d8     DxeReportStatusCodeLib:ReportStatusCodeLib.obj
 0003:00000100       mPcd                       00000000000063e0     DxePcdLib:DxePcdLib.obj
 0003:00000108       gParity                    00000000000063e8     PcAtSerialPortLib:SerialPortLib.obj
 0003:00000109       gBreakSet                  00000000000063e9     PcAtSerialPortLib:SerialPortLib.obj

 entry point at        0001:000001d8

 Static symbols

 0001:0000004a       InternalMemCopyMem.0       00000000000002ca     BaseMemoryLibRepStr:CopyMem.obj
 0001:0000005a       @CopyBackward              00000000000002da     BaseMemoryLibRepStr:CopyMem.obj
 0001:00000063       @CopyBytes                 00000000000002e3     BaseMemoryLibRepStr:CopyMem.obj
 0001:0000014e       TdVmCall.no_return_data    00000000000003ce     BaseLib:TdVmcall.obj
 0001:000001cb       TdCall.exit                000000000000044b     BaseLib:TdCall.obj
 0001:00003314       GetVariableFlashInfoFromHob 0000000000003594 f   BaseVariableFlashInfoLib:BaseVariableFlashInfoLib.obj
 0005:00000000       $unwind$_ModuleEntryPoint  0000000000006660     UefiDriverEntryPoint:DriverEntryPoint.obj
 0005:00000008       $unwind$ProcessLibraryConstructorList 0000000000006668     FaultTolerantWriteDxe:AutoGen.obj
 0005:00000008       $unwind$FtwGetMaxBlockSize 0000000000006668     FaultTolerantWriteDxe:FaultTolerantWrite.obj
 0005:00000008       $unwind$FvbNotificationEvent 0000000000006668     FaultTolerantWriteDxe:FaultTolerantWriteDxe.obj
 0005:00000008       $unwind$IsValidWorkSpace   0000000000006668     FaultTolerantWriteDxe:UpdateWorkingBlock.obj
 0005:00000008       $unwind$AsciiStrLen        0000000000006668     BaseLib:String.obj
 0005:00000008       $unwind$SetMem             0000000000006668     BaseMemoryLibRepStr:SetMemWrapper.obj
 0005:00000008       $unwind$ZeroMem            0000000000006668     BaseMemoryLibRepStr:ZeroMemWrapper.obj
 0005:00000014       $unwind$GetFvbByAddress    0000000000006674     FaultTolerantWriteDxe:FtwMisc.obj
 0005:00000024       $unwind$IsBootBlock        0000000000006684     FaultTolerantWriteDxe:FtwMisc.obj
 0005:00000030       $unwind$FlushSpareBlockToBootBlock 0000000000006690     FaultTolerantWriteDxe:FtwMisc.obj
 0005:00000044       $unwind$FlushSpareBlockToTargetBlock 00000000000066a4     FaultTolerantWriteDxe:FtwMisc.obj
 0005:00000060       $unwind$FlushSpareBlockToWorkingBlock 00000000000066c0     FaultTolerantWriteDxe:FtwMisc.obj
 0005:00000074       $unwind$FtwUpdateFvState   00000000000066d4     FaultTolerantWriteDxe:FtwMisc.obj
 0005:00000084       $unwind$InitFtwDevice      00000000000066e4     FaultTolerantWriteDxe:FtwMisc.obj
 0005:0000009c       $unwind$FindFvbForFtw      00000000000066fc     FaultTolerantWriteDxe:FtwMisc.obj
 0005:000000b0       $unwind$InitFtwProtocol    0000000000006710     FaultTolerantWriteDxe:FtwMisc.obj
 0005:000000c8       $unwind$GetVariableFlashInfoFromHob 0000000000006728     BaseVariableFlashInfoLib:BaseVariableFlashInfoLib.obj
 0005:000000c8       $unwind$InitializeLocalWorkSpaceHeader 0000000000006728     FaultTolerantWriteDxe:UpdateWorkingBlock.obj
 0005:000000c8       $unwind$IoWrite8           0000000000006728     BaseIoLibIntrinsicSev:IoLibMsc.obj
 0005:000000c8       $unwind$StrnLenS           0000000000006728     BaseLib:SafeString.obj
 0005:000000d0       $unwind$FtwWriteRecord     0000000000006730     FaultTolerantWriteDxe:FaultTolerantWrite.obj
 0005:000000d0       $unwind$ReadWorkSpaceData  0000000000006730     FaultTolerantWriteDxe:UpdateWorkingBlock.obj
 0005:000000d0       $unwind$WriteWorkSpaceData 0000000000006730     FaultTolerantWriteDxe:UpdateWorkingBlock.obj
 0005:000000e8       $unwind$WorkSpaceRefresh   0000000000006748     FaultTolerantWriteDxe:UpdateWorkingBlock.obj
 0005:000000fc       $unwind$FtwReclaimWorkSpace 000000000000675c     FaultTolerantWriteDxe:UpdateWorkingBlock.obj
 0005:00000118       $unwind$FtwAllocate        0000000000006778     FaultTolerantWriteDxe:FaultTolerantWrite.obj
 0005:00000130       $unwind$FtwWrite           0000000000006790     FaultTolerantWriteDxe:FaultTolerantWrite.obj
 0005:00000148       $unwind$FtwRestart         00000000000067a8     FaultTolerantWriteDxe:FaultTolerantWrite.obj
 0005:0000015c       $unwind$InternalReportStatusCode 00000000000067bc     DxeReportStatusCodeLib:ReportStatusCodeLib.obj
 0005:0000015c       $unwind$FtwAbort           00000000000067bc     FaultTolerantWriteDxe:FaultTolerantWrite.obj
 0005:0000015c       $unwind$TdIoWrite8         00000000000067bc     BaseIoLibIntrinsicSev:IoLibInternalTdx.obj
 0005:00000164       $unwind$FtwGetLastWrite    00000000000067c4     FaultTolerantWriteDxe:FaultTolerantWrite.obj
 0005:00000180       $unwind$CopyMem            00000000000067e0     BaseMemoryLibRepStr:CopyMemWrapper.obj
 0005:00000180       $unwind$SerialPortWrite    00000000000067e0     PcAtSerialPortLib:SerialPortLib.obj
 0005:00000194       $unwind$CompareGuid        00000000000067f4     BaseMemoryLibRepStr:MemLibGuid.obj
 0005:000001ac       $unwind$DebugPrint         000000000000680c     BaseDebugLibSerialPort:DebugLib.obj
 0005:000001b4       $unwind$DebugPrintMarker   0000000000006814     BaseDebugLibSerialPort:DebugLib.obj
 0005:000001c8       $unwind$DebugAssert        0000000000006828     BaseDebugLibSerialPort:DebugLib.obj
 0005:000001d0       $unwind$GetPcdProtocol     0000000000006830     DxePcdLib:DxePcdLib.obj
 0005:000001d0       $unwind$FreePool           0000000000006830     UefiMemoryAllocationLib:MemoryAllocationLib.obj
 0005:000001d0       $unwind$InternalAllocatePool 0000000000006830     UefiMemoryAllocationLib:MemoryAllocationLib.obj
 0005:000001d8       $unwind$EfiCreateProtocolNotifyEvent 0000000000006838     UefiLib:UefiLib.obj
 0005:000001e0       $unwind$BasePrintLibValueToString 0000000000006840     BasePrintLib:PrintLibInternal.obj
 0005:000001e0       $unwind$GetHobList         0000000000006840     DxeHobLib:HobLib.obj
 0005:000001e0       $unwind$GetNextGuidHob     0000000000006840     DxeHobLib:HobLib.obj
 0005:000001f0       $unwind$AsciiSPrint        0000000000006850     BasePrintLib:PrintLib.obj
 0005:000001f8       $unwind$BasePrintLibSPrintMarker 0000000000006858     BasePrintLib:PrintLibInternal.obj
 0005:00000214       $unwind$TdIoRead8          0000000000006874     BaseIoLibIntrinsicSev:IoLibInternalTdx.obj
 0005:00000214       $unwind$BasePrintLibSPrint 0000000000006874     BasePrintLib:PrintLibInternal.obj
