 VariableRuntimeDxe

 Timestamp is 62c26ab6 (Mon Jul  4 12:21:10 2022)

 Preferred load address is 0000000000000000

 Start         Length     Name                   Class
 0001:00000000 00000298H .text                   CODE
 0001:00000298 00072a71H .text$mn                CODE
 0002:00000000 0003f254H .rdata                  DATA
 0002:0003f254 00000584H .rdata$voltmd           DATA
 0002:0003f7d8 00000160H .rdata$zzzdbg           DATA
 0003:00000000 00001840H .data                   DATA
 0003:00001840 00000cd0H .bss                    DATA
 0004:00000000 00004194H .pdata                  DATA
 0005:00000000 00002404H .xdata                  DATA

  Address         Publics by Value              Rva+Base               Lib:Object

 0000:00000000       __dynamic_value_reloc_table 0000000000000000     <absolute>
 0000:00000000       __guard_iat_count          0000000000000000     <absolute>
 0000:00000000       __hybrid_auxiliary_iat     0000000000000000     <absolute>
 0000:00000000       __hybrid_auxiliary_iat_copy 0000000000000000     <absolute>
 0000:00000000       __guard_iat_table          0000000000000000     <absolute>
 0000:00000000       __arm64x_redirection_metadata 0000000000000000     <absolute>
 0000:00000000       __x64_code_ranges_to_entry_points_count 0000000000000000     <absolute>
 0000:00000000       __AbsoluteZero             0000000000000000     <absolute>
 0000:00000000       __guard_check_icall_a64n_fptr 0000000000000000     <absolute>
 0000:00000000       __guard_longjmp_count      0000000000000000     <absolute>
 0000:00000000       __guard_longjmp_table      0000000000000000     <absolute>
 0000:00000000       __guard_fids_table         0000000000000000     <absolute>
 0000:00000000       __x64_code_ranges_to_entry_points 0000000000000000     <absolute>
 0000:00000000       __guard_fids_count         0000000000000000     <absolute>
 0000:00000000       __arm64x_extra_rfe_table   0000000000000000     <absolute>
 0000:00000000       __hybrid_code_map          0000000000000000     <absolute>
 0000:00000000       __arm64x_extra_rfe_table_size 0000000000000000     <absolute>
 0000:00000000       __arm64x_redirection_metadata_count 0000000000000000     <absolute>
 0000:00000000       __enclave_config           0000000000000000     <absolute>
 0000:00000000       __guard_eh_cont_table      0000000000000000     <absolute>
 0000:00000000       __arm64x_native_entrypoint 0000000000000000     <absolute>
 0000:00000000       __guard_flags              0000000000000000     <absolute>
 0000:00000000       __guard_eh_cont_count      0000000000000000     <absolute>
 0000:00000000       __hybrid_code_map_count    0000000000000000     <absolute>
 0000:00000000       __ImageBase                0000000000000000     <linker-defined>
 0001:00000000       InternalMemCopyMem         00000000000002c0     BaseMemoryLibRepStr:CopyMem.obj
 0001:00000040       InternalMemZeroMem         0000000000000300     BaseMemoryLibRepStr:ZeroMem.obj
 0001:00000060       InternalMemCompareMem      0000000000000320     BaseMemoryLibRepStr:CompareMem.obj
 0001:00000080       InternalMemSetMem          0000000000000340     BaseMemoryLibRepStr:SetMem.obj
 0001:000000a0       InternalMemSetMem64        0000000000000360     BaseMemoryLibRepStr:SetMem64.obj
 0001:000000c0       InternalMemSetMem32        0000000000000380     BaseMemoryLibRepStr:SetMem32.obj
 0001:000000e0       CpuPause                   00000000000003a0     BaseLib:CpuPause.obj
 0001:000000f0       AsmCpuid                   00000000000003b0     BaseLib:CpuId.obj
 0001:00000120       TdVmCall                   00000000000003e0     BaseLib:TdVmcall.obj
 0001:000001b0       EnableInterrupts           0000000000000470     BaseLib:EnableInterrupts.obj
 0001:000001c0       DisableInterrupts          0000000000000480     BaseLib:DisableInterrupts.obj
 0001:000001d0       AsmReadEflags              0000000000000490     BaseLib:ReadEflags.obj
 0001:000001e0       InternalMemScanMem8        00000000000004a0     BaseMemoryLibRepStr:ScanMem8.obj
 0001:00000200       InternalMemScanMem64       00000000000004c0     BaseMemoryLibRepStr:ScanMem64.obj
 0001:00000220       InternalMemScanMem32       00000000000004e0     BaseMemoryLibRepStr:ScanMem32.obj
 0001:00000240       TdCall                     0000000000000500     BaseLib:TdCall.obj
 0001:00000298       _ModuleEntryPoint          0000000000000558 f   UefiDriverEntryPoint:DriverEntryPoint.obj
 0001:000002c4       ProcessLibraryConstructorList 0000000000000584 f   VariableRuntimeDxe:AutoGen.obj
 0001:000008dc       ProcessLibraryDestructorList 0000000000000b9c f   VariableRuntimeDxe:AutoGen.obj
 0001:000009c8       AcquireLockOnlyAtBootTime  0000000000000c88 f   VariableRuntimeDxe:VariableDxe.obj
 0001:00000a34       ReleaseLockOnlyAtBootTime  0000000000000cf4 f   VariableRuntimeDxe:VariableDxe.obj
 0001:00000a9c       VariableClassAddressChangeEvent 0000000000000d5c f   VariableRuntimeDxe:VariableDxe.obj
 0001:00000ce4       OnReadyToBoot              0000000000000fa4 f   VariableRuntimeDxe:VariableDxe.obj
 0001:00000d70       OnEndOfDxe                 0000000000001030 f   VariableRuntimeDxe:VariableDxe.obj
 0001:00000e00       VariableWriteServiceInitializeDxe 00000000000010c0 f   VariableRuntimeDxe:VariableDxe.obj
 0001:00000ec0       FtwNotificationEvent       0000000000001180 f   VariableRuntimeDxe:VariableDxe.obj
 0001:000010a4       ProtocolIsVariablePolicyEnabled 0000000000001364 f   VariableRuntimeDxe:VariableDxe.obj
 0001:000010c0       VariableServiceInitialize  0000000000001380 f   VariableRuntimeDxe:VariableDxe.obj
 0001:00001454       UpdateVariableStore        0000000000001714 f   VariableRuntimeDxe:Variable.obj
 0001:0000167c       RecordVarErrorFlag         000000000000193c f   VariableRuntimeDxe:Variable.obj
 0001:0000182c       InitializeVarErrorFlag     0000000000001aec f   VariableRuntimeDxe:Variable.obj
 0001:00001900       IsUserVariable             0000000000001bc0 f   VariableRuntimeDxe:Variable.obj
 0001:00001974       CalculateCommonUserVariableTotalSize 0000000000001c34 f   VariableRuntimeDxe:Variable.obj
 0001:00001a94       Reclaim                    0000000000001d54 f   VariableRuntimeDxe:Variable.obj
 0001:00002268       FindVariable               0000000000002528 f   VariableRuntimeDxe:Variable.obj
 0001:0000235c       GetIndexFromSupportedLangCodes 000000000000261c f   VariableRuntimeDxe:Variable.obj
 0001:00002468       GetLangFromSupportedLangCodes 0000000000002728 f   VariableRuntimeDxe:Variable.obj
 0001:00002540       VariableGetBestLanguage    0000000000002800 f   VariableRuntimeDxe:Variable.obj
 0001:00002678       CheckRemainingSpaceForConsistencyInternal 0000000000002938 f   VariableRuntimeDxe:Variable.obj
 0001:00002808       CheckRemainingSpaceForConsistency 0000000000002ac8 f   VariableRuntimeDxe:Variable.obj
 0001:00002808       VariableExLibCheckRemainingSpaceForConsistency 0000000000002ac8 f   VariableRuntimeDxe:VariableExLib.obj
 0001:0000282c       AutoUpdateLangVariable     0000000000002aec f   VariableRuntimeDxe:Variable.obj
 0001:00002d30       UpdateVariable             0000000000002ff0 f   VariableRuntimeDxe:Variable.obj
 0001:00003958       VariableServiceGetVariable 0000000000003c18 f   VariableRuntimeDxe:Variable.obj
 0001:00003ae4       VariableServiceGetNextVariableName 0000000000003da4 f   VariableRuntimeDxe:Variable.obj
 0001:00003c58       VariableServiceSetVariable 0000000000003f18 f   VariableRuntimeDxe:Variable.obj
 0001:00004198       VariableServiceQueryVariableInfoInternal 0000000000004458 f   VariableRuntimeDxe:Variable.obj
 0001:00004410       VariableServiceQueryVariableInfo 00000000000046d0 f   VariableRuntimeDxe:Variable.obj
 0001:000044f4       ReclaimForOS               00000000000047b4 f   VariableRuntimeDxe:Variable.obj
 0001:0000459c       FlushHobVariableToFlash    000000000000485c f   VariableRuntimeDxe:Variable.obj
 0001:00004860       VariableWriteServiceInitialize 0000000000004b20 f   VariableRuntimeDxe:Variable.obj
 0001:00004b08       ConvertNormalVarStorageToAuthVarStorage 0000000000004dc8 f   VariableRuntimeDxe:Variable.obj
 0001:00004d58       GetHobVariableStore        0000000000005018 f   VariableRuntimeDxe:Variable.obj
 0001:00004ef4       VariableCommonInitialize   00000000000051b4 f   VariableRuntimeDxe:Variable.obj
 0001:000050b8       GetFvbInfoByAddress        0000000000005378 f   VariableRuntimeDxe:Variable.obj
 0001:00005228       VarCheckRegisterSetVariableCheckHandler 00000000000054e8 f   VariableRuntimeDxe:VarCheck.obj
 0001:00005268       VarCheckVariablePropertySet 0000000000005528 f   VariableRuntimeDxe:VarCheck.obj
 0001:000052c4       VarCheckVariablePropertyGet 0000000000005584 f   VariableRuntimeDxe:VarCheck.obj
 0001:00005320       VariableLockRequestToLock  00000000000055e0 f   VariableRuntimeDxe:VariableLockRequestToLock.obj
 0001:00005464       MorLockInitAtEndOfDxe      0000000000005724 f   VariableRuntimeDxe:TcgMorLockDxe.obj
 0001:00005534       MeasureVariable            00000000000057f4 f   VariableRuntimeDxe:Measurement.obj
 0001:00005648       InternalGetVariable        0000000000005908 f   VariableRuntimeDxe:Measurement.obj
 0001:00005738       SecureBootHook             00000000000059f8 f   VariableRuntimeDxe:Measurement.obj
 0001:000059dc       GetVariableStoreStatus     0000000000005c9c f   VariableRuntimeDxe:VariableParsing.obj
 0001:00005a54       NameSizeOfVariable         0000000000005d14 f   VariableRuntimeDxe:VariableParsing.obj
 0001:00005a8c       DataSizeOfVariable         0000000000005d4c f   VariableRuntimeDxe:VariableParsing.obj
 0001:00005ac4       FindVariableEx             0000000000005d84 f   VariableRuntimeDxe:VariableParsing.obj
 0001:00005c5c       VariableServiceGetNextVariableInternal 0000000000005f1c f   VariableRuntimeDxe:VariableParsing.obj
 0001:00005fc0       InitRealNonVolatileVariableStore 0000000000006280 f   VariableRuntimeDxe:VariableNonVolatile.obj
 0001:000062f4       InitNonVolatileVariableStore 00000000000065b4 f   VariableRuntimeDxe:VariableNonVolatile.obj
 0001:00006420       GetLbaAndOffsetByAddress   00000000000066e0 f   VariableRuntimeDxe:Reclaim.obj
 0001:000064d4       FtwVariableSpace           0000000000006794 f   VariableRuntimeDxe:Reclaim.obj
 0001:000065a8       VariableExLibFindVariable  0000000000006868 f   VariableRuntimeDxe:VariableExLib.obj
 0001:0000668c       VariableExLibFindNextVariable 000000000000694c f   VariableRuntimeDxe:VariableExLib.obj
 0001:000067d4       VariableExLibUpdateVariable 0000000000006a94 f   VariableRuntimeDxe:VariableExLib.obj
 0001:00006840       VariableExLibGetScratchBuffer 0000000000006b00 f   VariableRuntimeDxe:VariableExLib.obj
 0001:0000687c       VariableExLibAtRuntime     0000000000006b3c f   VariableRuntimeDxe:VariableExLib.obj
 0001:00006884       FlushPendingRuntimeVariableCacheUpdates 0000000000006b44 f   VariableRuntimeDxe:VariableRuntimeCache.obj
 0001:00006954       SynchronizeRuntimeVariableCache 0000000000006c14 f   VariableRuntimeDxe:VariableRuntimeCache.obj
 0001:000069dc       GetPcdProtocol             0000000000006c9c f   DxePcdLib:DxePcdLib.obj
 0001:00006a68       CopyGuid                   0000000000006d28 f   BaseMemoryLibRepStr:MemLibGuid.obj
 0001:00006b18       CompareGuid                0000000000006dd8 f   BaseMemoryLibRepStr:MemLibGuid.obj
 0001:00006bdc       CopyMem                    0000000000006e9c f   BaseMemoryLibRepStr:CopyMemWrapper.obj
 0001:00006c78       ZeroMem                    0000000000006f38 f   BaseMemoryLibRepStr:ZeroMemWrapper.obj
 0001:00006ce8       CompareMem                 0000000000006fa8 f   BaseMemoryLibRepStr:CompareMemWrapper.obj
 0001:00006dc0       SetMem                     0000000000007080 f   BaseMemoryLibRepStr:SetMemWrapper.obj
 0001:00006e24       StrLen                     00000000000070e4 f   BaseLib:String.obj
 0001:00006eac       StrCmp                     000000000000716c f   BaseLib:String.obj
 0001:00006f54       StrnCmp                    0000000000007214 f   BaseLib:String.obj
 0001:0000703c       AsciiStrLen                00000000000072fc f   BaseLib:String.obj
 0001:000070a8       AsciiStrCmp                0000000000007368 f   BaseLib:String.obj
 0001:00007134       AsciiStriCmp               00000000000073f4 f   BaseLib:String.obj
 0001:00007220       AsciiStrnCmp               00000000000074e0 f   BaseLib:String.obj
 0001:000072ec       StrnLenS                   00000000000075ac f   BaseLib:SafeString.obj
 0001:00007354       StrCpyS                    0000000000007614 f   BaseLib:SafeString.obj
 0001:000074f8       AsciiStrnCpyS              00000000000077b8 f   BaseLib:SafeString.obj
 0001:00007648       AsciiStrCatS               0000000000007908 f   BaseLib:SafeString.obj
 0001:000077bc       AsciiStrDecimalToUintnS    0000000000007a7c f   BaseLib:SafeString.obj
 0001:000078d4       DebugPrint                 0000000000007b94 f   BaseDebugLibSerialPort:DebugLib.obj
 0001:000078f8       DebugPrintMarker           0000000000007bb8 f   BaseDebugLibSerialPort:DebugLib.obj
 0001:00007984       DebugAssert                0000000000007c44 f   BaseDebugLibSerialPort:DebugLib.obj
 0001:000079ec       AllocatePool               0000000000007cac f   UefiMemoryAllocationLib:MemoryAllocationLib.obj
 0001:00007a20       AllocateRuntimePool        0000000000007ce0 f   UefiMemoryAllocationLib:MemoryAllocationLib.obj
 0001:00007a54       InternalAllocateZeroPool   0000000000007d14 f   UefiMemoryAllocationLib:MemoryAllocationLib.obj
 0001:00007a98       InternalAllocateCopyPool   0000000000007d58 f   UefiMemoryAllocationLib:MemoryAllocationLib.obj
 0001:00007b40       InternalReallocatePool     0000000000007e00 f   UefiMemoryAllocationLib:MemoryAllocationLib.obj
 0001:00007bac       FreePool                   0000000000007e6c f   UefiMemoryAllocationLib:MemoryAllocationLib.obj
 0001:00007bf0       IsDevicePathValid          0000000000007eb0 f   UefiDevicePathLibDevicePathProtocol:UefiDevicePathLib.obj
 0001:00007d44       NextDevicePathNode         0000000000008004 f   UefiDevicePathLibDevicePathProtocol:UefiDevicePathLib.obj
 0001:00007db4       EfiGetSystemConfigurationTable 0000000000008074 f   UefiLib:UefiLib.obj
 0001:00007e78       EfiCreateProtocolNotifyEvent 0000000000008138 f   UefiLib:UefiLib.obj
 0001:00007f44       EfiCreateEventReadyToBootEx 0000000000008204 f   UefiLib:UefiNotTiano.obj
 0001:00007fe8       GetHobList                 00000000000082a8 f   DxeHobLib:HobLib.obj
 0001:0000806c       GetNextGuidHob             000000000000832c f   DxeHobLib:HobLib.obj
 0001:000080f8       RuntimeAllocateMem         00000000000083b8 f   RuntimeCryptLib:RuntimeMemAllocation.obj
 0001:00008278       RuntimeFreeMem             0000000000008538 f   RuntimeCryptLib:RuntimeMemAllocation.obj
 0001:00008300       RuntimeCryptLibAddressChangeEvent 00000000000085c0 f   RuntimeCryptLib:RuntimeMemAllocation.obj
 0001:00008334       realloc                    00000000000085f4 f   RuntimeCryptLib:RuntimeMemAllocation.obj
 0001:00008600       RegisterVariablePolicy     00000000000088c0 f   VariablePolicyLibRuntimeDxe:VariablePolicyLib.obj
 0001:00008778       ValidateSetVariable        0000000000008a38 f   VariablePolicyLibRuntimeDxe:VariablePolicyLib.obj
 0001:00008980       DisableVariablePolicy      0000000000008c40 f   VariablePolicyLibRuntimeDxe:VariablePolicyLib.obj
 0001:000089b4       DumpVariablePolicy         0000000000008c74 f   VariablePolicyLibRuntimeDxe:VariablePolicyLib.obj
 0001:00008a28       LockVariablePolicy         0000000000008ce8 f   VariablePolicyLibRuntimeDxe:VariablePolicyLib.obj
 0001:00008a8c       VariablePropertyGetFunction 0000000000008d4c f   VarCheckLib:VarCheckLib.obj
 0001:00008c54       VarCheckAddTableEntry      0000000000008f14 f   VarCheckLib:VarCheckLib.obj
 0001:00008cd0       VarCheckLibInitializeAtEndOfDxe 0000000000008f90 f   VarCheckLib:VarCheckLib.obj
 0001:00008e90       VarCheckLibRegisterSetVariableCheckHandler 0000000000009150 f   VarCheckLib:VarCheckLib.obj
 0001:00008f08       VarCheckLibVariablePropertySet 00000000000091c8 f   VarCheckLib:VarCheckLib.obj
 0001:0000905c       VarCheckLibVariablePropertyGet 000000000000931c f   VarCheckLib:VarCheckLib.obj
 0001:000090c8       VarCheckLibSetVariableCheck 0000000000009388 f   VarCheckLib:VarCheckLib.obj
 0001:00009284       RuntimeLibExitBootServicesEvent 0000000000009544 f   UefiRuntimeLib:RuntimeLib.obj
 0001:0000928c       RuntimeLibVirtualNotifyEvent 000000000000954c f   UefiRuntimeLib:RuntimeLib.obj
 0001:000092a0       AuthVariableLibInitialize  0000000000009560 f   AuthVariableLib:AuthVariableLib.obj
 0001:00009704       AuthVariableLibProcessVariable 00000000000099c4 f   AuthVariableLib:AuthVariableLib.obj
 0001:00009860       AuthServiceInternalFindVariable 0000000000009b20 f   AuthVariableLib:AuthService.obj
 0001:000098cc       AuthServiceInternalUpdateVariable 0000000000009b8c f   AuthVariableLib:AuthService.obj
 0001:00009940       AuthServiceInternalUpdateVariableWithTimeStamp 0000000000009c00 f   AuthVariableLib:AuthService.obj
 0001:00009a64       UpdatePlatformMode         0000000000009d24 f   AuthVariableLib:AuthService.obj
 0001:00009ba8       CheckSignatureListFormat   0000000000009e68 f   AuthVariableLib:AuthService.obj
 0001:00009df8       VendorKeyIsModified        000000000000a0b8 f   AuthVariableLib:AuthService.obj
 0001:00009e6c       ProcessVarWithPk           000000000000a12c f   AuthVariableLib:AuthService.obj
 0001:0000a01c       ProcessVarWithKek          000000000000a2dc f   AuthVariableLib:AuthService.obj
 0001:0000a124       ProcessVariable            000000000000a3e4 f   AuthVariableLib:AuthService.obj
 0001:0000a2c8       FilterSignatureList        000000000000a588 f   AuthVariableLib:AuthService.obj
 0001:0000a4f4       CalculatePrivAuthVarSignChainSHA256Digest 000000000000a7b4 f   AuthVariableLib:AuthService.obj
 0001:0000a6a0       FindCertsFromDb            000000000000a960 f   AuthVariableLib:AuthService.obj
 0001:0000a86c       GetCertsFromDb             000000000000ab2c f   AuthVariableLib:AuthService.obj
 0001:0000a980       DeleteCertsFromDb          000000000000ac40 f   AuthVariableLib:AuthService.obj
 0001:0000ab30       CleanCertsFromDb           000000000000adf0 f   AuthVariableLib:AuthService.obj
 0001:0000ad08       VerifyTimeBasedPayload     000000000000afc8 f   AuthVariableLib:AuthService.obj
 0001:0000c314       VerifyTimeBasedPayloadAndUpdate 000000000000c5d4 f   AuthVariableLib:AuthService.obj
 0001:0000c4e4       GetVariableFlashNvStorageInfo 000000000000c7a4 f   BaseVariableFlashInfoLib:BaseVariableFlashInfoLib.obj
 0001:0000c570       CreateBasicVariablePolicy  000000000000c830 f   VariablePolicyHelperLib:VariablePolicyHelperLib.obj
 0001:0000c68c       RegisterBasicVariablePolicy 000000000000c94c f   VariablePolicyHelperLib:VariablePolicyHelperLib.obj
 0001:0000c6fc       InternalVarCheckLoadOption 000000000000c9bc f   VarCheckUefiLib:VarCheckUefiLibNullClass.obj
 0001:0000c75c       InternalVarCheckKeyOption  000000000000ca1c f   VarCheckUefiLib:VarCheckUefiLibNullClass.obj
 0001:0000c778       InternalVarCheckDevicePath 000000000000ca38 f   VarCheckUefiLib:VarCheckUefiLibNullClass.obj
 0001:0000c7a0       InternalVarCheckAsciiString 000000000000ca60 f   VarCheckUefiLib:VarCheckUefiLibNullClass.obj
 0001:0000c7dc       InternalVarCheckSizeArray  000000000000ca9c f   VarCheckUefiLib:VarCheckUefiLibNullClass.obj
 0001:0000c7fc       IsHwErrRecVariable         000000000000cabc f   VarCheckUefiLib:VarCheckUefiLibNullClass.obj
 0001:0000c8f4       GetUefiDefinedVarCheckFunction 000000000000cbb4 f   VarCheckUefiLib:VarCheckUefiLibNullClass.obj
 0001:0000ca98       SetVariableCheckHandlerUefiDefined 000000000000cd58 f   VarCheckUefiLib:VarCheckUefiLibNullClass.obj
 0001:0000cbbc       IoWrite8                   000000000000ce7c f   BaseIoLibIntrinsicSev:IoLibMsc.obj
 0001:0000cbe8       IoRead32                   000000000000cea8 f   BaseIoLibIntrinsicSev:IoLibMsc.obj
 0001:0000cc34       IoWrite32                  000000000000cef4 f   BaseIoLibIntrinsicSev:IoLibMsc.obj
 0001:0000cc60       TdIoRead8                  000000000000cf20 f   BaseIoLibIntrinsicSev:IoLibInternalTdx.obj
 0001:0000ccb8       TdIoRead32                 000000000000cf78 f   BaseIoLibIntrinsicSev:IoLibInternalTdx.obj
 0001:0000cd2c       TdIoWrite8                 000000000000cfec f   BaseIoLibIntrinsicSev:IoLibInternalTdx.obj
 0001:0000cd7c       TdIoWrite32                000000000000d03c f   BaseIoLibIntrinsicSev:IoLibInternalTdx.obj
 0001:0000cdd0       SerialPortWrite            000000000000d090 f   PcAtSerialPortLib:SerialPortLib.obj
 0001:0000ce48       AsciiSPrint                000000000000d108 f   BasePrintLib:PrintLib.obj
 0001:0000ce74       BasePrintLibFillBuffer     000000000000d134 f   BasePrintLib:PrintLibInternal.obj
 0001:0000cea8       BasePrintLibValueToString  000000000000d168 f   BasePrintLib:PrintLibInternal.obj
 0001:0000cef8       BasePrintLibSPrintMarker   000000000000d1b8 f   BasePrintLib:PrintLibInternal.obj
 0001:0000de10       BasePrintLibSPrint         000000000000e0d0 f   BasePrintLib:PrintLibInternal.obj
 0001:0000de34       PciExpressRead32           000000000000e0f4 f   BasePciExpressLib:PciExpressLib.obj
 0001:0000de84       PciCf8Read32               000000000000e144 f   BasePciCf8Lib:PciCf8Lib.obj
 0001:0000df20       InternalAcpiDelay          000000000000e1e0 f   DxeAcpiTimerLib:AcpiTimerLib.obj
 0001:0000df84       X509ConstructCertificate   000000000000e244 f   RuntimeCryptLib:CryptX509.obj
 0001:0000e128       RsaGetPublicKeyFromX509    000000000000e3e8 f   RuntimeCryptLib:CryptX509.obj
 0001:0000e250       WrapPkcs7Data              000000000000e510 f   RuntimeCryptLib:CryptPkcs7VerifyCommon.obj
 0001:0000e35c       X509PopCertificate         000000000000e61c f   RuntimeCryptLib:CryptPkcs7VerifyCommon.obj
 0001:0000e46c       Pkcs7GetSigners            000000000000e72c f   RuntimeCryptLib:CryptPkcs7VerifyCommon.obj
 0001:0000e724       DivU64x32Remainder         000000000000e9e4 f   BaseLib:DivU64x32Remainder.obj
 0001:0000e784       SaveAndDisableInterrupts   000000000000ea44 f   BaseLib:Cpu.obj
 0001:0000e7a8       GetTdInfo                  000000000000ea68 f   TdxLib:TdInfo.obj
 0001:0000e80c       TdSharedPageMask           000000000000eacc f   TdxLib:TdInfo.obj
 0001:0000e838       MmioRead32                 000000000000eaf8 f   BaseIoLibIntrinsicSev:IoLib.obj
 0001:0000e8ac       SHA224_Init                000000000000eb6c f   OpensslLib:sha256.obj
 0001:0000e90c       SHA256_Init                000000000000ebcc f   OpensslLib:sha256.obj
 0001:0000e96c       SHA256_Update              000000000000ec2c f   OpensslLib:sha256.obj
 0001:0000ea80       SHA256_Final               000000000000ed40 f   OpensslLib:sha256.obj
 0001:0000f1f4       X509_verify_cert           000000000000f4b4 f   OpensslLib:x509_vfy.obj
 0001:00011518       x509_check_cert_time       00000000000117d8 f   OpensslLib:x509_vfy.obj
 0001:000118c0       X509_cmp_time              0000000000011b80 f   OpensslLib:x509_vfy.obj
 0001:000119bc       X509_get_pubkey_parameters 0000000000011c7c f   OpensslLib:x509_vfy.obj
 0001:00011ab4       X509_STORE_CTX_init        0000000000011d74 f   OpensslLib:x509_vfy.obj
 0001:00011d6c       X509_STORE_CTX_cleanup     000000000001202c f   OpensslLib:x509_vfy.obj
 0001:00013248       X509_free                  0000000000013508 f   OpensslLib:x_x509.obj
 0001:0001326c       OPENSSL_sk_dup             000000000001352c f   OpensslLib:stack.obj
 0001:000133f0       OPENSSL_sk_new_reserve     00000000000136b0 f   OpensslLib:stack.obj
 0001:00013464       OPENSSL_sk_insert          0000000000013724 f   OpensslLib:stack.obj
 0001:00013610       OPENSSL_sk_pop_free        00000000000138d0 f   OpensslLib:stack.obj
 0001:0001367c       OPENSSL_sk_sort            000000000001393c f   OpensslLib:stack.obj
 0001:00013988       EVP_PKEY_copy_parameters   0000000000013c48 f   OpensslLib:p_lib.obj
 0001:00013a74       EVP_PKEY_new               0000000000013d34 f   OpensslLib:p_lib.obj
 0001:00013b94       EVP_PKEY_assign            0000000000013e54 f   OpensslLib:p_lib.obj
 0001:00013bdc       EVP_PKEY_get0_EC_KEY       0000000000013e9c f   OpensslLib:p_lib.obj
 0001:00013c20       EVP_PKEY_free              0000000000013ee0 f   OpensslLib:p_lib.obj
 0001:00013c84       EVP_add_cipher             0000000000013f44 f   OpensslLib:names.obj
 0001:00013cd4       EVP_add_digest             0000000000013f94 f   OpensslLib:names.obj
 0001:00013d68       EVP_get_cipherbyname       0000000000014028 f   OpensslLib:names.obj
 0001:00013d9c       EVP_get_digestbyname       000000000001405c f   OpensslLib:names.obj
 0001:00013dd0       X509_NAME_ENTRY_free       0000000000014090 f   OpensslLib:x_name.obj
 0001:00013df4       i2d_X509_NAME              00000000000140b4 f   OpensslLib:x_name.obj
 0001:000147f8       X509_NAME_print            0000000000014ab8 f   OpensslLib:x_name.obj
 0001:00014928       CRYPTO_zalloc              0000000000014be8 f   OpensslLib:mem.obj
 0001:00014970       CRYPTO_clear_realloc       0000000000014c30 f   OpensslLib:mem.obj
 0001:00014a4c       X509_NAME_get_index_by_NID 0000000000014d0c f   OpensslLib:x509name.obj
 0001:00014a88       X509_NAME_get_index_by_OBJ 0000000000014d48 f   OpensslLib:x509name.obj
 0001:00014b24       X509_NAME_get_entry        0000000000014de4 f   OpensslLib:x509name.obj
 0001:00014b5c       X509_NAME_delete_entry     0000000000014e1c f   OpensslLib:x509name.obj
 0001:00014c6c       X509_NAME_add_entry        0000000000014f2c f   OpensslLib:x509name.obj
 0001:00014dd4       X509_NAME_ENTRY_create_by_OBJ 0000000000015094 f   OpensslLib:x509name.obj
 0001:00014ed8       X509_cmp                   0000000000015198 f   OpensslLib:x509_cmp.obj
 0001:00014f70       X509_NAME_cmp              0000000000015230 f   OpensslLib:x509_cmp.obj
 0001:00014fe0       X509_find_by_issuer_and_serial 00000000000152a0 f   OpensslLib:x509_cmp.obj
 0001:00015124       X509_chain_check_suiteb    00000000000153e4 f   OpensslLib:x509_cmp.obj
 0001:00015308       X509_STORE_new             00000000000155c8 f   OpensslLib:x509_lu.obj
 0001:00015458       X509_STORE_free            0000000000015718 f   OpensslLib:x509_lu.obj
 0001:00015580       X509_STORE_CTX_get_by_subject 0000000000015840 f   OpensslLib:x509_lu.obj
 0001:0001577c       X509_OBJECT_new            0000000000015a3c f   OpensslLib:x509_lu.obj
 0001:000157ac       X509_OBJECT_free           0000000000015a6c f   OpensslLib:x509_lu.obj
 0001:000158e0       X509_STORE_CTX_get1_certs  0000000000015ba0 f   OpensslLib:x509_lu.obj
 0001:00015b5c       X509_STORE_CTX_get1_crls   0000000000015e1c f   OpensslLib:x509_lu.obj
 0001:00015d34       X509_OBJECT_retrieve_match 0000000000015ff4 f   OpensslLib:x509_lu.obj
 0001:00015e3c       X509_STORE_CTX_get1_issuer 00000000000160fc f   OpensslLib:x509_lu.obj
 0001:0001601c       ASN1_get_object            00000000000162dc f   OpensslLib:asn1_lib.obj
 0001:000161b0       ASN1_put_object            0000000000016470 f   OpensslLib:asn1_lib.obj
 0001:000162a8       ASN1_object_size           0000000000016568 f   OpensslLib:asn1_lib.obj
 0001:000162fc       ASN1_STRING_copy           00000000000165bc f   OpensslLib:asn1_lib.obj
 0001:0001634c       ASN1_STRING_dup            000000000001660c f   OpensslLib:asn1_lib.obj
 0001:0001639c       ASN1_STRING_set            000000000001665c f   OpensslLib:asn1_lib.obj
 0001:000164b4       ASN1_STRING_type_new       0000000000016774 f   OpensslLib:asn1_lib.obj
 0001:000164ec       ASN1_STRING_free           00000000000167ac f   OpensslLib:asn1_lib.obj
 0001:0001652c       ASN1_STRING_clear_free     00000000000167ec f   OpensslLib:asn1_lib.obj
 0001:00016564       ASN1_STRING_cmp            0000000000016824 f   OpensslLib:asn1_lib.obj
 0001:00017150       ASN1_STRING_to_UTF8        0000000000017410 f   OpensslLib:a_strex.obj
 0001:0001726c       BIO_new_mem_buf            000000000001752c f   OpensslLib:bss_mem.obj
 0001:0001791c       BIO_new                    0000000000017bdc f   OpensslLib:bio_lib.obj
 0001:00017a28       BIO_free                   0000000000017ce8 f   OpensslLib:bio_lib.obj
 0001:00017d04       BIO_puts                   0000000000017fc4 f   OpensslLib:bio_lib.obj
 0001:00017e38       BIO_indent                 00000000000180f8 f   OpensslLib:bio_lib.obj
 0001:00017e84       BIO_ctrl                   0000000000018144 f   OpensslLib:bio_lib.obj
 0001:00017f6c       BIO_callback_ctrl          000000000001822c f   OpensslLib:bio_lib.obj
 0001:00018050       BIO_push                   0000000000018310 f   OpensslLib:bio_lib.obj
 0001:0001809c       BIO_pop                    000000000001835c f   OpensslLib:bio_lib.obj
 0001:00018100       BIO_free_all               00000000000183c0 f   OpensslLib:bio_lib.obj
 0001:00018138       PKCS7_verify               00000000000183f8 f   OpensslLib:pk7_smime.obj
 0001:000184d0       PKCS7_get0_signers         0000000000018790 f   OpensslLib:pk7_smime.obj
 0001:000187d4       OBJ_NAME_get               0000000000018a94 f   OpensslLib:o_names.obj
 0001:0001888c       OBJ_NAME_add               0000000000018b4c f   OpensslLib:o_names.obj
 0001:00018988       X509_verify                0000000000018c48 f   OpensslLib:x_all.obj
 0001:00018bb4       OBJ_add_object             0000000000018e74 f   OpensslLib:obj_dat.obj
 0001:00018d30       OBJ_nid2obj                0000000000018ff0 f   OpensslLib:obj_dat.obj
 0001:00018dbc       OBJ_nid2sn                 000000000001907c f   OpensslLib:obj_dat.obj
 0001:00018e4c       OBJ_nid2ln                 000000000001910c f   OpensslLib:obj_dat.obj
 0001:00018f18       OBJ_obj2nid                00000000000191d8 f   OpensslLib:obj_dat.obj
 0001:00018fb4       OBJ_txt2obj                0000000000019274 f   OpensslLib:obj_dat.obj
 0001:000190b8       OBJ_obj2txt                0000000000019378 f   OpensslLib:obj_dat.obj
 0001:000193dc       OBJ_ln2nid                 000000000001969c f   OpensslLib:obj_dat.obj
 0001:00019470       OBJ_sn2nid                 0000000000019730 f   OpensslLib:obj_dat.obj
 0001:00019504       OBJ_bsearch_ex_            00000000000197c4 f   OpensslLib:obj_dat.obj
 0001:000195dc       OBJ_create                 000000000001989c f   OpensslLib:obj_dat.obj
 0001:000196c0       BN_num_bits_word           0000000000019980 f   OpensslLib:bn_lib.obj
 0001:00019798       BN_num_bits                0000000000019a58 f   OpensslLib:bn_lib.obj
 0001:000198b4       BN_clear_free              0000000000019b74 f   OpensslLib:bn_lib.obj
 0001:00019900       BN_free                    0000000000019bc0 f   OpensslLib:bn_lib.obj
 0001:00019964       BN_new                     0000000000019c24 f   OpensslLib:bn_lib.obj
 0001:000199a0       bn_expand2                 0000000000019c60 f   OpensslLib:bn_lib.obj
 0001:00019a54       BN_dup                     0000000000019d14 f   OpensslLib:bn_lib.obj
 0001:00019ab8       BN_copy                    0000000000019d78 f   OpensslLib:bn_lib.obj
 0001:00019b30       BN_set_word                0000000000019df0 f   OpensslLib:bn_lib.obj
 0001:00019b7c       BN_bin2bn                  0000000000019e3c f   OpensslLib:bn_lib.obj
 0001:00019da4       BN_ucmp                    000000000001a064 f   OpensslLib:bn_lib.obj
 0001:00019dec       BN_cmp                     000000000001a0ac f   OpensslLib:bn_lib.obj
 0001:00019e70       BN_set_bit                 000000000001a130 f   OpensslLib:bn_lib.obj
 0001:00019f00       BN_is_bit_set              000000000001a1c0 f   OpensslLib:bn_lib.obj
 0001:00019f30       BN_consttime_swap          000000000001a1f0 f   OpensslLib:bn_lib.obj
 0001:00019fd4       BN_security_bits           000000000001a294 f   OpensslLib:bn_lib.obj
 0001:0001a03c       BN_is_word                 000000000001a2fc f   OpensslLib:bn_lib.obj
 0001:0001a06c       bn_correct_top             000000000001a32c f   OpensslLib:bn_lib.obj
 0001:0001a09c       RSA_new_method             000000000001a35c f   OpensslLib:rsa_lib.obj
 0001:0001a264       RSA_free                   000000000001a524 f   OpensslLib:rsa_lib.obj
 0001:0001a368       RSA_pkey_ctx_ctrl          000000000001a628 f   OpensslLib:rsa_lib.obj
 0001:0001a48c       RSA_sign                   000000000001a74c f   OpensslLib:rsa_sign.obj
 0001:0001a5d4       int_rsa_verify             000000000001a894 f   OpensslLib:rsa_sign.obj
 0001:0001aaa4       asn1_time_to_tm            000000000001ad64 f   OpensslLib:a_time.obj
 0001:0001ae64       asn1_time_from_tm          000000000001b124 f   OpensslLib:a_time.obj
 0001:0001af7c       ASN1_TIME_adj              000000000001b23c f   OpensslLib:a_time.obj
 0001:0001afd0       ASN1_TIME_diff             000000000001b290 f   OpensslLib:a_time.obj
 0001:0001b0c4       ASN1_TIME_print            000000000001b384 f   OpensslLib:a_time.obj
 0001:0001b3a4       X509V3_add_value           000000000001b664 f   OpensslLib:v3_utl.obj
 0001:0001b3d4       X509V3_conf_free           000000000001b694 f   OpensslLib:v3_utl.obj
 0001:0001b520       i2s_ASN1_INTEGER           000000000001b7e0 f   OpensslLib:v3_utl.obj
 0001:0001b584       s2i_ASN1_INTEGER           000000000001b844 f   OpensslLib:v3_utl.obj
 0001:0001b688       X509V3_add_value_int       000000000001b948 f   OpensslLib:v3_utl.obj
 0001:0001b6e4       X509V3_get_value_bool      000000000001b9a4 f   OpensslLib:v3_utl.obj
 0001:0001b874       X509V3_get_value_int       000000000001bb34 f   OpensslLib:v3_utl.obj
 0001:0001b8e4       X509V3_parse_list          000000000001bba4 f   OpensslLib:v3_utl.obj
 0001:0001bb54       name_cmp                   000000000001be14 f   OpensslLib:v3_utl.obj
 0001:0001c3cc       a2i_IPADDRESS_NC           000000000001c68c f   OpensslLib:v3_utl.obj
 0001:0001c4b4       a2i_ipadd                  000000000001c774 f   OpensslLib:v3_utl.obj
 0001:0001c750       X509V3_NAME_from_section   000000000001ca10 f   OpensslLib:v3_utl.obj
 0001:0001c8f4       ERR_put_error              000000000001cbb4 f   OpensslLib:err.obj
 0001:0001c9fc       ERR_clear_error            000000000001ccbc f   OpensslLib:err.obj
 0001:0001cc64       ERR_get_state              000000000001cf24 f   OpensslLib:err.obj
 0001:0001cdb4       ERR_add_error_data         000000000001d074 f   OpensslLib:err.obj
 0001:0001cedc       ERR_set_mark               000000000001d19c f   OpensslLib:err.obj
 0001:0001cf0c       ERR_pop_to_mark            000000000001d1cc f   OpensslLib:err.obj
 0001:0001d004       err_clear_last_constant_time 000000000001d2c4 f   OpensslLib:err.obj
 0001:0001d050       X509v3_get_ext_by_NID      000000000001d310 f   OpensslLib:x509_v3.obj
 0001:0001d08c       X509v3_get_ext_by_OBJ      000000000001d34c f   OpensslLib:x509_v3.obj
 0001:0001d118       X509_check_purpose         000000000001d3d8 f   OpensslLib:v3_purp.obj
 0001:0001d194       X509_PURPOSE_get_by_id     000000000001d454 f   OpensslLib:v3_purp.obj
 0001:0001dd04       x509_likely_issued         000000000001dfc4 f   OpensslLib:v3_purp.obj
 0001:0001dd8c       X509_check_akid            000000000001e04c f   OpensslLib:v3_purp.obj
 0001:0001e514       X509_CRL_free              000000000001e7d4 f   OpensslLib:x_crl.obj
 0001:0001e71c       GENERAL_NAME_free          000000000001e9dc f   OpensslLib:v3_genn.obj
 0001:0001e740       GENERAL_NAMES_free         000000000001ea00 f   OpensslLib:v3_genn.obj
 0001:0001e8f0       X509_VERIFY_PARAM_free     000000000001ebb0 f   OpensslLib:x509_vpm.obj
 0001:0001e958       X509_VERIFY_PARAM_inherit  000000000001ec18 f   OpensslLib:x509_vpm.obj
 0001:0001ebd8       X509_VERIFY_PARAM_set1_policies 000000000001ee98 f   OpensslLib:x509_vpm.obj
 0001:0001ed30       X509_VERIFY_PARAM_lookup   000000000001eff0 f   OpensslLib:x509_vpm.obj
 0001:0001fa84       X509_policy_tree_free      000000000001fd44 f   OpensslLib:pcy_tree.obj
 0001:0001fb40       X509_policy_check          000000000001fe00 f   OpensslLib:pcy_tree.obj
 0001:0001ff60       X509_PUBKEY_get0           0000000000020220 f   OpensslLib:x_pubkey.obj
 0001:0002000c       X509_PUBKEY_set0_param     00000000000202cc f   OpensslLib:x_pubkey.obj
 0001:0002006c       X509_check_trust           000000000002032c f   OpensslLib:x509_trs.obj
 0001:000200f0       X509_TRUST_get_by_id       00000000000203b0 f   OpensslLib:x509_trs.obj
 0001:00020320       EVP_MD_CTX_reset           00000000000205e0 f   OpensslLib:digest.obj
 0001:00020364       EVP_DigestInit_ex          0000000000020624 f   OpensslLib:digest.obj
 0001:0002041c       EVP_DigestFinal_ex         00000000000206dc f   OpensslLib:digest.obj
 0001:00020488       EVP_DigestFinalXOF         0000000000020748 f   OpensslLib:digest.obj
 0001:00020520       EVP_MD_CTX_copy_ex         00000000000207e0 f   OpensslLib:digest.obj
 0001:0002063c       EVP_Digest                 00000000000208fc f   OpensslLib:digest.obj
 0001:00020798       CRYPTO_new_ex_data         0000000000020a58 f   OpensslLib:ex_data.obj
 0001:000208fc       CRYPTO_dup_ex_data         0000000000020bbc f   OpensslLib:ex_data.obj
 0001:00020ae8       CRYPTO_free_ex_data        0000000000020da8 f   OpensslLib:ex_data.obj
 0001:00020c78       CRYPTO_set_ex_data         0000000000020f38 f   OpensslLib:ex_data.obj
 0001:00021090       NAME_CONSTRAINTS_check     0000000000021350 f   OpensslLib:v3_ncons.obj
 0001:00021258       NAME_CONSTRAINTS_check_CN  0000000000021518 f   OpensslLib:v3_ncons.obj
 0001:0002192c       EC_KEY_free                0000000000021bec f   OpensslLib:ec_key.obj
 0001:000219d8       EC_KEY_copy                0000000000021c98 f   OpensslLib:ec_key.obj
 0001:00021b7c       EC_KEY_dup                 0000000000021e3c f   OpensslLib:ec_key.obj
 0001:00021bc4       ossl_ec_key_gen            0000000000021e84 f   OpensslLib:ec_key.obj
 0001:00021bd4       ec_key_simple_generate_key 0000000000021e94 f   OpensslLib:ec_key.obj
 0001:00021cc4       ec_key_simple_generate_public_key 0000000000021f84 f   OpensslLib:ec_key.obj
 0001:00021cf0       EC_KEY_check_key           0000000000021fb0 f   OpensslLib:ec_key.obj
 0001:00021d44       ec_key_simple_check_key    0000000000022004 f   OpensslLib:ec_key.obj
 0001:00021ee8       EC_KEY_set_group           00000000000221a8 f   OpensslLib:ec_key.obj
 0001:00021f40       EC_KEY_oct2key             0000000000022200 f   OpensslLib:ec_key.obj
 0001:00021fc4       ec_key_simple_priv2oct     0000000000022284 f   OpensslLib:ec_key.obj
 0001:00022050       ec_key_simple_oct2priv     0000000000022310 f   OpensslLib:ec_key.obj
 0001:000220d0       EC_KEY_priv2buf            0000000000022390 f   OpensslLib:ec_key.obj
 0001:000221bc       ossl_tolower               000000000002247c f   OpensslLib:ctype.obj
 0001:000221e8       ASN1_INTEGER_cmp           00000000000224a8 f   OpensslLib:a_int.obj
 0001:00022468       c2i_ASN1_INTEGER           0000000000022728 f   OpensslLib:a_int.obj
 0001:000227bc       ASN1_INTEGER_get           0000000000022a7c f   OpensslLib:a_int.obj
 0001:00022800       ASN1_ENUMERATED_get        0000000000022ac0 f   OpensslLib:a_int.obj
 0001:00022854       c2i_uint64_int             0000000000022b14 f   OpensslLib:a_int.obj
 0001:000228ec       ASN1_INTEGER_free          0000000000022bac f   OpensslLib:tasn_typ.obj
 0001:000228f4       ASN1_TYPE_free             0000000000022bb4 f   OpensslLib:tasn_typ.obj
 0001:00022918       ASN1_item_dup              0000000000022bd8 f   OpensslLib:a_dup.obj
 0001:00022998       ASN1_item_d2i              0000000000022c58 f   OpensslLib:tasn_dec.obj
 0001:000229e8       ASN1_item_ex_d2i           0000000000022ca8 f   OpensslLib:tasn_dec.obj
 0001:00023fa8       X509_ALGOR_free            0000000000024268 f   OpensslLib:x_algor.obj
 0001:00023fcc       X509_ALGOR_set0            000000000002428c f   OpensslLib:x_algor.obj
 0001:000247a4       DIST_POINT_free            0000000000024a64 f   OpensslLib:v3_crld.obj
 0001:00024b68       DIST_POINT_set_dpname      0000000000024e28 f   OpensslLib:v3_crld.obj
 0001:00024c48       ASN1_item_new              0000000000024f08 f   OpensslLib:tasn_new.obj
 0001:00025488       asn1_item_embed_free       0000000000025748 f   OpensslLib:tasn_fre.obj
 0001:00025684       asn1_template_free         0000000000025944 f   OpensslLib:tasn_fre.obj
 0001:00025744       asn1_primitive_free        0000000000025a04 f   OpensslLib:tasn_fre.obj
 0001:000258f0       ASN1_item_ex_i2d           0000000000025bb0 f   OpensslLib:tasn_enc.obj
 0001:00026444       SHA384_Init                0000000000026704 f   OpensslLib:sha512.obj
 0001:000264d4       SHA512_Init                0000000000026794 f   OpensslLib:sha512.obj
 0001:00026564       SHA512_Final               0000000000026824 f   OpensslLib:sha512.obj
 0001:000268a4       SHA512_Update              0000000000026b64 f   OpensslLib:sha512.obj
 0001:00026e10       SHA1_Update                00000000000270d0 f   OpensslLib:sha1dgst.obj
 0001:00026f24       SHA1_Final                 00000000000271e4 f   OpensslLib:sha1dgst.obj
 0001:00027070       SHA1_Init                  0000000000027330 f   OpensslLib:sha1dgst.obj
 0001:00027388       EVP_CIPHER_param_to_asn1   0000000000027648 f   OpensslLib:evp_lib.obj
 0001:00027438       EVP_CIPHER_get_asn1_iv     00000000000276f8 f   OpensslLib:evp_lib.obj
 0001:000274d8       EVP_CIPHER_set_asn1_iv     0000000000027798 f   OpensslLib:evp_lib.obj
 0001:00027568       EVP_CIPHER_type            0000000000027828 f   OpensslLib:evp_lib.obj
 0001:00027658       EVP_CIPHER_CTX_iv_length   0000000000027918 f   OpensslLib:evp_lib.obj
 0001:00027690       DH_new                     0000000000027950 f   OpensslLib:dh_lib.obj
 0001:00027810       DH_free                    0000000000027ad0 f   OpensslLib:dh_lib.obj
 0001:000278d4       EVP_PKEY_asn1_find         0000000000027b94 f   OpensslLib:ameth_lib.obj
 0001:00027968       X509_ATTRIBUTE_free        0000000000027c28 f   OpensslLib:x_attrib.obj
 0001:0002798c       X509_ATTRIBUTE_create      0000000000027c4c f   OpensslLib:x_attrib.obj
 0001:00027ab4       CMAC_CTX_new               0000000000027d74 f   OpensslLib:cmac.obj
 0001:00027b14       CMAC_CTX_free              0000000000027dd4 f   OpensslLib:cmac.obj
 0001:00027bb4       CMAC_CTX_copy              0000000000027e74 f   OpensslLib:cmac.obj
 0001:00027c50       CMAC_Init                  0000000000027f10 f   OpensslLib:cmac.obj
 0001:000280cc       ossl_init_thread_start     000000000002838c f   OpensslLib:init.obj
 0001:00028114       OPENSSL_init_crypto        00000000000283d4 f   OpensslLib:init.obj
 0001:000283a8       OBJ_find_sigid_algs        0000000000028668 f   OpensslLib:obj_xref.obj
 0001:00028450       OBJ_find_sigid_by_algs     0000000000028710 f   OpensslLib:obj_xref.obj
 0001:00028634       EVP_PKEY_CTX_dup           00000000000288f4 f   OpensslLib:pmeth_lib.obj
 0001:00028704       EVP_PKEY_CTX_free          00000000000289c4 f   OpensslLib:pmeth_lib.obj
 0001:00028744       EVP_PKEY_CTX_ctrl          0000000000028a04 f   OpensslLib:pmeth_lib.obj
 0001:00028804       EVP_PKEY_CTX_str2ctrl      0000000000028ac4 f   OpensslLib:pmeth_lib.obj
 0001:00028844       EVP_PKEY_CTX_hex2ctrl      0000000000028b04 f   OpensslLib:pmeth_lib.obj
 0001:000288a4       EVP_PKEY_CTX_md            0000000000028b64 f   OpensslLib:pmeth_lib.obj
 0001:00028910       X509_NAME_oneline          0000000000028bd0 f   OpensslLib:x509_obj.obj
 0001:00028c9c       BUF_MEM_new                0000000000028f5c f   OpensslLib:buffer.obj
 0001:00028cc8       BUF_MEM_free               0000000000028f88 f   OpensslLib:buffer.obj
 0001:00028d9c       BUF_MEM_grow               000000000002905c f   OpensslLib:buffer.obj
 0001:00028eac       BUF_MEM_grow_clean         000000000002916c f   OpensslLib:buffer.obj
 0001:00028fa0       OBJ_dup                    0000000000029260 f   OpensslLib:obj_lib.obj
 0001:00029090       a2d_ASN1_OBJECT            0000000000029350 f   OpensslLib:a_object.obj
 0001:00029424       i2a_ASN1_OBJECT            00000000000296e4 f   OpensslLib:a_object.obj
 0001:00029568       d2i_ASN1_OBJECT            0000000000029828 f   OpensslLib:a_object.obj
 0001:000295f0       c2i_ASN1_OBJECT            00000000000298b0 f   OpensslLib:a_object.obj
 0001:000297e4       ASN1_OBJECT_free           0000000000029aa4 f   OpensslLib:a_object.obj
 0001:00029858       ASN1_STRING_set_by_NID     0000000000029b18 f   OpensslLib:a_strnid.obj
 0001:000298e8       ASN1_STRING_TABLE_get      0000000000029ba8 f   OpensslLib:a_strnid.obj
 0001:00029974       ASN1_STRING_print          0000000000029c34 f   OpensslLib:a_print.obj
 0001:00029a50       MD5_Update                 0000000000029d10 f   OpensslLib:md5_dgst.obj
 0001:00029b64       MD5_Final                  0000000000029e24 f   OpensslLib:md5_dgst.obj
 0001:00029cf0       md5_block_data_order       0000000000029fb0 f   OpensslLib:md5_dgst.obj
 0001:0002a798       EC_GROUP_new               000000000002aa58 f   OpensslLib:ec_lib.obj
 0001:0002a858       EC_GROUP_free              000000000002ab18 f   OpensslLib:ec_lib.obj
 0001:0002a8d4       EC_GROUP_clear_free        000000000002ab94 f   OpensslLib:ec_lib.obj
 0001:0002a994       EC_GROUP_copy              000000000002ac54 f   OpensslLib:ec_lib.obj
 0001:0002aba0       EC_GROUP_dup               000000000002ae60 f   OpensslLib:ec_lib.obj
 0001:0002add4       EC_GROUP_set_generator     000000000002b094 f   OpensslLib:ec_lib.obj
 0001:0002af60       EC_GROUP_set_seed          000000000002b220 f   OpensslLib:ec_lib.obj
 0001:0002aff4       EC_GROUP_cmp               000000000002b2b4 f   OpensslLib:ec_lib.obj
 0001:0002b1ac       EC_POINT_new               000000000002b46c f   OpensslLib:ec_lib.obj
 0001:0002b22c       EC_POINT_free              000000000002b4ec f   OpensslLib:ec_lib.obj
 0001:0002b258       EC_POINT_clear_free        000000000002b518 f   OpensslLib:ec_lib.obj
 0001:0002b2a0       EC_POINT_copy              000000000002b560 f   OpensslLib:ec_lib.obj
 0001:0002b2fc       EC_POINT_set_to_infinity   000000000002b5bc f   OpensslLib:ec_lib.obj
 0001:0002b33c       EC_POINT_set_affine_coordinates 000000000002b5fc f   OpensslLib:ec_lib.obj
 0001:0002b3d8       EC_POINT_get_affine_coordinates 000000000002b698 f   OpensslLib:ec_lib.obj
 0001:0002b484       EC_POINT_add               000000000002b744 f   OpensslLib:ec_lib.obj
 0001:0002b504       EC_POINT_dbl               000000000002b7c4 f   OpensslLib:ec_lib.obj
 0001:0002b56c       EC_POINT_invert            000000000002b82c f   OpensslLib:ec_lib.obj
 0001:0002b5c0       EC_POINT_is_at_infinity    000000000002b880 f   OpensslLib:ec_lib.obj
 0001:0002b614       EC_POINT_is_on_curve       000000000002b8d4 f   OpensslLib:ec_lib.obj
 0001:0002b668       EC_POINT_cmp               000000000002b928 f   OpensslLib:ec_lib.obj
 0001:0002b6d0       EC_POINTs_make_affine      000000000002b990 f   OpensslLib:ec_lib.obj
 0001:0002b750       EC_POINT_mul               000000000002ba10 f   OpensslLib:ec_lib.obj
 0001:0002b96c       ec_group_simple_order_bits 000000000002bc2c f   OpensslLib:ec_lib.obj
 0001:0002ba78       ASN1_tag2str               000000000002bd38 f   OpensslLib:asn1_par.obj
 0001:0002baa8       UTF8_getc                  000000000002bd68 f   OpensslLib:a_utf8.obj
 0001:0002bd98       UTF8_putc                  000000000002c058 f   OpensslLib:a_utf8.obj
 0001:0002bf58       ASN1_mbstring_ncopy        000000000002c218 f   OpensslLib:a_mbstr.obj
 0001:0002c520       rsa_multip_info_free       000000000002c7e0 f   OpensslLib:rsa_mp.obj
 0001:0002c55c       rsa_multip_info_new        000000000002c81c f   OpensslLib:rsa_mp.obj
 0001:0002c61c       rsa_multip_calc_product    000000000002c8dc f   OpensslLib:rsa_mp.obj
 0001:0002cc6c       bwrite_conv                000000000002cf2c f   OpensslLib:bio_meth.obj
 0001:0002cca8       bread_conv                 000000000002cf68 f   OpensslLib:bio_meth.obj
 0001:0002cce4       PKCS7_ctrl                 000000000002cfa4 f   OpensslLib:pk7_lib.obj
 0001:0002cd34       PKCS7_get_signer_info      000000000002cff4 f   OpensslLib:pk7_lib.obj
 0001:0002cd78       PKCS7_stream               000000000002d038 f   OpensslLib:pk7_lib.obj
 0001:0002ce34       PKCS7_add1_attrib_digest   000000000002d0f4 f   OpensslLib:pk7_attr.obj
 0001:0002d390       PKCS7_dataInit             000000000002d650 f   OpensslLib:pk7_doit.obj
 0001:0002d908       PKCS7_dataFinal            000000000002dbc8 f   OpensslLib:pk7_doit.obj
 0001:0002dd48       PKCS7_SIGNER_INFO_sign     000000000002e008 f   OpensslLib:pk7_doit.obj
 0001:0002e020       PKCS7_signatureVerify      000000000002e2e0 f   OpensslLib:pk7_doit.obj
 0001:0002e438       X509_verify_cert_error_string 000000000002e6f8 f   OpensslLib:x509_txt.obj
 0001:0002e874       OPENSSL_LH_new             000000000002eb34 f   OpensslLib:lhash.obj
 0001:0002e914       OPENSSL_LH_insert          000000000002ebd4 f   OpensslLib:lhash.obj
 0001:0002e9c4       OPENSSL_LH_retrieve        000000000002ec84 f   OpensslLib:lhash.obj
 0001:0002ebb4       OPENSSL_LH_strhash         000000000002ee74 f   OpensslLib:lhash.obj
 0001:0002ec2c       openssl_lh_strcasehash     000000000002eeec f   OpensslLib:lhash.obj
 0001:0002ecac       PKCS8_pkey_set0            000000000002ef6c f   OpensslLib:p8_pkey.obj
 0001:0002f0d0       EC_GROUP_get_ecparameters  000000000002f390 f   OpensslLib:ec_asn1.obj
 0001:0002f250       EC_GROUP_get_ecpkparameters 000000000002f510 f   OpensslLib:ec_asn1.obj
 0001:0002f34c       EC_GROUP_new_from_ecparameters 000000000002f60c f   OpensslLib:ec_asn1.obj
 0001:0002f768       EC_GROUP_new_from_ecpkparameters 000000000002fa28 f   OpensslLib:ec_asn1.obj
 0001:0002f7e4       d2i_ECPKParameters         000000000002faa4 f   OpensslLib:ec_asn1.obj
 0001:0002f8c0       d2i_ECPrivateKey           000000000002fb80 f   OpensslLib:ec_asn1.obj
 0001:0002faa4       i2d_ECPrivateKey           000000000002fd64 f   OpensslLib:ec_asn1.obj
 0001:0002fce8       i2d_ECParameters           000000000002ffa8 f   OpensslLib:ec_asn1.obj
 0001:0002fdb4       d2i_ECParameters           0000000000030074 f   OpensslLib:ec_asn1.obj
 0001:0002fe40       i2o_ECPublicKey            0000000000030100 f   OpensslLib:ec_asn1.obj
 0001:0002ff48       ECDSA_SIG_new              0000000000030208 f   OpensslLib:ec_asn1.obj
 0001:0002ff7c       ECDSA_size                 000000000003023c f   OpensslLib:ec_asn1.obj
 0001:00030004       ASN1_item_digest           00000000000302c4 f   OpensslLib:a_digest.obj
 0001:00030080       ASN1_item_verify           0000000000030340 f   OpensslLib:a_verify.obj
 0001:0003031c       ASN1_item_i2d_bio          00000000000305dc f   OpensslLib:a_i2d_fp.obj
 0001:000303c4       BN_bn2hex                  0000000000030684 f   OpensslLib:bn_print.obj
 0001:000304a0       BN_bn2dec                  0000000000030760 f   OpensslLib:bn_print.obj
 0001:00030678       BN_hex2bn                  0000000000030938 f   OpensslLib:bn_print.obj
 0001:0003082c       BN_dec2bn                  0000000000030aec f   OpensslLib:bn_print.obj
 0001:00030aa0       CRYPTO_strdup              0000000000030d60 f   OpensslLib:o_str.obj
 0001:00030b08       CRYPTO_strndup             0000000000030dc8 f   OpensslLib:o_str.obj
 0001:00030b84       CRYPTO_memdup              0000000000030e44 f   OpensslLib:o_str.obj
 0001:00030bf0       OPENSSL_strlcpy            0000000000030eb0 f   OpensslLib:o_str.obj
 0001:00030c44       OPENSSL_hexchar2int        0000000000030f04 f   OpensslLib:o_str.obj
 0001:00030d04       OPENSSL_hexstr2buf         0000000000030fc4 f   OpensslLib:o_str.obj
 0001:00030e08       OPENSSL_buf2hexstr         00000000000310c8 f   OpensslLib:o_str.obj
 0001:00030ea8       BN_mod_word                0000000000031168 f   OpensslLib:bn_word.obj
 0001:00030f4c       BN_div_word                000000000003120c f   OpensslLib:bn_word.obj
 0001:00031038       BN_add_word                00000000000312f8 f   OpensslLib:bn_word.obj
 0001:0003110c       BN_sub_word                00000000000313cc f   OpensslLib:bn_word.obj
 0001:000311dc       BN_mul_word                000000000003149c f   OpensslLib:bn_word.obj
 0001:000312e8       BN_lshift1                 00000000000315a8 f   OpensslLib:bn_shift.obj
 0001:00031390       BN_rshift1                 0000000000031650 f   OpensslLib:bn_shift.obj
 0001:00031464       BN_lshift                  0000000000031724 f   OpensslLib:bn_shift.obj
 0001:000314a8       bn_lshift_fixed_top        0000000000031768 f   OpensslLib:bn_shift.obj
 0001:000315e0       BN_rshift                  00000000000318a0 f   OpensslLib:bn_shift.obj
 0001:0003161c       bn_rshift_fixed_top        00000000000318dc f   OpensslLib:bn_shift.obj
 0001:00031724       bn_mul_mont_fixed_top      00000000000319e4 f   OpensslLib:bn_mont.obj
 0001:00031978       bn_from_mont_fixed_top     0000000000031c38 f   OpensslLib:bn_mont.obj
 0001:000319fc       BN_MONT_CTX_new            0000000000031cbc f   OpensslLib:bn_mont.obj
 0001:00031a70       BN_MONT_CTX_free           0000000000031d30 f   OpensslLib:bn_mont.obj
 0001:00031aac       BN_MONT_CTX_set            0000000000031d6c f   OpensslLib:bn_mont.obj
 0001:00031d70       BN_MONT_CTX_copy           0000000000032030 f   OpensslLib:bn_mont.obj
 0001:00031df0       BN_MONT_CTX_set_locked     00000000000320b0 f   OpensslLib:bn_mont.obj
 0001:00033844       BN_BLINDING_new            0000000000033b04 f   OpensslLib:bn_blind.obj
 0001:000338e8       BN_BLINDING_free           0000000000033ba8 f   OpensslLib:bn_blind.obj
 0001:00033938       BN_BLINDING_update         0000000000033bf8 f   OpensslLib:bn_blind.obj
 0001:00033a44       BN_BLINDING_convert_ex     0000000000033d04 f   OpensslLib:bn_blind.obj
 0001:00033b04       BN_BLINDING_invert_ex      0000000000033dc4 f   OpensslLib:bn_blind.obj
 0001:00033bec       BN_BLINDING_create_param   0000000000033eac f   OpensslLib:bn_blind.obj
 0001:00033ea8       RSA_setup_blinding         0000000000034168 f   OpensslLib:rsa_crpt.obj
 0001:00034008       OPENSSL_gmtime_adj         00000000000342c8 f   OpensslLib:o_time.obj
 0001:000340dc       OPENSSL_gmtime_diff        000000000003439c f   OpensslLib:o_time.obj
 0001:000343ac       ACCESS_DESCRIPTION_free    000000000003466c f   OpensslLib:v3_info.obj
 0001:0003481c       CONF_parse_list            0000000000034adc f   OpensslLib:conf_mod.obj
 0001:0003491c       X509V3_EXT_get_nid         0000000000034bdc f   OpensslLib:v3_lib.obj
 0001:000349b0       X509V3_EXT_d2i             0000000000034c70 f   OpensslLib:v3_lib.obj
 0001:00034a14       X509V3_get_d2i             0000000000034cd4 f   OpensslLib:v3_lib.obj
 0001:00034ca0       ASN1_TYPE_set              0000000000034f60 f   OpensslLib:a_type.obj
 0001:00034d04       ASN1_TYPE_cmp              0000000000034fc4 f   OpensslLib:a_type.obj
 0001:00034d78       ASN1_TYPE_unpack_sequence  0000000000035038 f   OpensslLib:a_type.obj
 0001:00034e0c       level_add_node             00000000000350cc f   OpensslLib:pcy_node.obj
 0001:00034f30       policy_node_free           00000000000351f0 f   OpensslLib:pcy_node.obj
 0001:00034f44       policy_data_free           0000000000035204 f   OpensslLib:pcy_data.obj
 0001:00034f90       policy_data_new            0000000000035250 f   OpensslLib:pcy_data.obj
 0001:00035084       i2v_GENERAL_NAMES          0000000000035344 f   OpensslLib:v3_alt.obj
 0001:00035134       i2v_GENERAL_NAME           00000000000353f4 f   OpensslLib:v3_alt.obj
 0001:000353a0       GENERAL_NAME_print         0000000000035660 f   OpensslLib:v3_alt.obj
 0001:00035958       v2i_GENERAL_NAMES          0000000000035c18 f   OpensslLib:v3_alt.obj
 0001:00035a24       a2i_GENERAL_NAME           0000000000035ce4 f   OpensslLib:v3_alt.obj
 0001:00035c58       v2i_GENERAL_NAME_ex        0000000000035f18 f   OpensslLib:v3_alt.obj
 0001:00035f44       BN_CTX_new                 0000000000036204 f   OpensslLib:bn_ctx.obj
 0001:00035f88       BN_CTX_free                0000000000036248 f   OpensslLib:bn_ctx.obj
 0001:0003600c       BN_CTX_start               00000000000362cc f   OpensslLib:bn_ctx.obj
 0001:00036054       BN_CTX_end                 0000000000036314 f   OpensslLib:bn_ctx.obj
 0001:000360cc       BN_CTX_get                 000000000003638c f   OpensslLib:bn_ctx.obj
 0001:00036698       EC_GROUP_new_by_curve_name 0000000000036958 f   OpensslLib:ec_curve.obj
 0001:00036704       EC_curve_nist2nid          00000000000369c4 f   OpensslLib:ec_curve.obj
 0001:00036764       ec_curve_nid_from_params   0000000000036a24 f   OpensslLib:ec_curve.obj
 0001:000369f8       bn_compute_wNAF            0000000000036cb8 f   OpensslLib:bn_intern.obj
 0001:00036bac       EC_POINT_set_compressed_coordinates 0000000000036e6c f   OpensslLib:ec_oct.obj
 0001:00036c30       EC_POINT_point2oct         0000000000036ef0 f   OpensslLib:ec_oct.obj
 0001:00036cb0       EC_POINT_oct2point         0000000000036f70 f   OpensslLib:ec_oct.obj
 0001:00036d38       EC_POINT_point2buf         0000000000036ff8 f   OpensslLib:ec_oct.obj
 0001:00036df0       EC_KEY_new_method          00000000000370b0 f   OpensslLib:ec_kmeth.obj
 0001:00036f58       ECDH_compute_key           0000000000037218 f   OpensslLib:ec_kmeth.obj
 0001:000372f4       BN_generate_dsa_nonce      00000000000375b4 f   OpensslLib:bn_rand.obj
 0001:000374c4       i2c_ASN1_BIT_STRING        0000000000037784 f   OpensslLib:a_bitstr.obj
 0001:000375dc       c2i_ASN1_BIT_STRING        000000000003789c f   OpensslLib:a_bitstr.obj
 0001:00037734       ASN1_BIT_STRING_set_bit    00000000000379f4 f   OpensslLib:a_bitstr.obj
 0001:0003783c       asn1_do_lock               0000000000037afc f   OpensslLib:tasn_utl.obj
 0001:000378dc       asn1_do_adb                0000000000037b9c f   OpensslLib:tasn_utl.obj
 0001:00037990       X509V3_get_section         0000000000037c50 f   OpensslLib:v3_conf.obj
 0001:00037b6c       POLICYINFO_free            0000000000037e2c f   OpensslLib:v3_cpols.obj
 0001:00037b90       POLICYQUALINFO_free        0000000000037e50 f   OpensslLib:v3_cpols.obj
 0001:00038834       policy_cache_set_mapping   0000000000038af4 f   OpensslLib:pcy_map.obj
 0001:000389c4       EVP_CIPHER_CTX_reset       0000000000038c84 f   OpensslLib:evp_enc.obj
 0001:00038a34       EVP_CipherInit_ex          0000000000038cf4 f   OpensslLib:evp_enc.obj
 0001:00038ed4       EVP_EncryptFinal_ex        0000000000039194 f   OpensslLib:evp_enc.obj
 0001:00038fa0       EVP_DecryptUpdate          0000000000039260 f   OpensslLib:evp_enc.obj
 0001:000391dc       EVP_DecryptFinal_ex        000000000003949c f   OpensslLib:evp_enc.obj
 0001:000392ec       EVP_CIPHER_CTX_set_key_length 00000000000395ac f   OpensslLib:evp_enc.obj
 0001:00039344       EVP_CIPHER_CTX_ctrl        0000000000039604 f   OpensslLib:evp_enc.obj
 0001:0003938c       EVP_CIPHER_CTX_copy        000000000003964c f   OpensslLib:evp_enc.obj
 0001:0003c774       rsa_pss_params_create      000000000003ca34 f   OpensslLib:rsa_ameth.obj
 0001:0003cc8c       rsa_pss_get_param          000000000003cf4c f   OpensslLib:rsa_ameth.obj
 0001:0003de18       openssl_add_all_ciphers_int 000000000003e0d8 f   OpensslLib:c_allc.obj
 0001:0003e2b4       RAND_DRBG_set              000000000003e574 f   OpensslLib:drbg_lib.obj
 0001:0003e488       RAND_DRBG_free             000000000003e748 f   OpensslLib:drbg_lib.obj
 0001:0003e4f8       RAND_DRBG_instantiate      000000000003e7b8 f   OpensslLib:drbg_lib.obj
 0001:0003e724       RAND_DRBG_reseed           000000000003e9e4 f   OpensslLib:drbg_lib.obj
 0001:0003e890       rand_drbg_restart          000000000003eb50 f   OpensslLib:drbg_lib.obj
 0001:0003ebb8       RAND_DRBG_generate         000000000003ee78 f   OpensslLib:drbg_lib.obj
 0001:0003ed2c       RAND_DRBG_bytes            000000000003efec f   OpensslLib:drbg_lib.obj
 0001:0003f238       RAND_DRBG_get0_master      000000000003f4f8 f   OpensslLib:drbg_lib.obj
 0001:0003f26c       RAND_DRBG_get0_private     000000000003f52c f   OpensslLib:drbg_lib.obj
 0001:0003f3a0       rand_drbg_get_entropy      000000000003f660 f   OpensslLib:rand_lib.obj
 0001:0003f504       rand_drbg_cleanup_entropy  000000000003f7c4 f   OpensslLib:rand_lib.obj
 0001:0003f540       rand_drbg_get_nonce        000000000003f800 f   OpensslLib:rand_lib.obj
 0001:0003f604       rand_drbg_cleanup_nonce    000000000003f8c4 f   OpensslLib:rand_lib.obj
 0001:0003f6a0       rand_pool_new              000000000003f960 f   OpensslLib:rand_lib.obj
 0001:0003f798       rand_pool_free             000000000003fa58 f   OpensslLib:rand_lib.obj
 0001:0003f8f4       rand_pool_bytes_needed     000000000003fbb4 f   OpensslLib:rand_lib.obj
 0001:0003f97c       rand_pool_add              000000000003fc3c f   OpensslLib:rand_lib.obj
 0001:0003fa10       rand_pool_add_begin        000000000003fcd0 f   OpensslLib:rand_lib.obj
 0001:0003fa68       rand_pool_add_end          000000000003fd28 f   OpensslLib:rand_lib.obj
 0001:0003faac       RAND_get_rand_method       000000000003fd6c f   OpensslLib:rand_lib.obj
 0001:0003faf8       RAND_priv_bytes            000000000003fdb8 f   OpensslLib:rand_lib.obj
 0001:0003fb50       RAND_bytes                 000000000003fe10 f   OpensslLib:rand_lib.obj
 0001:00044698       BIO_dump_indent_cb         0000000000044958 f   OpensslLib:b_dump.obj
 0001:0004485c       BN_add                     0000000000044b1c f   OpensslLib:bn_add.obj
 0001:000448cc       BN_sub                     0000000000044b8c f   OpensslLib:bn_add.obj
 0001:00044944       BN_uadd                    0000000000044c04 f   OpensslLib:bn_add.obj
 0001:00044a10       BN_usub                    0000000000044cd0 f   OpensslLib:bn_add.obj
 0001:00044b00       EC_ec_pre_comp_free        0000000000044dc0 f   OpensslLib:ec_mult.obj
 0001:00044b78       ec_scalar_mul_ladder       0000000000044e38 f   OpensslLib:ec_mult.obj
 0001:0004517c       ec_wNAF_mul                000000000004543c f   OpensslLib:ec_mult.obj
 0001:00045c74       BN_div                     0000000000045f34 f   OpensslLib:bn_div.obj
 0001:00045cfc       bn_div_fixed_top           0000000000045fbc f   OpensslLib:bn_div.obj
 0001:000460fc       BN_mod_exp                 00000000000463bc f   OpensslLib:bn_exp.obj
 0001:0004616c       BN_mod_exp_recp            000000000004642c f   OpensslLib:bn_exp.obj
 0001:00046540       BN_mod_exp_mont            0000000000046800 f   OpensslLib:bn_exp.obj
 0001:00046d24       BN_mod_exp_mont_consttime  0000000000046fe4 f   OpensslLib:bn_exp.obj
 0001:00047208       BN_mod_exp_mont_word       00000000000474c8 f   OpensslLib:bn_exp.obj
 0001:00047640       bn_mul_fixed_top           0000000000047900 f   OpensslLib:bn_mul.obj
 0001:00047744       bn_mul_normal              0000000000047a04 f   OpensslLib:bn_mul.obj
 0001:000481ac       EVP_DigestSignFinal        000000000004846c f   OpensslLib:m_sigver.obj
 0001:0004838c       EVP_DigestVerifyFinal      000000000004864c f   OpensslLib:m_sigver.obj
 0001:000487d4       EVP_SignFinal              0000000000048a94 f   OpensslLib:p_sign.obj
 0001:000489ac       EVP_PKEY_sign_init         0000000000048c6c f   OpensslLib:pmeth_fn.obj
 0001:00048a08       EVP_PKEY_sign              0000000000048cc8 f   OpensslLib:pmeth_fn.obj
 0001:00048b18       EVP_PKEY_verify_init       0000000000048dd8 f   OpensslLib:pmeth_fn.obj
 0001:00048b74       EVP_PKEY_verify            0000000000048e34 f   OpensslLib:pmeth_fn.obj
 0001:00048bd0       X509at_get_attr_by_OBJ     0000000000048e90 f   OpensslLib:x509_att.obj
 0001:00048c54       EVP_VerifyFinal            0000000000048f14 f   OpensslLib:p_verify.obj
 0001:00048d90       EC_GROUP_new_curve_GFp     0000000000049050 f   OpensslLib:ec_cvt.obj
 0001:00048ecc       bn_mul_add_words           000000000004918c f   OpensslLib:bn_asm.obj
 0001:00048f9c       bn_mul_words               000000000004925c f   OpensslLib:bn_asm.obj
 0001:0004905c       bn_div_words               000000000004931c f   OpensslLib:bn_asm.obj
 0001:000491c0       bn_add_words               0000000000049480 f   OpensslLib:bn_asm.obj
 0001:00049218       bn_sub_words               00000000000494d8 f   OpensslLib:bn_asm.obj
 0001:000495ec       int_bn_mod_inverse         00000000000498ac f   OpensslLib:bn_gcd.obj
 0001:00049c9c       BN_mod_inverse             0000000000049f5c f   OpensslLib:bn_gcd.obj
 0001:00049d3c       BN_gcd                     0000000000049ffc f   OpensslLib:bn_gcd.obj
 0001:0004a000       bn_sqr_fixed_top           000000000004a2c0 f   OpensslLib:bn_sqr.obj
 0001:0004a12c       bn_sqr_normal              000000000004a3ec f   OpensslLib:bn_sqr.obj
 0001:0004a264       RSA_X931_hash_id           000000000004a524 f   OpensslLib:rsa_x931.obj
 0001:0004a298       RSA_padding_check_PKCS1_type_1 000000000004a558 f   OpensslLib:rsa_pk1.obj
 0001:0004a368       RSA_padding_add_PKCS1_type_2 000000000004a628 f   OpensslLib:rsa_pk1.obj
 0001:0004a420       RSA_padding_check_PKCS1_type_2 000000000004a6e0 f   OpensslLib:rsa_pk1.obj
 0001:0004a730       RSA_padding_add_SSLv23     000000000004a9f0 f   OpensslLib:rsa_ssl.obj
 0001:0004a7fc       RSA_padding_check_SSLv23   000000000004aabc f   OpensslLib:rsa_ssl.obj
 0001:0004abe8       BN_nnmod                   000000000004aea8 f   OpensslLib:bn_mod.obj
 0001:0004ac4c       bn_mod_add_fixed_top       000000000004af0c f   OpensslLib:bn_mod.obj
 0001:0004adf8       bn_mod_sub_fixed_top       000000000004b0b8 f   OpensslLib:bn_mod.obj
 0001:0004af78       BN_mod_sub_quick           000000000004b238 f   OpensslLib:bn_mod.obj
 0001:0004afb8       BN_mod_mul                 000000000004b278 f   OpensslLib:bn_mod.obj
 0001:0004b070       BN_mod_sqr                 000000000004b330 f   OpensslLib:bn_mod.obj
 0001:0004b0c8       BN_mod_lshift1_quick       000000000004b388 f   OpensslLib:bn_mod.obj
 0001:0004b110       BN_mod_lshift_quick        000000000004b3d0 f   OpensslLib:bn_mod.obj
 0001:0004b1d0       RSA_padding_add_PKCS1_OAEP_mgf1 000000000004b490 f   OpensslLib:rsa_oaep.obj
 0001:0004b458       RSA_padding_check_PKCS1_OAEP_mgf1 000000000004b718 f   OpensslLib:rsa_oaep.obj
 0001:0004b980       PKCS1_MGF1                 000000000004bc40 f   OpensslLib:rsa_oaep.obj
 0001:0004bcb8       i2v_ASN1_BIT_STRING        000000000004bf78 f   OpensslLib:v3_bitst.obj
 0001:0004bd4c       v2i_ASN1_BIT_STRING        000000000004c00c f   OpensslLib:v3_bitst.obj
 0001:0004c74c       i2s_ASN1_IA5STRING         000000000004ca0c f   OpensslLib:v3_ia5.obj
 0001:0004c7bc       s2i_ASN1_IA5STRING         000000000004ca7c f   OpensslLib:v3_ia5.obj
 0001:0004ce28       i2s_ASN1_OCTET_STRING      000000000004d0e8 f   OpensslLib:v3_skey.obj
 0001:0004cf84       i2s_ASN1_ENUMERATED_TABLE  000000000004d244 f   OpensslLib:v3_enum.obj
 0001:0004d0c8       POLICY_MAPPING_free        000000000004d388 f   OpensslLib:v3_pmaps.obj
 0001:0004d4f8       SXNET_add_id_INTEGER       000000000004d7b8 f   OpensslLib:v3_sxnet.obj
 0001:0004d6c0       SXNET_get_id_INTEGER       000000000004d980 f   OpensslLib:v3_sxnet.obj
 0001:0004e284       ASN1_item_pack             000000000004e544 f   OpensslLib:asn_pack.obj
 0001:0004e368       ASN1_generate_v3           000000000004e628 f   OpensslLib:asn1_gen.obj
 0001:0004f0ec       ec_GFp_simple_set_compressed_coordinates 000000000004f3ac f   OpensslLib:ecp_oct.obj
 0001:0004f47c       ec_GFp_simple_point2oct    000000000004f73c f   OpensslLib:ecp_oct.obj
 0001:0004f70c       ec_GFp_simple_oct2point    000000000004f9cc f   OpensslLib:ecp_oct.obj
 0001:0004f908       ossl_ecdsa_sign            000000000004fbc8 f   OpensslLib:ecdsa_ossl.obj
 0001:0004fc64       ossl_ecdsa_sign_setup      000000000004ff24 f   OpensslLib:ecdsa_ossl.obj
 0001:0004fc80       ossl_ecdsa_sign_sig        000000000004ff40 f   OpensslLib:ecdsa_ossl.obj
 0001:0004fffc       ossl_ecdsa_verify          00000000000502bc f   OpensslLib:ecdsa_ossl.obj
 0001:0005010c       ossl_ecdsa_verify_sig      00000000000503cc f   OpensslLib:ecdsa_ossl.obj
 0001:00050440       ossl_ecdh_compute_key      0000000000050700 f   OpensslLib:ecdh_ossl.obj
 0001:00050478       ecdh_simple_compute_key    0000000000050738 f   OpensslLib:ecdh_ossl.obj
 0001:000506b4       DH_check_params            0000000000050974 f   OpensslLib:dh_check.obj
 0001:00050798       DH_check                   0000000000050a58 f   OpensslLib:dh_check.obj
 0001:0005095c       DH_check_pub_key           0000000000050c1c f   OpensslLib:dh_check.obj
 0001:00050bb4       c448_ed448_sign            0000000000050e74 f   OpensslLib:eddsa.obj
 0001:00050f1c       c448_ed448_verify          00000000000511dc f   OpensslLib:eddsa.obj
 0001:00051134       ED448_public_from_private  00000000000513f4 f   OpensslLib:eddsa.obj
 0001:0005723c       ED25519_sign               00000000000574fc f   OpensslLib:curve25519.obj
 0001:000573d8       ED25519_verify             0000000000057698 f   OpensslLib:curve25519.obj
 0001:00057604       X25519_public_from_private 00000000000578c4 f   OpensslLib:curve25519.obj
 0001:000576c8       ASN1_buf_print             0000000000057988 f   OpensslLib:t_pkey.obj
 0001:000577b0       ASN1_bn_print              0000000000057a70 f   OpensslLib:t_pkey.obj
 0001:00058238       curve448_precomputed_scalarmul 00000000000584f8 f   OpensslLib:curve448.obj
 0001:00058448       curve448_point_mul_by_ratio_and_encode_like_eddsa 0000000000058708 f   OpensslLib:curve448.obj
 0001:000586d4       curve448_point_decode_like_eddsa_and_mul_by_ratio 0000000000058994 f   OpensslLib:curve448.obj
 0001:000589a4       x448_int                   0000000000058c64 f   OpensslLib:curve448.obj
 0001:00058fe0       curve448_base_double_scalarmul_non_secret 00000000000592a0 f   OpensslLib:curve448.obj
 0001:000593ac       X448_public_from_private   000000000005966c f   OpensslLib:curve448.obj
 0001:00059508       ECPKParameters_print       00000000000597c8 f   OpensslLib:eck_prn.obj
 0001:00059e40       EC_GROUP_check             000000000005a100 f   OpensslLib:ec_check.obj
 0001:00059f78       RSA_check_key_ex           000000000005a238 f   OpensslLib:rsa_chk.obj
 0001:0005a6c0       X509_signature_dump        000000000005a980 f   OpensslLib:t_x509.obj
 0001:0005a7cc       i2a_ASN1_INTEGER           000000000005aa8c f   OpensslLib:f_int.obj
 0001:0005a968       d2i_DHxparams              000000000005ac28 f   OpensslLib:dh_asn1.obj
 0001:0005aa48       HMAC_Init_ex               000000000005ad08 f   OpensslLib:hmac.obj
 0001:0005ac68       HMAC_Final                 000000000005af28 f   OpensslLib:hmac.obj
 0001:0005acf8       HMAC_CTX_new               000000000005afb8 f   OpensslLib:hmac.obj
 0001:0005ad74       HMAC_CTX_free              000000000005b034 f   OpensslLib:hmac.obj
 0001:0005ae60       HMAC_CTX_copy              000000000005b120 f   OpensslLib:hmac.obj
 0001:0005e8bc       drbg_ctr_init              000000000005eb7c f   OpensslLib:drbg_ctr.obj
 0001:0005f184       rand_pool_acquire_entropy  000000000005f444 f   OpensslLib:rand_pool.obj
 0001:0005f254       DH_new_by_nid              000000000005f514 f   OpensslLib:dh_rfc7919.obj
 0001:0005f48c       RSA_sign_ASN1_OCTET_STRING 000000000005f74c f   OpensslLib:rsa_saos.obj
 0001:0005ff68       RSA_verify_PKCS1_PSS_mgf1  0000000000060228 f   OpensslLib:rsa_pss.obj
 0001:0006027c       RSA_padding_add_PKCS1_PSS_mgf1 000000000006053c f   OpensslLib:rsa_pss.obj
 0001:00060564       sm2_compute_z_digest       0000000000060824 f   OpensslLib:sm2_sign.obj
 0001:00060f30       sm2_sign                   00000000000611f0 f   OpensslLib:sm2_sign.obj
 0001:000610bc       sm2_encrypt                000000000006137c f   OpensslLib:sm2_crypt.obj
 0001:0006156c       sm2_decrypt                000000000006182c f   OpensslLib:sm2_crypt.obj
 0001:00061a3c       SipHash_Init               0000000000061cfc f   OpensslLib:siphash.obj
 0001:00061b78       SipHash_Update             0000000000061e38 f   OpensslLib:siphash.obj
 0001:00061d94       SipHash_Final              0000000000062054 f   OpensslLib:siphash.obj
 0001:00061fd8       ecdh_KDF_X9_63             0000000000062298 f   OpensslLib:ecdh_kdf.obj
 0001:000621bc       BN_mod_mul_reciprocal      000000000006247c f   OpensslLib:bn_recp.obj
 0001:0006227c       BN_div_recp                000000000006253c f   OpensslLib:bn_recp.obj
 0001:000626f8       ec_GFp_nist_group_copy     00000000000629b8 f   OpensslLib:ecp_nist.obj
 0001:0006270c       ec_GFp_nist_group_set_curve 00000000000629cc f   OpensslLib:ecp_nist.obj
 0001:00062850       ec_GFp_nist_field_mul      0000000000062b10 f   OpensslLib:ecp_nist.obj
 0001:00062924       ec_GFp_nist_field_sqr      0000000000062be4 f   OpensslLib:ecp_nist.obj
 0001:00062a30       BN_nist_mod_192            0000000000062cf0 f   OpensslLib:bn_nist.obj
 0001:00062c7c       BN_nist_mod_224            0000000000062f3c f   OpensslLib:bn_nist.obj
 0001:00062fd0       BN_nist_mod_256            0000000000063290 f   OpensslLib:bn_nist.obj
 0001:00063320       BN_nist_mod_384            00000000000635e0 f   OpensslLib:bn_nist.obj
 0001:000636e4       BN_nist_mod_521            00000000000639a4 f   OpensslLib:bn_nist.obj
 0001:000638b8       ec_GFp_mont_group_init     0000000000063b78 f   OpensslLib:ecp_mont.obj
 0001:000638dc       ec_GFp_mont_group_finish   0000000000063b9c f   OpensslLib:ecp_mont.obj
 0001:00063914       ec_GFp_mont_group_clear_finish 0000000000063bd4 f   OpensslLib:ecp_mont.obj
 0001:0006394c       ec_GFp_mont_group_copy     0000000000063c0c f   OpensslLib:ecp_mont.obj
 0001:00063a1c       ec_GFp_mont_group_set_curve 0000000000063cdc f   OpensslLib:ecp_mont.obj
 0001:00063c04       ec_GFp_mont_field_mul      0000000000063ec4 f   OpensslLib:ecp_mont.obj
 0001:00063c5c       ec_GFp_mont_field_sqr      0000000000063f1c f   OpensslLib:ecp_mont.obj
 0001:00063ca8       ec_GFp_mont_field_inv      0000000000063f68 f   OpensslLib:ecp_mont.obj
 0001:00063db8       ec_GFp_mont_field_encode   0000000000064078 f   OpensslLib:ecp_mont.obj
 0001:00063e0c       ec_GFp_mont_field_decode   00000000000640cc f   OpensslLib:ecp_mont.obj
 0001:00063e54       ec_GFp_mont_field_set_to_one 0000000000064114 f   OpensslLib:ecp_mont.obj
 0001:00063e98       i2a_ASN1_STRING            0000000000064158 f   OpensslLib:f_string.obj
 0001:00063fb8       BN_mod_sqrt                0000000000064278 f   OpensslLib:bn_sqrt.obj
 0001:000646f4       BN_kronecker               00000000000649b4 f   OpensslLib:bn_kron.obj
 0001:0006497c       BN_GENCB_call              0000000000064c3c f   OpensslLib:bn_prime.obj
 0001:000649d0       BN_generate_prime_ex       0000000000064c90 f   OpensslLib:bn_prime.obj
 0001:00064c38       BN_is_prime_fasttest_ex    0000000000064ef8 f   OpensslLib:bn_prime.obj
 0001:0006563c       curve448_scalar_add        00000000000658fc f   OpensslLib:scalar.obj
 0001:00065690       curve448_scalar_decode_long 0000000000065950 f   OpensslLib:scalar.obj
 0001:00065854       curve448_scalar_halve      0000000000065b14 f   OpensslLib:scalar.obj
 0001:00065968       gf_serialize               0000000000065c28 f   OpensslLib:f_generic.obj
 0001:000659f8       gf_deserialize             0000000000065cb8 f   OpensslLib:f_generic.obj
 0001:00065ac4       gf_strong_reduce           0000000000065d84 f   OpensslLib:f_generic.obj
 0001:00065b48       gf_sub                     0000000000065e08 f   OpensslLib:f_generic.obj
 0001:00065b98       gf_add                     0000000000065e58 f   OpensslLib:f_generic.obj
 0001:00065bc4       gf_eq                      0000000000065e84 f   OpensslLib:f_generic.obj
 0001:00065c34       gf_isr                     0000000000065ef4 f   OpensslLib:f_generic.obj
 0001:00065e58       gf_mul                     0000000000066118 f   OpensslLib:f_impl.obj
 0001:00066070       gf_mulw_unsigned           0000000000066330 f   OpensslLib:f_impl.obj
 0001:00066184       SM4_set_key                0000000000066444 f   OpensslLib:sm4.obj
 0001:00066340       SM4_encrypt                0000000000066600 f   OpensslLib:sm4.obj
 0001:00066bf0       SM4_decrypt                0000000000066eb0 f   OpensslLib:sm4.obj
 0001:000674a0       CRYPTO_cbc128_encrypt      0000000000067760 f   OpensslLib:cbc128.obj
 0001:00067574       CRYPTO_cbc128_decrypt      0000000000067834 f   OpensslLib:cbc128.obj
 0001:00067634       CRYPTO_ofb128_encrypt      00000000000678f4 f   OpensslLib:ofb128.obj
 0001:000676bc       CRYPTO_ctr128_encrypt      000000000006797c f   OpensslLib:ctr128.obj
 0001:0006776c       CRYPTO_ctr128_encrypt_ctr32 0000000000067a2c f   OpensslLib:ctr128.obj
 0001:00067964       CRYPTO_cfb128_encrypt      0000000000067c24 f   OpensslLib:cfb128.obj
 0001:00067b64       CRYPTO_cfb128_1_encrypt    0000000000067e24 f   OpensslLib:cfb128.obj
 0001:00067c58       CRYPTO_cfb128_8_encrypt    0000000000067f18 f   OpensslLib:cfb128.obj
 0001:00067e5c       CRYPTO_gcm128_init         000000000006811c f   OpensslLib:gcm128.obj
 0001:00068038       CRYPTO_gcm128_setiv        00000000000682f8 f   OpensslLib:gcm128.obj
 0001:000681fc       CRYPTO_gcm128_aad          00000000000684bc f   OpensslLib:gcm128.obj
 0001:00068338       CRYPTO_gcm128_encrypt      00000000000685f8 f   OpensslLib:gcm128.obj
 0001:00068480       CRYPTO_gcm128_decrypt      0000000000068740 f   OpensslLib:gcm128.obj
 0001:000685c8       CRYPTO_gcm128_finish       0000000000068888 f   OpensslLib:gcm128.obj
 0001:00068750       CRYPTO_gcm128_tag          0000000000068a10 f   OpensslLib:gcm128.obj
 0001:00068788       CRYPTO_ccm128_init         0000000000068a48 f   OpensslLib:ccm128.obj
 0001:000687f0       CRYPTO_ccm128_setiv        0000000000068ab0 f   OpensslLib:ccm128.obj
 0001:00068884       CRYPTO_ccm128_aad          0000000000068b44 f   OpensslLib:ccm128.obj
 0001:00068a00       CRYPTO_ccm128_encrypt      0000000000068cc0 f   OpensslLib:ccm128.obj
 0001:00068cb4       CRYPTO_ccm128_decrypt      0000000000068f74 f   OpensslLib:ccm128.obj
 0001:00068eb0       CRYPTO_ccm128_encrypt_ccm64 0000000000069170 f   OpensslLib:ccm128.obj
 0001:000690f8       CRYPTO_ccm128_decrypt_ccm64 00000000000693b8 f   OpensslLib:ccm128.obj
 0001:000692f0       CRYPTO_ccm128_tag          00000000000695b0 f   OpensslLib:ccm128.obj
 0001:00069688       aria_encrypt               0000000000069948 f   OpensslLib:aria.obj
 0001:0006977c       aria_set_encrypt_key       0000000000069a3c f   OpensslLib:aria.obj
 0001:00069aa8       aria_set_decrypt_key       0000000000069d68 f   OpensslLib:aria.obj
 0001:00069b5c       CRYPTO_xts128_encrypt      0000000000069e1c f   OpensslLib:xts128.obj
 0001:00069dfc       AES_set_encrypt_key        000000000006a0bc f   OpensslLib:aes_core.obj
 0001:0006a3e4       AES_set_decrypt_key        000000000006a6a4 f   OpensslLib:aes_core.obj
 0001:0006a620       AES_encrypt                000000000006a8e0 f   OpensslLib:aes_core.obj
 0001:0006ac64       AES_decrypt                000000000006af24 f   OpensslLib:aes_core.obj
 0001:0006b294       CRYPTO_128_wrap            000000000006b554 f   OpensslLib:wrap128.obj
 0001:0006b514       CRYPTO_128_wrap_pad        000000000006b7d4 f   OpensslLib:wrap128.obj
 0001:0006b640       CRYPTO_128_unwrap_pad      000000000006b900 f   OpensslLib:wrap128.obj
 0001:0006b7e4       AES_cbc_encrypt            000000000006baa4 f   OpensslLib:aes_cbc.obj
 0001:0006c7c4       SHA3_absorb                000000000006ca84 f   OpensslLib:keccak1600.obj
 0001:0006c88c       SHA3_squeeze               000000000006cb4c f   OpensslLib:keccak1600.obj
 0001:0006c968       sm3_final                  000000000006cc28 f   OpensslLib:sm3.obj
 0001:0006cb98       sm3_block_data_order       000000000006ce58 f   OpensslLib:sm3.obj
 0001:0006f270       ec_GFp_simple_group_init   000000000006f530 f   OpensslLib:ecp_smpl.obj
 0001:0006f2d4       ec_GFp_simple_group_finish 000000000006f594 f   OpensslLib:ecp_smpl.obj
 0001:0006f300       ec_GFp_simple_group_clear_finish 000000000006f5c0 f   OpensslLib:ecp_smpl.obj
 0001:0006f32c       ec_GFp_simple_group_copy   000000000006f5ec f   OpensslLib:ecp_smpl.obj
 0001:0006f38c       ec_GFp_simple_group_set_curve 000000000006f64c f   OpensslLib:ecp_smpl.obj
 0001:0006f530       ec_GFp_simple_group_get_curve 000000000006f7f0 f   OpensslLib:ecp_smpl.obj
 0001:0006f63c       ec_GFp_simple_group_get_degree 000000000006f8fc f   OpensslLib:ecp_smpl.obj
 0001:0006f648       ec_GFp_simple_group_check_discriminant 000000000006f908 f   OpensslLib:ecp_smpl.obj
 0001:0006f850       ec_GFp_simple_point_init   000000000006fb10 f   OpensslLib:ecp_smpl.obj
 0001:0006f8b4       ec_GFp_simple_point_finish 000000000006fb74 f   OpensslLib:ecp_smpl.obj
 0001:0006f8e0       ec_GFp_simple_point_clear_finish 000000000006fba0 f   OpensslLib:ecp_smpl.obj
 0001:0006f910       ec_GFp_simple_point_copy   000000000006fbd0 f   OpensslLib:ecp_smpl.obj
 0001:0006f978       ec_GFp_simple_point_set_to_infinity 000000000006fc38 f   OpensslLib:ecp_smpl.obj
 0001:0006f98c       ec_GFp_simple_set_Jprojective_coordinates_GFp 000000000006fc4c f   OpensslLib:ecp_smpl.obj
 0001:0006fb10       ec_GFp_simple_get_Jprojective_coordinates_GFp 000000000006fdd0 f   OpensslLib:ecp_smpl.obj
 0001:0006fc44       ec_GFp_simple_point_set_affine_coordinates 000000000006ff04 f   OpensslLib:ecp_smpl.obj
 0001:0006fcd0       ec_GFp_simple_point_get_affine_coordinates 000000000006ff90 f   OpensslLib:ecp_smpl.obj
 0001:0006ff88       ec_GFp_simple_add          0000000000070248 f   OpensslLib:ecp_smpl.obj
 0001:000704fc       ec_GFp_simple_dbl          00000000000707bc f   OpensslLib:ecp_smpl.obj
 0001:00070930       ec_GFp_simple_invert       0000000000070bf0 f   OpensslLib:ecp_smpl.obj
 0001:00070970       ec_GFp_simple_is_at_infinity 0000000000070c30 f   OpensslLib:ecp_smpl.obj
 0001:00070980       ec_GFp_simple_is_on_curve  0000000000070c40 f   OpensslLib:ecp_smpl.obj
 0001:00070c54       ec_GFp_simple_cmp          0000000000070f14 f   OpensslLib:ecp_smpl.obj
 0001:00070ee8       ec_GFp_simple_make_affine  00000000000711a8 f   OpensslLib:ecp_smpl.obj
 0001:00070ff0       ec_GFp_simple_points_make_affine 00000000000712b0 f   OpensslLib:ecp_smpl.obj
 0001:0007141c       ec_GFp_simple_field_inv    00000000000716dc f   OpensslLib:ecp_smpl.obj
 0001:00071540       ec_GFp_simple_blind_coordinates 0000000000071800 f   OpensslLib:ecp_smpl.obj
 0001:000716a8       ec_GFp_simple_ladder_pre   0000000000071968 f   OpensslLib:ecp_smpl.obj
 0001:0007194c       ec_GFp_simple_ladder_step  0000000000071c0c f   OpensslLib:ecp_smpl.obj
 0001:00071ed8       ec_GFp_simple_ladder_post  0000000000072198 f   OpensslLib:ecp_smpl.obj
 0001:000723c8       time                       0000000000072688 f   RuntimeCryptLib:TimerWrapper.obj
 0001:00072524       gmtime                     00000000000727e4 f   RuntimeCryptLib:TimerWrapper.obj
 0001:0007295c       strncasecmp                0000000000072c1c f   RuntimeCryptLib:CrtWrapper.obj
 0001:00072a04       BIO_printf                 0000000000072cc4 f   RuntimeCryptLib:CrtWrapper.obj
 0001:00072a04       sscanf                     0000000000072cc4 f   RuntimeCryptLib:CrtWrapper.obj
 0001:00072a14       strcpy                     0000000000072cd4 f   RuntimeCryptLib:CrtWrapper.obj
 0001:00072b38       qsort                      0000000000072df8 f   RuntimeCryptLib:CrtWrapper.obj
 0001:00072c00       BIO_snprintf               0000000000072ec0 f   RuntimeCryptLib:CrtWrapper.obj
 0001:00072c08       ScanMem8                   0000000000072ec8 f   BaseMemoryLibRepStr:ScanMem8Wrapper.obj
 0001:00072c8c       GetRandomNumber64          0000000000072f4c f   BaseRngLibTimerLib:RngLibTimer.obj
 0001:00072cec       memset                     0000000000072fac f   BaseIntrinsicLib:MemoryIntrinsics.obj
 0001:00072d04       strcmp                     0000000000072fc4 f   BaseIntrinsicLib:MemoryIntrinsics.obj
 0002:00000000       ??_C@_0CB@DMEJJJHA@?6ASSERT_EFI_ERROR?5?$CIStatus?5?$DN?5?$CFr?$CJ@ 0000000000072fe0     UefiDriverEntryPoint:DriverEntryPoint.obj
 0002:00000028       ??_C@_0CH@BBNBJKHK@?$CB?$CI?$CI?$CIINTN?$CJ?$CIRETURN_STATUS?$CJ?$CIStatus@ 0000000000073008     UefiDriverEntryPoint:DriverEntryPoint.obj
 0002:00000050       ??_C@_0BD@CJAFIPEF@VariableRuntimeDxe@ 0000000000073030     VariableRuntimeDxe:AutoGen.obj
 0002:00000068       ??_C@_0CE@IBFOBMLB@?6ASSERT_RETURN_ERROR?5?$CIStatus?5?$DN?5@ 0000000000073048     VariableRuntimeDxe:AutoGen.obj
 0002:00000090       ??_C@_0HM@NMIDDAOG@d?3?2myedk2?2edk2?2Build?2OvmfX64?2DE@ 0000000000073070     VariableRuntimeDxe:AutoGen.obj
 0002:00000110       ??_C@_0EI@OOMDJKFK@d?3?2myedk2?2edk2?2MdeModulePkg?2Uni@ 00000000000730f0     VariableRuntimeDxe:VariableDxe.obj
 0002:00000158       ??_C@_0CC@CHCOCDIO@?$FLVariable?$FNEND_OF_DXE?5is?5signale@ 0000000000073138     VariableRuntimeDxe:VariableDxe.obj
 0002:00000180       ??_C@_0DL@MOMKHMLG@Variable?5write?5service?5initiali@ 0000000000073160     VariableRuntimeDxe:VariableDxe.obj
 0002:000001c0       ??_C@_0CJ@HMKMADPC@NvStorageVariableSize?5?$DM?$DN?5FtwMax@ 00000000000731a0     VariableRuntimeDxe:VariableDxe.obj
 0002:000001f0       ??_C@_0DH@BMPDDGKB@Variable?5driver?5failed?5to?5get?5f@ 00000000000731d0     VariableRuntimeDxe:VariableDxe.obj
 0002:00000230       ??_C@_0EG@EILDOFIE@Variable?5driver?5failed?5to?5add?5E@ 0000000000073210     VariableRuntimeDxe:VariableDxe.obj
 0002:00000278       ??_C@_1BK@HEJFBPFA@?$AAV?$AAa?$AAr?$AAE?$AAr?$AAr?$AAo?$AAr?$AAF?$AAl?$AAa?$AAg@ 0000000000073258     VariableRuntimeDxe:Variable.obj
 0002:000002a0       ??_C@_0EF@HIKBANCL@d?3?2myedk2?2edk2?2MdeModulePkg?2Uni@ 0000000000073280     VariableRuntimeDxe:Variable.obj
 0002:000002e8       ??_C@_0DD@HNKMGDLP@RecordVarErrorFlag?5?$CI0x?$CF02x?$CJ?5?$CFs?3@ 00000000000732c8     VariableRuntimeDxe:Variable.obj
 0002:00000320       ??_C@_0EE@MDIAOIDD@CommonRuntimeVariableSpace?5?$DN?50x@ 0000000000073300     VariableRuntimeDxe:Variable.obj
 0002:00000368       ??_C@_0DN@PGDPNKGJ@CommonVariableSpace?5?$DN?50x?$CFx?5?9?5Co@ 0000000000073348     VariableRuntimeDxe:Variable.obj
 0002:000003b0       ??_C@_0EI@OPJCBAKK@CommonMaxUserVariableSpace?5?$DN?50x@ 0000000000073390     VariableRuntimeDxe:Variable.obj
 0002:000003f8       ??_C@_0CH@LFODLFDP@Initialize?5variable?5error?5flag?5@ 00000000000733d8     VariableRuntimeDxe:Variable.obj
 0002:00000420       ??_C@_0CL@OFPOKHAJ@?$CB?$CI?$CI?$CIINTN?$CJ?$CIRETURN_STATUS?$CJ?$CIDoneSt@ 0000000000073400     VariableRuntimeDxe:Variable.obj
 0002:00000450       ??_C@_0BC@FEDIJHFF@?$CI?$CIBOOLEAN?$CJ?$CI0?$DN?$DN1?$CJ?$CJ@ 0000000000073430     VariableRuntimeDxe:Variable.obj
 0002:00000468       ??_C@_1CE@GLBFGNOF@?$AAP?$AAl?$AAa?$AAt?$AAf?$AAo?$AAr?$AAm?$AAL?$AAa?$AAn?$AAg?$AAC?$AAo?$AAd@ 0000000000073448     VariableRuntimeDxe:Variable.obj
 0002:00000490       ??_C@_0DJ@JOLPIBDA@mVariableModuleGlobal?9?$DOPlatform@ 0000000000073470     VariableRuntimeDxe:Variable.obj
 0002:000004d0       ??_C@_0DE@IHKKGFED@mVariableModuleGlobal?9?$DOPlatform@ 00000000000734b0     VariableRuntimeDxe:Variable.obj
 0002:00000508       ??_C@_1BE@PMKNNMNM@?$AAL?$AAa?$AAn?$AAg?$AAC?$AAo?$AAd?$AAe?$AAs@ 00000000000734e8     VariableRuntimeDxe:Variable.obj
 0002:00000520       ??_C@_0DB@DANJMHI@mVariableModuleGlobal?9?$DOLangCode@ 0000000000073500     VariableRuntimeDxe:Variable.obj
 0002:00000558       ??_C@_1BK@GGGENMOA@?$AAP?$AAl?$AAa?$AAt?$AAf?$AAo?$AAr?$AAm?$AAL?$AAa?$AAn?$AAg@ 0000000000073538     VariableRuntimeDxe:Variable.obj
 0002:00000578       ??_C@_19BALNHBBC@?$AAL?$AAa?$AAn?$AAg@ 0000000000073558     VariableRuntimeDxe:Variable.obj
 0002:00000590       ??_C@_0EP@JAIEHPHA@Variable?5Driver?5Auto?5Update?5Pla@ 0000000000073570     VariableRuntimeDxe:Variable.obj
 0002:000005e0       ??_C@_0EH@EPBEDH@Variable?5Driver?5Auto?5Update?5Lan@ 00000000000735c0     VariableRuntimeDxe:Variable.obj
 0002:00000630       ??_C@_0EH@KLDHFENI@Update?5NV?5variable?5before?5EFI_V@ 0000000000073610     VariableRuntimeDxe:Variable.obj
 0002:00000680       ??_C@_0EJ@PIJKKBKC@Update?5AUTH?5variable?5before?5EFI@ 0000000000073660     VariableRuntimeDxe:Variable.obj
 0002:000006d0       ??_C@_0DG@HGNGOLDN@CacheVariable?9?$DOInDeletedTransit@ 00000000000736b0     VariableRuntimeDxe:Variable.obj
 0002:00000708       ??_C@_0BB@IHBMANOJ@VarDataSize?5?$CB?$DN?50@ 00000000000736e8     VariableRuntimeDxe:Variable.obj
 0002:00000720       ??_C@_0BB@HEEDHDJN@VarNameSize?5?$CB?$DN?50@ 0000000000073700     VariableRuntimeDxe:Variable.obj
 0002:00000738       ??_C@_0BL@EELNHLCI@VariableServiceSetVariable@ 0000000000073718     VariableRuntimeDxe:Variable.obj
 0002:00000758       ??_C@_0CO@BJEGLAME@?$CFa?3?5Failed?5to?5set?5variable?5?8?$CFs?8@ 0000000000073738     VariableRuntimeDxe:Variable.obj
 0002:00000790       ??_C@_0FD@ODLBILOG@NameSize?$CI0x?$CFx?$CJ?5?$CL?5PayloadSize?$CI0x@ 0000000000073770     VariableRuntimeDxe:Variable.obj
 0002:000007f0       ??_C@_0EP@PIAAPIMM@NameSize?$CI0x?$CFx?$CJ?5?$CL?5PayloadSize?$CI0x@ 00000000000737d0     VariableRuntimeDxe:Variable.obj
 0002:00000840       ??_C@_0FH@GOMLIAIB@NameSize?$CI0x?$CFx?$CJ?5?$CL?5PayloadSize?$CI0x@ 0000000000073820     VariableRuntimeDxe:Variable.obj
 0002:000008a0       ??_C@_0GA@LEJLHOIJ@?$FLVariable?$FN?3?5Rewritten?5a?5preexis@ 0000000000073880     VariableRuntimeDxe:Variable.obj
 0002:00000900       ??_C@_0CJ@JLKAPOHL@?$CIVariable?9?$DOAttributes?5?$CG?50x00000@ 00000000000738e0     VariableRuntimeDxe:Variable.obj
 0002:00000930       ??_C@_0DL@LMHNPCMN@Variable?5driver?5flush?5the?5HOB?5v@ 0000000000073910     VariableRuntimeDxe:Variable.obj
 0002:00000970       ??_C@_0EH@GNLIFIG@Variable?5driver?5set?5the?5HOB?5var@ 0000000000073950     VariableRuntimeDxe:Variable.obj
 0002:000009c0       ??_C@_0EA@JNHAIEDK@Variable?5driver?3?5all?5HOB?5variab@ 00000000000739a0     VariableRuntimeDxe:Variable.obj
 0002:00000a00       ??_C@_0DH@HFIICOHI@Variable?5driver?5will?5work?5with?5@ 00000000000739e0     VariableRuntimeDxe:Variable.obj
 0002:00000a38       ??_C@_0DC@OOENMNLB@NOTICE?5?9?5AuthVariableLibInitial@ 0000000000073a18     VariableRuntimeDxe:Variable.obj
 0002:00000a70       ??_C@_0EG@DKPIPHJP@Variable?5driver?5will?5continue?5t@ 0000000000073a50     VariableRuntimeDxe:Variable.obj
 0002:00000ab8       ??_C@_0BP@IMEEEHNN@AuthVarStorage?5?$CB?$DN?5?$CI?$CIvoid?5?$CK?$CJ?50?$CJ@ 0000000000073a98     VariableRuntimeDxe:Variable.obj
 0002:00000ad8       ??_C@_0CL@KLIAEIPG@AuthVarStorage?9?$DOSize?5?$DM?$DN?5AuthVar@ 0000000000073ab8     VariableRuntimeDxe:Variable.obj
 0002:00000b08       ??_C@_0CF@HLANNKA@ERROR?3?5Found?5two?5Auth?5Variable?5@ 0000000000073ae8     VariableRuntimeDxe:Variable.obj
 0002:00000b30       ??_C@_0DC@OLGEBAOD@ERROR?3?5Found?5one?5Auth?5?$CL?5one?5Nor@ 0000000000073b10     VariableRuntimeDxe:Variable.obj
 0002:00000b68       ??_C@_0CH@BEPNCMEL@ERROR?3?5Found?5two?5Normal?5Variabl@ 0000000000073b48     VariableRuntimeDxe:Variable.obj
 0002:00000b90       ??_C@_0CJ@BMMLFEEO@HOB?5Variable?5Store?5header?5is?5co@ 0000000000073b70     VariableRuntimeDxe:Variable.obj
 0002:00000bc0       ??_C@_0DG@KHPPNHOC@Variable?5driver?5will?5work?5with?5@ 0000000000073ba0     VariableRuntimeDxe:Variable.obj
 0002:00000bf8       ??_C@_0DK@BOBGNLGH@Variable?5driver?5will?5work?5witho@ 0000000000073bd8     VariableRuntimeDxe:Variable.obj
 0002:00000c38       ??_C@_0BK@IGDNCAKI@VariableLockRequestToLock@ 0000000000073c18     VariableRuntimeDxe:VariableLockRequestToLock.obj
 0002:00000c58       ??_C@_0DG@NDNNKNAG@?$CB?$CB?$CB?5DEPRECATED?5INTERFACE?5?$CB?$CB?$CB?5?$CFa@ 0000000000073c38     VariableRuntimeDxe:VariableLockRequestToLock.obj
 0002:00000c90       ??_C@_0EC@EGNGNAAB@?$CB?$CB?$CB?5DEPRECATED?5INTERFACE?5?$CB?$CB?$CB?5Pl@ 0000000000073c70     VariableRuntimeDxe:VariableLockRequestToLock.obj
 0002:00000cd8       ??_C@_0CO@HIJFCGIJ@?$CB?$CB?$CB?5DEPRECATED?5INTERFACE?5?$CB?$CB?$CB?5Va@ 0000000000073cb8     VariableRuntimeDxe:VariableLockRequestToLock.obj
 0002:00000d08       ??_C@_0CG@DJOKNLBE@?5?5Variable?3?5?$CFg?5?$CFs?5is?5already?5lo@ 0000000000073ce8     VariableRuntimeDxe:VariableLockRequestToLock.obj
 0002:00000d30       ??_C@_0CG@JPPCCEHH@?5?5Variable?3?5?$CFg?5?$CFs?5can?5not?5be?5lo@ 0000000000073d10     VariableRuntimeDxe:VariableLockRequestToLock.obj
 0002:00000d58       ??_C@_0CF@PHFHFINJ@?$CFa?5?9?5Failed?5to?5lock?5variable?5?$CFs@ 0000000000073d38     VariableRuntimeDxe:VariableLockRequestToLock.obj
 0002:00000d80       ??_C@_1EE@GADHGNAI@?$AAM?$AAe?$AAm?$AAo?$AAr?$AAy?$AAO?$AAv?$AAe?$AAr?$AAw?$AAr?$AAi?$AAt?$AAe@ 0000000000073d60     VariableRuntimeDxe:TcgMorLockDxe.obj
 0002:00000dd0       ??_C@_1DM@KHNCPJJB@?$AAM?$AAe?$AAm?$AAo?$AAr?$AAy?$AAO?$AAv?$AAe?$AAr?$AAw?$AAr?$AAi?$AAt?$AAe@ 0000000000073db0     VariableRuntimeDxe:TcgMorLockDxe.obj
 0002:00000e10       ??_C@_0BG@JHIMLMCE@MorLockInitAtEndOfDxe@ 0000000000073df0     VariableRuntimeDxe:TcgMorLockDxe.obj
 0002:00000e28       ??_C@_0DD@CCHMGNPO@?$CFa?5?9?5Could?5not?5locate?5VariableP@ 0000000000073e08     VariableRuntimeDxe:TcgMorLockDxe.obj
 0002:00000e60       ??_C@_0CF@EHICJPFG@?$CFa?5?9?5Could?5not?5lock?5variable?5?$CFs@ 0000000000073e40     VariableRuntimeDxe:TcgMorLockDxe.obj
 0002:00000e88       ??_C@_1BG@JEGAFCNI@?$AAS?$AAe?$AAc?$AAu?$AAr?$AAe?$AAB?$AAo?$AAo?$AAt@ 0000000000073e68     VariableRuntimeDxe:Measurement.obj
 0002:00000ea0       ??_C@_15OKGIJJH@?$AAP?$AAK@ 0000000000073e80     VariableRuntimeDxe:Measurement.obj
 0002:00000ea8       ??_C@_17PNKKLKMO@?$AAK?$AAE?$AAK@ 0000000000073e88     VariableRuntimeDxe:Measurement.obj
 0002:00000eb0       ??_C@_15EMHHCMJI@?$AAd?$AAb@ 0000000000073e90     VariableRuntimeDxe:Measurement.obj
 0002:00000eb8       ??_C@_17CFMLKIPF@?$AAd?$AAb?$AAx@ 0000000000073e98     VariableRuntimeDxe:Measurement.obj
 0002:00000ec0       ??_C@_17GPBNBHEN@?$AAd?$AAb?$AAt@ 0000000000073ea0     VariableRuntimeDxe:Measurement.obj
 0002:00000ed0       ??_C@_0FH@PEFAEJFG@?$CIVarSize?5?$DN?$DN?50?5?$CG?$CG?5VarData?5?$DN?$DN?5?$CI?$CIv@ 0000000000073eb0     VariableRuntimeDxe:Measurement.obj
 0002:00000f30       ??_C@_0EI@FFPPOGOK@d?3?2myedk2?2edk2?2MdeModulePkg?2Uni@ 0000000000073f10     VariableRuntimeDxe:Measurement.obj
 0002:00000f78       ??_C@_0DJ@HIMFALHC@VariableDxe?3?5MeasureVariable?5?$CIP@ 0000000000073f58     VariableRuntimeDxe:Measurement.obj
 0002:00000fb8       ??_C@_0CF@EJGGIPIO@VariableName?5?9?5?$CFs?0?5VendorGuid?5?9@ 0000000000073f98     VariableRuntimeDxe:Measurement.obj
 0002:00000fe0       ??_C@_0BH@FMEOEIBC@?$CKValue?5?$CB?$DN?5?$CI?$CIvoid?5?$CK?$CJ?50?$CJ@ 0000000000073fc0     VariableRuntimeDxe:Measurement.obj
 0002:00000ff8       ??_C@_0CP@NIENIDEM@Skip?5measuring?5variable?5?$CFs?5sinc@ 0000000000073fd8     VariableRuntimeDxe:Measurement.obj
 0002:00001028       ??_C@_0CA@GAMOOMNI@MeasureBootPolicyVariable?5?9?5?$CFr?6@ 0000000000074008     VariableRuntimeDxe:Measurement.obj
 0002:00001048       ??_C@_0CD@FLADNDEG@mSecureBootVarData?5?$CB?$DN?5?$CI?$CIvoid?5?$CK?$CJ@ 0000000000074028     VariableRuntimeDxe:Measurement.obj
 0002:00001070       ??_C@_0EC@EJICPJCB@?$CFs?5variable?5updated?5according?5t@ 0000000000074050     VariableRuntimeDxe:Measurement.obj
 0002:000010b8       ??_C@_0DI@JPCCADGN@RecordSecureBootPolicyVarData?5G@ 0000000000074098     VariableRuntimeDxe:Measurement.obj
 0002:000010f0       ??_C@_0DI@IAABAODH@NameSizeOfVariable?5?$CIPtrTrack?9?$DOC@ 00000000000740d0     VariableRuntimeDxe:VariableParsing.obj
 0002:00001130       ??_C@_0EM@LEGAIKJB@d?3?2myedk2?2edk2?2MdeModulePkg?2Uni@ 0000000000074110     VariableRuntimeDxe:VariableParsing.obj
 0002:00001180       ??_C@_0CB@EOGGIOIC@StoreType?5?$DM?5VariableStoreTypeMa@ 0000000000074160     VariableRuntimeDxe:VariableParsing.obj
 0002:000011a8       ??_C@_0DG@KEDFAIFP@sizeof?5?$CIVARIABLE_STORE_HEADER?$CJ?5@ 0000000000074188     VariableRuntimeDxe:VariableNonVolatile.obj
 0002:000011e0       ??_C@_0FA@GDJOIDL@d?3?2myedk2?2edk2?2MdeModulePkg?2Uni@ 00000000000741c0     VariableRuntimeDxe:VariableNonVolatile.obj
 0002:00001230       ??_C@_0EK@HHLNPIC@HwErrStorageSize?5?$DM?5?$CIVariableSto@ 0000000000074210     VariableRuntimeDxe:VariableNonVolatile.obj
 0002:00001280       ??_C@_0BD@KOJGBFGG@NvStorageBase?5?$CB?$DN?50@ 0000000000074260     VariableRuntimeDxe:VariableNonVolatile.obj
 0002:00001298       ??_C@_0DI@NDEFKFNA@Variable?3?5NV?5storage?5is?5backed?5@ 0000000000074278     VariableRuntimeDxe:VariableNonVolatile.obj
 0002:000012d0       ??_C@_0FF@HIICAOID@Variable?3?5High?5partial?5NV?5stora@ 00000000000742b0     VariableRuntimeDxe:VariableNonVolatile.obj
 0002:00001328       ??_C@_0DB@CGGLGCCM@Firmware?5Volume?5for?5Variable?5St@ 0000000000074308     VariableRuntimeDxe:VariableNonVolatile.obj
 0002:00001360       ??_C@_0CL@KMBJJFJE@VariableStore?9?$DOSize?5?$DN?$DN?5Variable@ 0000000000074340     VariableRuntimeDxe:VariableNonVolatile.obj
 0002:00001390       ??_C@_0CE@PHEIGJIC@Variable?5Store?5header?5is?5corrup@ 0000000000074370     VariableRuntimeDxe:VariableNonVolatile.obj
 0002:000013c0       ??_C@_0GH@PGGCLDAP@MaxUserNvVariableSpaceSize?5?$DM?5?$CIV@ 00000000000743a0     VariableRuntimeDxe:VariableNonVolatile.obj
 0002:00001430       ??_C@_0HA@NDNGHFDK@BoottimeReservedNvVariableSpace@ 0000000000074410     VariableRuntimeDxe:VariableNonVolatile.obj
 0002:000014a0       ??_C@_0CO@MDLKCL@Variable?5driver?5common?5space?3?50@ 0000000000074480     VariableRuntimeDxe:VariableNonVolatile.obj
 0002:000014d0       ??_C@_0FK@OGCNODHE@GetNonVolatileMaxVariableSize?5?$CI@ 00000000000744b0     VariableRuntimeDxe:VariableNonVolatile.obj
 0002:00001530       ??_C@_0CG@OAPIFIMI@FtwBufferSize?5?$DN?$DN?5VariableBuffer@ 0000000000074510     VariableRuntimeDxe:Reclaim.obj
 0002:00001560       ??_C@_0EE@DCCFFDND@d?3?2myedk2?2edk2?2MdeModulePkg?2Uni@ 0000000000074540     VariableRuntimeDxe:Reclaim.obj
 0002:000015a8       ??_C@_0DE@IBFOALAL@d?3?2myedk2?2edk2?2MdePkg?2Library?2D@ 0000000000074588     DxePcdLib:DxePcdLib.obj
 0002:000015e0       ??_C@_0BF@OOKDELHM@mPcd?5?$CB?$DN?5?$CI?$CIvoid?5?$CK?$CJ?50?$CJ@ 00000000000745c0     DxePcdLib:DxePcdLib.obj
 0002:000015f8       ??_C@_0BH@IACGKAP@Buffer?5?$CB?$DN?5?$CI?$CIvoid?5?$CK?$CJ?50?$CJ@ 00000000000745d8     DxePcdLib:DxePcdLib.obj
 0002:00001610       ??_C@_0DG@EEENIGGL@Length?5?$DM?$DN?5?$CI0xFFFFFFFFFFFFFFFFUL@ 00000000000745f0     BaseMemoryLibRepStr:MemLibGuid.obj
 0002:00001650       ??_C@_0ED@MKGCMJG@?$CILength?5?9?51?$CJ?5?$DM?$DN?5?$CI0xFFFFFFFFFFFF@ 0000000000074630     BaseMemoryLibRepStr:CopyMemWrapper.obj
 0002:000016a0       ??_C@_0ED@JAIIHABO@d?3?2myedk2?2edk2?2MdePkg?2Library?2B@ 0000000000074680     BaseMemoryLibRepStr:CopyMemWrapper.obj
 0002:000016e8       ??_C@_0DO@MAOBOFEG@?$CILength?5?9?51?$CJ?5?$DM?$DN?5?$CI0xFFFFFFFFFFFF@ 00000000000746c8     BaseMemoryLibRepStr:CopyMemWrapper.obj
 0002:00001730       ??_C@_0ED@CECKBBNJ@d?3?2myedk2?2edk2?2MdePkg?2Library?2B@ 0000000000074710     BaseMemoryLibRepStr:ZeroMemWrapper.obj
 0002:00001778       ??_C@_0CC@JOEHDGKB@DestinationBuffer?5?$CB?$DN?5?$CI?$CIvoid?5?$CK?$CJ?5@ 0000000000074758     BaseMemoryLibRepStr:CompareMemWrapper.obj
 0002:000017a0       ??_C@_0EG@FCOMBDPM@d?3?2myedk2?2edk2?2MdePkg?2Library?2B@ 0000000000074780     BaseMemoryLibRepStr:CompareMemWrapper.obj
 0002:000017e8       ??_C@_0BN@MDMCNBCC@SourceBuffer?5?$CB?$DN?5?$CI?$CIvoid?5?$CK?$CJ?50?$CJ@ 00000000000747c8     BaseMemoryLibRepStr:CompareMemWrapper.obj
 0002:00001808       ??_C@_0DI@DAGDPLPG@?$CILength?5?9?51?$CJ?5?$DM?$DN?5?$CI0xFFFFFFFFFFFF@ 00000000000747e8     BaseMemoryLibRepStr:SetMemWrapper.obj
 0002:00001840       ??_C@_0EC@NJPJFNGD@d?3?2myedk2?2edk2?2MdePkg?2Library?2B@ 0000000000074820     BaseMemoryLibRepStr:SetMemWrapper.obj
 0002:00001888       ??_C@_0BH@MAAHKCPC@String?5?$CB?$DN?5?$CI?$CIvoid?5?$CK?$CJ?50?$CJ@ 0000000000074868     BaseLib:String.obj
 0002:000018a0       ??_C@_0CP@DJBLNMJI@d?3?2myedk2?2edk2?2MdePkg?2Library?2B@ 0000000000074880     BaseLib:String.obj
 0002:000018d0       ??_C@_0CC@GFNLNIOC@?$CI?$CIUINTN?$CJString?5?$CG?50x00000001?$CJ?5?$DN?$DN@ 00000000000748b0     BaseLib:String.obj
 0002:000018f8       ??_C@_0DK@EOJCOAME@Length?5?$DM?5_gPcd_FixedAtBuild_Pcd@ 00000000000748d8     BaseLib:String.obj
 0002:00001938       ??_C@_0BL@JAAMOCAJ@StrSize?5?$CIFirstString?$CJ?5?$CB?$DN?50@ 0000000000074918     BaseLib:String.obj
 0002:00001958       ??_C@_0BM@DALBOILC@StrSize?5?$CISecondString?$CJ?5?$CB?$DN?50@ 0000000000074938     BaseLib:String.obj
 0002:00001978       ??_C@_0DL@LFIMEMJP@Length?5?$DM?$DN?5_gPcd_FixedAtBuild_Pc@ 0000000000074958     BaseLib:String.obj
 0002:000019b8       ??_C@_0DI@MDIKFADO@Length?5?$DM?5_gPcd_FixedAtBuild_Pcd@ 0000000000074998     BaseLib:String.obj
 0002:000019f0       ??_C@_0BL@IKFBNFIL@AsciiStrSize?5?$CIFirstString?$CJ@ 00000000000749d0     BaseLib:String.obj
 0002:00001a10       ??_C@_0BM@EDNOKLLE@AsciiStrSize?5?$CISecondString?$CJ@ 00000000000749f0     BaseLib:String.obj
 0002:00001a30       ??_C@_0DJ@JJHGIFMP@Length?5?$DM?$DN?5_gPcd_FixedAtBuild_Pc@ 0000000000074a10     BaseLib:String.obj
 0002:00001a70       ??_C@_0DD@OKIGPFG@d?3?2myedk2?2edk2?2MdePkg?2Library?2B@ 0000000000074a50     BaseLib:SafeString.obj
 0002:00001aa8       ??_C@_0CH@LALFPBMC@?$CI?$CIUINTN?$CJDestination?5?$CG?50x0000000@ 0000000000074a88     BaseLib:SafeString.obj
 0002:00001ad0       ??_C@_0CC@HEBCMBPF@?$CI?$CIUINTN?$CJSource?5?$CG?50x00000001?$CJ?5?$DN?$DN@ 0000000000074ab0     BaseLib:SafeString.obj
 0002:00001af8       ??_C@_0BO@ECNIOIHG@?$CIDestination?5?$CB?$DN?5?$CI?$CIvoid?5?$CK?$CJ?50?$CJ?$CJ@ 0000000000074ad8     BaseLib:SafeString.obj
 0002:00001b18       ??_C@_07KBGDFDAM@StrCpyS@  0000000000074af8     BaseLib:SafeString.obj
 0002:00001b20       ??_C@_0EA@PDPDJJNN@?$CFa?$CI?$CFd?$CJ?5?$CFa?3?5SAFE_STRING_CONSTRAI@ 0000000000074b00     BaseLib:SafeString.obj
 0002:00001b60       ??_C@_0BJ@EAEEJIP@?$CISource?5?$CB?$DN?5?$CI?$CIvoid?5?$CK?$CJ?50?$CJ?$CJ@ 0000000000074b40     BaseLib:SafeString.obj
 0002:00001b80       ??_C@_0EA@BBALOHPI@?$CIDestMax?5?$DM?$DN?5?$CI_gPcd_FixedAtBuild@ 0000000000074b60     BaseLib:SafeString.obj
 0002:00001bc0       ??_C@_0P@PMIMLIHM@?$CIDestMax?5?$CB?$DN?50?$CJ@ 0000000000074ba0     BaseLib:SafeString.obj
 0002:00001bd0       ??_C@_0BG@EEGIIOKH@?$CIDestMax?5?$DO?5SourceLen?$CJ@ 0000000000074bb0     BaseLib:SafeString.obj
 0002:00001bf0       ??_C@_0FH@PPBLBDBJ@InternalSafeStringNoStrOverlap?5@ 0000000000074bd0     BaseLib:SafeString.obj
 0002:00001c48       ??_C@_0P@BHOOOJPD@?$CICopyLen?5?$CB?$DN?50?$CJ@ 0000000000074c28     BaseLib:SafeString.obj
 0002:00001c58       ??_C@_0BG@BPGICNPK@?$CICopyLen?5?$DO?5SourceLen?$CJ@ 0000000000074c38     BaseLib:SafeString.obj
 0002:00001c70       ??_C@_0BJ@MBBOBCLN@?$CIString?5?$CB?$DN?5?$CI?$CIvoid?5?$CK?$CJ?50?$CJ?$CJ@ 0000000000074c50     BaseLib:SafeString.obj
 0002:00001c90       ??_C@_0BH@JPMEDPAI@?$CIData?5?$CB?$DN?5?$CI?$CIvoid?5?$CK?$CJ?50?$CJ?$CJ@ 0000000000074c70     BaseLib:SafeString.obj
 0002:00001ca8       ??_C@_0BJ@CNKJJNE@?$CIBuffer?5?$CB?$DN?5?$CI?$CIvoid?5?$CK?$CJ?50?$CJ?$CJ@ 0000000000074c88     BaseLib:SafeString.obj
 0002:00001cc8       ??_C@_0N@OMPODJLB@AsciiStrCpyS@ 0000000000074ca8     BaseLib:SafeString.obj
 0002:00001ce0       ??_C@_0FL@CDANCHFO@InternalSafeStringNoAsciiStrOve@ 0000000000074cc0     BaseLib:SafeString.obj
 0002:00001d40       ??_C@_0O@DIHNCLLG@AsciiStrnCpyS@ 0000000000074d20     BaseLib:SafeString.obj
 0002:00001d50       ??_C@_0DN@DLAADCJE@?$CILength?5?$DM?$DN?5?$CI_gPcd_FixedAtBuild_@ 0000000000074d30     BaseLib:SafeString.obj
 0002:00001d90       ??_C@_0N@MIDJKBI@AsciiStrCatS@ 0000000000074d70     BaseLib:SafeString.obj
 0002:00001da0       ??_C@_0BI@GIIHIIN@AsciiStrDecimalToUintnS@ 0000000000074d80     BaseLib:SafeString.obj
 0002:00001dc0       ??_C@_0ID@JMCCGBLD@?$CIAsciiStrnLenS?5?$CIString?0?5?$CI_gPcd_@ 0000000000074da0     BaseLib:SafeString.obj
 0002:00001e48       ??_C@_0DC@DDBICJIK@d?3?2myedk2?2edk2?2MdePkg?2Library?2B@ 0000000000074e28     BaseLib:Unaligned.obj
 0002:00001e80       ??_C@_0N@KGHEHMDL@Divisor?5?$CB?$DN?50@ 0000000000074e60     BaseLib:DivU64x32.obj
 0002:00001e90       ??_C@_0BH@LKMBFCBF@Format?5?$CB?$DN?5?$CI?$CIvoid?5?$CK?$CJ?50?$CJ@ 0000000000074e70     BaseDebugLibSerialPort:DebugLib.obj
 0002:00001eb0       ??_C@_0EA@MCEJFCHO@d?3?2myedk2?2edk2?2MdePkg?2Library?2B@ 0000000000074e90     BaseDebugLibSerialPort:DebugLib.obj
 0002:00001ef0       ??_C@_0BI@NOCKJDBJ@ASSERT?5?$FL?$CFa?$FN?5?$CFa?$CI?$CFd?$CJ?3?5?$CFa?6@ 0000000000074ed0     BaseDebugLibSerialPort:DebugLib.obj
 0002:00001f08       ??_C@_0BN@COECPDCC@gImageHandle?5?$CB?$DN?5?$CI?$CIvoid?5?$CK?$CJ?50?$CJ@ 0000000000074ee8     UefiBootServicesTableLib:UefiBootServicesTableLib.obj
 0002:00001f30       ??_C@_0FC@HJEJKBBP@d?3?2myedk2?2edk2?2MdePkg?2Library?2U@ 0000000000074f10     UefiBootServicesTableLib:UefiBootServicesTableLib.obj
 0002:00001f88       ??_C@_0BE@DGNHAHIL@gST?5?$CB?$DN?5?$CI?$CIvoid?5?$CK?$CJ?50?$CJ@ 0000000000074f68     UefiBootServicesTableLib:UefiBootServicesTableLib.obj
 0002:00001fa0       ??_C@_0BE@BDFJLGLN@gBS?5?$CB?$DN?5?$CI?$CIvoid?5?$CK?$CJ?50?$CJ@ 0000000000074f80     UefiBootServicesTableLib:UefiBootServicesTableLib.obj
 0002:00001fc0       ??_C@_0EM@BLKCBDHP@d?3?2myedk2?2edk2?2MdePkg?2Library?2U@ 0000000000074fa0     UefiMemoryAllocationLib:MemoryAllocationLib.obj
 0002:00002010       ??_C@_0DO@GEEICOOO@AllocationSize?5?$DM?$DN?5?$CI0xFFFFFFFFFF@ 0000000000074ff0     UefiMemoryAllocationLib:MemoryAllocationLib.obj
 0002:00002050       ??_C@_0BE@OBDFIHND@gRT?5?$CB?$DN?5?$CI?$CIvoid?5?$CK?$CJ?50?$CJ@ 0000000000075030     UefiRuntimeServicesTableLib:UefiRuntimeServicesTableLib.obj
 0002:00002070       ??_C@_0FI@ELFALICJ@d?3?2myedk2?2edk2?2MdePkg?2Library?2U@ 0000000000075050     UefiRuntimeServicesTableLib:UefiRuntimeServicesTableLib.obj
 0002:000020d0       ??_C@_0FG@PKIHNGDJ@d?3?2myedk2?2edk2?2MdePkg?2Library?2U@ 00000000000750b0     UefiDevicePathLibDevicePathProtocol:UefiDevicePathLib.obj
 0002:00002128       ??_C@_0DC@CNNBPJA@mDevicePathLibDevicePathUtiliti@ 0000000000075108     UefiDevicePathLibDevicePathProtocol:UefiDevicePathLib.obj
 0002:00002160       ??_C@_0BL@JFODOCGB@DevicePath?5?$CB?$DN?5?$CI?$CIvoid?5?$CK?$CJ?50?$CJ@ 0000000000075140     UefiDevicePathLibDevicePathProtocol:UefiDevicePathLib.obj
 0002:00002180       ??_C@_0BF@CBLMFKOC@Node?5?$CB?$DN?5?$CI?$CIvoid?5?$CK?$CJ?50?$CJ@ 0000000000075160     UefiDevicePathLibDevicePathProtocol:UefiDevicePathLib.obj
 0002:00002198       ??_C@_0BK@PPOBBAMB@TableGuid?5?$CB?$DN?5?$CI?$CIvoid?5?$CK?$CJ?50?$CJ@ 0000000000075178     UefiLib:UefiLib.obj
 0002:000021b8       ??_C@_0DA@MHLDPJPP@d?3?2myedk2?2edk2?2MdePkg?2Library?2U@ 0000000000075198     UefiLib:UefiLib.obj
 0002:000021e8       ??_C@_0BG@JDKEGFNB@Table?5?$CB?$DN?5?$CI?$CIvoid?5?$CK?$CJ?50?$CJ@ 00000000000751c8     UefiLib:UefiLib.obj
 0002:00002200       ??_C@_0BF@JGGLMCFN@Lock?5?$CB?$DN?5?$CI?$CIvoid?5?$CK?$CJ?50?$CJ@ 00000000000751e0     UefiLib:UefiLib.obj
 0002:00002218       ??_C@_0BO@IJOPPPFL@Lock?9?$DOLock?5?$DN?$DN?5EfiLockReleased@ 00000000000751f8     UefiLib:UefiLib.obj
 0002:00002238       ??_C@_0BO@FHNOFLFJ@Lock?9?$DOLock?5?$DN?$DN?5EfiLockAcquired@ 0000000000075218     UefiLib:UefiLib.obj
 0002:00002258       ??_C@_0DF@JLANBOAC@d?3?2myedk2?2edk2?2MdePkg?2Library?2U@ 0000000000075238     UefiLib:UefiNotTiano.obj
 0002:00002290       ??_C@_0CB@LNNMJOKK@ReadyToBootEvent?5?$CB?$DN?5?$CI?$CIvoid?5?$CK?$CJ?50@ 0000000000075270     UefiLib:UefiNotTiano.obj
 0002:000022b8       ??_C@_0CH@LOBIJKLE@EFI1?41?5can?8t?5support?5ReadyToBoo@ 0000000000075298     UefiLib:UefiNotTiano.obj
 0002:000022e0       ??_C@_0DB@IMLKCNBK@d?3?2myedk2?2edk2?2MdePkg?2Library?2D@ 00000000000752c0     DxeHobLib:HobLib.obj
 0002:00002318       ??_C@_0BJ@OBFMLLDO@mHobList?5?$CB?$DN?5?$CI?$CIvoid?5?$CK?$CJ?50?$CJ@ 00000000000752f8     DxeHobLib:HobLib.obj
 0002:00002338       ??_C@_0BJ@NOLLDKJB@HobStart?5?$CB?$DN?5?$CI?$CIvoid?5?$CK?$CJ?50?$CJ@ 0000000000075318     DxeHobLib:HobLib.obj
 0002:00002358       ??_C@_0BP@LHBKJBMC@PlatformInfoHob?5is?5not?5found?4?6@ 0000000000075338     DxeAcpiTimerLib:DxeAcpiTimerLib.obj
 0002:00002378       ??_C@_0DO@DECBCOF@d?3?2myedk2?2edk2?2OvmfPkg?2Library?2@ 0000000000075358     DxeAcpiTimerLib:DxeAcpiTimerLib.obj
 0002:000023b8       ??_C@_0BI@HAGPDMHJ@AcpiTimerLibConstructor@ 0000000000075398     DxeAcpiTimerLib:DxeAcpiTimerLib.obj
 0002:000023d0       ??_C@_0CL@DGCOIACG@?$CFa?3?5Unknown?5Host?5Bridge?5Device?5@ 00000000000753b0     DxeAcpiTimerLib:DxeAcpiTimerLib.obj
 0002:00002400       ??_C@_0EN@GACLKLIH@d?3?2myedk2?2edk2?2CryptoPkg?2Librar@ 00000000000753e0     RuntimeCryptLib:RuntimeMemAllocation.obj
 0002:00002450       ??_C@_0BE@LCGJNMJP@ValidateSetVariable@ 0000000000075430     VariablePolicyLibRuntimeDxe:VariablePolicyLib.obj
 0002:00002468       ??_C@_0CC@CAJNPIIF@?$CFa?5?9?5Bad?5Size?4?50x?$CFX?5?$DM?$DO?50x?$CFX?90x?$CF@ 0000000000075448     VariablePolicyLibRuntimeDxe:VariablePolicyLib.obj
 0002:00002490       ??_C@_0CI@LNNCMHNF@?$CFa?5?9?5Bad?5Attributes?4?50x?$CFX?5?$DM?$DO?50x@ 0000000000075470     VariablePolicyLibRuntimeDxe:VariablePolicyLib.obj
 0002:000024b8       ??_C@_0CF@HGPICMLO@?$CFa?5?9?5Variable?5?$CI?$CFg?3?$CFs?$CJ?5returning@ 0000000000075498     VariablePolicyLibRuntimeDxe:VariablePolicyLib.obj
 0002:000024e0       ??_C@_1BC@INDPOKJG@?$AAB?$AAo?$AAo?$AAt?$AA?$CD?$AA?$CD?$AA?$CD?$AA?$CD@ 00000000000754c0     VarCheckLib:VarCheckLib.obj
 0002:000024f8       ??_C@_1BG@HHCJINCN@?$AAD?$AAr?$AAi?$AAv?$AAe?$AAr?$AA?$CD?$AA?$CD?$AA?$CD?$AA?$CD@ 00000000000754d8     VarCheckLib:VarCheckLib.obj
 0002:00002510       ??_C@_1BI@HIEBMGJE@?$AAS?$AAy?$AAs?$AAP?$AAr?$AAe?$AAp?$AA?$CD?$AA?$CD?$AA?$CD?$AA?$CD@ 00000000000754f0     VarCheckLib:VarCheckLib.obj
 0002:00002528       ??_C@_1BA@DGFAJJOC@?$AAK?$AAe?$AAy?$AA?$CD?$AA?$CD?$AA?$CD?$AA?$CD@ 0000000000075508     VarCheckLib:VarCheckLib.obj
 0002:00002538       ??_C@_1CK@MLEAPEAI@?$AAP?$AAl?$AAa?$AAt?$AAf?$AAo?$AAr?$AAm?$AAR?$AAe?$AAc?$AAo?$AAv?$AAe?$AAr@ 0000000000075518     VarCheckLib:VarCheckLib.obj
 0002:00002568       ??_C@_1BK@OHIJFJDK@?$AAH?$AAw?$AAE?$AAr?$AAr?$AAR?$AAe?$AAc?$AA?$CD?$AA?$CD?$AA?$CD?$AA?$CD@ 0000000000075548     VarCheckLib:VarCheckLib.obj
 0002:00002588       ??_C@_0CO@GDCJKCHC@mVarCheckLibAddressPointerCount@ 0000000000075568     VarCheckLib:VarCheckLib.obj
 0002:000025b8       ??_C@_0DO@KMLFPICC@d?3?2myedk2?2edk2?2MdeModulePkg?2Lib@ 0000000000075598     VarCheckLib:VarCheckLib.obj
 0002:000025f8       ??_C@_0DG@BGONGNBL@VarCheckLibRegisterSetVariableC@ 00000000000755d8     VarCheckLib:VarCheckLib.obj
 0002:00002630       ??_C@_0DC@DJLHHOEM@Variable?5Check?5ReadOnly?5variabl@ 0000000000075610     VarCheckLib:VarCheckLib.obj
 0002:00002668       ??_C@_0DN@NFPHFBDA@Variable?5Check?5Attributes?$CI0x?$CF08@ 0000000000075648     VarCheckLib:VarCheckLib.obj
 0002:000026b0       ??_C@_0EC@OPGFOCPA@Variable?5Check?5DataSize?5fail?$CI0x@ 0000000000075690     VarCheckLib:VarCheckLib.obj
 0002:000026f8       ??_C@_0CI@HMFENEED@Variable?5Check?5handler?5fail?5?$CFr?5@ 00000000000756d8     VarCheckLib:VarCheckLib.obj
 0002:00002720       ??_C@_0EK@DDEAAHDL@d?3?2myedk2?2edk2?2MdePkg?2Library?2B@ 0000000000075700     BaseSynchronizationLib:SynchronizationMsc.obj
 0002:00002770       ??_C@_0BG@GJANEBOB@Value?5?$CB?$DN?5?$CI?$CIvoid?5?$CK?$CJ?50?$CJ@ 0000000000075750     BaseSynchronizationLib:SynchronizationMsc.obj
 0002:00002788       ??_C@_0DK@FPGDLAKA@d?3?2myedk2?2edk2?2MdePkg?2Library?2U@ 0000000000075768     UefiRuntimeLib:RuntimeLib.obj
 0002:000027d0       ??_C@_0EI@EGOBAHNO@d?3?2myedk2?2edk2?2MdePkg?2Library?2D@ 00000000000757b0     DxeServicesTableLib:DxeServicesTableLib.obj
 0002:00002818       ??_C@_0BE@IOIFLNKO@gDS?5?$CB?$DN?5?$CI?$CIvoid?5?$CK?$CJ?50?$CJ@ 00000000000757f8     DxeServicesTableLib:DxeServicesTableLib.obj
 0002:00002830       ??_C@_1CC@OHKABGKH@?$AAS?$AAe?$AAc?$AAu?$AAr?$AAe?$AAB?$AAo?$AAo?$AAt?$AAE?$AAn?$AAa?$AAb?$AAl@ 0000000000075810     AuthVariableLib:AuthVariableLib.obj
 0002:00002858       ??_C@_1BG@PJLHNPEI@?$AAC?$AAu?$AAs?$AAt?$AAo?$AAm?$AAM?$AAo?$AAd?$AAe@ 0000000000075838     AuthVariableLib:AuthVariableLib.obj
 0002:00002870       ??_C@_1BK@HNGBAIGL@?$AAV?$AAe?$AAn?$AAd?$AAo?$AAr?$AAK?$AAe?$AAy?$AAs?$AAN?$AAv@ 0000000000075850     AuthVariableLib:AuthVariableLib.obj
 0002:00002890       ??_C@_1O@LGOFIPNJ@?$AAc?$AAe?$AAr?$AAt?$AAd?$AAb@ 0000000000075870     AuthVariableLib:AuthVariableLib.obj
 0002:000028a0       ??_C@_1BA@GDKJKJEC@?$AAc?$AAe?$AAr?$AAt?$AAd?$AAb?$AAv@ 0000000000075880     AuthVariableLib:AuthVariableLib.obj
 0002:000028b0       ??_C@_0BN@EMGHPMIM@Variable?5?$CFs?5does?5not?5exist?4?6@ 0000000000075890     AuthVariableLib:AuthVariableLib.obj
 0002:000028d0       ??_C@_0BF@LHEJMHNB@Variable?5?$CFs?5exists?4?6@ 00000000000758b0     AuthVariableLib:AuthVariableLib.obj
 0002:000028e8       ??_C@_1BE@DFEPFMAE@?$AAS?$AAe?$AAt?$AAu?$AAp?$AAM?$AAo?$AAd?$AAe@ 00000000000758c8     AuthVariableLib:AuthVariableLib.obj
 0002:00002900       ??_C@_1CC@BAFCPNPB@?$AAS?$AAi?$AAg?$AAn?$AAa?$AAt?$AAu?$AAr?$AAe?$AAS?$AAu?$AAp?$AAp?$AAo?$AAr@ 00000000000758e0     AuthVariableLib:AuthVariableLib.obj
 0002:00002928       ??_C@_0BD@HCIMOJPJ@Variable?5?$CFs?5is?5?$CFx?6@ 0000000000075908     AuthVariableLib:AuthVariableLib.obj
 0002:00002940       ??_C@_0CB@IAEFFIDF@Clean?5up?5CertDB?5fail?$CB?5Status?5?$CFx@ 0000000000075920     AuthVariableLib:AuthVariableLib.obj
 0002:00002968       ??_C@_1BG@OIEIGDIF@?$AAV?$AAe?$AAn?$AAd?$AAo?$AAr?$AAK?$AAe?$AAy?$AAs@ 0000000000075948     AuthVariableLib:AuthVariableLib.obj
 0002:00002980       ??_C@_0FD@PIFJICMH@VariableName?5?$CB?$DN?5?$CI?$CIvoid?5?$CK?$CJ?50?$CJ?5?$CG?$CG@ 0000000000075960     AuthVariableLib:AuthService.obj
 0002:000029e0       ??_C@_0EB@PAIPCPAK@d?3?2myedk2?2edk2?2SecurityPkg?2Libr@ 00000000000759c0     AuthVariableLib:AuthService.obj
 0002:00002a28       ??_C@_0CK@IMOFCGIA@CalculatePrivAuthVarSignChainSH@ 0000000000075a08     AuthVariableLib:AuthService.obj
 0002:00002a58       ??_C@_0DE@MCACLHNK@?$CFa?5Get?5SignerCert?5CommonName?5fa@ 0000000000075a38     AuthVariableLib:AuthService.obj
 0002:00002a90       ??_C@_0CO@FPALBEKC@?$CFa?5Get?5Top?9level?5Cert?5tbsCertif@ 0000000000075a70     AuthVariableLib:AuthService.obj
 0002:00002ac0       ??_C@_0EJ@MGCCJDGH@Recovery?$CB?$CB?5Cert?5for?5Auth?5Variab@ 0000000000075aa0     AuthVariableLib:AuthService.obj
 0002:00002b10       mSha256OidValue            0000000000075af0     AuthVariableLib:AuthService.obj
 0002:00002b20       ??_C@_0DC@HLELONJE@ERROR?3?5Found?5two?5variable?5flash@ 0000000000075b00     BaseVariableFlashInfoLib:BaseVariableFlashInfoLib.obj
 0002:00002b60       ??_C@_0FI@DFPMNHFN@d?3?2myedk2?2edk2?2MdeModulePkg?2Lib@ 0000000000075b40     BaseVariableFlashInfoLib:BaseVariableFlashInfoLib.obj
 0002:00002bb8       ??_C@_0BO@DIMHDDCF@TotalSize?5?$DM?$DN?5?$CI?$CIUINT16?$CJ0xFFFF?$CJ@ 0000000000075b98     VariablePolicyHelperLib:VariablePolicyHelperLib.obj
 0002:00002be0       ??_C@_0FG@JEBBHNCH@d?3?2myedk2?2edk2?2MdeModulePkg?2Lib@ 0000000000075bc0     VariablePolicyHelperLib:VariablePolicyHelperLib.obj
 0002:00002c38       ??_C@_1BA@BKONPLFM@?$AAT?$AAi?$AAm?$AAe?$AAo?$AAu?$AAt@ 0000000000075c18     VarCheckUefiLib:VarCheckUefiLibNullClass.obj
 0002:00002c48       ??_C@_1M@NFPEGKHA@?$AAC?$AAo?$AAn?$AAI?$AAn@ 0000000000075c28     VarCheckUefiLib:VarCheckUefiLibNullClass.obj
 0002:00002c58       ??_C@_1O@MJHLOIFA@?$AAC?$AAo?$AAn?$AAO?$AAu?$AAt@ 0000000000075c38     VarCheckUefiLib:VarCheckUefiLibNullClass.obj
 0002:00002c68       ??_C@_1O@JOJMCOJC@?$AAE?$AAr?$AAr?$AAO?$AAu?$AAt@ 0000000000075c48     VarCheckUefiLib:VarCheckUefiLibNullClass.obj
 0002:00002c78       ??_C@_1BC@OBFMLJLI@?$AAC?$AAo?$AAn?$AAI?$AAn?$AAD?$AAe?$AAv@ 0000000000075c58     VarCheckUefiLib:VarCheckUefiLibNullClass.obj
 0002:00002c90       ??_C@_1BE@INNAKDAF@?$AAC?$AAo?$AAn?$AAO?$AAu?$AAt?$AAD?$AAe?$AAv@ 0000000000075c70     VarCheckUefiLib:VarCheckUefiLibNullClass.obj
 0002:00002ca8       ??_C@_1BE@JFPOEAHF@?$AAE?$AAr?$AAr?$AAO?$AAu?$AAt?$AAD?$AAe?$AAv@ 0000000000075c88     VarCheckUefiLib:VarCheckUefiLibNullClass.obj
 0002:00002cc0       ??_C@_1BE@CHCFCNKI@?$AAB?$AAo?$AAo?$AAt?$AAO?$AAr?$AAd?$AAe?$AAr@ 0000000000075ca0     VarCheckUefiLib:VarCheckUefiLibNullClass.obj
 0002:00002cd8       ??_C@_1BC@HGEHGBBD@?$AAB?$AAo?$AAo?$AAt?$AAN?$AAe?$AAx?$AAt@ 0000000000075cb8     VarCheckUefiLib:VarCheckUefiLibNullClass.obj
 0002:00002cf0       ??_C@_1BI@LBNGELID@?$AAB?$AAo?$AAo?$AAt?$AAC?$AAu?$AAr?$AAr?$AAe?$AAn?$AAt@ 0000000000075cd0     VarCheckUefiLib:VarCheckUefiLibNullClass.obj
 0002:00002d08       ??_C@_1CE@BKEAGEIL@?$AAB?$AAo?$AAo?$AAt?$AAO?$AAp?$AAt?$AAi?$AAo?$AAn?$AAS?$AAu?$AAp?$AAp?$AAo@ 0000000000075ce8     VarCheckUefiLib:VarCheckUefiLibNullClass.obj
 0002:00002d30       ??_C@_1BI@PDMCFEDG@?$AAD?$AAr?$AAi?$AAv?$AAe?$AAr?$AAO?$AAr?$AAd?$AAe?$AAr@ 0000000000075d10     VarCheckUefiLib:VarCheckUefiLibNullClass.obj
 0002:00002d48       ??_C@_1BK@CHMLNGLH@?$AAS?$AAy?$AAs?$AAP?$AAr?$AAe?$AAp?$AAO?$AAr?$AAd?$AAe?$AAr@ 0000000000075d28     VarCheckUefiLib:VarCheckUefiLibNullClass.obj
 0002:00002d68       ??_C@_1CA@BOALBJHG@?$AAH?$AAw?$AAE?$AAr?$AAr?$AAR?$AAe?$AAc?$AAS?$AAu?$AAp?$AAp?$AAo?$AAr?$AAt@ 0000000000075d48     VarCheckUefiLib:VarCheckUefiLibNullClass.obj
 0002:00002d88       ??_C@_1BG@DACLAPBO@?$AAK?$AAE?$AAK?$AAD?$AAe?$AAf?$AAa?$AAu?$AAl?$AAt@ 0000000000075d68     VarCheckUefiLib:VarCheckUefiLibNullClass.obj
 0002:00002da0       ??_C@_1BE@BGOOPGMO@?$AAP?$AAK?$AAD?$AAe?$AAf?$AAa?$AAu?$AAl?$AAt@ 0000000000075d80     VarCheckUefiLib:VarCheckUefiLibNullClass.obj
 0002:00002db8       ??_C@_1BE@HHMEGGE@?$AAd?$AAb?$AAD?$AAe?$AAf?$AAa?$AAu?$AAl?$AAt@ 0000000000075d98     VarCheckUefiLib:VarCheckUefiLibNullClass.obj
 0002:00002dd0       ??_C@_1BG@GPFEKEP@?$AAd?$AAb?$AAx?$AAD?$AAe?$AAf?$AAa?$AAu?$AAl?$AAt@ 0000000000075db0     VarCheckUefiLib:VarCheckUefiLibNullClass.obj
 0002:00002de8       ??_C@_1BG@BKAMDDEF@?$AAd?$AAb?$AAt?$AAD?$AAe?$AAf?$AAa?$AAu?$AAl?$AAt@ 0000000000075dc8     VarCheckUefiLib:VarCheckUefiLibNullClass.obj
 0002:00002e00       ??_C@_1CO@MENFEBKM@?$AAO?$AAs?$AAI?$AAn?$AAd?$AAi?$AAc?$AAa?$AAt?$AAi?$AAo?$AAn?$AAs?$AAS?$AAu@ 0000000000075de0     VarCheckUefiLib:VarCheckUefiLibNullClass.obj
 0002:00002e30       ??_C@_1BM@MDLAABPK@?$AAO?$AAs?$AAI?$AAn?$AAd?$AAi?$AAc?$AAa?$AAt?$AAi?$AAo?$AAn?$AAs@ 0000000000075e10     VarCheckUefiLib:VarCheckUefiLibNullClass.obj
 0002:00002e50       ??_C@_1BC@IONJEEFP@?$AAH?$AAw?$AAE?$AAr?$AAr?$AAR?$AAe?$AAc@ 0000000000075e30     VarCheckUefiLib:VarCheckUefiLibNullClass.obj
 0002:00002e68       ??_C@_0DG@BHHBAHFJ@UEFI?5Variable?5Check?5fail?5?$CFr?5?9?5?$CF@ 0000000000075e48     VarCheckUefiLib:VarCheckUefiLibNullClass.obj
 0002:00002ea0       ??_C@_0CO@BPBHJICJ@UEFI?5Variable?5Check?5function?5fa@ 0000000000075e80     VarCheckUefiLib:VarCheckUefiLibNullClass.obj
 0002:00002ed0       mUefiDefinedGuid           0000000000075eb0     VarCheckUefiLib:VarCheckUefiLibNullClass.obj
 0002:00002ee8       ??_C@_0DM@HGIGHENF@d?3?2myedk2?2edk2?2MdePkg?2Library?2B@ 0000000000075ec8     BaseIoLibIntrinsicSev:IoLibMsc.obj
 0002:00002f28       ??_C@_0BA@HCECIDGN@?$CIPort?5?$CG?53?$CJ?5?$DN?$DN?50@ 0000000000075f08     BaseIoLibIntrinsicSev:IoLibMsc.obj
 0002:00002f40       ??_C@_0EE@KKHAMLEI@d?3?2myedk2?2edk2?2MdePkg?2Library?2B@ 0000000000075f20     BaseIoLibIntrinsicSev:IoLibInternalTdx.obj
 0002:00002f88       ??_C@_0BD@OMMAJMCK@?$CIAddress?5?$CG?53?$CJ?5?$DN?$DN?50@ 0000000000075f68     BaseIoLibIntrinsicSev:IoLibInternalTdx.obj
 0002:00002fa0       ??_C@_0DO@DLJLNPNA@d?3?2myedk2?2edk2?2MdePkg?2Library?2B@ 0000000000075f80     BasePrintLib:PrintLibInternal.obj
 0002:00002fe0       ??_C@_0EB@HDGIDCIO@?$CIBufferSize?5?$DM?$DN?5?$CI_gPcd_FixedAtBu@ 0000000000075fc0     BasePrintLib:PrintLibInternal.obj
 0002:00003028       ??_C@_0BJ@PPAKKDJG@?$CIFormat?5?$CB?$DN?5?$CI?$CIvoid?5?$CK?$CJ?50?$CJ?$CJ@ 0000000000076008     BasePrintLib:PrintLibInternal.obj
 0002:00003050       ??_C@_0ED@LPDDCECB@?$CIBufferSize?5?$DM?$DN?5?$CI_gPcd_FixedAtBu@ 0000000000076030     BasePrintLib:PrintLibInternal.obj
 0002:000030a0       ??_C@_0IM@BFJJFLGB@?$CIStrnLenS?5?$CI?$CICHAR16?5?$CK?$CJFormat?0?5?$CI_@ 0000000000076080     BasePrintLib:PrintLibInternal.obj
 0002:00003130       ??_C@_0ID@PLGJGION@?$CIAsciiStrnLenS?5?$CIFormat?0?5?$CI_gPcd_@ 0000000000076110     BasePrintLib:PrintLibInternal.obj
 0002:000031b8       ??_C@_0O@MLOLIMFM@?$DMnull?5string?$DO@ 0000000000076198     BasePrintLib:PrintLibInternal.obj
 0002:000031c8       ??_C@_0M@BJJDNPHK@?$DMnull?5guid?$DO@ 00000000000761a8     BasePrintLib:PrintLibInternal.obj
 0002:000031d8       ??_C@_0DB@PMLHLBMO@?$CF08x?9?$CF04x?9?$CF04x?9?$CF02x?$CF02x?9?$CF02x?$CF02@ 00000000000761b8     BasePrintLib:PrintLibInternal.obj
 0002:00003210       ??_C@_0M@LHGBCIKM@?$DMnull?5time?$DO@ 00000000000761f0     BasePrintLib:PrintLibInternal.obj
 0002:00003220       ??_C@_0BK@FCPKCIDD@?$CF02d?1?$CF02d?1?$CF04d?5?5?$CF02d?3?$CF02d@ 0000000000076200     BasePrintLib:PrintLibInternal.obj
 0002:0000323c       ??_C@_04JIMNDDED@?$CF08X@  000000000007621c     BasePrintLib:PrintLibInternal.obj
 0002:00003244       ??_C@_02PCIJFNDE@?$AN?6@   0000000000076224     BasePrintLib:PrintLibInternal.obj
 0002:00003248       ??_C@_01LIIJDEN@?$AN@      0000000000076228     BasePrintLib:PrintLibInternal.obj
 0002:00003250       mWarningString             0000000000076230     BasePrintLib:PrintLibInternal.obj
 0002:000032f0       mErrorString               00000000000762d0     BasePrintLib:PrintLibInternal.obj
 0002:000035b0       mHexStr                    0000000000076590     BasePrintLib:PrintLibInternal.obj
 0002:000035c0       ??_C@_0BO@BAKALPJK@?$CI?$CIAddress?$CJ?5?$CG?5?$HO0xfffffff?$CJ?5?$DN?$DN?50@ 00000000000765a0     BasePciExpressLib:PciExpressLib.obj
 0002:000035e0       ??_C@_0EA@GAFEKIHN@d?3?2myedk2?2edk2?2MdePkg?2Library?2B@ 00000000000765c0     BasePciExpressLib:PciExpressLib.obj
 0002:00003620       ??_C@_0DI@EGELJHOH@d?3?2myedk2?2edk2?2MdePkg?2Library?2B@ 0000000000076600     BasePciCf8Lib:PciCf8Lib.obj
 0002:00003658       ??_C@_0CG@EDKLCMBO@?$CI?$CIAddress?$CJ?5?$CG?5?$CI?$HO0xffff0ff?5?$HM?5?$CI3?$CJ?$CJ@ 0000000000076638     BasePciCf8Lib:PciCf8Lib.obj
 0002:0000367e       ??_C@_00CNPNBAHC@@         000000000007665e     RuntimeCryptLib:CryptX509.obj
 0002:00003680       ??_C@_08FBKDDLCN@RSA?9SHA1@ 0000000000076660     RuntimeCryptLib:CryptPkcs7VerifyCommon.obj
 0002:00003690       ??_C@_0L@EMMEGDKK@RSA?9SHA1?92@ 0000000000076670     RuntimeCryptLib:CryptPkcs7VerifyCommon.obj
 0002:000036a0       ??_C@_0DL@JEBMKBEC@d?3?2myedk2?2edk2?2MdePkg?2Library?2B@ 0000000000076680     BaseLib:DivU64x32Remainder.obj
 0002:000036e0       ??_C@_0CB@GEABOFIF@Failed?5call?5TDCALL_TDINFO?4?5?$CFllx@ 00000000000766c0     TdxLib:TdInfo.obj
 0002:00003708       ??_C@_0DJ@PLEMCDAL@d?3?2myedk2?2edk2?2MdePkg?2Library?2B@ 00000000000766e8     BaseIoLibIntrinsicSev:IoLib.obj
 0002:00003850       ??_C@_07DLHCIBDH@default@  0000000000076830     OpensslLib:x509_vfy.obj
 0002:00003870       ??_C@_07CPCPJPKL@version@  0000000000076850     OpensslLib:x_x509.obj
 0002:00003878       ??_C@_0N@OMOHFKCJ@serialNumber@ 0000000000076858     OpensslLib:x_x509.obj
 0002:00003888       ??_C@_09CMIIOJHF@signature@ 0000000000076868     OpensslLib:x_x509.obj
 0002:00003894       ??_C@_06EAINIONG@issuer@   0000000000076874     OpensslLib:x_x509.obj
 0002:000038a0       ??_C@_08GCHKOCBP@validity@ 0000000000076880     OpensslLib:x_x509.obj
 0002:000038b0       ??_C@_07JNNGEGGO@subject@  0000000000076890     OpensslLib:x_x509.obj
 0002:000038b8       ??_C@_03ICHNJLJF@key@      0000000000076898     OpensslLib:x_x509.obj
 0002:000038c0       ??_C@_09KIIAMAEE@issuerUID@ 00000000000768a0     OpensslLib:x_x509.obj
 0002:000038d0       ??_C@_0L@JMFHLKAL@subjectUID@ 00000000000768b0     OpensslLib:x_x509.obj
 0002:000038e0       ??_C@_0L@ICCCPLKC@extensions@ 00000000000768c0     OpensslLib:x_x509.obj
 0002:000038f0       ??_C@_09LCJGKABB@X509_CINF@ 00000000000768d0     OpensslLib:x_x509.obj
 0002:00003900       ??_C@_09NKDPGBBA@cert_info@ 00000000000768e0     OpensslLib:x_x509.obj
 0002:00003910       ??_C@_07OBHFIHGJ@sig_alg@  00000000000768f0     OpensslLib:x_x509.obj
 0002:00003918       ??_C@_04NMKEOMFB@X509@     00000000000768f8     OpensslLib:x_x509.obj
 0002:00003ac0       X509_it                    0000000000076aa0     OpensslLib:x_x509.obj
 0002:00003b40       X509_CINF_it               0000000000076b20     OpensslLib:x_x509.obj
 0002:00003d98       X509_NAME_it               0000000000076d78     OpensslLib:x_name.obj
 0002:00003dc8       ??_C@_06IEOJBDIK@object@   0000000000076da8     OpensslLib:x_name.obj
 0002:00003dd0       ??_C@_05MFEJDJP@value@     0000000000076db0     OpensslLib:x_name.obj
 0002:00003dd8       ??_C@_0BA@KEPIIMOE@X509_NAME_ENTRY@ 0000000000076db8     OpensslLib:x_name.obj
 0002:00003de8       ??_C@_04IEOKPFHO@RDNS@     0000000000076dc8     OpensslLib:x_name.obj
 0002:00003df0       ??_C@_0BC@GJMCELDI@X509_NAME_ENTRIES@ 0000000000076dd0     OpensslLib:x_name.obj
 0002:00003e04       ??_C@_04FABLJDN@Name@      0000000000076de4     OpensslLib:x_name.obj
 0002:00003e10       ??_C@_0BD@FDNDONGH@X509_NAME_INTERNAL@ 0000000000076df0     OpensslLib:x_name.obj
 0002:00003e28       ??_C@_09KGNJKBNF@X509_NAME@ 0000000000076e08     OpensslLib:x_name.obj
 0002:00003e34       ??_C@_02KEGNLNML@?0?5@     0000000000076e14     OpensslLib:x_name.obj
 0002:00003ea0       X509_NAME_ENTRY_it         0000000000076e80     OpensslLib:x_name.obj
 0002:00003f88       ??_C@_05DFCJAACA@name?$DN@ 0000000000076f68     OpensslLib:x509name.obj
 0002:00003fd8       ??_C@_01KICIPPFI@?2@       0000000000076fb8     OpensslLib:a_strex.obj
 0002:00003fdc       ??_C@_02HDBGODGB@?2?2@     0000000000076fbc     OpensslLib:a_strex.obj
 0002:00003fe0       ??_C@_01IPJKGB@?$CD@       0000000000076fc0     OpensslLib:a_strex.obj
 0002:00003fe4       ??_C@_01JLIPDDHJ@?3@       0000000000076fc4     OpensslLib:a_strex.obj
 0002:00003fe8       ??_C@_01BJJEKLCA@?$CC@     0000000000076fc8     OpensslLib:a_strex.obj
 0002:00003fec       ??_C@_01CLKCMJKC@?5@       0000000000076fcc     OpensslLib:a_strex.obj
 0002:00003ff0       ??_C@_01EEMJAFIK@?6@       0000000000076fd0     OpensslLib:a_strex.obj
 0002:00003ff4       ??_C@_03NPBFACHO@?5?$CL?5@ 0000000000076fd4     OpensslLib:a_strex.obj
 0002:00003ff8       ??_C@_01IHBHIGKO@?0@       0000000000076fd8     OpensslLib:a_strex.obj
 0002:00003ffc       ??_C@_01MIFGBAGJ@?$CL@     0000000000076fdc     OpensslLib:a_strex.obj
 0002:00004000       ??_C@_02LNAEAIDO@?$DL?5@   0000000000076fe0     OpensslLib:a_strex.obj
 0002:00004004       ??_C@_03MHLONNLM@?5?$DN?5@ 0000000000076fe4     OpensslLib:a_strex.obj
 0002:00004008       ??_C@_01NEMOKFLO@?$DN@     0000000000076fe8     OpensslLib:a_strex.obj
 0002:00004130       ??_C@_0BB@JGGOGLEG@0123456789ABCDEF@ 0000000000077110     OpensslLib:f_int.obj
 0002:00004144       ??_C@_01KDCPPGHE@r@        0000000000077124     OpensslLib:rsa_asn1.obj
 0002:00004148       ??_C@_01LPLHEDKD@d@        0000000000077128     OpensslLib:rsa_asn1.obj
 0002:0000414c       ??_C@_01PFHFFBPC@t@        000000000007712c     OpensslLib:rsa_asn1.obj
 0002:00004150       ??_C@_0P@LIGOHEON@RSA_PRIME_INFO@ 0000000000077130     OpensslLib:rsa_asn1.obj
 0002:00004160       ??_C@_01EFFIKLCJ@n@        0000000000077140     OpensslLib:rsa_asn1.obj
 0002:00004164       ??_C@_01KGKMHCOC@e@        0000000000077144     OpensslLib:rsa_asn1.obj
 0002:00004168       ??_C@_01JBBJJEPG@p@        0000000000077148     OpensslLib:rsa_asn1.obj
 0002:0000416c       ??_C@_01IIACKFLH@q@        000000000007714c     OpensslLib:rsa_asn1.obj
 0002:00004170       ??_C@_04OIPJJFD@dmp1@      0000000000077150     OpensslLib:rsa_asn1.obj
 0002:00004178       ??_C@_04PENPDGE@dmq1@      0000000000077158     OpensslLib:rsa_asn1.obj
 0002:00004180       ??_C@_04BBEMPLKC@iqmp@     0000000000077160     OpensslLib:rsa_asn1.obj
 0002:00004188       ??_C@_0M@JLELLENH@prime_infos@ 0000000000077168     OpensslLib:rsa_asn1.obj
 0002:00004198       ??_C@_0O@PHAOOKLC@RSAPrivateKey@ 0000000000077178     OpensslLib:rsa_asn1.obj
 0002:000041a8       ??_C@_0N@BFBLLDFG@RSAPublicKey@ 0000000000077188     OpensslLib:rsa_asn1.obj
 0002:000041b8       ??_C@_0O@DHJLLKEK@hashAlgorithm@ 0000000000077198     OpensslLib:rsa_asn1.obj
 0002:000041c8       ??_C@_0BB@KKPGFJED@maskGenAlgorithm@ 00000000000771a8     OpensslLib:rsa_asn1.obj
 0002:000041e0       ??_C@_0L@PKGNFOCE@saltLength@ 00000000000771c0     OpensslLib:rsa_asn1.obj
 0002:000041f0       ??_C@_0N@KGDDKMLA@trailerField@ 00000000000771d0     OpensslLib:rsa_asn1.obj
 0002:00004200       ??_C@_0P@PJJHDFJB@RSA_PSS_PARAMS@ 00000000000771e0     OpensslLib:rsa_asn1.obj
 0002:000043e8       RSA_PRIME_INFO_it          00000000000773c8     OpensslLib:rsa_asn1.obj
 0002:000044c0       RSA_PSS_PARAMS_it          00000000000774a0     OpensslLib:rsa_asn1.obj
 0002:000044f0       RSAPublicKey_it            00000000000774d0     OpensslLib:rsa_asn1.obj
 0002:00004580       RSAPrivateKey_it           0000000000077560     OpensslLib:rsa_asn1.obj
 0002:000045b0       ??_C@_0O@DIEIKEFB@memory?5buffer@ 0000000000077590     OpensslLib:bss_mem.obj
 0002:00004620       ??_C@_0L@GGDBHMO@smime_sign@ 0000000000077600     OpensslLib:pk7_smime.obj
 0002:00004630       ??_C@_0O@HFNJECFC@Verify?5error?3@ 0000000000077610     OpensslLib:pk7_smime.obj
 0002:00004640       ??_C@_07JIJPKMF@d?4other@  0000000000077620     OpensslLib:pk7_asn1.obj
 0002:00004648       ??_C@_06OAPKPHLA@d?4data@  0000000000077628     OpensslLib:pk7_asn1.obj
 0002:00004650       ??_C@_06GOHGJFCL@d?4sign@  0000000000077630     OpensslLib:pk7_asn1.obj
 0002:00004658       ??_C@_0M@CLKMIMCI@d?4enveloped@ 0000000000077638     OpensslLib:pk7_asn1.obj
 0002:00004668       ??_C@_0BH@FHPJHCLF@d?4signed_and_enveloped@ 0000000000077648     OpensslLib:pk7_asn1.obj
 0002:00004680       ??_C@_08JOIJLLGO@d?4digest@ 0000000000077660     OpensslLib:pk7_asn1.obj
 0002:00004690       ??_C@_0M@IDEHBFAL@d?4encrypted@ 0000000000077670     OpensslLib:pk7_asn1.obj
 0002:0000469c       ??_C@_04GPMDFGEJ@type@     000000000007767c     OpensslLib:pk7_asn1.obj
 0002:000046a4       ??_C@_05BKMMPIPN@PKCS7@    0000000000077684     OpensslLib:pk7_asn1.obj
 0002:000046b0       ??_C@_07MPDKKGPO@md_algs@  0000000000077690     OpensslLib:pk7_asn1.obj
 0002:000046b8       ??_C@_08ODCIAOPM@contents@ 0000000000077698     OpensslLib:pk7_asn1.obj
 0002:000046c4       ??_C@_04PHJBACIC@cert@     00000000000776a4     OpensslLib:pk7_asn1.obj
 0002:000046cc       ??_C@_03GJBFOAJL@crl@      00000000000776ac     OpensslLib:pk7_asn1.obj
 0002:000046d0       ??_C@_0M@KEDNAHBP@signer_info@ 00000000000776b0     OpensslLib:pk7_asn1.obj
 0002:000046e0       ??_C@_0N@CKBJFFNF@PKCS7_SIGNED@ 00000000000776c0     OpensslLib:pk7_asn1.obj
 0002:000046f0       ??_C@_0BC@PMGLGNPO@issuer_and_serial@ 00000000000776d0     OpensslLib:pk7_asn1.obj
 0002:00004708       ??_C@_0L@OGBFEEJI@digest_alg@ 00000000000776e8     OpensslLib:pk7_asn1.obj
 0002:00004718       ??_C@_09PLABOLFJ@auth_attr@ 00000000000776f8     OpensslLib:pk7_asn1.obj
 0002:00004728       ??_C@_0P@KLFHBHJD@digest_enc_alg@ 0000000000077708     OpensslLib:pk7_asn1.obj
 0002:00004738       ??_C@_0L@PJDBOMFC@enc_digest@ 0000000000077718     OpensslLib:pk7_asn1.obj
 0002:00004748       ??_C@_0M@NNBFAOJK@unauth_attr@ 0000000000077728     OpensslLib:pk7_asn1.obj
 0002:00004758       ??_C@_0BC@BFFCPPDG@PKCS7_SIGNER_INFO@ 0000000000077738     OpensslLib:pk7_asn1.obj
 0002:0000476c       ??_C@_06KCELPKEE@serial@   000000000007774c     OpensslLib:pk7_asn1.obj
 0002:00004778       ??_C@_0BI@POAIONGK@PKCS7_ISSUER_AND_SERIAL@ 0000000000077758     OpensslLib:pk7_asn1.obj
 0002:00004790       ??_C@_0O@HGJALPPJ@recipientinfo@ 0000000000077770     OpensslLib:pk7_asn1.obj
 0002:000047a0       ??_C@_08ENNDKKOI@enc_data@ 0000000000077780     OpensslLib:pk7_asn1.obj
 0002:000047b0       ??_C@_0P@KCJMJLOD@PKCS7_ENVELOPE@ 0000000000077790     OpensslLib:pk7_asn1.obj
 0002:000047c0       ??_C@_0O@ODFHHMFC@key_enc_algor@ 00000000000777a0     OpensslLib:pk7_asn1.obj
 0002:000047d0       ??_C@_07LBLKCHGJ@enc_key@  00000000000777b0     OpensslLib:pk7_asn1.obj
 0002:000047d8       ??_C@_0BB@MGPEFENK@PKCS7_RECIP_INFO@ 00000000000777b8     OpensslLib:pk7_asn1.obj
 0002:000047f0       ??_C@_0N@IEAAACJL@content_type@ 00000000000777d0     OpensslLib:pk7_asn1.obj
 0002:00004800       ??_C@_09JPNFBOJG@algorithm@ 00000000000777e0     OpensslLib:pk7_asn1.obj
 0002:00004810       ??_C@_0BC@INKEDPEG@PKCS7_ENC_CONTENT@ 00000000000777f0     OpensslLib:pk7_asn1.obj
 0002:00004828       ??_C@_0BE@LMHBPFDD@PKCS7_SIGN_ENVELOPE@ 0000000000077808     OpensslLib:pk7_asn1.obj
 0002:00004840       ??_C@_0O@GIFGHKGC@PKCS7_ENCRYPT@ 0000000000077820     OpensslLib:pk7_asn1.obj
 0002:00004850       ??_C@_02EBCANADN@md@       0000000000077830     OpensslLib:pk7_asn1.obj
 0002:00004854       ??_C@_06IJPNAHC@digest@    0000000000077834     OpensslLib:pk7_asn1.obj
 0002:00004860       ??_C@_0N@NAILNAH@PKCS7_DIGEST@ 0000000000077840     OpensslLib:pk7_asn1.obj
 0002:00004870       ??_C@_0BB@ODHHPICH@PKCS7_ATTRIBUTES@ 0000000000077850     OpensslLib:pk7_asn1.obj
 0002:00004888       ??_C@_0BA@IJMFEGLH@PKCS7_ATTR_SIGN@ 0000000000077868     OpensslLib:pk7_asn1.obj
 0002:00004898       ??_C@_0BC@DLHIINOH@PKCS7_ATTR_VERIFY@ 0000000000077878     OpensslLib:pk7_asn1.obj
 0002:00004910       PKCS7_ENCRYPT_it           00000000000778f0     OpensslLib:pk7_asn1.obj
 0002:00004940       PKCS7_RECIP_INFO_it        0000000000077920     OpensslLib:pk7_asn1.obj
 0002:00004970       PKCS7_SIGNED_it            0000000000077950     OpensslLib:pk7_asn1.obj
 0002:00004ae0       PKCS7_DIGEST_it            0000000000077ac0     OpensslLib:pk7_asn1.obj
 0002:00004b10       PKCS7_ENC_CONTENT_it       0000000000077af0     OpensslLib:pk7_asn1.obj
 0002:00004ba0       PKCS7_it                   0000000000077b80     OpensslLib:pk7_asn1.obj
 0002:00004bd0       PKCS7_SIGNER_INFO_it       0000000000077bb0     OpensslLib:pk7_asn1.obj
 0002:00004cf0       PKCS7_ATTR_VERIFY_it       0000000000077cd0     OpensslLib:pk7_asn1.obj
 0002:00004d48       PKCS7_ISSUER_AND_SERIAL_it 0000000000077d28     OpensslLib:pk7_asn1.obj
 0002:00004f40       PKCS7_SIGN_ENVELOPE_it     0000000000077f20     OpensslLib:pk7_asn1.obj
 0002:00004f98       PKCS7_ATTR_SIGN_it         0000000000077f78     OpensslLib:pk7_asn1.obj
 0002:00005130       PKCS7_ENVELOPE_it          0000000000078110     OpensslLib:pk7_asn1.obj
 0002:00005200       ??_C@_05DBLJEJPC@UNDEF@    00000000000781e0     OpensslLib:obj_dat.obj
 0002:00005208       ??_C@_09MLGAJAED@undefined@ 00000000000781e8     OpensslLib:obj_dat.obj
 0002:00005214       ??_C@_06GGEMKGKC@rsadsi@   00000000000781f4     OpensslLib:obj_dat.obj
 0002:00005220       ??_C@_0BI@MPBNCOIB@RSA?5Data?5Security?0?5Inc?4@ 0000000000078200     OpensslLib:obj_dat.obj
 0002:00005238       ??_C@_04GCKLMHGD@pkcs@     0000000000078218     OpensslLib:obj_dat.obj
 0002:00005240       ??_C@_0BN@EBHJCEC@RSA?5Data?5Security?0?5Inc?4?5PKCS@ 0000000000078220     OpensslLib:obj_dat.obj
 0002:00005260       ??_C@_03CNCGNBGO@MD2@      0000000000078240     OpensslLib:obj_dat.obj
 0002:00005264       ??_C@_03LFFJDILA@md2@      0000000000078244     OpensslLib:obj_dat.obj
 0002:00005268       ??_C@_03GCGHEHKJ@MD5@      0000000000078248     OpensslLib:obj_dat.obj
 0002:0000526c       ??_C@_03PKBIKOHH@md5@      000000000007824c     OpensslLib:obj_dat.obj
 0002:00005270       ??_C@_03HGEJCHKE@RC4@      0000000000078250     OpensslLib:obj_dat.obj
 0002:00005274       ??_C@_03OODGMOHK@rc4@      0000000000078254     OpensslLib:obj_dat.obj
 0002:00005278       ??_C@_0O@PCHNMHJE@rsaEncryption@ 0000000000078258     OpensslLib:obj_dat.obj
 0002:00005288       ??_C@_07JBCLOEPG@RSA?9MD2@ 0000000000078268     OpensslLib:obj_dat.obj
 0002:00005290       ??_C@_0BF@ODJKGOJ@md2WithRSAEncryption@ 0000000000078270     OpensslLib:obj_dat.obj
 0002:000052a8       ??_C@_07NOGKHCDB@RSA?9MD5@ 0000000000078288     OpensslLib:obj_dat.obj
 0002:000052b0       ??_C@_0BF@EEAHCNKC@md5WithRSAEncryption@ 0000000000078290     OpensslLib:obj_dat.obj
 0002:000052c8       ??_C@_0M@LMNGCPDB@PBE?9MD2?9DES@ 00000000000782a8     OpensslLib:obj_dat.obj
 0002:000052d8       ??_C@_0BF@EEAPBBEF@pbeWithMD2AndDES?9CBC@ 00000000000782b8     OpensslLib:obj_dat.obj
 0002:000052f0       ??_C@_0M@KBNDBPIJ@PBE?9MD5?9DES@ 00000000000782d0     OpensslLib:obj_dat.obj
 0002:00005300       ??_C@_0BF@DAJHPIMK@pbeWithMD5AndDES?9CBC@ 00000000000782e0     OpensslLib:obj_dat.obj
 0002:00005318       ??_C@_04NGGFHBI@X500@      00000000000782f8     OpensslLib:obj_dat.obj
 0002:00005320       ??_C@_0BL@NJHHPHOL@directory?5services?5?$CIX?4500?$CJ@ 0000000000078300     OpensslLib:obj_dat.obj
 0002:0000533c       ??_C@_02BMJIHHPP@CN@       000000000007831c     OpensslLib:obj_dat.obj
 0002:00005340       ??_C@_0L@OILMNBLH@commonName@ 0000000000078320     OpensslLib:obj_dat.obj
 0002:0000534c       ??_C@_01GFHCPBMG@C@        000000000007832c     OpensslLib:obj_dat.obj
 0002:00005350       ??_C@_0M@NPBHECMC@countryName@ 0000000000078330     OpensslLib:obj_dat.obj
 0002:0000535c       ??_C@_01OCOKONAJ@L@        000000000007833c     OpensslLib:obj_dat.obj
 0002:00005360       ??_C@_0N@LEDCGGBI@localityName@ 0000000000078340     OpensslLib:obj_dat.obj
 0002:00005370       ??_C@_02LAJDCOFE@ST@       0000000000078350     OpensslLib:obj_dat.obj
 0002:00005378       ??_C@_0BE@NKDCJFMD@stateOrProvinceName@ 0000000000078358     OpensslLib:obj_dat.obj
 0002:0000538c       ??_C@_01MJMHLOMK@O@        000000000007836c     OpensslLib:obj_dat.obj
 0002:00005390       ??_C@_0BB@GBCNPHLL@organizationName@ 0000000000078370     OpensslLib:obj_dat.obj
 0002:000053a4       ??_C@_02LMLEEFAB@OU@       0000000000078384     OpensslLib:obj_dat.obj
 0002:000053a8       ??_C@_0BH@LAMMAAM@organizationalUnitName@ 0000000000078388     OpensslLib:obj_dat.obj
 0002:000053c0       ??_C@_03DICHAJGH@RSA@      00000000000783a0     OpensslLib:obj_dat.obj
 0002:000053c4       ??_C@_03DFNMMEBL@rsa@      00000000000783a4     OpensslLib:obj_dat.obj
 0002:000053c8       ??_C@_05EENODLBB@pkcs7@    00000000000783a8     OpensslLib:obj_dat.obj
 0002:000053d0       ??_C@_0L@BCKMJOMA@pkcs7?9data@ 00000000000783b0     OpensslLib:obj_dat.obj
 0002:000053e0       ??_C@_0BB@PEKKHBEJ@pkcs7?9signedData@ 00000000000783c0     OpensslLib:obj_dat.obj
 0002:000053f8       ??_C@_0BE@FAIIHMP@pkcs7?9envelopedData@ 00000000000783d8     OpensslLib:obj_dat.obj
 0002:00005410       ??_C@_0BN@LMEEMCPG@pkcs7?9signedAndEnvelopedData@ 00000000000783f0     OpensslLib:obj_dat.obj
 0002:00005430       ??_C@_0BB@CJNFBHDI@pkcs7?9digestData@ 0000000000078410     OpensslLib:obj_dat.obj
 0002:00005448       ??_C@_0BE@CAMKAFJN@pkcs7?9encryptedData@ 0000000000078428     OpensslLib:obj_dat.obj
 0002:0000545c       ??_C@_05CALCPOBF@pkcs3@    000000000007843c     OpensslLib:obj_dat.obj
 0002:00005468       ??_C@_0P@HCMIBBEB@dhKeyAgreement@ 0000000000078448     OpensslLib:obj_dat.obj
 0002:00005478       ??_C@_07IOCLJBKC@DES?9ECB@ 0000000000078458     OpensslLib:obj_dat.obj
 0002:00005480       ??_C@_07LCLHACCC@des?9ecb@ 0000000000078460     OpensslLib:obj_dat.obj
 0002:00005488       ??_C@_07KNILAMJF@DES?9CFB@ 0000000000078468     OpensslLib:obj_dat.obj
 0002:00005490       ??_C@_07JBBHJPBF@des?9cfb@ 0000000000078470     OpensslLib:obj_dat.obj
 0002:00005498       ??_C@_07LDJJJFAI@DES?9CBC@ 0000000000078478     OpensslLib:obj_dat.obj
 0002:000054a0       ??_C@_07IPAFAGII@des?9cbc@ 0000000000078480     OpensslLib:obj_dat.obj
 0002:000054a8       ??_C@_07MECFBBOA@DES?9EDE@ 0000000000078488     OpensslLib:obj_dat.obj
 0002:000054b0       ??_C@_07PILJICGA@des?9ede@ 0000000000078490     OpensslLib:obj_dat.obj
 0002:000054b8       ??_C@_08FEKFKCFJ@DES?9EDE3@ 0000000000078498     OpensslLib:obj_dat.obj
 0002:000054c8       ??_C@_08LJCBLNOK@des?9ede3@ 00000000000784a8     OpensslLib:obj_dat.obj
 0002:000054d8       ??_C@_08MJNEIAD@IDEA?9CBC@ 00000000000784b8     OpensslLib:obj_dat.obj
 0002:000054e8       ??_C@_08LCPAFJCA@idea?9cbc@ 00000000000784c8     OpensslLib:obj_dat.obj
 0002:000054f8       ??_C@_08BCIPNBJO@IDEA?9CFB@ 00000000000784d8     OpensslLib:obj_dat.obj
 0002:00005508       ??_C@_08KMOCMALN@idea?9cfb@ 00000000000784e8     OpensslLib:obj_dat.obj
 0002:00005518       ??_C@_08DBCPEMKJ@IDEA?9ECB@ 00000000000784f8     OpensslLib:obj_dat.obj
 0002:00005528       ??_C@_08IPECFNIK@idea?9ecb@ 0000000000078508     OpensslLib:obj_dat.obj
 0002:00005538       ??_C@_07KJDFEEGB@RC2?9CBC@ 0000000000078518     OpensslLib:obj_dat.obj
 0002:00005540       ??_C@_07JCAFNCNH@rc2?9cbc@ 0000000000078520     OpensslLib:obj_dat.obj
 0002:00005548       ??_C@_07JEIHEAML@RC2?9ECB@ 0000000000078528     OpensslLib:obj_dat.obj
 0002:00005550       ??_C@_07KPLHNGHN@rc2?9ecb@ 0000000000078530     OpensslLib:obj_dat.obj
 0002:00005558       ??_C@_07LHCHNNPM@RC2?9CFB@ 0000000000078538     OpensslLib:obj_dat.obj
 0002:00005560       ??_C@_07IMBHELEK@rc2?9cfb@ 0000000000078540     OpensslLib:obj_dat.obj
 0002:00005568       ??_C@_07PNPBGCEE@RC2?9OFB@ 0000000000078548     OpensslLib:obj_dat.obj
 0002:00005570       ??_C@_07MGMBPEPC@rc2?9ofb@ 0000000000078550     OpensslLib:obj_dat.obj
 0002:00005578       ??_C@_03JAOICCJD@SHA@      0000000000078558     OpensslLib:obj_dat.obj
 0002:0000557c       ??_C@_03JNBDOPOP@sha@      000000000007855c     OpensslLib:obj_dat.obj
 0002:00005580       ??_C@_07CMOFBHAL@RSA?9SHA@ 0000000000078560     OpensslLib:obj_dat.obj
 0002:00005588       ??_C@_0BF@LIDINENF@shaWithRSAEncryption@ 0000000000078568     OpensslLib:obj_dat.obj
 0002:000055a0       ??_C@_0M@KHNLAHDP@DES?9EDE?9CBC@ 0000000000078580     OpensslLib:obj_dat.obj
 0002:000055b0       ??_C@_0M@EKLHMDEA@des?9ede?9cbc@ 0000000000078590     OpensslLib:obj_dat.obj
 0002:000055c0       ??_C@_0N@MLDFENGJ@DES?9EDE3?9CBC@ 00000000000785a0     OpensslLib:obj_dat.obj
 0002:000055d0       ??_C@_0N@FPCHEGKG@des?9ede3?9cbc@ 00000000000785b0     OpensslLib:obj_dat.obj
 0002:000055e0       ??_C@_07OHFNLDCN@DES?9OFB@ 00000000000785c0     OpensslLib:obj_dat.obj
 0002:000055e8       ??_C@_07NLMBCAKN@des?9ofb@ 00000000000785c8     OpensslLib:obj_dat.obj
 0002:000055f0       ??_C@_08FIFJGOCG@IDEA?9OFB@ 00000000000785d0     OpensslLib:obj_dat.obj
 0002:00005600       ??_C@_08OGDEHPAF@idea?9ofb@ 00000000000785e0     OpensslLib:obj_dat.obj
 0002:0000560c       ??_C@_05NKFNBGJP@pkcs9@    00000000000785ec     OpensslLib:obj_dat.obj
 0002:00005618       ??_C@_0N@IHLBAGEP@emailAddress@ 00000000000785f8     OpensslLib:obj_dat.obj
 0002:00005628       ??_C@_0BB@CJIILOEM@unstructuredName@ 0000000000078608     OpensslLib:obj_dat.obj
 0002:00005640       ??_C@_0M@DOEFOEJD@contentType@ 0000000000078620     OpensslLib:obj_dat.obj
 0002:00005650       ??_C@_0O@JDGJDGC@messageDigest@ 0000000000078630     OpensslLib:obj_dat.obj
 0002:00005660       ??_C@_0M@IJBJCCMP@signingTime@ 0000000000078640     OpensslLib:obj_dat.obj
 0002:00005670       ??_C@_0BB@IPFGMODP@countersignature@ 0000000000078650     OpensslLib:obj_dat.obj
 0002:00005688       ??_C@_0BC@OKHONEEM@challengePassword@ 0000000000078668     OpensslLib:obj_dat.obj
 0002:000056a0       ??_C@_0BE@MACPCAPF@unstructuredAddress@ 0000000000078680     OpensslLib:obj_dat.obj
 0002:000056b8       ??_C@_0BO@LDCCNBPE@extendedCertificateAttributes@ 0000000000078698     OpensslLib:obj_dat.obj
 0002:000056d8       ??_C@_08BDEPHMAF@Netscape@ 00000000000786b8     OpensslLib:obj_dat.obj
 0002:000056e8       ??_C@_0BO@IAIBEBGO@Netscape?5Communications?5Corp?4@ 00000000000786c8     OpensslLib:obj_dat.obj
 0002:00005708       ??_C@_09JDCKDNMG@nsCertExt@ 00000000000786e8     OpensslLib:obj_dat.obj
 0002:00005718       ??_C@_0BP@LHPGKGFM@Netscape?5Certificate?5Extension@ 00000000000786f8     OpensslLib:obj_dat.obj
 0002:00005738       ??_C@_0L@FIMLGGPA@nsDataType@ 0000000000078718     OpensslLib:obj_dat.obj
 0002:00005748       ??_C@_0BD@JJEILMNP@Netscape?5Data?5Type@ 0000000000078728     OpensslLib:obj_dat.obj
 0002:00005760       ??_C@_0M@LJMJJOKC@DES?9EDE?9CFB@ 0000000000078740     OpensslLib:obj_dat.obj
 0002:00005770       ??_C@_0M@FEKFFKNN@des?9ede?9cfb@ 0000000000078750     OpensslLib:obj_dat.obj
 0002:00005780       ??_C@_0N@NFCHNEPE@DES?9EDE3?9CFB@ 0000000000078760     OpensslLib:obj_dat.obj
 0002:00005790       ??_C@_0N@EBDFNPDL@des?9ede3?9cfb@ 0000000000078770     OpensslLib:obj_dat.obj
 0002:000057a0       ??_C@_0M@PDBPCBBK@DES?9EDE?9OFB@ 0000000000078780     OpensslLib:obj_dat.obj
 0002:000057b0       ??_C@_0M@BOHDOFGF@des?9ede?9ofb@ 0000000000078790     OpensslLib:obj_dat.obj
 0002:000057c0       ??_C@_0N@JPPBGLEM@DES?9EDE3?9OFB@ 00000000000787a0     OpensslLib:obj_dat.obj
 0002:000057d0       ??_C@_0N@LODGAID@des?9ede3?9ofb@ 00000000000787b0     OpensslLib:obj_dat.obj
 0002:000057e0       ??_C@_04KPMLCNGO@SHA1@     00000000000787c0     OpensslLib:obj_dat.obj
 0002:000057e8       ??_C@_04PGHFOLLE@sha1@     00000000000787c8     OpensslLib:obj_dat.obj
 0002:000057f0       ??_C@_0BG@DALFFFBE@sha1WithRSAEncryption@ 00000000000787d0     OpensslLib:obj_dat.obj
 0002:00005808       ??_C@_07JGDBCPKH@DSA?9SHA@ 00000000000787e8     OpensslLib:obj_dat.obj
 0002:00005810       ??_C@_0L@BEHMICBH@dsaWithSHA@ 00000000000787f0     OpensslLib:obj_dat.obj
 0002:00005820       ??_C@_07PLHLFGGF@DSA?9old@ 0000000000078800     OpensslLib:obj_dat.obj
 0002:00005828       ??_C@_0BC@FFHHBCCH@dsaEncryption?9old@ 0000000000078808     OpensslLib:obj_dat.obj
 0002:00005840       ??_C@_0BA@KKPEMNGH@PBE?9SHA1?9RC2?964@ 0000000000078820     OpensslLib:obj_dat.obj
 0002:00005850       ??_C@_0BG@IBNNJING@pbeWithSHA1AndRC2?9CBC@ 0000000000078830     OpensslLib:obj_dat.obj
 0002:00005868       ??_C@_06KBOEGBGA@PBKDF2@   0000000000078848     OpensslLib:obj_dat.obj
 0002:00005870       ??_C@_0N@ONIKBKNK@DSA?9SHA1?9old@ 0000000000078850     OpensslLib:obj_dat.obj
 0002:00005880       ??_C@_0BA@DDLLDHEM@dsaWithSHA1?9old@ 0000000000078860     OpensslLib:obj_dat.obj
 0002:00005890       ??_C@_0L@IICLKDNB@nsCertType@ 0000000000078870     OpensslLib:obj_dat.obj
 0002:000058a0       ??_C@_0BD@NFPBEMEE@Netscape?5Cert?5Type@ 0000000000078880     OpensslLib:obj_dat.obj
 0002:000058b8       ??_C@_09OCIGDOMM@nsBaseUrl@ 0000000000078898     OpensslLib:obj_dat.obj
 0002:000058c8       ??_C@_0BC@DIHCABP@Netscape?5Base?5Url@ 00000000000788a8     OpensslLib:obj_dat.obj
 0002:000058e0       ??_C@_0BA@DKPGPAKK@nsRevocationUrl@ 00000000000788c0     OpensslLib:obj_dat.obj
 0002:000058f0       ??_C@_0BI@BCDINENC@Netscape?5Revocation?5Url@ 00000000000788d0     OpensslLib:obj_dat.obj
 0002:00005908       ??_C@_0BC@IKAPCMGG@nsCaRevocationUrl@ 00000000000788e8     OpensslLib:obj_dat.obj
 0002:00005920       ??_C@_0BL@EMOMOFDB@Netscape?5CA?5Revocation?5Url@ 0000000000078900     OpensslLib:obj_dat.obj
 0002:00005940       ??_C@_0N@JILHKMLM@nsRenewalUrl@ 0000000000078920     OpensslLib:obj_dat.obj
 0002:00005950       ??_C@_0BF@FKENIIHB@Netscape?5Renewal?5Url@ 0000000000078930     OpensslLib:obj_dat.obj
 0002:00005968       ??_C@_0O@DHDIMJD@nsCaPolicyUrl@ 0000000000078948     OpensslLib:obj_dat.obj
 0002:00005978       ??_C@_0BH@EMEFHLC@Netscape?5CA?5Policy?5Url@ 0000000000078958     OpensslLib:obj_dat.obj
 0002:00005990       ??_C@_0BA@KNOKNJNE@nsSslServerName@ 0000000000078970     OpensslLib:obj_dat.obj
 0002:000059a0       ??_C@_0BJ@GMBLEMAL@Netscape?5SSL?5Server?5Name@ 0000000000078980     OpensslLib:obj_dat.obj
 0002:000059c0       ??_C@_09BALDFHMJ@nsComment@ 00000000000789a0     OpensslLib:obj_dat.obj
 0002:000059d0       ??_C@_0BB@DCFBGIOA@Netscape?5Comment@ 00000000000789b0     OpensslLib:obj_dat.obj
 0002:000059e8       ??_C@_0P@OCCBBJKK@nsCertSequence@ 00000000000789c8     OpensslLib:obj_dat.obj
 0002:000059f8       ??_C@_0BO@KKKBMKBD@Netscape?5Certificate?5Sequence@ 00000000000789d8     OpensslLib:obj_dat.obj
 0002:00005a18       ??_C@_08BBKPFFGN@DESX?9CBC@ 00000000000789f8     OpensslLib:obj_dat.obj
 0002:00005a28       ??_C@_08KPMCEEEO@desx?9cbc@ 0000000000078a08     OpensslLib:obj_dat.obj
 0002:00005a34       ??_C@_05NDHEMDL@id?9ce@    0000000000078a14     OpensslLib:obj_dat.obj
 0002:00005a40       ??_C@_0BF@MOEDIMBI@subjectKeyIdentifier@ 0000000000078a20     OpensslLib:obj_dat.obj
 0002:00005a58       ??_C@_0BO@ILPNOINJ@X509v3?5Subject?5Key?5Identifier@ 0000000000078a38     OpensslLib:obj_dat.obj
 0002:00005a78       ??_C@_08BCICBOHF@keyUsage@ 0000000000078a58     OpensslLib:obj_dat.obj
 0002:00005a88       ??_C@_0BB@BPPOKNBO@X509v3?5Key?5Usage@ 0000000000078a68     OpensslLib:obj_dat.obj
 0002:00005aa0       ??_C@_0BG@JOIAJOMN@privateKeyUsagePeriod@ 0000000000078a80     OpensslLib:obj_dat.obj
 0002:00005ab8       ??_C@_0CA@CLGHAMIP@X509v3?5Private?5Key?5Usage?5Period@ 0000000000078a98     OpensslLib:obj_dat.obj
 0002:00005ad8       ??_C@_0P@EOFJHHKD@subjectAltName@ 0000000000078ab8     OpensslLib:obj_dat.obj
 0002:00005ae8       ??_C@_0CA@OPCJJLNF@X509v3?5Subject?5Alternative?5Name@ 0000000000078ac8     OpensslLib:obj_dat.obj
 0002:00005b08       ??_C@_0O@DLIFHFCD@issuerAltName@ 0000000000078ae8     OpensslLib:obj_dat.obj
 0002:00005b18       ??_C@_0BP@FMJCGPCG@X509v3?5Issuer?5Alternative?5Name@ 0000000000078af8     OpensslLib:obj_dat.obj
 0002:00005b38       ??_C@_0BB@IKNGJCLO@basicConstraints@ 0000000000078b18     OpensslLib:obj_dat.obj
 0002:00005b50       ??_C@_0BJ@FBHDAJML@X509v3?5Basic?5Constraints@ 0000000000078b30     OpensslLib:obj_dat.obj
 0002:00005b70       ??_C@_09JDPHHKMA@crlNumber@ 0000000000078b50     OpensslLib:obj_dat.obj
 0002:00005b80       ??_C@_0BC@PCPNBDDJ@X509v3?5CRL?5Number@ 0000000000078b60     OpensslLib:obj_dat.obj
 0002:00005b98       ??_C@_0BE@OLMJNPEP@certificatePolicies@ 0000000000078b78     OpensslLib:obj_dat.obj
 0002:00005bb0       ??_C@_0BM@OOFGKLPK@X509v3?5Certificate?5Policies@ 0000000000078b90     OpensslLib:obj_dat.obj
 0002:00005bd0       ??_C@_0BH@ICHFALGD@authorityKeyIdentifier@ 0000000000078bb0     OpensslLib:obj_dat.obj
 0002:00005be8       ??_C@_0CA@GODCHEHD@X509v3?5Authority?5Key?5Identifier@ 0000000000078bc8     OpensslLib:obj_dat.obj
 0002:00005c08       ??_C@_06HALMPEKO@BF?9CBC@  0000000000078be8     OpensslLib:obj_dat.obj
 0002:00005c10       ??_C@_06LFFGAFHI@bf?9cbc@  0000000000078bf0     OpensslLib:obj_dat.obj
 0002:00005c18       ??_C@_06ENAOPAAE@BF?9ECB@  0000000000078bf8     OpensslLib:obj_dat.obj
 0002:00005c20       ??_C@_06IIOEABNC@bf?9ecb@  0000000000078c00     OpensslLib:obj_dat.obj
 0002:00005c28       ??_C@_06GOKOGNDD@BF?9CFB@  0000000000078c08     OpensslLib:obj_dat.obj
 0002:00005c30       ??_C@_06KLEEJMOF@bf?9cfb@  0000000000078c10     OpensslLib:obj_dat.obj
 0002:00005c38       ??_C@_06CEHINCIL@BF?9OFB@  0000000000078c18     OpensslLib:obj_dat.obj
 0002:00005c40       ??_C@_06OBJCCDFN@bf?9ofb@  0000000000078c20     OpensslLib:obj_dat.obj
 0002:00005c48       ??_C@_04BCGEDMJI@MDC2@     0000000000078c28     OpensslLib:obj_dat.obj
 0002:00005c50       ??_C@_04ELNKPKEC@mdc2@     0000000000078c30     OpensslLib:obj_dat.obj
 0002:00005c58       ??_C@_08OMAMCKNL@RSA?9MDC2@ 0000000000078c38     OpensslLib:obj_dat.obj
 0002:00005c68       ??_C@_0M@HGGNEPNN@mdc2WithRSA@ 0000000000078c48     OpensslLib:obj_dat.obj
 0002:00005c74       ??_C@_06KFMILCMH@RC4?940@  0000000000078c54     OpensslLib:obj_dat.obj
 0002:00005c7c       ??_C@_06GNNJIOGN@rc4?940@  0000000000078c5c     OpensslLib:obj_dat.obj
 0002:00005c88       ??_C@_0L@ODHPNGGE@RC2?940?9CBC@ 0000000000078c68     OpensslLib:obj_dat.obj
 0002:00005c98       ??_C@_0L@CHEFJHBP@rc2?940?9cbc@ 0000000000078c78     OpensslLib:obj_dat.obj
 0002:00005ca4       ??_C@_02BLJBNPCD@GN@       0000000000078c84     OpensslLib:obj_dat.obj
 0002:00005ca8       ??_C@_09GCBNJLNP@givenName@ 0000000000078c88     OpensslLib:obj_dat.obj
 0002:00005cb4       ??_C@_02LONEIP@SN@         0000000000078c94     OpensslLib:obj_dat.obj
 0002:00005cb8       ??_C@_07LNKFHLHI@surname@  0000000000078c98     OpensslLib:obj_dat.obj
 0002:00005cc0       ??_C@_08PAKNLFON@initials@ 0000000000078ca0     OpensslLib:obj_dat.obj
 0002:00005ccc       ??_C@_03MEMNCOEB@uid@      0000000000078cac     OpensslLib:obj_dat.obj
 0002:00005cd0       ??_C@_0BB@HJMGPENC@uniqueIdentifier@ 0000000000078cb0     OpensslLib:obj_dat.obj
 0002:00005ce8       ??_C@_0BG@CCHGOEBE@crlDistributionPoints@ 0000000000078cc8     OpensslLib:obj_dat.obj
 0002:00005d00       ??_C@_0BP@EGHJGANM@X509v3?5CRL?5Distribution?5Points@ 0000000000078ce0     OpensslLib:obj_dat.obj
 0002:00005d20       ??_C@_0L@NACEPNFC@RSA?9NP?9MD5@ 0000000000078d00     OpensslLib:obj_dat.obj
 0002:00005d30       ??_C@_0L@CNDCBNIN@md5WithRSA@ 0000000000078d10     OpensslLib:obj_dat.obj
 0002:00005d3c       ??_C@_05PHLGJONK@title@    0000000000078d1c     OpensslLib:obj_dat.obj
 0002:00005d48       ??_C@_0M@PPJNHBMP@description@ 0000000000078d28     OpensslLib:obj_dat.obj
 0002:00005d58       ??_C@_09OACPMKPP@CAST5?9CBC@ 0000000000078d38     OpensslLib:obj_dat.obj
 0002:00005d68       ??_C@_09BGLDNNDK@cast5?9cbc@ 0000000000078d48     OpensslLib:obj_dat.obj
 0002:00005d78       ??_C@_09NNJNMOFF@CAST5?9ECB@ 0000000000078d58     OpensslLib:obj_dat.obj
 0002:00005d88       ??_C@_09CLABNJJA@cast5?9ecb@ 0000000000078d68     OpensslLib:obj_dat.obj
 0002:00005d98       ??_C@_09PODNFDGC@CAST5?9CFB@ 0000000000078d78     OpensslLib:obj_dat.obj
 0002:00005da8       ??_C@_09IKBEEKH@cast5?9cfb@ 0000000000078d88     OpensslLib:obj_dat.obj
 0002:00005db8       ??_C@_09LEOLOMNK@CAST5?9OFB@ 0000000000078d98     OpensslLib:obj_dat.obj
 0002:00005dc8       ??_C@_09ECHHPLBP@cast5?9ofb@ 0000000000078da8     OpensslLib:obj_dat.obj
 0002:00005dd8       ??_C@_0BG@JCFINJGL@pbeWithMD5AndCast5CBC@ 0000000000078db8     OpensslLib:obj_dat.obj
 0002:00005df0       ??_C@_08IOHJAANG@DSA?9SHA1@ 0000000000078dd0     OpensslLib:obj_dat.obj
 0002:00005e00       ??_C@_0M@EFJKPOPH@dsaWithSHA1@ 0000000000078de0     OpensslLib:obj_dat.obj
 0002:00005e10       ??_C@_08EMIDHKIH@MD5?9SHA1@ 0000000000078df0     OpensslLib:obj_dat.obj
 0002:00005e20       ??_C@_08GOLKFMKI@md5?9sha1@ 0000000000078e00     OpensslLib:obj_dat.obj
 0002:00005e30       ??_C@_0M@KECGAPAA@sha1WithRSA@ 0000000000078e10     OpensslLib:obj_dat.obj
 0002:00005e3c       ??_C@_03ENFFABCE@DSA@      0000000000078e1c     OpensslLib:obj_dat.obj
 0002:00005e40       ??_C@_0O@GMANLAEO@dsaEncryption@ 0000000000078e20     OpensslLib:obj_dat.obj
 0002:00005e50       ??_C@_09DJDCAKJG@RIPEMD160@ 0000000000078e30     OpensslLib:obj_dat.obj
 0002:00005e60       ??_C@_09EDIPKBN@ripemd160@ 0000000000078e40     OpensslLib:obj_dat.obj
 0002:00005e70       ??_C@_0O@JPOIHGOH@RSA?9RIPEMD160@ 0000000000078e50     OpensslLib:obj_dat.obj
 0002:00005e80       ??_C@_0BB@DCJDAKFH@ripemd160WithRSA@ 0000000000078e60     OpensslLib:obj_dat.obj
 0002:00005e98       ??_C@_07LEDAHENJ@RC5?9CBC@ 0000000000078e78     OpensslLib:obj_dat.obj
 0002:00005ea0       ??_C@_07IPAAOCGP@rc5?9cbc@ 0000000000078e80     OpensslLib:obj_dat.obj
 0002:00005ea8       ??_C@_07IJICHAHD@RC5?9ECB@ 0000000000078e88     OpensslLib:obj_dat.obj
 0002:00005eb0       ??_C@_07LCLCOGMF@rc5?9ecb@ 0000000000078e90     OpensslLib:obj_dat.obj
 0002:00005eb8       ??_C@_07KKCCONEE@RC5?9CFB@ 0000000000078e98     OpensslLib:obj_dat.obj
 0002:00005ec0       ??_C@_07JBBCHLPC@rc5?9cfb@ 0000000000078ea0     OpensslLib:obj_dat.obj
 0002:00005ec8       ??_C@_07OAPEFCPM@RC5?9OFB@ 0000000000078ea8     OpensslLib:obj_dat.obj
 0002:00005ed0       ??_C@_07NLMEMEEK@rc5?9ofb@ 0000000000078eb0     OpensslLib:obj_dat.obj
 0002:00005ed8       ??_C@_04CHLIKDMF@ZLIB@     0000000000078eb8     OpensslLib:obj_dat.obj
 0002:00005ee0       ??_C@_0BB@KGNEOBKL@zlib?5compression@ 0000000000078ec0     OpensslLib:obj_dat.obj
 0002:00005ef8       ??_C@_0BB@DGDLKPHD@extendedKeyUsage@ 0000000000078ed8     OpensslLib:obj_dat.obj
 0002:00005f10       ??_C@_0BK@KFMGFBEG@X509v3?5Extended?5Key?5Usage@ 0000000000078ef0     OpensslLib:obj_dat.obj
 0002:00005f2c       ??_C@_04EAPCHJAG@PKIX@     0000000000078f0c     OpensslLib:obj_dat.obj
 0002:00005f34       ??_C@_05DEJBPLJH@id?9kp@   0000000000078f14     OpensslLib:obj_dat.obj
 0002:00005f40       ??_C@_0L@CINGAJGN@serverAuth@ 0000000000078f20     OpensslLib:obj_dat.obj
 0002:00005f50       ??_C@_0BO@HPFOJNNE@TLS?5Web?5Server?5Authentication@ 0000000000078f30     OpensslLib:obj_dat.obj
 0002:00005f70       ??_C@_0L@HCMKLLOP@clientAuth@ 0000000000078f50     OpensslLib:obj_dat.obj
 0002:00005f80       ??_C@_0BO@FEMCBEOF@TLS?5Web?5Client?5Authentication@ 0000000000078f60     OpensslLib:obj_dat.obj
 0002:00005fa0       ??_C@_0M@OJNCNGJ@codeSigning@ 0000000000078f80     OpensslLib:obj_dat.obj
 0002:00005fb0       ??_C@_0N@CHJHLHFC@Code?5Signing@ 0000000000078f90     OpensslLib:obj_dat.obj
 0002:00005fc0       ??_C@_0BA@NPCFDPCO@emailProtection@ 0000000000078fa0     OpensslLib:obj_dat.obj
 0002:00005fd0       ??_C@_0BC@BLBGFKKG@E?9mail?5Protection@ 0000000000078fb0     OpensslLib:obj_dat.obj
 0002:00005fe8       ??_C@_0N@LONEBHPN@timeStamping@ 0000000000078fc8     OpensslLib:obj_dat.obj
 0002:00005ff8       ??_C@_0O@GMMBLMEE@Time?5Stamping@ 0000000000078fd8     OpensslLib:obj_dat.obj
 0002:00006008       ??_C@_09EMNNPEBE@msCodeInd@ 0000000000078fe8     OpensslLib:obj_dat.obj
 0002:00006018       ??_C@_0CC@NDDHKAMP@Microsoft?5Individual?5Code?5Signi@ 0000000000078ff8     OpensslLib:obj_dat.obj
 0002:00006040       ??_C@_09PDGAMFAO@msCodeCom@ 0000000000079020     OpensslLib:obj_dat.obj
 0002:00006050       ??_C@_0CC@GKFNEBFA@Microsoft?5Commercial?5Code?5Signi@ 0000000000079030     OpensslLib:obj_dat.obj
 0002:00006078       ??_C@_09HGCLLDPK@msCTLSign@ 0000000000079058     OpensslLib:obj_dat.obj
 0002:00006088       ??_C@_0BN@GNMCHNOI@Microsoft?5Trust?5List?5Signing@ 0000000000079068     OpensslLib:obj_dat.obj
 0002:000060a8       ??_C@_05DDBMPPAI@msSGC@    0000000000079088     OpensslLib:obj_dat.obj
 0002:000060b0       ??_C@_0BO@FBDDCLK@Microsoft?5Server?5Gated?5Crypto@ 0000000000079090     OpensslLib:obj_dat.obj
 0002:000060d0       ??_C@_05NGOIPCN@msEFS@     00000000000790b0     OpensslLib:obj_dat.obj
 0002:000060d8       ??_C@_0CA@IJODBCMB@Microsoft?5Encrypted?5File?5System@ 00000000000790b8     OpensslLib:obj_dat.obj
 0002:000060f8       ??_C@_05LFIIINKG@nsSGC@    00000000000790d8     OpensslLib:obj_dat.obj
 0002:00006100       ??_C@_0BN@MDNLHLBL@Netscape?5Server?5Gated?5Crypto@ 00000000000790e0     OpensslLib:obj_dat.obj
 0002:00006120       ??_C@_08ECNAKPJJ@deltaCRL@ 0000000000079100     OpensslLib:obj_dat.obj
 0002:00006130       ??_C@_0BL@HLNLPBHP@X509v3?5Delta?5CRL?5Indicator@ 0000000000079110     OpensslLib:obj_dat.obj
 0002:00006150       ??_C@_09MCDAGILE@CRLReason@ 0000000000079130     OpensslLib:obj_dat.obj
 0002:00006160       ??_C@_0BH@GODIEFKG@X509v3?5CRL?5Reason?5Code@ 0000000000079140     OpensslLib:obj_dat.obj
 0002:00006178       ??_C@_0P@BKEGCOMO@invalidityDate@ 0000000000079158     OpensslLib:obj_dat.obj
 0002:00006188       ??_C@_0BA@JDBEMONE@Invalidity?5Date@ 0000000000079168     OpensslLib:obj_dat.obj
 0002:00006198       ??_C@_07DKMNOLMH@SXNetID@  0000000000079178     OpensslLib:obj_dat.obj
 0002:000061a0       ??_C@_0BD@PNDCMCDK@Strong?5Extranet?5ID@ 0000000000079180     OpensslLib:obj_dat.obj
 0002:000061b8       ??_C@_0BB@ILOABLNL@PBE?9SHA1?9RC4?9128@ 0000000000079198     OpensslLib:obj_dat.obj
 0002:000061d0       ??_C@_0BI@LBIFCLPB@pbeWithSHA1And128BitRC4@ 00000000000791b0     OpensslLib:obj_dat.obj
 0002:000061e8       ??_C@_0BA@ECFMCJKN@PBE?9SHA1?9RC4?940@ 00000000000791c8     OpensslLib:obj_dat.obj
 0002:000061f8       ??_C@_0BH@OCAEJMIL@pbeWithSHA1And40BitRC4@ 00000000000791d8     OpensslLib:obj_dat.obj
 0002:00006210       ??_C@_0O@EDBOMBNM@PBE?9SHA1?93DES@ 00000000000791f0     OpensslLib:obj_dat.obj
 0002:00006220       ??_C@_0CB@FCNCEDP@pbeWithSHA1And3?9KeyTripleDES?9CB@ 0000000000079200     OpensslLib:obj_dat.obj
 0002:00006248       ??_C@_0O@HOHOOIGM@PBE?9SHA1?92DES@ 0000000000079228     OpensslLib:obj_dat.obj
 0002:00006258       ??_C@_0CB@NCMPKEGH@pbeWithSHA1And2?9KeyTripleDES?9CB@ 0000000000079238     OpensslLib:obj_dat.obj
 0002:00006280       ??_C@_0BB@FNLJPIMG@PBE?9SHA1?9RC2?9128@ 0000000000079260     OpensslLib:obj_dat.obj
 0002:00006298       ??_C@_0BM@DOLDINME@pbeWithSHA1And128BitRC2?9CBC@ 0000000000079278     OpensslLib:obj_dat.obj
 0002:000062b8       ??_C@_0BA@MNBMNMAN@PBE?9SHA1?9RC2?940@ 0000000000079298     OpensslLib:obj_dat.obj
 0002:000062c8       ??_C@_0BL@CKNKIMON@pbeWithSHA1And40BitRC2?9CBC@ 00000000000792a8     OpensslLib:obj_dat.obj
 0002:000062e4       ??_C@_06BFGNOIAI@keyBag@   00000000000792c4     OpensslLib:obj_dat.obj
 0002:000062f0       ??_C@_0BE@ELJKIANF@pkcs8ShroudedKeyBag@ 00000000000792d0     OpensslLib:obj_dat.obj
 0002:00006308       ??_C@_07FDLMCII@certBag@   00000000000792e8     OpensslLib:obj_dat.obj
 0002:00006310       ??_C@_06JAFBIMLO@crlBag@   00000000000792f0     OpensslLib:obj_dat.obj
 0002:00006318       ??_C@_09DELDBPIE@secretBag@ 00000000000792f8     OpensslLib:obj_dat.obj
 0002:00006328       ??_C@_0BA@KAKLKBBC@safeContentsBag@ 0000000000079308     OpensslLib:obj_dat.obj
 0002:00006338       ??_C@_0N@BGFMPLCM@friendlyName@ 0000000000079318     OpensslLib:obj_dat.obj
 0002:00006348       ??_C@_0L@BCMHPPAO@localKeyID@ 0000000000079328     OpensslLib:obj_dat.obj
 0002:00006358       ??_C@_0BA@EMOFOCJL@x509Certificate@ 0000000000079338     OpensslLib:obj_dat.obj
 0002:00006368       ??_C@_0BA@BFAOBDKH@sdsiCertificate@ 0000000000079348     OpensslLib:obj_dat.obj
 0002:00006378       ??_C@_07KAOEJCFK@x509Crl@  0000000000079358     OpensslLib:obj_dat.obj
 0002:00006380       ??_C@_05EPMADBBF@PBES2@    0000000000079360     OpensslLib:obj_dat.obj
 0002:00006388       ??_C@_06DEJMPFNK@PBMAC1@   0000000000079368     OpensslLib:obj_dat.obj
 0002:00006390       ??_C@_0N@KANOAIP@hmacWithSHA1@ 0000000000079370     OpensslLib:obj_dat.obj
 0002:000063a0       ??_C@_09MIPGHKGJ@id?9qt?9cps@ 0000000000079380     OpensslLib:obj_dat.obj
 0002:000063b0       ??_C@_0BF@HPKIKKPI@Policy?5Qualifier?5CPS@ 0000000000079390     OpensslLib:obj_dat.obj
 0002:000063c8       ??_C@_0O@CJFHFAHE@id?9qt?9unotice@ 00000000000793a8     OpensslLib:obj_dat.obj
 0002:000063d8       ??_C@_0BN@KPMBKEE@Policy?5Qualifier?5User?5Notice@ 00000000000793b8     OpensslLib:obj_dat.obj
 0002:000063f8       ??_C@_0L@OPHBIFFL@RC2?964?9CBC@ 00000000000793d8     OpensslLib:obj_dat.obj
 0002:00006408       ??_C@_0L@CLELMECA@rc2?964?9cbc@ 00000000000793e8     OpensslLib:obj_dat.obj
 0002:00006418       ??_C@_0L@LCBJGKJG@SMIME?9CAPS@ 00000000000793f8     OpensslLib:obj_dat.obj
 0002:00006428       ??_C@_0BE@CEEFMCAI@S?1MIME?5Capabilities@ 0000000000079408     OpensslLib:obj_dat.obj
 0002:00006440       ??_C@_0P@OHJEMJLF@PBE?9MD2?9RC2?964@ 0000000000079420     OpensslLib:obj_dat.obj
 0002:00006450       ??_C@_0BF@FOKDMACM@pbeWithMD2AndRC2?9CBC@ 0000000000079430     OpensslLib:obj_dat.obj
 0002:00006468       ??_C@_0P@IDPFKEHM@PBE?9MD5?9RC2?964@ 0000000000079448     OpensslLib:obj_dat.obj
 0002:00006478       ??_C@_0BF@CKDLCJKD@pbeWithMD5AndRC2?9CBC@ 0000000000079458     OpensslLib:obj_dat.obj
 0002:00006490       ??_C@_0N@GOPIPBOD@PBE?9SHA1?9DES@ 0000000000079470     OpensslLib:obj_dat.obj
 0002:000064a0       ??_C@_0BG@JLHBEJLP@pbeWithSHA1AndDES?9CBC@ 0000000000079480     OpensslLib:obj_dat.obj
 0002:000064b8       ??_C@_08HCCJAOPJ@msExtReq@ 0000000000079498     OpensslLib:obj_dat.obj
 0002:000064c8       ??_C@_0BM@MEJAMAEO@Microsoft?5Extension?5Request@ 00000000000794a8     OpensslLib:obj_dat.obj
 0002:000064e4       ??_C@_06EJACAMDF@extReq@   00000000000794c4     OpensslLib:obj_dat.obj
 0002:000064f0       ??_C@_0BC@GLHEKHCC@Extension?5Request@ 00000000000794d0     OpensslLib:obj_dat.obj
 0002:00006504       ??_C@_04MEMAJGDJ@name@     00000000000794e4     OpensslLib:obj_dat.obj
 0002:00006510       ??_C@_0M@DNNLEIMI@dnQualifier@ 00000000000794f0     OpensslLib:obj_dat.obj
 0002:0000651c       ??_C@_05BDFHFBBC@id?9pe@   00000000000794fc     OpensslLib:obj_dat.obj
 0002:00006524       ??_C@_05BHKIKJBE@id?9ad@   0000000000079504     OpensslLib:obj_dat.obj
 0002:00006530       ??_C@_0BE@PLCGCINM@authorityInfoAccess@ 0000000000079510     OpensslLib:obj_dat.obj
 0002:00006548       ??_C@_0BN@EILCOJAN@Authority?5Information?5Access@ 0000000000079528     OpensslLib:obj_dat.obj
 0002:00006568       ??_C@_04LOJOPNBE@OCSP@     0000000000079548     OpensslLib:obj_dat.obj
 0002:00006570       ??_C@_09GFPECPIH@caIssuers@ 0000000000079550     OpensslLib:obj_dat.obj
 0002:00006580       ??_C@_0L@CABCENFK@CA?5Issuers@ 0000000000079560     OpensslLib:obj_dat.obj
 0002:00006590       ??_C@_0M@HBKJLKNM@OCSPSigning@ 0000000000079570     OpensslLib:obj_dat.obj
 0002:000065a0       ??_C@_0N@CPJNIPDD@OCSP?5Signing@ 0000000000079580     OpensslLib:obj_dat.obj
 0002:000065b0       ??_C@_03CBLMPEHH@ISO@      0000000000079590     OpensslLib:obj_dat.obj
 0002:000065b4       ??_C@_03CMEHDJAL@iso@      0000000000079594     OpensslLib:obj_dat.obj
 0002:000065b8       ??_C@_0M@CMICFDOA@member?9body@ 0000000000079598     OpensslLib:obj_dat.obj
 0002:000065c8       ??_C@_0BA@BGDAEHGF@ISO?5Member?5Body@ 00000000000795a8     OpensslLib:obj_dat.obj
 0002:000065d8       ??_C@_06EKAADAMF@ISO?9US@  00000000000795b8     OpensslLib:obj_dat.obj
 0002:000065e0       ??_C@_0BD@NMCDOJHL@ISO?5US?5Member?5Body@ 00000000000795c0     OpensslLib:obj_dat.obj
 0002:000065f4       ??_C@_05OCCOPOJN@X9?957@   00000000000795d4     OpensslLib:obj_dat.obj
 0002:000065fc       ??_C@_05PAJLFBHD@X9?457@   00000000000795dc     OpensslLib:obj_dat.obj
 0002:00006604       ??_C@_04CGFPFLFA@X9cm@     00000000000795e4     OpensslLib:obj_dat.obj
 0002:00006610       ??_C@_0L@DJCLIPOH@X9?457?5CM?5?$DP@ 00000000000795f0     OpensslLib:obj_dat.obj
 0002:0000661c       ??_C@_05BCIEJMJH@pkcs1@    00000000000795fc     OpensslLib:obj_dat.obj
 0002:00006624       ??_C@_05HGOIFJJD@pkcs5@    0000000000079604     OpensslLib:obj_dat.obj
 0002:0000662c       ??_C@_05HHBEAKJJ@SMIME@    000000000007960c     OpensslLib:obj_dat.obj
 0002:00006634       ??_C@_06DFGHEKNE@S?1MIME@  0000000000079614     OpensslLib:obj_dat.obj
 0002:00006640       ??_C@_0N@GABIEKIN@id?9smime?9mod@ 0000000000079620     OpensslLib:obj_dat.obj
 0002:00006650       ??_C@_0M@EBLDBLEO@id?9smime?9ct@ 0000000000079630     OpensslLib:obj_dat.obj
 0002:00006660       ??_C@_0M@HFICCJDE@id?9smime?9aa@ 0000000000079640     OpensslLib:obj_dat.obj
 0002:00006670       ??_C@_0N@DKFBIKP@id?9smime?9alg@ 0000000000079650     OpensslLib:obj_dat.obj
 0002:00006680       ??_C@_0M@LHBAJBP@id?9smime?9cd@ 0000000000079660     OpensslLib:obj_dat.obj
 0002:00006690       ??_C@_0N@PABBGIHI@id?9smime?9spq@ 0000000000079670     OpensslLib:obj_dat.obj
 0002:000066a0       ??_C@_0N@CFBKAPGC@id?9smime?9cti@ 0000000000079680     OpensslLib:obj_dat.obj
 0002:000066b0       ??_C@_0BB@PJEIFOOP@id?9smime?9mod?9cms@ 0000000000079690     OpensslLib:obj_dat.obj
 0002:000066c8       ??_C@_0BB@MKJLIPEJ@id?9smime?9mod?9ess@ 00000000000796a8     OpensslLib:obj_dat.obj
 0002:000066e0       ??_C@_0BB@LBBEMNBN@id?9smime?9mod?9oid@ 00000000000796c0     OpensslLib:obj_dat.obj
 0002:000066f8       ??_C@_0BE@PEENABNJ@id?9smime?9mod?9msg?9v3@ 00000000000796d8     OpensslLib:obj_dat.obj
 0002:00006710       ??_C@_0BP@HIDGBPHA@id?9smime?9mod?9ets?9eSignature?988@ 00000000000796f0     OpensslLib:obj_dat.obj
 0002:00006730       ??_C@_0BP@POGMGJII@id?9smime?9mod?9ets?9eSignature?997@ 0000000000079710     OpensslLib:obj_dat.obj
 0002:00006750       ??_C@_0BP@KEHEABPA@id?9smime?9mod?9ets?9eSigPolicy?988@ 0000000000079730     OpensslLib:obj_dat.obj
 0002:00006770       ??_C@_0BP@CCCOHHAI@id?9smime?9mod?9ets?9eSigPolicy?997@ 0000000000079750     OpensslLib:obj_dat.obj
 0002:00006790       ??_C@_0BE@GCHIHBHA@id?9smime?9ct?9receipt@ 0000000000079770     OpensslLib:obj_dat.obj
 0002:000067a8       ??_C@_0BF@KGEHGOF@id?9smime?9ct?9authData@ 0000000000079788     OpensslLib:obj_dat.obj
 0002:000067c0       ??_C@_0BI@DBILCLFJ@id?9smime?9ct?9publishCert@ 00000000000797a0     OpensslLib:obj_dat.obj
 0002:000067d8       ??_C@_0BE@KHNGFDDI@id?9smime?9ct?9TSTInfo@ 00000000000797b8     OpensslLib:obj_dat.obj
 0002:000067f0       ??_C@_0BE@FKPPBHI@id?9smime?9ct?9TDTInfo@ 00000000000797d0     OpensslLib:obj_dat.obj
 0002:00006808       ??_C@_0BI@BGKPNMK@id?9smime?9ct?9contentInfo@ 00000000000797e8     OpensslLib:obj_dat.obj
 0002:00006820       ??_C@_0BM@MFKPCEGN@id?9smime?9ct?9DVCSRequestData@ 0000000000079800     OpensslLib:obj_dat.obj
 0002:00006840       ??_C@_0BN@POKJLKJJ@id?9smime?9ct?9DVCSResponseData@ 0000000000079820     OpensslLib:obj_dat.obj
 0002:00006860       ??_C@_0BL@LMGNMPFD@id?9smime?9aa?9receiptRequest@ 0000000000079840     OpensslLib:obj_dat.obj
 0002:00006880       ??_C@_0BK@DNJNJILO@id?9smime?9aa?9securityLabel@ 0000000000079860     OpensslLib:obj_dat.obj
 0002:000068a0       ??_C@_0BM@OEKGBMLE@id?9smime?9aa?9mlExpandHistory@ 0000000000079880     OpensslLib:obj_dat.obj
 0002:000068c0       ??_C@_0BI@EMGPJFHB@id?9smime?9aa?9contentHint@ 00000000000798a0     OpensslLib:obj_dat.obj
 0002:000068d8       ??_C@_0BJ@LJLDKMDH@id?9smime?9aa?9msgSigDigest@ 00000000000798b8     OpensslLib:obj_dat.obj
 0002:000068f8       ??_C@_0BN@GCCNOJCG@id?9smime?9aa?9encapContentType@ 00000000000798d8     OpensslLib:obj_dat.obj
 0002:00006918       ??_C@_0BO@KMJGIAMK@id?9smime?9aa?9contentIdentifier@ 00000000000798f8     OpensslLib:obj_dat.obj
 0002:00006938       ??_C@_0BF@CFNHFPDB@id?9smime?9aa?9macValue@ 0000000000079918     OpensslLib:obj_dat.obj
 0002:00006950       ??_C@_0BN@NFAAOKEA@id?9smime?9aa?9equivalentLabels@ 0000000000079930     OpensslLib:obj_dat.obj
 0002:00006970       ??_C@_0BN@LEFAEFL@id?9smime?9aa?9contentReference@ 0000000000079950     OpensslLib:obj_dat.obj
 0002:00006990       ??_C@_0BK@LAPEFMP@id?9smime?9aa?9encrypKeyPref@ 0000000000079970     OpensslLib:obj_dat.obj
 0002:000069b0       ??_C@_0BP@LHGJLGIB@id?9smime?9aa?9signingCertificate@ 0000000000079990     OpensslLib:obj_dat.obj
 0002:000069d0       ??_C@_0BO@CEEOANBD@id?9smime?9aa?9smimeEncryptCerts@ 00000000000799b0     OpensslLib:obj_dat.obj
 0002:000069f0       ??_C@_0BL@DHJOIJNE@id?9smime?9aa?9timeStampToken@ 00000000000799d0     OpensslLib:obj_dat.obj
 0002:00006a10       ??_C@_0BM@GKFMJCFL@id?9smime?9aa?9ets?9sigPolicyId@ 00000000000799f0     OpensslLib:obj_dat.obj
 0002:00006a30       ??_C@_0BP@OLIFPEIM@id?9smime?9aa?9ets?9commitmentType@ 0000000000079a10     OpensslLib:obj_dat.obj
 0002:00006a50       ??_C@_0BP@EODAELPO@id?9smime?9aa?9ets?9signerLocation@ 0000000000079a30     OpensslLib:obj_dat.obj
 0002:00006a70       ??_C@_0BL@KDJDAGDC@id?9smime?9aa?9ets?9signerAttr@ 0000000000079a50     OpensslLib:obj_dat.obj
 0002:00006a90       ??_C@_0BN@JFIFOPBH@id?9smime?9aa?9ets?9otherSigCert@ 0000000000079a70     OpensslLib:obj_dat.obj
 0002:00006ab0       ??_C@_0CB@GHKINGOH@id?9smime?9aa?9ets?9contentTimestam@ 0000000000079a90     OpensslLib:obj_dat.obj
 0002:00006ad8       ??_C@_0CA@NKIOCHLG@id?9smime?9aa?9ets?9CertificateRefs@ 0000000000079ab8     OpensslLib:obj_dat.obj
 0002:00006af8       ??_C@_0BP@BCHJHNFO@id?9smime?9aa?9ets?9RevocationRefs@ 0000000000079ad8     OpensslLib:obj_dat.obj
 0002:00006b18       ??_C@_0BL@IFKOLDIG@id?9smime?9aa?9ets?9certValues@ 0000000000079af8     OpensslLib:obj_dat.obj
 0002:00006b38       ??_C@_0CB@GOCEFPFO@id?9smime?9aa?9ets?9revocationValue@ 0000000000079b18     OpensslLib:obj_dat.obj
 0002:00006b60       ??_C@_0BN@HGLOGOFI@id?9smime?9aa?9ets?9escTimeStamp@ 0000000000079b40     OpensslLib:obj_dat.obj
 0002:00006b80       ??_C@_0CB@CJNBPJE@id?9smime?9aa?9ets?9certCRLTimestam@ 0000000000079b60     OpensslLib:obj_dat.obj
 0002:00006ba8       ??_C@_0CB@BEMKNJGO@id?9smime?9aa?9ets?9archiveTimeStam@ 0000000000079b88     OpensslLib:obj_dat.obj
 0002:00006bd0       ??_C@_0BK@HDBIPLFI@id?9smime?9aa?9signatureType@ 0000000000079bb0     OpensslLib:obj_dat.obj
 0002:00006bf0       ??_C@_0BF@KEMAMBKF@id?9smime?9aa?9dvcs?9dvc@ 0000000000079bd0     OpensslLib:obj_dat.obj
 0002:00006c08       ??_C@_0BK@JNJOCCCB@id?9smime?9alg?9ESDHwith3DES@ 0000000000079be8     OpensslLib:obj_dat.obj
 0002:00006c28       ??_C@_0BJ@FIJMOHBJ@id?9smime?9alg?9ESDHwithRC2@ 0000000000079c08     OpensslLib:obj_dat.obj
 0002:00006c48       ??_C@_0BG@HHELPNAK@id?9smime?9alg?93DESwrap@ 0000000000079c28     OpensslLib:obj_dat.obj
 0002:00006c60       ??_C@_0BF@JNCPAJCA@id?9smime?9alg?9RC2wrap@ 0000000000079c40     OpensslLib:obj_dat.obj
 0002:00006c78       ??_C@_0BC@COOODKPD@id?9smime?9alg?9ESDH@ 0000000000079c58     OpensslLib:obj_dat.obj
 0002:00006c90       ??_C@_0BJ@FOFHEIDB@id?9smime?9alg?9CMS3DESwrap@ 0000000000079c70     OpensslLib:obj_dat.obj
 0002:00006cb0       ??_C@_0BI@FIFDKKFJ@id?9smime?9alg?9CMSRC2wrap@ 0000000000079c90     OpensslLib:obj_dat.obj
 0002:00006cc8       ??_C@_0BB@BMOBKAGE@id?9smime?9cd?9ldap@ 0000000000079ca8     OpensslLib:obj_dat.obj
 0002:00006ce0       ??_C@_0BJ@IMNKDGEG@id?9smime?9spq?9ets?9sqt?9uri@ 0000000000079cc0     OpensslLib:obj_dat.obj
 0002:00006d00       ??_C@_0BN@GPAAHNOH@id?9smime?9spq?9ets?9sqt?9unotice@ 0000000000079ce0     OpensslLib:obj_dat.obj
 0002:00006d20       ??_C@_0BP@BCHFEGHC@id?9smime?9cti?9ets?9proofOfOrigin@ 0000000000079d00     OpensslLib:obj_dat.obj
 0002:00006d40       ??_C@_0CA@HNGOKBGC@id?9smime?9cti?9ets?9proofOfReceipt@ 0000000000079d20     OpensslLib:obj_dat.obj
 0002:00006d60       ??_C@_0CB@ICJGPMEP@id?9smime?9cti?9ets?9proofOfDeliver@ 0000000000079d40     OpensslLib:obj_dat.obj
 0002:00006d88       ??_C@_0BP@ODCAFFCM@id?9smime?9cti?9ets?9proofOfSender@ 0000000000079d68     OpensslLib:obj_dat.obj
 0002:00006da8       ??_C@_0CB@DDLMHEBC@id?9smime?9cti?9ets?9proofOfApprova@ 0000000000079d88     OpensslLib:obj_dat.obj
 0002:00006dd0       ??_C@_0CB@MICJDGGH@id?9smime?9cti?9ets?9proofOfCreatio@ 0000000000079db0     OpensslLib:obj_dat.obj
 0002:00006df4       ??_C@_03HLHMHGOI@MD4@      0000000000079dd4     OpensslLib:obj_dat.obj
 0002:00006df8       ??_C@_03ODADJPDG@md4@      0000000000079dd8     OpensslLib:obj_dat.obj
 0002:00006e00       ??_C@_0M@FNAFBNKE@id?9pkix?9mod@ 0000000000079de0     OpensslLib:obj_dat.obj
 0002:00006e0c       ??_C@_05EBEMBIDF@id?9qt@   0000000000079dec     OpensslLib:obj_dat.obj
 0002:00006e14       ??_C@_05FDHJOKPN@id?9it@   0000000000079df4     OpensslLib:obj_dat.obj
 0002:00006e20       ??_C@_07OMHOPMIM@id?9pkip@ 0000000000079e00     OpensslLib:obj_dat.obj
 0002:00006e28       ??_C@_06DOGCNAAM@id?9alg@  0000000000079e08     OpensslLib:obj_dat.obj
 0002:00006e30       ??_C@_06PBMFLHLE@id?9cmc@  0000000000079e10     OpensslLib:obj_dat.obj
 0002:00006e38       ??_C@_05OHNJGMJE@id?9on@   0000000000079e18     OpensslLib:obj_dat.obj
 0002:00006e40       ??_C@_06IOIOBGMI@id?9pda@  0000000000079e20     OpensslLib:obj_dat.obj
 0002:00006e48       ??_C@_06GDGEDALH@id?9aca@  0000000000079e28     OpensslLib:obj_dat.obj
 0002:00006e50       ??_C@_06ELIJBHPL@id?9qcs@  0000000000079e30     OpensslLib:obj_dat.obj
 0002:00006e58       ??_C@_06PONIBOCI@id?9cct@  0000000000079e38     OpensslLib:obj_dat.obj
 0002:00006e60       ??_C@_0BF@HGDNDMHO@id?9pkix1?9explicit?988@ 0000000000079e40     OpensslLib:obj_dat.obj
 0002:00006e78       ??_C@_0BF@KMJGBJHG@id?9pkix1?9implicit?988@ 0000000000079e58     OpensslLib:obj_dat.obj
 0002:00006e90       ??_C@_0BF@JEALIPIC@id?9pkix1?9explicit?993@ 0000000000079e70     OpensslLib:obj_dat.obj
 0002:00006ea8       ??_C@_0BF@EOKAKKIK@id?9pkix1?9implicit?993@ 0000000000079e88     OpensslLib:obj_dat.obj
 0002:00006ec0       ??_C@_0M@GHFPFJPB@id?9mod?9crmf@ 0000000000079ea0     OpensslLib:obj_dat.obj
 0002:00006ed0       ??_C@_0L@KPDLDADF@id?9mod?9cmc@ 0000000000079eb0     OpensslLib:obj_dat.obj
 0002:00006ee0       ??_C@_0BG@DCGANCKA@id?9mod?9kea?9profile?988@ 0000000000079ec0     OpensslLib:obj_dat.obj
 0002:00006ef8       ??_C@_0BG@NAFGGBFM@id?9mod?9kea?9profile?993@ 0000000000079ed8     OpensslLib:obj_dat.obj
 0002:00006f10       ??_C@_0L@MONEHBKH@id?9mod?9cmp@ 0000000000079ef0     OpensslLib:obj_dat.obj
 0002:00006f20       ??_C@_0BJ@GENFLKHG@id?9mod?9qualified?9cert?988@ 0000000000079f00     OpensslLib:obj_dat.obj
 0002:00006f40       ??_C@_0BJ@IGODAJIK@id?9mod?9qualified?9cert?993@ 0000000000079f20     OpensslLib:obj_dat.obj
 0002:00006f60       ??_C@_0BG@EPPFBJNH@id?9mod?9attribute?9cert@ 0000000000079f40     OpensslLib:obj_dat.obj
 0002:00006f78       ??_C@_0BK@GAJOODEK@id?9mod?9timestamp?9protocol@ 0000000000079f58     OpensslLib:obj_dat.obj
 0002:00006f98       ??_C@_0M@EACKLPKH@id?9mod?9ocsp@ 0000000000079f78     OpensslLib:obj_dat.obj
 0002:00006fa8       ??_C@_0M@GHDGNJKI@id?9mod?9dvcs@ 0000000000079f88     OpensslLib:obj_dat.obj
 0002:00006fb8       ??_C@_0P@MMOAAMFD@id?9mod?9cmp2000@ 0000000000079f98     OpensslLib:obj_dat.obj
 0002:00006fc8       ??_C@_0O@MPIIPAHM@biometricInfo@ 0000000000079fa8     OpensslLib:obj_dat.obj
 0002:00006fd8       ??_C@_0P@KFKDECPH@Biometric?5Info@ 0000000000079fb8     OpensslLib:obj_dat.obj
 0002:00006fe8       ??_C@_0N@FPMNLLM@qcStatements@ 0000000000079fc8     OpensslLib:obj_dat.obj
 0002:00006ff8       ??_C@_0P@CIOHPJGC@ac?9auditEntity@ 0000000000079fd8     OpensslLib:obj_dat.obj
 0002:00007008       ??_C@_0N@FPEEOJCI@ac?9targeting@ 0000000000079fe8     OpensslLib:obj_dat.obj
 0002:00007018       ??_C@_0L@DLGBNBJE@aaControls@ 0000000000079ff8     OpensslLib:obj_dat.obj
 0002:00007028       ??_C@_0BB@NNCKCHBC@sbgp?9ipAddrBlock@ 000000000007a008     OpensslLib:obj_dat.obj
 0002:00007040       ??_C@_0BG@OJEHJDKA@sbgp?9autonomousSysNum@ 000000000007a020     OpensslLib:obj_dat.obj
 0002:00007058       ??_C@_0BG@JCJJBMAI@sbgp?9routerIdentifier@ 000000000007a038     OpensslLib:obj_dat.obj
 0002:00007070       ??_C@_0L@HLNNPJEH@textNotice@ 000000000007a050     OpensslLib:obj_dat.obj
 0002:00007080       ??_C@_0P@MKBFMAPP@ipsecEndSystem@ 000000000007a060     OpensslLib:obj_dat.obj
 0002:00007090       ??_C@_0BB@JEJDAICO@IPSec?5End?5System@ 000000000007a070     OpensslLib:obj_dat.obj
 0002:000070a8       ??_C@_0M@GMMHFFHI@ipsecTunnel@ 000000000007a088     OpensslLib:obj_dat.obj
 0002:000070b8       ??_C@_0N@EKDIOGLO@IPSec?5Tunnel@ 000000000007a098     OpensslLib:obj_dat.obj
 0002:000070c8       ??_C@_09GOHJKOFF@ipsecUser@ 000000000007a0a8     OpensslLib:obj_dat.obj
 0002:000070d8       ??_C@_0L@DECDDCGF@IPSec?5User@ 000000000007a0b8     OpensslLib:obj_dat.obj
 0002:000070e4       ??_C@_04JJICJLBL@DVCS@     000000000007a0c4     OpensslLib:obj_dat.obj
 0002:000070ec       ??_C@_04FFLIHJGD@dvcs@     000000000007a0cc     OpensslLib:obj_dat.obj
 0002:000070f8       ??_C@_0BE@GJACIPND@id?9it?9caProtEncCert@ 000000000007a0d8     OpensslLib:obj_dat.obj
 0002:00007110       ??_C@_0BH@POCENFBA@id?9it?9signKeyPairTypes@ 000000000007a0f0     OpensslLib:obj_dat.obj
 0002:00007128       ??_C@_0BG@FKIDIODL@id?9it?9encKeyPairTypes@ 000000000007a108     OpensslLib:obj_dat.obj
 0002:00007140       ??_C@_0BH@JFBOPDCH@id?9it?9preferredSymmAlg@ 000000000007a120     OpensslLib:obj_dat.obj
 0002:00007158       ??_C@_0BG@OAKEHPLC@id?9it?9caKeyUpdateInfo@ 000000000007a138     OpensslLib:obj_dat.obj
 0002:00007170       ??_C@_0BB@NHKBGJFG@id?9it?9currentCRL@ 000000000007a150     OpensslLib:obj_dat.obj
 0002:00007188       ??_C@_0BG@BPLKDJPD@id?9it?9unsupportedOIDs@ 000000000007a168     OpensslLib:obj_dat.obj
 0002:000071a0       ??_C@_0BK@MKGCMKGI@id?9it?9subscriptionRequest@ 000000000007a180     OpensslLib:obj_dat.obj
 0002:000071c0       ??_C@_0BL@HBPHBFLO@id?9it?9subscriptionResponse@ 000000000007a1a0     OpensslLib:obj_dat.obj
 0002:000071e0       ??_C@_0BG@LGJDGAPG@id?9it?9keyPairParamReq@ 000000000007a1c0     OpensslLib:obj_dat.obj
 0002:000071f8       ??_C@_0BG@KPIIFBLH@id?9it?9keyPairParamRep@ 000000000007a1d8     OpensslLib:obj_dat.obj
 0002:00007210       ??_C@_0BE@FOOOCPMH@id?9it?9revPassphrase@ 000000000007a1f0     OpensslLib:obj_dat.obj
 0002:00007228       ??_C@_0BG@MKDHCJKF@id?9it?9implicitConfirm@ 000000000007a208     OpensslLib:obj_dat.obj
 0002:00007240       ??_C@_0BG@KCBHNMIK@id?9it?9confirmWaitTime@ 000000000007a220     OpensslLib:obj_dat.obj
 0002:00007258       ??_C@_0BF@CLCJJGFI@id?9it?9origPKIMessage@ 000000000007a238     OpensslLib:obj_dat.obj
 0002:00007270       ??_C@_0L@FDGKGANK@id?9regCtrl@ 000000000007a250     OpensslLib:obj_dat.obj
 0002:00007280       ??_C@_0L@BGHMJHOP@id?9regInfo@ 000000000007a260     OpensslLib:obj_dat.obj
 0002:00007290       ??_C@_0BE@JDMKCIPE@id?9regCtrl?9regToken@ 000000000007a270     OpensslLib:obj_dat.obj
 0002:000072a8       ??_C@_0BJ@FBKKLLKP@id?9regCtrl?9authenticator@ 000000000007a288     OpensslLib:obj_dat.obj
 0002:000072c8       ??_C@_0BO@GJKPPLPL@id?9regCtrl?9pkiPublicationInfo@ 000000000007a2a8     OpensslLib:obj_dat.obj
 0002:000072e8       ??_C@_0BN@ONKHMAOP@id?9regCtrl?9pkiArchiveOptions@ 000000000007a2c8     OpensslLib:obj_dat.obj
 0002:00007308       ??_C@_0BF@GFJPNJIG@id?9regCtrl?9oldCertID@ 000000000007a2e8     OpensslLib:obj_dat.obj
 0002:00007320       ??_C@_0BL@GHBPLPHM@id?9regCtrl?9protocolEncrKey@ 000000000007a300     OpensslLib:obj_dat.obj
 0002:00007340       ??_C@_0BF@FHFGHAHE@id?9regInfo?9utf8Pairs@ 000000000007a320     OpensslLib:obj_dat.obj
 0002:00007358       ??_C@_0BD@EEAPBNJJ@id?9regInfo?9certReq@ 000000000007a338     OpensslLib:obj_dat.obj
 0002:00007370       ??_C@_0N@KIJONBNA@id?9alg?9des40@ 000000000007a350     OpensslLib:obj_dat.obj
 0002:00007380       ??_C@_0BD@LAAJOBHI@id?9alg?9noSignature@ 000000000007a360     OpensslLib:obj_dat.obj
 0002:00007398       ??_C@_0BI@KIODNBCM@id?9alg?9dh?9sig?9hmac?9sha1@ 000000000007a378     OpensslLib:obj_dat.obj
 0002:000073b0       ??_C@_0O@OBGPPBGA@id?9alg?9dh?9pop@ 000000000007a390     OpensslLib:obj_dat.obj
 0002:000073c0       ??_C@_0BC@CMNEPEAI@id?9cmc?9statusInfo@ 000000000007a3a0     OpensslLib:obj_dat.obj
 0002:000073d8       ??_C@_0BG@PPIINOMK@id?9cmc?9identification@ 000000000007a3b8     OpensslLib:obj_dat.obj
 0002:000073f0       ??_C@_0BF@IDAHNDCK@id?9cmc?9identityProof@ 000000000007a3d0     OpensslLib:obj_dat.obj
 0002:00007408       ??_C@_0BC@LLJKCHEN@id?9cmc?9dataReturn@ 000000000007a3e8     OpensslLib:obj_dat.obj
 0002:00007420       ??_C@_0BF@GEJAHBF@id?9cmc?9transactionId@ 000000000007a400     OpensslLib:obj_dat.obj
 0002:00007438       ??_C@_0BD@BCMJDDMP@id?9cmc?9senderNonce@ 000000000007a418     OpensslLib:obj_dat.obj
 0002:00007450       ??_C@_0BG@JLHHNNCH@id?9cmc?9recipientNonce@ 000000000007a430     OpensslLib:obj_dat.obj
 0002:00007468       ??_C@_0BF@HLOCACJF@id?9cmc?9addExtensions@ 000000000007a448     OpensslLib:obj_dat.obj
 0002:00007480       ??_C@_0BE@NILMJFN@id?9cmc?9encryptedPOP@ 000000000007a460     OpensslLib:obj_dat.obj
 0002:00007498       ??_C@_0BE@KBIPLENG@id?9cmc?9decryptedPOP@ 000000000007a478     OpensslLib:obj_dat.obj
 0002:000074b0       ??_C@_0BF@BMODAINP@id?9cmc?9lraPOPWitness@ 000000000007a490     OpensslLib:obj_dat.obj
 0002:000074c8       ??_C@_0P@GMDPJKDO@id?9cmc?9getCert@ 000000000007a4a8     OpensslLib:obj_dat.obj
 0002:000074d8       ??_C@_0O@OIGIOBJ@id?9cmc?9getCRL@ 000000000007a4b8     OpensslLib:obj_dat.obj
 0002:000074e8       ??_C@_0BF@BOEAJJNI@id?9cmc?9revokeRequest@ 000000000007a4c8     OpensslLib:obj_dat.obj
 0002:00007500       ??_C@_0P@PCIOIKNC@id?9cmc?9regInfo@ 000000000007a4e0     OpensslLib:obj_dat.obj
 0002:00007510       ??_C@_0BE@CKMFMMDP@id?9cmc?9responseInfo@ 000000000007a4f0     OpensslLib:obj_dat.obj
 0002:00007528       ??_C@_0BE@JKLJLIIH@id?9cmc?9queryPending@ 000000000007a508     OpensslLib:obj_dat.obj
 0002:00007540       ??_C@_0BF@GGLCNKGO@id?9cmc?9popLinkRandom@ 000000000007a520     OpensslLib:obj_dat.obj
 0002:00007558       ??_C@_0BG@EEIJMDPB@id?9cmc?9popLinkWitness@ 000000000007a538     OpensslLib:obj_dat.obj
 0002:00007570       ??_C@_0BN@MIGHDJON@id?9cmc?9confirmCertAcceptance@ 000000000007a550     OpensslLib:obj_dat.obj
 0002:00007590       ??_C@_0BD@IGLADCFL@id?9on?9personalData@ 000000000007a570     OpensslLib:obj_dat.obj
 0002:000075a8       ??_C@_0BD@BADJMIPF@id?9pda?9dateOfBirth@ 000000000007a588     OpensslLib:obj_dat.obj
 0002:000075c0       ??_C@_0BE@NIFFDBPJ@id?9pda?9placeOfBirth@ 000000000007a5a0     OpensslLib:obj_dat.obj
 0002:000075d8       ??_C@_0O@JMCFNPFD@id?9pda?9gender@ 000000000007a5b8     OpensslLib:obj_dat.obj
 0002:000075e8       ??_C@_0BM@KMGEGNAB@id?9pda?9countryOfCitizenship@ 000000000007a5c8     OpensslLib:obj_dat.obj
 0002:00007608       ??_C@_0BK@BJMNIGCJ@id?9pda?9countryOfResidence@ 000000000007a5e8     OpensslLib:obj_dat.obj
 0002:00007628       ??_C@_0BK@OFEDAOCA@id?9aca?9authenticationInfo@ 000000000007a608     OpensslLib:obj_dat.obj
 0002:00007648       ??_C@_0BG@GFJCFEAI@id?9aca?9accessIdentity@ 000000000007a628     OpensslLib:obj_dat.obj
 0002:00007660       ??_C@_0BI@IDHFJBKH@id?9aca?9chargingIdentity@ 000000000007a640     OpensslLib:obj_dat.obj
 0002:00007678       ??_C@_0N@HOPCGOGP@id?9aca?9group@ 000000000007a658     OpensslLib:obj_dat.obj
 0002:00007688       ??_C@_0M@FBOAJIIJ@id?9aca?9role@ 000000000007a668     OpensslLib:obj_dat.obj
 0002:00007698       ??_C@_0BH@DJONLBHI@id?9qcs?9pkixQCSyntax?9v1@ 000000000007a678     OpensslLib:obj_dat.obj
 0002:000076b0       ??_C@_0L@CDHPLMPE@id?9cct?9crs@ 000000000007a690     OpensslLib:obj_dat.obj
 0002:000076c0       ??_C@_0P@FNCPPGJO@id?9cct?9PKIData@ 000000000007a6a0     OpensslLib:obj_dat.obj
 0002:000076d0       ??_C@_0BD@DDALHPCH@id?9cct?9PKIResponse@ 000000000007a6b0     OpensslLib:obj_dat.obj
 0002:000076e8       ??_C@_0BA@PBBONLHE@ad_timestamping@ 000000000007a6c8     OpensslLib:obj_dat.obj
 0002:000076f8       ??_C@_0BB@NMPPBOGK@AD?5Time?5Stamping@ 000000000007a6d8     OpensslLib:obj_dat.obj
 0002:00007710       ??_C@_07JCCJJKFE@AD_DVCS@  000000000007a6f0     OpensslLib:obj_dat.obj
 0002:00007718       ??_C@_07JCKMJMPC@ad?5dvcs@ 000000000007a6f8     OpensslLib:obj_dat.obj
 0002:00007720       ??_C@_0BC@KFAFMFFF@basicOCSPResponse@ 000000000007a700     OpensslLib:obj_dat.obj
 0002:00007738       ??_C@_0BE@ONEEPEOL@Basic?5OCSP?5Response@ 000000000007a718     OpensslLib:obj_dat.obj
 0002:0000774c       ??_C@_05OJOPLPHH@Nonce@    000000000007a72c     OpensslLib:obj_dat.obj
 0002:00007758       ??_C@_0L@NCNDEJFL@OCSP?5Nonce@ 000000000007a738     OpensslLib:obj_dat.obj
 0002:00007764       ??_C@_05NOENOBME@CrlID@    000000000007a744     OpensslLib:obj_dat.obj
 0002:00007770       ??_C@_0M@LCLKJALE@OCSP?5CRL?5ID@ 000000000007a750     OpensslLib:obj_dat.obj
 0002:00007780       ??_C@_0BE@FBPDIHIK@acceptableResponses@ 000000000007a760     OpensslLib:obj_dat.obj
 0002:00007798       ??_C@_0BK@JKKLNLEI@Acceptable?5OCSP?5Responses@ 000000000007a778     OpensslLib:obj_dat.obj
 0002:000077b8       ??_C@_07MCKMCKHJ@noCheck@  000000000007a798     OpensslLib:obj_dat.obj
 0002:000077c0       ??_C@_0O@HFOALJCG@OCSP?5No?5Check@ 000000000007a7a0     OpensslLib:obj_dat.obj
 0002:000077d0       ??_C@_0O@FIEDPKGI@archiveCutoff@ 000000000007a7b0     OpensslLib:obj_dat.obj
 0002:000077e0       ??_C@_0BE@JAFPABJB@OCSP?5Archive?5Cutoff@ 000000000007a7c0     OpensslLib:obj_dat.obj
 0002:000077f8       ??_C@_0P@LCDAPLHC@serviceLocator@ 000000000007a7d8     OpensslLib:obj_dat.obj
 0002:00007808       ??_C@_0BF@CEIKAD@OCSP?5Service?5Locator@ 000000000007a7e8     OpensslLib:obj_dat.obj
 0002:00007820       ??_C@_0P@EGENIBNC@extendedStatus@ 000000000007a800     OpensslLib:obj_dat.obj
 0002:00007830       ??_C@_0BF@MPEDLKDP@Extended?5OCSP?5Status@ 000000000007a810     OpensslLib:obj_dat.obj
 0002:00007848       ??_C@_05HDPIMK@valid@      000000000007a828     OpensslLib:obj_dat.obj
 0002:00007850       ??_C@_04LNEJFJGI@path@     000000000007a830     OpensslLib:obj_dat.obj
 0002:00007858       ??_C@_09LNEPAILM@trustRoot@ 000000000007a838     OpensslLib:obj_dat.obj
 0002:00007868       ??_C@_0L@INBPOG@Trust?5Root@ 000000000007a848     OpensslLib:obj_dat.obj
 0002:00007878       ??_C@_0N@JHANBHGC@rsaSignature@ 000000000007a858     OpensslLib:obj_dat.obj
 0002:00007888       ??_C@_0P@NMIAKCBG@X500algorithms@ 000000000007a868     OpensslLib:obj_dat.obj
 0002:00007898       ??_C@_0CA@FIOIBJEO@directory?5services?5?9?5algorithms@ 000000000007a878     OpensslLib:obj_dat.obj
 0002:000078b8       ??_C@_03MNMMELJE@ORG@      000000000007a898     OpensslLib:obj_dat.obj
 0002:000078bc       ??_C@_03MADHIGOI@org@      000000000007a89c     OpensslLib:obj_dat.obj
 0002:000078c0       ??_C@_03CFBOKPHF@DOD@      000000000007a8a0     OpensslLib:obj_dat.obj
 0002:000078c4       ??_C@_03CIOFGCAJ@dod@      000000000007a8a4     OpensslLib:obj_dat.obj
 0002:000078c8       ??_C@_04NMPANDAM@IANA@     000000000007a8a8     OpensslLib:obj_dat.obj
 0002:000078d0       ??_C@_04BAMKDBHE@iana@     000000000007a8b0     OpensslLib:obj_dat.obj
 0002:000078d8       ??_C@_09ELLNFDPM@directory@ 000000000007a8b8     OpensslLib:obj_dat.obj
 0002:000078e8       ??_C@_09EOAFACM@Directory@ 000000000007a8c8     OpensslLib:obj_dat.obj
 0002:000078f4       ??_C@_04PFNCJACF@mgmt@     000000000007a8d4     OpensslLib:obj_dat.obj
 0002:00007900       ??_C@_0L@ENAJINDB@Management@ 000000000007a8e0     OpensslLib:obj_dat.obj
 0002:00007910       ??_C@_0N@OJFGCCKJ@experimental@ 000000000007a8f0     OpensslLib:obj_dat.obj
 0002:00007920       ??_C@_0N@FKCIGJFM@Experimental@ 000000000007a900     OpensslLib:obj_dat.obj
 0002:00007930       ??_C@_07NMPLPEPB@private@  000000000007a910     OpensslLib:obj_dat.obj
 0002:00007938       ??_C@_07CFINJGKH@Private@  000000000007a918     OpensslLib:obj_dat.obj
 0002:00007940       ??_C@_08MBFLHJIB@security@ 000000000007a920     OpensslLib:obj_dat.obj
 0002:00007950       ??_C@_08EDKKPLCC@Security@ 000000000007a930     OpensslLib:obj_dat.obj
 0002:0000795c       ??_C@_06DKHMNHOO@snmpv2@   000000000007a93c     OpensslLib:obj_dat.obj
 0002:00007964       ??_C@_06JDJOGLHO@SNMPv2@   000000000007a944     OpensslLib:obj_dat.obj
 0002:0000796c       ??_C@_04JEGKNAHI@Mail@     000000000007a94c     OpensslLib:obj_dat.obj
 0002:00007978       ??_C@_0M@DMHOKNAD@enterprises@ 000000000007a958     OpensslLib:obj_dat.obj
 0002:00007988       ??_C@_0M@CEEPHGPL@Enterprises@ 000000000007a968     OpensslLib:obj_dat.obj
 0002:00007998       ??_C@_08KAGHKPKK@dcobject@ 000000000007a978     OpensslLib:obj_dat.obj
 0002:000079a8       ??_C@_08GPNKJGDG@dcObject@ 000000000007a988     OpensslLib:obj_dat.obj
 0002:000079b4       ??_C@_02KMHJBPDH@DC@       000000000007a994     OpensslLib:obj_dat.obj
 0002:000079b8       ??_C@_0BA@DMAKFKAH@domainComponent@ 000000000007a998     OpensslLib:obj_dat.obj
 0002:000079c8       ??_C@_06LKIIGAOE@domain@   000000000007a9a8     OpensslLib:obj_dat.obj
 0002:000079d0       ??_C@_06HFDFFJHI@Domain@   000000000007a9b0     OpensslLib:obj_dat.obj
 0002:000079d8       ??_C@_04HIBGFPH@NULL@      000000000007a9b8     OpensslLib:obj_dat.obj
 0002:000079e0       ??_C@_0BJ@BDDNHDDA@selected?9attribute?9types@ 000000000007a9c0     OpensslLib:obj_dat.obj
 0002:00007a00       ??_C@_0BJ@MAOJIBHF@Selected?5Attribute?5Types@ 000000000007a9e0     OpensslLib:obj_dat.obj
 0002:00007a20       ??_C@_09ECGCCLFI@clearance@ 000000000007aa00     OpensslLib:obj_dat.obj
 0002:00007a30       ??_C@_07MHHBEDHA@RSA?9MD4@ 000000000007aa10     OpensslLib:obj_dat.obj
 0002:00007a38       ??_C@_0BF@JDOFKNPK@md4WithRSAEncryption@ 000000000007aa18     OpensslLib:obj_dat.obj
 0002:00007a50       ??_C@_0M@BKAIKGEL@ac?9proxying@ 000000000007aa30     OpensslLib:obj_dat.obj
 0002:00007a60       ??_C@_0BC@IEIBIKBA@subjectInfoAccess@ 000000000007aa40     OpensslLib:obj_dat.obj
 0002:00007a78       ??_C@_0BL@OMFIOBLF@Subject?5Information?5Access@ 000000000007aa58     OpensslLib:obj_dat.obj
 0002:00007a98       ??_C@_0BA@PEFFHNFH@id?9aca?9encAttrs@ 000000000007aa78     OpensslLib:obj_dat.obj
 0002:00007aa8       ??_C@_04IAMNPBLO@role@     000000000007aa88     OpensslLib:obj_dat.obj
 0002:00007ab0       ??_C@_0BC@IJLMCBHD@policyConstraints@ 000000000007aa90     OpensslLib:obj_dat.obj
 0002:00007ac8       ??_C@_0BK@DNMBLGM@X509v3?5Policy?5Constraints@ 000000000007aaa8     OpensslLib:obj_dat.obj
 0002:00007ae8       ??_C@_0BC@JINDJNPM@targetInformation@ 000000000007aac8     OpensslLib:obj_dat.obj
 0002:00007b00       ??_C@_0BE@IECCFFCH@X509v3?5AC?5Targeting@ 000000000007aae0     OpensslLib:obj_dat.obj
 0002:00007b18       ??_C@_0L@ECGDAGCK@noRevAvail@ 000000000007aaf8     OpensslLib:obj_dat.obj
 0002:00007b28       ??_C@_0BP@DEKFNCEH@X509v3?5No?5Revocation?5Available@ 000000000007ab08     OpensslLib:obj_dat.obj
 0002:00007b48       ??_C@_0L@LBMOMFCJ@ansi?9X9?962@ 000000000007ab28     OpensslLib:obj_dat.obj
 0002:00007b58       ??_C@_0L@HAOKGHPF@ANSI?5X9?462@ 000000000007ab38     OpensslLib:obj_dat.obj
 0002:00007b68       ??_C@_0M@LGLKIODB@prime?9field@ 000000000007ab48     OpensslLib:obj_dat.obj
 0002:00007b78       ??_C@_0BJ@HECCMKCN@characteristic?9two?9field@ 000000000007ab58     OpensslLib:obj_dat.obj
 0002:00007b98       ??_C@_0P@NEOBKIMO@id?9ecPublicKey@ 000000000007ab78     OpensslLib:obj_dat.obj
 0002:00007ba8       ??_C@_0L@FFFCIFBH@prime192v1@ 000000000007ab88     OpensslLib:obj_dat.obj
 0002:00007bb8       ??_C@_0L@HOHPNGNE@prime192v2@ 000000000007ab98     OpensslLib:obj_dat.obj
 0002:00007bc8       ??_C@_0L@GHGEOHJF@prime192v3@ 000000000007aba8     OpensslLib:obj_dat.obj
 0002:00007bd8       ??_C@_0L@EOHHGIBJ@prime239v1@ 000000000007abb8     OpensslLib:obj_dat.obj
 0002:00007be8       ??_C@_0L@GFFKDLNK@prime239v2@ 000000000007abc8     OpensslLib:obj_dat.obj
 0002:00007bf8       ??_C@_0L@HMEBAKJL@prime239v3@ 000000000007abd8     OpensslLib:obj_dat.obj
 0002:00007c08       ??_C@_0L@JJFEINOP@prime256v1@ 000000000007abe8     OpensslLib:obj_dat.obj
 0002:00007c18       ??_C@_0BA@DGJNDOPM@ecdsa?9with?9SHA1@ 000000000007abf8     OpensslLib:obj_dat.obj
 0002:00007c28       ??_C@_07BPKAKPJK@CSPName@  000000000007ac08     OpensslLib:obj_dat.obj
 0002:00007c30       ??_C@_0BD@HDEEGCLB@Microsoft?5CSP?5Name@ 000000000007ac10     OpensslLib:obj_dat.obj
 0002:00007c48       ??_C@_0M@BCNEBAOB@AES?9128?9ECB@ 000000000007ac28     OpensslLib:obj_dat.obj
 0002:00007c58       ??_C@_0M@MONPIKGC@aes?9128?9ecb@ 000000000007ac38     OpensslLib:obj_dat.obj
 0002:00007c68       ??_C@_0M@CPGGBEEL@AES?9128?9CBC@ 000000000007ac48     OpensslLib:obj_dat.obj
 0002:00007c78       ??_C@_0M@PDGNIOMI@aes?9128?9cbc@ 000000000007ac58     OpensslLib:obj_dat.obj
 0002:00007c88       ??_C@_0M@HLKCDCGO@AES?9128?9OFB@ 000000000007ac68     OpensslLib:obj_dat.obj
 0002:00007c98       ??_C@_0M@KHKJKION@aes?9128?9ofb@ 000000000007ac78     OpensslLib:obj_dat.obj
 0002:00007ca8       ??_C@_0M@DBHEINNG@AES?9128?9CFB@ 000000000007ac88     OpensslLib:obj_dat.obj
 0002:00007cb8       ??_C@_0M@ONHPBHFF@aes?9128?9cfb@ 000000000007ac98     OpensslLib:obj_dat.obj
 0002:00007cc8       ??_C@_0M@LBEIGHHN@AES?9192?9ECB@ 000000000007aca8     OpensslLib:obj_dat.obj
 0002:00007cd8       ??_C@_0M@GNEDPNPO@aes?9192?9ecb@ 000000000007acb8     OpensslLib:obj_dat.obj
 0002:00007ce8       ??_C@_0M@IMPKGDNH@AES?9192?9CBC@ 000000000007acc8     OpensslLib:obj_dat.obj
 0002:00007cf8       ??_C@_0M@FAPBPJFE@aes?9192?9cbc@ 000000000007acd8     OpensslLib:obj_dat.obj
 0002:00007d08       ??_C@_0M@NIDOEFPC@AES?9192?9OFB@ 000000000007ace8     OpensslLib:obj_dat.obj
 0002:00007d18       ??_C@_0M@EDFNPHB@aes?9192?9ofb@ 000000000007acf8     OpensslLib:obj_dat.obj
 0002:00007d28       ??_C@_0M@JCOIPKEK@AES?9192?9CFB@ 000000000007ad08     OpensslLib:obj_dat.obj
 0002:00007d38       ??_C@_0M@EOODGAMJ@aes?9192?9cfb@ 000000000007ad18     OpensslLib:obj_dat.obj
 0002:00007d48       ??_C@_0M@GDPGEIPM@AES?9256?9ECB@ 000000000007ad28     OpensslLib:obj_dat.obj
 0002:00007d58       ??_C@_0M@LPPNNCHP@aes?9256?9ecb@ 000000000007ad38     OpensslLib:obj_dat.obj
 0002:00007d68       ??_C@_0M@FOEEEMFG@AES?9256?9CBC@ 000000000007ad48     OpensslLib:obj_dat.obj
 0002:00007d78       ??_C@_0M@ICEPNGNF@aes?9256?9cbc@ 000000000007ad58     OpensslLib:obj_dat.obj
 0002:00007d88       ??_C@_0M@KIAGKHD@AES?9256?9OFB@ 000000000007ad68     OpensslLib:obj_dat.obj
 0002:00007d98       ??_C@_0M@NGILPAPA@aes?9256?9ofb@ 000000000007ad78     OpensslLib:obj_dat.obj
 0002:00007da8       ??_C@_0M@EAFGNFML@AES?9256?9CFB@ 000000000007ad88     OpensslLib:obj_dat.obj
 0002:00007db8       ??_C@_0M@JMFNEPEI@aes?9256?9cfb@ 000000000007ad98     OpensslLib:obj_dat.obj
 0002:00007dc8       ??_C@_0BE@FKEPLGJO@holdInstructionCode@ 000000000007ada8     OpensslLib:obj_dat.obj
 0002:00007de0       ??_C@_0BG@LHBPDMAN@Hold?5Instruction?5Code@ 000000000007adc0     OpensslLib:obj_dat.obj
 0002:00007df8       ??_C@_0BE@KPEIPHPJ@holdInstructionNone@ 000000000007add8     OpensslLib:obj_dat.obj
 0002:00007e10       ??_C@_0BG@ECBIHNGK@Hold?5Instruction?5None@ 000000000007adf0     OpensslLib:obj_dat.obj
 0002:00007e28       ??_C@_0BK@ENEKHHMB@holdInstructionCallIssuer@ 000000000007ae08     OpensslLib:obj_dat.obj
 0002:00007e48       ??_C@_0BN@IJKNPIFC@Hold?5Instruction?5Call?5Issuer@ 000000000007ae28     OpensslLib:obj_dat.obj
 0002:00007e68       ??_C@_0BG@BDAACIJE@holdInstructionReject@ 000000000007ae48     OpensslLib:obj_dat.obj
 0002:00007e80       ??_C@_0BI@EEABHGCD@Hold?5Instruction?5Reject@ 000000000007ae60     OpensslLib:obj_dat.obj
 0002:00007e98       ??_C@_04PJOLNDGD@data@     000000000007ae78     OpensslLib:obj_dat.obj
 0002:00007ea0       ??_C@_03OHCBHMED@pss@      000000000007ae80     OpensslLib:obj_dat.obj
 0002:00007ea4       ??_C@_03BIDCBJP@ucl@       000000000007ae84     OpensslLib:obj_dat.obj
 0002:00007ea8       ??_C@_05KIBFDOPF@pilot@    000000000007ae88     OpensslLib:obj_dat.obj
 0002:00007eb0       ??_C@_0BD@NEGIHOAI@pilotAttributeType@ 000000000007ae90     OpensslLib:obj_dat.obj
 0002:00007ec8       ??_C@_0BF@CDEFHHCF@pilotAttributeSyntax@ 000000000007aea8     OpensslLib:obj_dat.obj
 0002:00007ee0       ??_C@_0BB@MJFNAIDM@pilotObjectClass@ 000000000007aec0     OpensslLib:obj_dat.obj
 0002:00007ef8       ??_C@_0M@DLMEDAFC@pilotGroups@ 000000000007aed8     OpensslLib:obj_dat.obj
 0002:00007f08       ??_C@_0BA@KPIIGILK@iA5StringSyntax@ 000000000007aee8     OpensslLib:obj_dat.obj
 0002:00007f18       ??_C@_0BK@LELMGJGD@caseIgnoreIA5StringSyntax@ 000000000007aef8     OpensslLib:obj_dat.obj
 0002:00007f38       ??_C@_0M@MCCFCPKP@pilotObject@ 000000000007af18     OpensslLib:obj_dat.obj
 0002:00007f48       ??_C@_0M@NCGDCEIP@pilotPerson@ 000000000007af28     OpensslLib:obj_dat.obj
 0002:00007f58       ??_C@_07PMDLEBNF@account@  000000000007af38     OpensslLib:obj_dat.obj
 0002:00007f60       ??_C@_08JEEDKNPB@document@ 000000000007af40     OpensslLib:obj_dat.obj
 0002:00007f6c       ??_C@_04EKFCMFOP@room@     000000000007af4c     OpensslLib:obj_dat.obj
 0002:00007f78       ??_C@_0P@OAPEDDHP@documentSeries@ 000000000007af58     OpensslLib:obj_dat.obj
 0002:00007f88       ??_C@_0BA@KIAIOBLD@rFC822localPart@ 000000000007af68     OpensslLib:obj_dat.obj
 0002:00007f98       ??_C@_09BOCGGGMK@dNSDomain@ 000000000007af78     OpensslLib:obj_dat.obj
 0002:00007fa8       ??_C@_0BE@OPAPHNCO@domainRelatedObject@ 000000000007af88     OpensslLib:obj_dat.obj
 0002:00007fc0       ??_C@_0BA@LKHIAMBK@friendlyCountry@ 000000000007afa0     OpensslLib:obj_dat.obj
 0002:00007fd0       ??_C@_0BF@CONLNHDI@simpleSecurityObject@ 000000000007afb0     OpensslLib:obj_dat.obj
 0002:00007fe8       ??_C@_0BC@PLDKCMI@pilotOrganization@ 000000000007afc8     OpensslLib:obj_dat.obj
 0002:00008000       ??_C@_08MPJGPMC@pilotDSA@  000000000007afe0     OpensslLib:obj_dat.obj
 0002:00008010       ??_C@_0BE@DDFOMMI@qualityLabelledData@ 000000000007aff0     OpensslLib:obj_dat.obj
 0002:00008024       ??_C@_03MJDGODDN@UID@      000000000007b004     OpensslLib:obj_dat.obj
 0002:00008028       ??_C@_06LPELCIKE@userId@   000000000007b008     OpensslLib:obj_dat.obj
 0002:00008030       ??_C@_0BF@HDIIKJDI@textEncodedORAddress@ 000000000007b010     OpensslLib:obj_dat.obj
 0002:00008048       ??_C@_04FFKLPPHM@mail@     000000000007b028     OpensslLib:obj_dat.obj
 0002:00008050       ??_C@_0O@PDNFEOHL@rfc822Mailbox@ 000000000007b030     OpensslLib:obj_dat.obj
 0002:00008060       ??_C@_04NIDJFNBE@info@     000000000007b040     OpensslLib:obj_dat.obj
 0002:00008068       ??_C@_0P@PAMFCEKP@favouriteDrink@ 000000000007b048     OpensslLib:obj_dat.obj
 0002:00008078       ??_C@_0L@DGKNANFO@roomNumber@ 000000000007b058     OpensslLib:obj_dat.obj
 0002:00008084       ??_C@_05DOIFDPKA@photo@    000000000007b064     OpensslLib:obj_dat.obj
 0002:00008090       ??_C@_09CCPGMHEM@userClass@ 000000000007b070     OpensslLib:obj_dat.obj
 0002:0000809c       ??_C@_04OODOLJMA@host@     000000000007b07c     OpensslLib:obj_dat.obj
 0002:000080a8       ??_C@_07JPLKDPHP@manager@  000000000007b088     OpensslLib:obj_dat.obj
 0002:000080b0       ??_C@_0BD@MEPJGCEO@documentIdentifier@ 000000000007b090     OpensslLib:obj_dat.obj
 0002:000080c8       ??_C@_0O@BDIDABAC@documentTitle@ 000000000007b0a8     OpensslLib:obj_dat.obj
 0002:000080d8       ??_C@_0BA@GHOLKFM@documentVersion@ 000000000007b0b8     OpensslLib:obj_dat.obj
 0002:000080e8       ??_C@_0P@DABDJKFB@documentAuthor@ 000000000007b0c8     OpensslLib:obj_dat.obj
 0002:000080f8       ??_C@_0BB@COFKDFJ@documentLocation@ 000000000007b0d8     OpensslLib:obj_dat.obj
 0002:00008110       ??_C@_0BE@CPLAKLNE@homeTelephoneNumber@ 000000000007b0f0     OpensslLib:obj_dat.obj
 0002:00008128       ??_C@_09EMBFDNKC@secretary@ 000000000007b108     OpensslLib:obj_dat.obj
 0002:00008138       ??_C@_0N@CEOKELFP@otherMailbox@ 000000000007b118     OpensslLib:obj_dat.obj
 0002:00008148       ??_C@_0BB@LHLABCIP@lastModifiedTime@ 000000000007b128     OpensslLib:obj_dat.obj
 0002:00008160       ??_C@_0P@ECLEJAJJ@lastModifiedBy@ 000000000007b140     OpensslLib:obj_dat.obj
 0002:00008170       ??_C@_07IBNMBOJB@aRecord@  000000000007b150     OpensslLib:obj_dat.obj
 0002:00008178       ??_C@_0BF@MIIMJDJB@pilotAttributeType27@ 000000000007b158     OpensslLib:obj_dat.obj
 0002:00008190       ??_C@_08DFFJPLPD@mXRecord@ 000000000007b170     OpensslLib:obj_dat.obj
 0002:000081a0       ??_C@_08FBLONLGA@nSRecord@ 000000000007b180     OpensslLib:obj_dat.obj
 0002:000081b0       ??_C@_09OCFHDJJF@sOARecord@ 000000000007b190     OpensslLib:obj_dat.obj
 0002:000081c0       ??_C@_0M@GHEAGPOE@cNAMERecord@ 000000000007b1a0     OpensslLib:obj_dat.obj
 0002:000081d0       ??_C@_0BB@MEFMIBKO@associatedDomain@ 000000000007b1b0     OpensslLib:obj_dat.obj
 0002:000081e8       ??_C@_0P@OJOOFNGB@associatedName@ 000000000007b1c8     OpensslLib:obj_dat.obj
 0002:000081f8       ??_C@_0BC@NPJKACJF@homePostalAddress@ 000000000007b1d8     OpensslLib:obj_dat.obj
 0002:00008210       ??_C@_0O@CCHLDBGG@personalTitle@ 000000000007b1f0     OpensslLib:obj_dat.obj
 0002:00008220       ??_C@_0BG@DCPABLLG@mobileTelephoneNumber@ 000000000007b200     OpensslLib:obj_dat.obj
 0002:00008238       ??_C@_0BF@JICDDEFM@pagerTelephoneNumber@ 000000000007b218     OpensslLib:obj_dat.obj
 0002:00008250       ??_C@_0BE@MGDAFGCM@friendlyCountryName@ 000000000007b230     OpensslLib:obj_dat.obj
 0002:00008268       ??_C@_0BF@IANLBJMF@organizationalStatus@ 000000000007b248     OpensslLib:obj_dat.obj
 0002:00008280       ??_C@_0N@DGNBNBGJ@janetMailbox@ 000000000007b260     OpensslLib:obj_dat.obj
 0002:00008290       ??_C@_0BF@OFOHKDCI@mailPreferenceOption@ 000000000007b270     OpensslLib:obj_dat.obj
 0002:000082a8       ??_C@_0N@POAALOHC@buildingName@ 000000000007b288     OpensslLib:obj_dat.obj
 0002:000082b8       ??_C@_0L@LMCCHBHL@dSAQuality@ 000000000007b298     OpensslLib:obj_dat.obj
 0002:000082c8       ??_C@_0BD@EHDOPADK@singleLevelQuality@ 000000000007b2a8     OpensslLib:obj_dat.obj
 0002:000082e0       ??_C@_0BG@HMOECBMF@subtreeMinimumQuality@ 000000000007b2c0     OpensslLib:obj_dat.obj
 0002:000082f8       ??_C@_0BG@FLFPEGPE@subtreeMaximumQuality@ 000000000007b2d8     OpensslLib:obj_dat.obj
 0002:00008310       ??_C@_0BC@CBOFINFC@personalSignature@ 000000000007b2f0     OpensslLib:obj_dat.obj
 0002:00008328       ??_C@_0M@KIABODOB@dITRedirect@ 000000000007b308     OpensslLib:obj_dat.obj
 0002:00008334       ??_C@_05KNIAAKIP@audio@    000000000007b314     OpensslLib:obj_dat.obj
 0002:00008340       ??_C@_0BC@KCCHJGGO@documentPublisher@ 000000000007b320     OpensslLib:obj_dat.obj
 0002:00008358       ??_C@_0BF@EFCCADKK@x500UniqueIdentifier@ 000000000007b338     OpensslLib:obj_dat.obj
 0002:00008370       ??_C@_08HLONPBDI@mime?9mhs@ 000000000007b350     OpensslLib:obj_dat.obj
 0002:00008380       ??_C@_08DNBACEKK@MIME?5MHS@ 000000000007b360     OpensslLib:obj_dat.obj
 0002:00008390       ??_C@_0BC@NIFMCBEJ@mime?9mhs?9headings@ 000000000007b370     OpensslLib:obj_dat.obj
 0002:000083a8       ??_C@_0BA@MOFCNIEE@mime?9mhs?9bodies@ 000000000007b388     OpensslLib:obj_dat.obj
 0002:000083b8       ??_C@_0BH@ILCJEHBB@id?9hex?9partial?9message@ 000000000007b398     OpensslLib:obj_dat.obj
 0002:000083d0       ??_C@_0BJ@KCNAIDP@id?9hex?9multipart?9message@ 000000000007b3b0     OpensslLib:obj_dat.obj
 0002:000083f0       ??_C@_0BE@DAEHFOO@generationQualifier@ 000000000007b3d0     OpensslLib:obj_dat.obj
 0002:00008408       ??_C@_09NNMENHIH@pseudonym@ 000000000007b3e8     OpensslLib:obj_dat.obj
 0002:00008414       ??_C@_06KKEMDFAF@id?9set@  000000000007b3f4     OpensslLib:obj_dat.obj
 0002:00008420       ??_C@_0BP@KEIHJPNF@Secure?5Electronic?5Transactions@ 000000000007b400     OpensslLib:obj_dat.obj
 0002:00008440       ??_C@_09EJPBIJJA@set?9ctype@ 000000000007b420     OpensslLib:obj_dat.obj
 0002:00008450       ??_C@_0O@HJGLMADJ@content?5types@ 000000000007b430     OpensslLib:obj_dat.obj
 0002:00008460       ??_C@_0L@PKPEIEIJ@set?9msgExt@ 000000000007b440     OpensslLib:obj_dat.obj
 0002:00008470       ??_C@_0BD@LEIDLLNO@message?5extensions@ 000000000007b450     OpensslLib:obj_dat.obj
 0002:00008488       ??_C@_08OFDIOKIA@set?9attr@ 000000000007b468     OpensslLib:obj_dat.obj
 0002:00008498       ??_C@_0L@LAAAKICM@set?9policy@ 000000000007b478     OpensslLib:obj_dat.obj
 0002:000084a8       ??_C@_0M@KEIBDDC@set?9certExt@ 000000000007b488     OpensslLib:obj_dat.obj
 0002:000084b8       ??_C@_0BH@PDPIEGPA@certificate?5extensions@ 000000000007b498     OpensslLib:obj_dat.obj
 0002:000084d0       ??_C@_09JHODGPNO@set?9brand@ 000000000007b4b0     OpensslLib:obj_dat.obj
 0002:000084e0       ??_C@_0O@EKAPGBNN@setct?9PANData@ 000000000007b4c0     OpensslLib:obj_dat.obj
 0002:000084f0       ??_C@_0P@LAMDLEMO@setct?9PANToken@ 000000000007b4d0     OpensslLib:obj_dat.obj
 0002:00008500       ??_C@_0O@PFJCCKAL@setct?9PANOnly@ 000000000007b4e0     OpensslLib:obj_dat.obj
 0002:00008510       ??_C@_0N@GHLAGDMC@setct?9OIData@ 000000000007b4f0     OpensslLib:obj_dat.obj
 0002:00008520       ??_C@_08MNJJNIEC@setct?9PI@ 000000000007b500     OpensslLib:obj_dat.obj
 0002:00008530       ??_C@_0N@PGCGIPOF@setct?9PIData@ 000000000007b510     OpensslLib:obj_dat.obj
 0002:00008540       ??_C@_0BF@BDFGFMFJ@setct?9PIDataUnsigned@ 000000000007b520     OpensslLib:obj_dat.obj
 0002:00008558       ??_C@_0P@LPBKKIBL@setct?9HODInput@ 000000000007b538     OpensslLib:obj_dat.obj
 0002:00008568       ??_C@_0BF@EFHLGKOJ@setct?9AuthResBaggage@ 000000000007b548     OpensslLib:obj_dat.obj
 0002:00008580       ??_C@_0BI@DEMAFNK@setct?9AuthRevReqBaggage@ 000000000007b560     OpensslLib:obj_dat.obj
 0002:00008598       ??_C@_0BI@CNLKCNFM@setct?9AuthRevResBaggage@ 000000000007b578     OpensslLib:obj_dat.obj
 0002:000085b0       ??_C@_0BC@DDFFKACM@setct?9CapTokenSeq@ 000000000007b590     OpensslLib:obj_dat.obj
 0002:000085c8       ??_C@_0BD@GIEGHJGD@setct?9PInitResData@ 000000000007b5a8     OpensslLib:obj_dat.obj
 0002:000085e0       ??_C@_0N@GIGHFPBJ@setct?9PI?9TBS@ 000000000007b5c0     OpensslLib:obj_dat.obj
 0002:000085f0       ??_C@_0P@NGDEPBBH@setct?9PResData@ 000000000007b5d0     OpensslLib:obj_dat.obj
 0002:00008600       ??_C@_0BB@OFKINDPN@setct?9AuthReqTBS@ 000000000007b5e0     OpensslLib:obj_dat.obj
 0002:00008618       ??_C@_0BB@JPGIIAJN@setct?9AuthResTBS@ 000000000007b5f8     OpensslLib:obj_dat.obj
 0002:00008630       ??_C@_0BC@PMEDFACF@setct?9AuthResTBSX@ 000000000007b610     OpensslLib:obj_dat.obj
 0002:00008648       ??_C@_0BD@CLPECGHJ@setct?9AuthTokenTBS@ 000000000007b628     OpensslLib:obj_dat.obj
 0002:00008660       ??_C@_0BD@BFGEHNIL@setct?9CapTokenData@ 000000000007b640     OpensslLib:obj_dat.obj
 0002:00008678       ??_C@_0BC@DEDCIONA@setct?9CapTokenTBS@ 000000000007b658     OpensslLib:obj_dat.obj
 0002:00008690       ??_C@_0BF@LAOAGKEH@setct?9AcqCardCodeMsg@ 000000000007b670     OpensslLib:obj_dat.obj
 0002:000086a8       ??_C@_0BE@KBFOOHGF@setct?9AuthRevReqTBS@ 000000000007b688     OpensslLib:obj_dat.obj
 0002:000086c0       ??_C@_0BF@ODDCPHOK@setct?9AuthRevResData@ 000000000007b6a0     OpensslLib:obj_dat.obj
 0002:000086d8       ??_C@_0BE@NLJOLEAF@setct?9AuthRevResTBS@ 000000000007b6b8     OpensslLib:obj_dat.obj
 0002:000086f0       ??_C@_0BA@KCAOGCKM@setct?9CapReqTBS@ 000000000007b6d0     OpensslLib:obj_dat.obj
 0002:00008700       ??_C@_0BB@KNKADGPN@setct?9CapReqTBSX@ 000000000007b6e0     OpensslLib:obj_dat.obj
 0002:00008718       ??_C@_0BB@BIJNNHL@setct?9CapResData@ 000000000007b6f8     OpensslLib:obj_dat.obj
 0002:00008730       ??_C@_0BD@OELDKIB@setct?9CapRevReqTBS@ 000000000007b710     OpensslLib:obj_dat.obj
 0002:00008748       ??_C@_0BE@OINDCPNA@setct?9CapRevReqTBSX@ 000000000007b728     OpensslLib:obj_dat.obj
 0002:00008760       ??_C@_0BE@EEPKMEFG@setct?9CapRevResData@ 000000000007b740     OpensslLib:obj_dat.obj
 0002:00008778       ??_C@_0BB@LDAMDCDI@setct?9CredReqTBS@ 000000000007b758     OpensslLib:obj_dat.obj
 0002:00008790       ??_C@_0BC@FKNDGDPA@setct?9CredReqTBSX@ 000000000007b770     OpensslLib:obj_dat.obj
 0002:000087a8       ??_C@_0BC@PGPKIIHG@setct?9CredResData@ 000000000007b788     OpensslLib:obj_dat.obj
 0002:000087c0       ??_C@_0BE@KAOEBGME@setct?9CredRevReqTBS@ 000000000007b7a0     OpensslLib:obj_dat.obj
 0002:000087d8       ??_C@_0BF@OOMLDFOD@setct?9CredRevReqTBSX@ 000000000007b7b8     OpensslLib:obj_dat.obj
 0002:000087f0       ??_C@_0BF@ECOCNOGF@setct?9CredRevResData@ 000000000007b7d0     OpensslLib:obj_dat.obj
 0002:00008808       ??_C@_0BD@DDNGMNFC@setct?9PCertReqData@ 000000000007b7e8     OpensslLib:obj_dat.obj
 0002:00008820       ??_C@_0BC@CFHCKIIA@setct?9PCertResTBS@ 000000000007b800     OpensslLib:obj_dat.obj
 0002:00008838       ??_C@_0BI@MKKDKHGI@setct?9BatchAdminReqData@ 000000000007b818     OpensslLib:obj_dat.obj
 0002:00008850       ??_C@_0BI@IHGLAGGD@setct?9BatchAdminResData@ 000000000007b830     OpensslLib:obj_dat.obj
 0002:00008868       ??_C@_0BG@OMHIHPPP@setct?9CardCInitResTBS@ 000000000007b848     OpensslLib:obj_dat.obj
 0002:00008880       ??_C@_0BG@DIBJJIJB@setct?9MeAqCInitResTBS@ 000000000007b860     OpensslLib:obj_dat.obj
 0002:00008898       ??_C@_0BE@KOFLJLPI@setct?9RegFormResTBS@ 000000000007b878     OpensslLib:obj_dat.obj
 0002:000088b0       ??_C@_0BC@FFENCANF@setct?9CertReqData@ 000000000007b890     OpensslLib:obj_dat.obj
 0002:000088c8       ??_C@_0BB@MCGELGDK@setct?9CertReqTBS@ 000000000007b8a8     OpensslLib:obj_dat.obj
 0002:000088e0       ??_C@_0BC@BIIFIBNO@setct?9CertResData@ 000000000007b8c0     OpensslLib:obj_dat.obj
 0002:000088f8       ??_C@_0BE@OIDIJLCF@setct?9CertInqReqTBS@ 000000000007b8d8     OpensslLib:obj_dat.obj
 0002:00008910       ??_C@_0P@DLHKHMDJ@setct?9ErrorTBS@ 000000000007b8f0     OpensslLib:obj_dat.obj
 0002:00008920       ??_C@_0BG@JDDNBPAG@setct?9PIDualSignedTBE@ 000000000007b900     OpensslLib:obj_dat.obj
 0002:00008938       ??_C@_0BE@IBOAPLDD@setct?9PIUnsignedTBE@ 000000000007b918     OpensslLib:obj_dat.obj
 0002:00008950       ??_C@_0BB@PJDAGGCK@setct?9AuthReqTBE@ 000000000007b930     OpensslLib:obj_dat.obj
 0002:00008968       ??_C@_0BB@IDPADFEK@setct?9AuthResTBE@ 000000000007b948     OpensslLib:obj_dat.obj
 0002:00008980       ??_C@_0BC@OEOIIPOH@setct?9AuthResTBEX@ 000000000007b960     OpensslLib:obj_dat.obj
 0002:00008998       ??_C@_0BD@DHGMJDKO@setct?9AuthTokenTBE@ 000000000007b978     OpensslLib:obj_dat.obj
 0002:000089b0       ??_C@_0BC@CIKKDLAH@setct?9CapTokenTBE@ 000000000007b990     OpensslLib:obj_dat.obj
 0002:000089c8       ??_C@_0BD@OMCOOIME@setct?9CapTokenTBEX@ 000000000007b9a8     OpensslLib:obj_dat.obj
 0002:000089e0       ??_C@_0BI@PALCIALL@setct?9AcqCardCodeMsgTBE@ 000000000007b9c0     OpensslLib:obj_dat.obj
 0002:000089f8       ??_C@_0BE@LNMGFCLC@setct?9AuthRevReqTBE@ 000000000007b9d8     OpensslLib:obj_dat.obj
 0002:00008a10       ??_C@_0BE@MHAGABNC@setct?9AuthRevResTBE@ 000000000007b9f0     OpensslLib:obj_dat.obj
 0002:00008a28       ??_C@_0BF@KKFFJIHO@setct?9AuthRevResTBEB@ 000000000007ba08     OpensslLib:obj_dat.obj
 0002:00008a40       ??_C@_0BA@LOJGNHHL@setct?9CapReqTBE@ 000000000007ba20     OpensslLib:obj_dat.obj
 0002:00008a50       ??_C@_0BB@LFALOJDP@setct?9CapReqTBEX@ 000000000007ba30     OpensslLib:obj_dat.obj
 0002:00008a68       ??_C@_0BA@MEFGIEBL@setct?9CapResTBE@ 000000000007ba48     OpensslLib:obj_dat.obj
 0002:00008a78       ??_C@_0BD@BCNDIPFG@setct?9CapRevReqTBE@ 000000000007ba58     OpensslLib:obj_dat.obj
 0002:00008a90       ??_C@_0BE@PAHIPABC@setct?9CapRevReqTBEX@ 000000000007ba70     OpensslLib:obj_dat.obj
 0002:00008aa8       ??_C@_0BD@GIBDNMDG@setct?9CapRevResTBE@ 000000000007ba88     OpensslLib:obj_dat.obj
 0002:00008ac0       ??_C@_0BB@KPJEIHOP@setct?9CredReqTBE@ 000000000007baa0     OpensslLib:obj_dat.obj
 0002:00008ad8       ??_C@_0BC@ECHILMDC@setct?9CredReqTBEX@ 000000000007bab8     OpensslLib:obj_dat.obj
 0002:00008af0       ??_C@_0BB@NFFENEIP@setct?9CredResTBE@ 000000000007bad0     OpensslLib:obj_dat.obj
 0002:00008b08       ??_C@_0BE@LMHMKDBD@setct?9CredRevReqTBE@ 000000000007bae8     OpensslLib:obj_dat.obj
 0002:00008b20       ??_C@_0BF@PGGAOKCB@setct?9CredRevReqTBEX@ 000000000007bb00     OpensslLib:obj_dat.obj
 0002:00008b38       ??_C@_0BE@MGLMPAHD@setct?9CredRevResTBE@ 000000000007bb18     OpensslLib:obj_dat.obj
 0002:00008b50       ??_C@_0BH@IPJPBLKL@setct?9BatchAdminReqTBE@ 000000000007bb30     OpensslLib:obj_dat.obj
 0002:00008b68       ??_C@_0BH@PFFPEIML@setct?9BatchAdminResTBE@ 000000000007bb48     OpensslLib:obj_dat.obj
 0002:00008b80       ??_C@_0BE@MIADHNEP@setct?9RegFormReqTBE@ 000000000007bb60     OpensslLib:obj_dat.obj
 0002:00008b98       ??_C@_0BB@NOPMADON@setct?9CertReqTBE@ 000000000007bb78     OpensslLib:obj_dat.obj
 0002:00008bb0       ??_C@_0BC@KMAHLFJK@setct?9CertReqTBEX@ 000000000007bb90     OpensslLib:obj_dat.obj
 0002:00008bc8       ??_C@_0BB@KEDMFAIN@setct?9CertResTBE@ 000000000007bba8     OpensslLib:obj_dat.obj
 0002:00008be0       ??_C@_0BJ@KMIJGANO@setct?9CRLNotificationTBS@ 000000000007bbc0     OpensslLib:obj_dat.obj
 0002:00008c00       ??_C@_0BM@GINBKIMJ@setct?9CRLNotificationResTBS@ 000000000007bbe0     OpensslLib:obj_dat.obj
 0002:00008c20       ??_C@_0BJ@BPGLEKIJ@setct?9BCIDistributionTBS@ 000000000007bc00     OpensslLib:obj_dat.obj
 0002:00008c40       ??_C@_0BA@NKJJMGPC@setext?9genCrypt@ 000000000007bc20     OpensslLib:obj_dat.obj
 0002:00008c50       ??_C@_0BD@IMJHIOH@generic?5cryptogram@ 000000000007bc30     OpensslLib:obj_dat.obj
 0002:00008c68       ??_C@_0O@IFMPKKOL@setext?9miAuth@ 000000000007bc48     OpensslLib:obj_dat.obj
 0002:00008c78       ??_C@_0BI@IMGNFPLI@merchant?5initiated?5auth@ 000000000007bc58     OpensslLib:obj_dat.obj
 0002:00008c90       ??_C@_0BB@IKLFBNP@setext?9pinSecure@ 000000000007bc70     OpensslLib:obj_dat.obj
 0002:00008ca8       ??_C@_0O@PNHGIFHA@setext?9pinAny@ 000000000007bc88     OpensslLib:obj_dat.obj
 0002:00008cb8       ??_C@_0O@PNAFPHHK@setext?9track2@ 000000000007bc98     OpensslLib:obj_dat.obj
 0002:00008cc8       ??_C@_09GMOEIEJI@setext?9cv@ 000000000007bca8     OpensslLib:obj_dat.obj
 0002:00008cd8       ??_C@_0BI@MFPOFNGC@additional?5verification@ 000000000007bcb8     OpensslLib:obj_dat.obj
 0002:00008cf0       ??_C@_0BA@DLJGCPKK@set?9policy?9root@ 000000000007bcd0     OpensslLib:obj_dat.obj
 0002:00008d00       ??_C@_0BD@MELPLACB@setCext?9hashedRoot@ 000000000007bce0     OpensslLib:obj_dat.obj
 0002:00008d18       ??_C@_0BB@LHGCHNFD@setCext?9certType@ 000000000007bcf8     OpensslLib:obj_dat.obj
 0002:00008d30       ??_C@_0BC@ONMLOIHK@setCext?9merchData@ 000000000007bd10     OpensslLib:obj_dat.obj
 0002:00008d48       ??_C@_0BG@CMNKGOHO@setCext?9cCertRequired@ 000000000007bd28     OpensslLib:obj_dat.obj
 0002:00008d60       ??_C@_0BC@BPADJLFJ@setCext?9tunneling@ 000000000007bd40     OpensslLib:obj_dat.obj
 0002:00008d78       ??_C@_0P@DFHCPLJG@setCext?9setExt@ 000000000007bd58     OpensslLib:obj_dat.obj
 0002:00008d88       ??_C@_0BB@HIAOOOIO@setCext?9setQualf@ 000000000007bd68     OpensslLib:obj_dat.obj
 0002:00008da0       ??_C@_0BJ@CNLNHONG@setCext?9PGWYcapabilities@ 000000000007bd80     OpensslLib:obj_dat.obj
 0002:00008dc0       ??_C@_0BI@FIIEHNL@setCext?9TokenIdentifier@ 000000000007bda0     OpensslLib:obj_dat.obj
 0002:00008dd8       ??_C@_0BD@FHFLAKJD@setCext?9Track2Data@ 000000000007bdb8     OpensslLib:obj_dat.obj
 0002:00008df0       ??_C@_0BC@KMFGLCBL@setCext?9TokenType@ 000000000007bdd0     OpensslLib:obj_dat.obj
 0002:00008e08       ??_C@_0BL@OLCLGJDA@setCext?9IssuerCapabilities@ 000000000007bde8     OpensslLib:obj_dat.obj
 0002:00008e28       ??_C@_0N@DCNKAAPN@setAttr?9Cert@ 000000000007be08     OpensslLib:obj_dat.obj
 0002:00008e38       ??_C@_0BA@FAIFDKDK@setAttr?9PGWYcap@ 000000000007be18     OpensslLib:obj_dat.obj
 0002:00008e48       ??_C@_0BN@HEFBDPEB@payment?5gateway?5capabilities@ 000000000007be28     OpensslLib:obj_dat.obj
 0002:00008e68       ??_C@_0BC@IKOKMCIL@setAttr?9TokenType@ 000000000007be48     OpensslLib:obj_dat.obj
 0002:00008e80       ??_C@_0P@OGFLCCKL@setAttr?9IssCap@ 000000000007be60     OpensslLib:obj_dat.obj
 0002:00008e90       ??_C@_0BE@HBDPGKCG@issuer?5capabilities@ 000000000007be70     OpensslLib:obj_dat.obj
 0002:00008ea8       ??_C@_0BB@MADMNAKK@set?9rootKeyThumb@ 000000000007be88     OpensslLib:obj_dat.obj
 0002:00008ec0       ??_C@_0O@NOCONBCM@set?9addPolicy@ 000000000007bea0     OpensslLib:obj_dat.obj
 0002:00008ed0       ??_C@_0BC@BMANBENP@setAttr?9Token?9EMV@ 000000000007beb0     OpensslLib:obj_dat.obj
 0002:00008ee8       ??_C@_0BG@ICNBHDJ@setAttr?9Token?9B0Prime@ 000000000007bec8     OpensslLib:obj_dat.obj
 0002:00008f00       ??_C@_0BD@CMJDLAHE@setAttr?9IssCap?9CVM@ 000000000007bee0     OpensslLib:obj_dat.obj
 0002:00008f18       ??_C@_0BC@FKLLNJMF@setAttr?9IssCap?9T2@ 000000000007bef8     OpensslLib:obj_dat.obj
 0002:00008f30       ??_C@_0BD@DMNGIJGO@setAttr?9IssCap?9Sig@ 000000000007bf10     OpensslLib:obj_dat.obj
 0002:00008f48       ??_C@_0BE@FJCINFHM@setAttr?9GenCryptgrm@ 000000000007bf28     OpensslLib:obj_dat.obj
 0002:00008f60       ??_C@_0BE@BANBLNDJ@generate?5cryptogram@ 000000000007bf40     OpensslLib:obj_dat.obj
 0002:00008f78       ??_C@_0O@GFEDKLID@setAttr?9T2Enc@ 000000000007bf58     OpensslLib:obj_dat.obj
 0002:00008f88       ??_C@_0BC@MCHFBPJF@encrypted?5track?52@ 000000000007bf68     OpensslLib:obj_dat.obj
 0002:00008fa0       ??_C@_0BD@GDDCOMNC@setAttr?9T2cleartxt@ 000000000007bf80     OpensslLib:obj_dat.obj
 0002:00008fb8       ??_C@_0BC@EEELFHMJ@cleartext?5track?52@ 000000000007bf98     OpensslLib:obj_dat.obj
 0002:00008fd0       ??_C@_0BC@KFHJNGAA@setAttr?9TokICCsig@ 000000000007bfb0     OpensslLib:obj_dat.obj
 0002:00008fe8       ??_C@_0BH@FLMFBHA@ICC?5or?5token?5signature@ 000000000007bfc8     OpensslLib:obj_dat.obj
 0002:00009000       ??_C@_0BC@HILPEDHB@setAttr?9SecDevSig@ 000000000007bfe0     OpensslLib:obj_dat.obj
 0002:00009018       ??_C@_0BI@BMDLNIII@secure?5device?5signature@ 000000000007bff8     OpensslLib:obj_dat.obj
 0002:00009030       ??_C@_0BD@EBDAHFCK@set?9brand?9IATA?9ATA@ 000000000007c010     OpensslLib:obj_dat.obj
 0002:00009048       ??_C@_0BB@MJOMIBOM@set?9brand?9Diners@ 000000000007c028     OpensslLib:obj_dat.obj
 0002:00009060       ??_C@_0BK@NGHCPIFJ@set?9brand?9AmericanExpress@ 000000000007c040     OpensslLib:obj_dat.obj
 0002:00009080       ??_C@_0O@ODFDKJIN@set?9brand?9JCB@ 000000000007c060     OpensslLib:obj_dat.obj
 0002:00009090       ??_C@_0P@KADKEMKM@set?9brand?9Visa@ 000000000007c070     OpensslLib:obj_dat.obj
 0002:000090a0       ??_C@_0BF@EKCBHCKG@set?9brand?9MasterCard@ 000000000007c080     OpensslLib:obj_dat.obj
 0002:000090b8       ??_C@_0BA@JHOGHBHC@set?9brand?9Novus@ 000000000007c098     OpensslLib:obj_dat.obj
 0002:000090c8       ??_C@_08IHLOILPC@DES?9CDMF@ 000000000007c0a8     OpensslLib:obj_dat.obj
 0002:000090d8       ??_C@_08PPLOLAOD@des?9cdmf@ 000000000007c0b8     OpensslLib:obj_dat.obj
 0002:000090e8       ??_C@_0BF@EIIDBKMM@rsaOAEPEncryptionSET@ 000000000007c0c8     OpensslLib:obj_dat.obj
 0002:00009100       ??_C@_05LJGINOIA@ITU?9T@   000000000007c0e0     OpensslLib:obj_dat.obj
 0002:00009108       ??_C@_05EKLDHPCO@itu?9t@   000000000007c0e8     OpensslLib:obj_dat.obj
 0002:00009110       ??_C@_0BA@NPJCPIN@JOINT?9ISO?9ITU?9T@ 000000000007c0f0     OpensslLib:obj_dat.obj
 0002:00009120       ??_C@_0BA@DDCJMADA@joint?9iso?9itu?9t@ 000000000007c100     OpensslLib:obj_dat.obj
 0002:00009130       ??_C@_0BM@PBBEOBAP@international?9organizations@ 000000000007c110     OpensslLib:obj_dat.obj
 0002:00009150       ??_C@_0BM@PGMBEIHL@International?5Organizations@ 000000000007c130     OpensslLib:obj_dat.obj
 0002:00009170       ??_C@_0BB@MJPMDGHF@msSmartcardLogin@ 000000000007c150     OpensslLib:obj_dat.obj
 0002:00009188       ??_C@_0BK@BJLJNHIE@Microsoft?5Smartcard?5Login@ 000000000007c168     OpensslLib:obj_dat.obj
 0002:000091a4       ??_C@_05LKLAGLGM@msUPN@    000000000007c184     OpensslLib:obj_dat.obj
 0002:000091b0       ??_C@_0BO@NJMDLJHK@Microsoft?5User?5Principal?5Name@ 000000000007c190     OpensslLib:obj_dat.obj
 0002:000091d0       ??_C@_0N@KJNMAENO@AES?9128?9CFB1@ 000000000007c1b0     OpensslLib:obj_dat.obj
 0002:000091e0       ??_C@_0N@NNLBNNNO@aes?9128?9cfb1@ 000000000007c1c0     OpensslLib:obj_dat.obj
 0002:000091f0       ??_C@_0N@FAMGEHMG@AES?9192?9CFB1@ 000000000007c1d0     OpensslLib:obj_dat.obj
 0002:00009200       ??_C@_0N@CEKLJOMG@aes?9192?9cfb1@ 000000000007c1e0     OpensslLib:obj_dat.obj
 0002:00009210       ??_C@_0N@MKKLEKFP@AES?9256?9CFB1@ 000000000007c1f0     OpensslLib:obj_dat.obj
 0002:00009220       ??_C@_0N@LOMGJDFP@aes?9256?9cfb1@ 000000000007c200     OpensslLib:obj_dat.obj
 0002:00009230       ??_C@_0N@HIBOLPJH@AES?9128?9CFB8@ 000000000007c210     OpensslLib:obj_dat.obj
 0002:00009240       ??_C@_0N@MHDGGJH@aes?9128?9cfb8@ 000000000007c220     OpensslLib:obj_dat.obj
 0002:00009250       ??_C@_0N@IBAEPMIP@AES?9192?9CFB8@ 000000000007c230     OpensslLib:obj_dat.obj
 0002:00009260       ??_C@_0N@PFGJCFIP@aes?9192?9cfb8@ 000000000007c240     OpensslLib:obj_dat.obj
 0002:00009270       ??_C@_0N@BLGJPBBG@AES?9256?9CFB8@ 000000000007c250     OpensslLib:obj_dat.obj
 0002:00009280       ??_C@_0N@GPAECIBG@aes?9256?9cfb8@ 000000000007c260     OpensslLib:obj_dat.obj
 0002:00009290       ??_C@_08EGJFOLHF@DES?9CFB1@ 000000000007c270     OpensslLib:obj_dat.obj
 0002:000092a0       ??_C@_08KLBBPEMG@des?9cfb1@ 000000000007c280     OpensslLib:obj_dat.obj
 0002:000092b0       ??_C@_08JHFHFADM@DES?9CFB8@ 000000000007c290     OpensslLib:obj_dat.obj
 0002:000092c0       ??_C@_08HKNDEPIP@des?9cfb8@ 000000000007c2a0     OpensslLib:obj_dat.obj
 0002:000092d0       ??_C@_0O@HMFIBGGD@DES?9EDE3?9CFB1@ 000000000007c2b0     OpensslLib:obj_dat.obj
 0002:000092e0       ??_C@_0O@HHBHNLEJ@des?9ede3?9cfb1@ 000000000007c2c0     OpensslLib:obj_dat.obj
 0002:000092f0       ??_C@_0O@KNJKKNCK@DES?9EDE3?9CFB8@ 000000000007c2d0     OpensslLib:obj_dat.obj
 0002:00009300       ??_C@_0O@KGNFGAAA@des?9ede3?9cfb8@ 000000000007c2e0     OpensslLib:obj_dat.obj
 0002:00009310       ??_C@_06KFAFKEEH@street@   000000000007c2f0     OpensslLib:obj_dat.obj
 0002:00009318       ??_C@_0O@GFJANBCD@streetAddress@ 000000000007c2f8     OpensslLib:obj_dat.obj
 0002:00009328       ??_C@_0L@NCDHJCMF@postalCode@ 000000000007c308     OpensslLib:obj_dat.obj
 0002:00009334       ??_C@_06CAAPGDCJ@id?9ppl@  000000000007c314     OpensslLib:obj_dat.obj
 0002:00009340       ??_C@_0O@LOINHHBF@proxyCertInfo@ 000000000007c320     OpensslLib:obj_dat.obj
 0002:00009350       ??_C@_0BO@CCHFGBDO@Proxy?5Certificate?5Information@ 000000000007c330     OpensslLib:obj_dat.obj
 0002:00009370       ??_C@_0BD@HNCKDFAM@id?9ppl?9anyLanguage@ 000000000007c350     OpensslLib:obj_dat.obj
 0002:00009388       ??_C@_0N@BEBFEGLC@Any?5language@ 000000000007c368     OpensslLib:obj_dat.obj
 0002:00009398       ??_C@_0BC@PCEJIIF@id?9ppl?9inheritAll@ 000000000007c378     OpensslLib:obj_dat.obj
 0002:000093b0       ??_C@_0M@FFLAPACB@Inherit?5all@ 000000000007c390     OpensslLib:obj_dat.obj
 0002:000093c0       ??_C@_0BA@NDBMPGLN@nameConstraints@ 000000000007c3a0     OpensslLib:obj_dat.obj
 0002:000093d0       ??_C@_0BI@MLJLAGL@X509v3?5Name?5Constraints@ 000000000007c3b0     OpensslLib:obj_dat.obj
 0002:000093e8       ??_C@_0BD@JMNHHICP@id?9ppl?9independent@ 000000000007c3c8     OpensslLib:obj_dat.obj
 0002:00009400       ??_C@_0M@MLMKHJLC@Independent@ 000000000007c3e0     OpensslLib:obj_dat.obj
 0002:00009410       ??_C@_0L@CICIPLII@RSA?9SHA256@ 000000000007c3f0     OpensslLib:obj_dat.obj
 0002:00009420       ??_C@_0BI@OLMNBFHG@sha256WithRSAEncryption@ 000000000007c400     OpensslLib:obj_dat.obj
 0002:00009438       ??_C@_0L@KKHKGNDM@RSA?9SHA384@ 000000000007c418     OpensslLib:obj_dat.obj
 0002:00009448       ??_C@_0BI@LGPCJGLE@sha384WithRSAEncryption@ 000000000007c428     OpensslLib:obj_dat.obj
 0002:00009460       ??_C@_0L@NGJKKOOJ@RSA?9SHA512@ 000000000007c440     OpensslLib:obj_dat.obj
 0002:00009470       ??_C@_0BI@CFKPHFJF@sha512WithRSAEncryption@ 000000000007c450     OpensslLib:obj_dat.obj
 0002:00009488       ??_C@_0L@BPFBIPIP@RSA?9SHA224@ 000000000007c468     OpensslLib:obj_dat.obj
 0002:00009498       ??_C@_0BI@HODNLFBE@sha224WithRSAEncryption@ 000000000007c478     OpensslLib:obj_dat.obj
 0002:000094b0       ??_C@_06HKIKMHH@SHA256@    000000000007c490     OpensslLib:obj_dat.obj
 0002:000094b8       ??_C@_06OHILPNJ@sha256@    000000000007c498     OpensslLib:obj_dat.obj
 0002:000094c0       ??_C@_06IFPKDKMD@SHA384@   000000000007c4a0     OpensslLib:obj_dat.obj
 0002:000094c8       ??_C@_06IMCKCJGN@sha384@   000000000007c4a8     OpensslLib:obj_dat.obj
 0002:000094d0       ??_C@_06PJBKPJBG@SHA512@   000000000007c4b0     OpensslLib:obj_dat.obj
 0002:000094d8       ??_C@_06PAMKOKLI@sha512@   000000000007c4b8     OpensslLib:obj_dat.obj
 0002:000094e0       ??_C@_06DANBNIHA@SHA224@   000000000007c4c0     OpensslLib:obj_dat.obj
 0002:000094e8       ??_C@_06DJABMLNO@sha224@   000000000007c4c8     OpensslLib:obj_dat.obj
 0002:000094f0       ??_C@_0BI@NDBFOMIA@identified?9organization@ 000000000007c4d0     OpensslLib:obj_dat.obj
 0002:00009508       ??_C@_0N@GOPBJFID@certicom?9arc@ 000000000007c4e8     OpensslLib:obj_dat.obj
 0002:00009518       ??_C@_03EOHJGACH@wap@      000000000007c4f8     OpensslLib:obj_dat.obj
 0002:00009520       ??_C@_07KJBJKKHG@wap?9wsg@ 000000000007c500     OpensslLib:obj_dat.obj
 0002:00009528       ??_C@_0BM@PPOCDOAJ@id?9characteristic?9two?9basis@ 000000000007c508     OpensslLib:obj_dat.obj
 0002:00009548       ??_C@_07JEMDIFEL@onBasis@  000000000007c528     OpensslLib:obj_dat.obj
 0002:00009550       ??_C@_07ICPDEPKF@tpBasis@  000000000007c530     OpensslLib:obj_dat.obj
 0002:00009558       ??_C@_07GLJEBFP@ppBasis@   000000000007c538     OpensslLib:obj_dat.obj
 0002:00009560       ??_C@_0L@INFLBNIO@c2pnb163v1@ 000000000007c540     OpensslLib:obj_dat.obj
 0002:00009570       ??_C@_0L@KGHGEOEN@c2pnb163v2@ 000000000007c550     OpensslLib:obj_dat.obj
 0002:00009580       ??_C@_0L@LPGNHPAM@c2pnb163v3@ 000000000007c560     OpensslLib:obj_dat.obj
 0002:00009590       ??_C@_0L@IHOFMEAM@c2pnb176v1@ 000000000007c570     OpensslLib:obj_dat.obj
 0002:000095a0       ??_C@_0L@PIOOBDNI@c2tnb191v1@ 000000000007c580     OpensslLib:obj_dat.obj
 0002:000095b0       ??_C@_0L@NDMDEABL@c2tnb191v2@ 000000000007c590     OpensslLib:obj_dat.obj
 0002:000095c0       ??_C@_0L@MKNIHBFK@c2tnb191v3@ 000000000007c5a0     OpensslLib:obj_dat.obj
 0002:000095d0       ??_C@_0L@KLAMDLDB@c2onb191v4@ 000000000007c5b0     OpensslLib:obj_dat.obj
 0002:000095e0       ??_C@_0L@LCBHAKHA@c2onb191v5@ 000000000007c5c0     OpensslLib:obj_dat.obj
 0002:000095f0       ??_C@_0L@FCEMHHLG@c2pnb208w1@ 000000000007c5d0     OpensslLib:obj_dat.obj
 0002:00009600       ??_C@_0L@PBHOFBDI@c2tnb239v1@ 000000000007c5e0     OpensslLib:obj_dat.obj
 0002:00009610       ??_C@_0L@NKFDACPL@c2tnb239v2@ 000000000007c5f0     OpensslLib:obj_dat.obj
 0002:00009620       ??_C@_0L@MDEIDDLK@c2tnb239v3@ 000000000007c600     OpensslLib:obj_dat.obj
 0002:00009630       ??_C@_0L@KCJMHJNB@c2onb239v4@ 000000000007c610     OpensslLib:obj_dat.obj
 0002:00009640       ??_C@_0L@LLIHEIJA@c2onb239v5@ 000000000007c620     OpensslLib:obj_dat.obj
 0002:00009650       ??_C@_0L@IPNBELMC@c2pnb272w1@ 000000000007c630     OpensslLib:obj_dat.obj
 0002:00009660       ??_C@_0L@NDMGBLKL@c2pnb304w1@ 000000000007c640     OpensslLib:obj_dat.obj
 0002:00009670       ??_C@_0L@LFGCHHDN@c2tnb359v1@ 000000000007c650     OpensslLib:obj_dat.obj
 0002:00009680       ??_C@_0L@BGFAFBLD@c2pnb368w1@ 000000000007c660     OpensslLib:obj_dat.obj
 0002:00009690       ??_C@_0L@OFJKDCBG@c2tnb431r1@ 000000000007c670     OpensslLib:obj_dat.obj
 0002:000096a0       ??_C@_09DNJONEBC@secp112r1@ 000000000007c680     OpensslLib:obj_dat.obj
 0002:000096b0       ??_C@_09BGLDIHNB@secp112r2@ 000000000007c690     OpensslLib:obj_dat.obj
 0002:000096c0       ??_C@_09BFIDEOKG@secp128r1@ 000000000007c6a0     OpensslLib:obj_dat.obj
 0002:000096d0       ??_C@_09DOKOBNGF@secp128r2@ 000000000007c6b0     OpensslLib:obj_dat.obj
 0002:000096e0       ??_C@_09DGEAFIHG@secp160k1@ 000000000007c6c0     OpensslLib:obj_dat.obj
 0002:000096f0       ??_C@_09CFLHMAIJ@secp160r1@ 000000000007c6d0     OpensslLib:obj_dat.obj
 0002:00009700       ??_C@_09OJKJDEK@secp160r2@ 000000000007c6e0     OpensslLib:obj_dat.obj
 0002:00009710       ??_C@_09BOBJAHCM@secp192k1@ 000000000007c6f0     OpensslLib:obj_dat.obj
 0002:00009720       ??_C@_09MKDGBLEP@secp224k1@ 000000000007c700     OpensslLib:obj_dat.obj
 0002:00009730       ??_C@_09NJMBIDLA@secp224r1@ 000000000007c710     OpensslLib:obj_dat.obj
 0002:00009740       ??_C@_09NCBPAPNE@secp256k1@ 000000000007c720     OpensslLib:obj_dat.obj
 0002:00009750       ??_C@_09FICNEILE@secp384r1@ 000000000007c730     OpensslLib:obj_dat.obj
 0002:00009760       ??_C@_09PDBKEDDK@secp521r1@ 000000000007c740     OpensslLib:obj_dat.obj
 0002:00009770       ??_C@_09HBGNJHGE@sect113r1@ 000000000007c750     OpensslLib:obj_dat.obj
 0002:00009780       ??_C@_09FKEAMEKH@sect113r2@ 000000000007c760     OpensslLib:obj_dat.obj
 0002:00009790       ??_C@_09KBKEAMIP@sect131r1@ 000000000007c770     OpensslLib:obj_dat.obj
 0002:000097a0       ??_C@_09IKIJFPEM@sect131r2@ 000000000007c780     OpensslLib:obj_dat.obj
 0002:000097b0       ??_C@_09NALKNDIL@sect163k1@ 000000000007c790     OpensslLib:obj_dat.obj
 0002:000097c0       ??_C@_09MDENELHE@sect163r1@ 000000000007c7a0     OpensslLib:obj_dat.obj
 0002:000097d0       ??_C@_09OIGABILH@sect163r2@ 000000000007c7b0     OpensslLib:obj_dat.obj
 0002:000097e0       ??_C@_09EBBNNMKF@sect193r1@ 000000000007c7c0     OpensslLib:obj_dat.obj
 0002:000097f0       ??_C@_09GKDAIPGG@sect193r2@ 000000000007c7d0     OpensslLib:obj_dat.obj
 0002:00009800       ??_C@_09JOMOCOFF@sect233k1@ 000000000007c7e0     OpensslLib:obj_dat.obj
 0002:00009810       ??_C@_09INDJLGKK@sect233r1@ 000000000007c7f0     OpensslLib:obj_dat.obj
 0002:00009820       ??_C@_09PBHDMODB@sect239k1@ 000000000007c800     OpensslLib:obj_dat.obj
 0002:00009830       ??_C@_09OJBOBPEE@sect283k1@ 000000000007c810     OpensslLib:obj_dat.obj
 0002:00009840       ??_C@_09PKOJIHLL@sect283r1@ 000000000007c820     OpensslLib:obj_dat.obj
 0002:00009850       ??_C@_09GAIKFHPM@sect409k1@ 000000000007c830     OpensslLib:obj_dat.obj
 0002:00009860       ??_C@_09HDHNMPAD@sect409r1@ 000000000007c840     OpensslLib:obj_dat.obj
 0002:00009870       ??_C@_09NMECHAKG@sect571k1@ 000000000007c850     OpensslLib:obj_dat.obj
 0002:00009880       ??_C@_09MPLFOIFJ@sect571r1@ 000000000007c860     OpensslLib:obj_dat.obj
 0002:00009890       ??_C@_0BH@PEHFMMHF@wap?9wsg?9idm?9ecid?9wtls1@ 000000000007c870     OpensslLib:obj_dat.obj
 0002:000098a8       ??_C@_0BH@MGEDKOPH@wap?9wsg?9idm?9ecid?9wtls3@ 000000000007c888     OpensslLib:obj_dat.obj
 0002:000098c0       ??_C@_0BH@IJACDIDA@wap?9wsg?9idm?9ecid?9wtls4@ 000000000007c8a0     OpensslLib:obj_dat.obj
 0002:000098d8       ??_C@_0BH@JABJAJHB@wap?9wsg?9idm?9ecid?9wtls5@ 000000000007c8b8     OpensslLib:obj_dat.obj
 0002:000098f0       ??_C@_0BH@LLDEFKLC@wap?9wsg?9idm?9ecid?9wtls6@ 000000000007c8d0     OpensslLib:obj_dat.obj
 0002:00009908       ??_C@_0BH@KCCPGLPD@wap?9wsg?9idm?9ecid?9wtls7@ 000000000007c8e8     OpensslLib:obj_dat.obj
 0002:00009920       ??_C@_0BH@CFLHHHDM@wap?9wsg?9idm?9ecid?9wtls8@ 000000000007c900     OpensslLib:obj_dat.obj
 0002:00009938       ??_C@_0BH@DMKMEGHN@wap?9wsg?9idm?9ecid?9wtls9@ 000000000007c918     OpensslLib:obj_dat.obj
 0002:00009950       ??_C@_0BI@PPNNMGIM@wap?9wsg?9idm?9ecid?9wtls10@ 000000000007c930     OpensslLib:obj_dat.obj
 0002:00009968       ??_C@_0BI@OGMGPHMN@wap?9wsg?9idm?9ecid?9wtls11@ 000000000007c948     OpensslLib:obj_dat.obj
 0002:00009980       ??_C@_0BI@MNOLKEAO@wap?9wsg?9idm?9ecid?9wtls12@ 000000000007c960     OpensslLib:obj_dat.obj
 0002:00009998       ??_C@_09HBBJOJHB@anyPolicy@ 000000000007c978     OpensslLib:obj_dat.obj
 0002:000099a8       ??_C@_0BC@CEEMIAHF@X509v3?5Any?5Policy@ 000000000007c988     OpensslLib:obj_dat.obj
 0002:000099c0       ??_C@_0P@MEGGINDP@policyMappings@ 000000000007c9a0     OpensslLib:obj_dat.obj
 0002:000099d0       ??_C@_0BH@NJBPACCN@X509v3?5Policy?5Mappings@ 000000000007c9b0     OpensslLib:obj_dat.obj
 0002:000099e8       ??_C@_0BB@CFCCDKGF@inhibitAnyPolicy@ 000000000007c9c8     OpensslLib:obj_dat.obj
 0002:00009a00       ??_C@_0BK@FPAAFIAO@X509v3?5Inhibit?5Any?5Policy@ 000000000007c9e0     OpensslLib:obj_dat.obj
 0002:00009a20       ??_C@_0O@BLJEJBFH@Oakley?9EC2N?93@ 000000000007ca00     OpensslLib:obj_dat.obj
 0002:00009a30       ??_C@_06HLOPKJBB@ipsec3@   000000000007ca10     OpensslLib:obj_dat.obj
 0002:00009a38       ??_C@_0O@FENFAHJA@Oakley?9EC2N?94@ 000000000007ca18     OpensslLib:obj_dat.obj
 0002:00009a48       ??_C@_06DEKODPNG@ipsec4@   000000000007ca28     OpensslLib:obj_dat.obj
 0002:00009a50       ??_C@_0BB@HAKAAAMD@CAMELLIA?9128?9CBC@ 000000000007ca30     OpensslLib:obj_dat.obj
 0002:00009a68       ??_C@_0BB@GDOINOHE@camellia?9128?9cbc@ 000000000007ca48     OpensslLib:obj_dat.obj
 0002:00009a80       ??_C@_0BB@NDDMHHFP@CAMELLIA?9192?9CBC@ 000000000007ca60     OpensslLib:obj_dat.obj
 0002:00009a98       ??_C@_0BB@MAHEKJOI@camellia?9192?9cbc@ 000000000007ca78     OpensslLib:obj_dat.obj
 0002:00009ab0       ??_C@_0BB@BICFINO@CAMELLIA?9256?9CBC@ 000000000007ca90     OpensslLib:obj_dat.obj
 0002:00009ac8       ??_C@_0BB@BCMKIGGJ@camellia?9256?9cbc@ 000000000007caa8     OpensslLib:obj_dat.obj
 0002:00009ae0       ??_C@_0BB@ENBCAEGJ@CAMELLIA?9128?9ECB@ 000000000007cac0     OpensslLib:obj_dat.obj
 0002:00009af8       ??_C@_0BB@FOFKNKNO@camellia?9128?9ecb@ 000000000007cad8     OpensslLib:obj_dat.obj
 0002:00009b10       ??_C@_0BB@OOIOHDPF@CAMELLIA?9192?9ECB@ 000000000007caf0     OpensslLib:obj_dat.obj
 0002:00009b28       ??_C@_0BB@PNMGKNEC@camellia?9192?9ecb@ 000000000007cb08     OpensslLib:obj_dat.obj
 0002:00009b40       ??_C@_0BB@DMDAFMHE@CAMELLIA?9256?9ECB@ 000000000007cb20     OpensslLib:obj_dat.obj
 0002:00009b58       ??_C@_0BB@CPHIICMD@camellia?9256?9ecb@ 000000000007cb38     OpensslLib:obj_dat.obj
 0002:00009b70       ??_C@_0BB@GOLCJJFO@CAMELLIA?9128?9CFB@ 000000000007cb50     OpensslLib:obj_dat.obj
 0002:00009b88       ??_C@_0BB@HNPKEHOJ@camellia?9128?9cfb@ 000000000007cb68     OpensslLib:obj_dat.obj
 0002:00009ba0       ??_C@_0BB@MNCOOOMC@CAMELLIA?9192?9CFB@ 000000000007cb80     OpensslLib:obj_dat.obj
 0002:00009bb8       ??_C@_0BB@NOGGDAHF@camellia?9192?9cfb@ 000000000007cb98     OpensslLib:obj_dat.obj
 0002:00009bd0       ??_C@_0BB@BPJAMBED@CAMELLIA?9256?9CFB@ 000000000007cbb0     OpensslLib:obj_dat.obj
 0002:00009be8       ??_C@_0BB@MNIBPPE@camellia?9256?9cfb@ 000000000007cbc8     OpensslLib:obj_dat.obj
 0002:00009c00       ??_C@_0BC@EKOAMJNI@CAMELLIA?9128?9CFB1@ 000000000007cbe0     OpensslLib:obj_dat.obj
 0002:00009c18       ??_C@_0BC@BPPGKHCJ@camellia?9128?9cfb1@ 000000000007cbf8     OpensslLib:obj_dat.obj
 0002:00009c30       ??_C@_0BC@LDPKIKMA@CAMELLIA?9192?9CFB1@ 000000000007cc10     OpensslLib:obj_dat.obj
 0002:00009c48       ??_C@_0BC@OGOMOEDB@camellia?9192?9cfb1@ 000000000007cc28     OpensslLib:obj_dat.obj
 0002:00009c60       ??_C@_0BC@CJJHIHFJ@CAMELLIA?9256?9CFB1@ 000000000007cc40     OpensslLib:obj_dat.obj
 0002:00009c78       ??_C@_0BC@HMIBOJKI@camellia?9256?9cfb1@ 000000000007cc58     OpensslLib:obj_dat.obj
 0002:00009c90       ??_C@_0BC@JLCCHCJB@CAMELLIA?9128?9CFB8@ 000000000007cc70     OpensslLib:obj_dat.obj
 0002:00009ca8       ??_C@_0BC@MODEBMGA@camellia?9128?9cfb8@ 000000000007cc88     OpensslLib:obj_dat.obj
 0002:00009cc0       ??_C@_0BC@GCDIDBIJ@CAMELLIA?9192?9CFB8@ 000000000007cca0     OpensslLib:obj_dat.obj
 0002:00009cd8       ??_C@_0BC@DHCOFPHI@camellia?9192?9cfb8@ 000000000007ccb8     OpensslLib:obj_dat.obj
 0002:00009cf0       ??_C@_0BC@PIFFDMBA@CAMELLIA?9256?9CFB8@ 000000000007ccd0     OpensslLib:obj_dat.obj
 0002:00009d08       ??_C@_0BC@KNEDFCOB@camellia?9256?9cfb8@ 000000000007cce8     OpensslLib:obj_dat.obj
 0002:00009d20       ??_C@_0BB@CEGECGOG@CAMELLIA?9128?9OFB@ 000000000007cd00     OpensslLib:obj_dat.obj
 0002:00009d38       ??_C@_0BB@DHCMPIFB@camellia?9128?9ofb@ 000000000007cd18     OpensslLib:obj_dat.obj
 0002:00009d50       ??_C@_0BB@IHPIFBHK@CAMELLIA?9192?9OFB@ 000000000007cd30     OpensslLib:obj_dat.obj
 0002:00009d68       ??_C@_0BB@JELAIPMN@camellia?9192?9ofb@ 000000000007cd48     OpensslLib:obj_dat.obj
 0002:00009d80       ??_C@_0BB@FFEGHOPL@CAMELLIA?9256?9OFB@ 000000000007cd60     OpensslLib:obj_dat.obj
 0002:00009d98       ??_C@_0BB@EGAOKAEM@camellia?9256?9ofb@ 000000000007cd78     OpensslLib:obj_dat.obj
 0002:00009db0       ??_C@_0BL@GAJEKNCJ@subjectDirectoryAttributes@ 000000000007cd90     OpensslLib:obj_dat.obj
 0002:00009dd0       ??_C@_0CE@OGGDDHCK@X509v3?5Subject?5Directory?5Attrib@ 000000000007cdb0     OpensslLib:obj_dat.obj
 0002:00009df8       ??_C@_0BJ@OAOPOBMH@issuingDistributionPoint@ 000000000007cdd8     OpensslLib:obj_dat.obj
 0002:00009e18       ??_C@_0CC@IAMHILJN@X509v3?5Issuing?5Distribution?5Poi@ 000000000007cdf8     OpensslLib:obj_dat.obj
 0002:00009e40       ??_C@_0BC@NAJGKAHO@certificateIssuer@ 000000000007ce20     OpensslLib:obj_dat.obj
 0002:00009e58       ??_C@_0BK@EMNEMCDI@X509v3?5Certificate?5Issuer@ 000000000007ce38     OpensslLib:obj_dat.obj
 0002:00009e74       ??_C@_04HHHKJIKA@KISA@     000000000007ce54     OpensslLib:obj_dat.obj
 0002:00009e7c       ??_C@_04LLEAHKNI@kisa@     000000000007ce5c     OpensslLib:obj_dat.obj
 0002:00009e88       ??_C@_08JEKGBFGL@SEED?9ECB@ 000000000007ce68     OpensslLib:obj_dat.obj
 0002:00009e98       ??_C@_08CKMLAEEI@seed?9ecb@ 000000000007ce78     OpensslLib:obj_dat.obj
 0002:00009ea8       ??_C@_08KJBEBBMB@SEED?9CBC@ 000000000007ce88     OpensslLib:obj_dat.obj
 0002:00009eb8       ??_C@_08BHHJAAOC@seed?9cbc@ 000000000007ce98     OpensslLib:obj_dat.obj
 0002:00009ec8       ??_C@_08PNNADHOE@SEED?9OFB@ 000000000007cea8     OpensslLib:obj_dat.obj
 0002:00009ed8       ??_C@_08EDLNCGMH@seed?9ofb@ 000000000007ceb8     OpensslLib:obj_dat.obj
 0002:00009ee8       ??_C@_08LHAGIIFM@SEED?9CFB@ 000000000007cec8     OpensslLib:obj_dat.obj
 0002:00009ef8       ??_C@_08JGLJJHP@seed?9cfb@ 000000000007ced8     OpensslLib:obj_dat.obj
 0002:00009f08       ??_C@_08CABJBHIC@HMAC?9MD5@ 000000000007cee8     OpensslLib:obj_dat.obj
 0002:00009f18       ??_C@_08LPACCAD@hmac?9md5@ 000000000007cef8     OpensslLib:obj_dat.obj
 0002:00009f28       ??_C@_09DDFKKHO@HMAC?9SHA1@ 000000000007cf08     OpensslLib:obj_dat.obj
 0002:00009f38       ??_C@_09KBOMLGBN@hmac?9sha1@ 000000000007cf18     OpensslLib:obj_dat.obj
 0002:00009f48       ??_C@_0BE@HCNFOMHA@id?9PasswordBasedMAC@ 000000000007cf28     OpensslLib:obj_dat.obj
 0002:00009f60       ??_C@_0BD@FANJCJAP@password?5based?5MAC@ 000000000007cf40     OpensslLib:obj_dat.obj
 0002:00009f78       ??_C@_0O@MEHCKGFD@id?9DHBasedMac@ 000000000007cf58     OpensslLib:obj_dat.obj
 0002:00009f88       ??_C@_0BJ@CDGIGDFG@Diffie?9Hellman?5based?5MAC@ 000000000007cf68     OpensslLib:obj_dat.obj
 0002:00009fa8       ??_C@_0BD@MGCOMIO@id?9it?9suppLangTags@ 000000000007cf88     OpensslLib:obj_dat.obj
 0002:00009fc0       ??_C@_0N@CKNFLOGG@caRepository@ 000000000007cfa0     OpensslLib:obj_dat.obj
 0002:00009fd0       ??_C@_0O@LBCGFGCI@CA?5Repository@ 000000000007cfb0     OpensslLib:obj_dat.obj
 0002:00009fe0       ??_C@_0BL@HEJKLKLL@id?9smime?9ct?9compressedData@ 000000000007cfc0     OpensslLib:obj_dat.obj
 0002:0000a000       ??_C@_0BI@FNBGJEPL@id?9ct?9asciiTextWithCRLF@ 000000000007cfe0     OpensslLib:obj_dat.obj
 0002:0000a018       ??_C@_0P@MALLFAMO@id?9aes128?9wrap@ 000000000007cff8     OpensslLib:obj_dat.obj
 0002:0000a028       ??_C@_0P@DJKBBDNG@id?9aes192?9wrap@ 000000000007d008     OpensslLib:obj_dat.obj
 0002:0000a038       ??_C@_0P@KDMMBOEP@id?9aes256?9wrap@ 000000000007d018     OpensslLib:obj_dat.obj
 0002:0000a048       ??_C@_0BH@GCJALNKM@ecdsa?9with?9Recommended@ 000000000007d028     OpensslLib:obj_dat.obj
 0002:0000a060       ??_C@_0BF@INFCLNHO@ecdsa?9with?9Specified@ 000000000007d040     OpensslLib:obj_dat.obj
 0002:0000a078       ??_C@_0BC@PHBIOIGA@ecdsa?9with?9SHA224@ 000000000007d058     OpensslLib:obj_dat.obj
 0002:0000a090       ??_C@_0BC@MAGBJMGH@ecdsa?9with?9SHA256@ 000000000007d070     OpensslLib:obj_dat.obj
 0002:0000a0a8       ??_C@_0BC@ECDDAKND@ecdsa?9with?9SHA384@ 000000000007d088     OpensslLib:obj_dat.obj
 0002:0000a0c0       ??_C@_0BC@DONDMJAG@ecdsa?9with?9SHA512@ 000000000007d0a0     OpensslLib:obj_dat.obj
 0002:0000a0d8       ??_C@_0M@KOBPMNIO@hmacWithMD5@ 000000000007d0b8     OpensslLib:obj_dat.obj
 0002:0000a0e8       ??_C@_0P@JCGBABBG@hmacWithSHA224@ 000000000007d0c8     OpensslLib:obj_dat.obj
 0002:0000a0f8       ??_C@_0P@KFBIHFBB@hmacWithSHA256@ 000000000007d0d8     OpensslLib:obj_dat.obj
 0002:0000a108       ??_C@_0P@CHEKODKF@hmacWithSHA384@ 000000000007d0e8     OpensslLib:obj_dat.obj
 0002:0000a118       ??_C@_0P@FLKKCAHA@hmacWithSHA512@ 000000000007d0f8     OpensslLib:obj_dat.obj
 0002:0000a128       ??_C@_0BA@GLCLJGGH@dsa_with_SHA224@ 000000000007d108     OpensslLib:obj_dat.obj
 0002:0000a138       ??_C@_0BA@FMFCOCGA@dsa_with_SHA256@ 000000000007d118     OpensslLib:obj_dat.obj
 0002:0000a148       ??_C@_09DEGKDAEL@whirlpool@ 000000000007d128     OpensslLib:obj_dat.obj
 0002:0000a158       ??_C@_09PCHJFNLI@cryptopro@ 000000000007d138     OpensslLib:obj_dat.obj
 0002:0000a168       ??_C@_09JGBNPHGI@cryptocom@ 000000000007d148     OpensslLib:obj_dat.obj
 0002:0000a178       ??_C@_0CE@FCAOBIOC@id?9GostR3411?994?9with?9GostR3410?9@ 000000000007d158     OpensslLib:obj_dat.obj
 0002:0000a1a0       ??_C@_0CH@MPKKPBGC@GOST?5R?534?411?994?5with?5GOST?5R?534?4@ 000000000007d180     OpensslLib:obj_dat.obj
 0002:0000a1c8       ??_C@_0CC@LCAPGDKC@id?9GostR3411?994?9with?9GostR3410?9@ 000000000007d1a8     OpensslLib:obj_dat.obj
 0002:0000a1f0       ??_C@_0CF@PAGBHGOC@GOST?5R?534?411?994?5with?5GOST?5R?534?4@ 000000000007d1d0     OpensslLib:obj_dat.obj
 0002:0000a218       ??_C@_09MIOJGGFD@md_gost94@ 000000000007d1f8     OpensslLib:obj_dat.obj
 0002:0000a228       ??_C@_0BA@KDEBPBMN@GOST?5R?534?411?994@ 000000000007d208     OpensslLib:obj_dat.obj
 0002:0000a238       ??_C@_0BE@EBBOKDGI@id?9HMACGostR3411?994@ 000000000007d218     OpensslLib:obj_dat.obj
 0002:0000a250       ??_C@_0BD@BHKLGKNG@HMAC?5GOST?534?411?994@ 000000000007d230     OpensslLib:obj_dat.obj
 0002:0000a268       ??_C@_08KMPAMBCP@gost2001@ 000000000007d248     OpensslLib:obj_dat.obj
 0002:0000a278       ??_C@_0BC@IBNIHBI@GOST?5R?534?410?92001@ 000000000007d258     OpensslLib:obj_dat.obj
 0002:0000a28c       ??_C@_06BPJPGPFJ@gost94@   000000000007d26c     OpensslLib:obj_dat.obj
 0002:0000a298       ??_C@_0BA@JOCBNIHN@GOST?5R?534?410?994@ 000000000007d278     OpensslLib:obj_dat.obj
 0002:0000a2a8       ??_C@_06KLPDHLCD@gost89@   000000000007d288     OpensslLib:obj_dat.obj
 0002:0000a2b0       ??_C@_0O@POKHNLDL@GOST?528147?989@ 000000000007d290     OpensslLib:obj_dat.obj
 0002:0000a2c0       ??_C@_0L@INGOKGPP@gost89?9cnt@ 000000000007d2a0     OpensslLib:obj_dat.obj
 0002:0000a2d0       ??_C@_08JCNEGNFC@gost?9mac@ 000000000007d2b0     OpensslLib:obj_dat.obj
 0002:0000a2e0       ??_C@_0BC@BPAGAEJB@GOST?528147?989?5MAC@ 000000000007d2c0     OpensslLib:obj_dat.obj
 0002:0000a2f8       ??_C@_0BB@LJIINAAP@prf?9gostr3411?994@ 000000000007d2d8     OpensslLib:obj_dat.obj
 0002:0000a310       ??_C@_0BE@FFELJBNB@GOST?5R?534?411?994?5PRF@ 000000000007d2f0     OpensslLib:obj_dat.obj
 0002:0000a328       ??_C@_0BE@OBKEJCJB@id?9GostR3410?92001DH@ 000000000007d308     OpensslLib:obj_dat.obj
 0002:0000a340       ??_C@_0BF@OKPANPLK@GOST?5R?534?410?92001?5DH@ 000000000007d320     OpensslLib:obj_dat.obj
 0002:0000a358       ??_C@_0BC@CEMDDFNK@id?9GostR3410?994DH@ 000000000007d338     OpensslLib:obj_dat.obj
 0002:0000a370       ??_C@_0BD@LGKAOLPL@GOST?5R?534?410?994?5DH@ 000000000007d350     OpensslLib:obj_dat.obj
 0002:0000a388       ??_C@_0CF@MMKONEIK@id?9Gost28147?989?9CryptoPro?9KeyMe@ 000000000007d368     OpensslLib:obj_dat.obj
 0002:0000a3b0       ??_C@_0CA@BLJAEGEG@id?9Gost28147?989?9None?9KeyMeshing@ 000000000007d390     OpensslLib:obj_dat.obj
 0002:0000a3d0       ??_C@_0BN@DPLCCDOE@id?9GostR3411?994?9TestParamSet@ 000000000007d3b0     OpensslLib:obj_dat.obj
 0002:0000a3f0       ??_C@_0CC@DOHJLMBI@id?9GostR3411?994?9CryptoProParamS@ 000000000007d3d0     OpensslLib:obj_dat.obj
 0002:0000a418       ??_C@_0BN@GKJFBLMI@id?9Gost28147?989?9TestParamSet@ 000000000007d3f8     OpensslLib:obj_dat.obj
 0002:0000a438       ??_C@_0CF@PFEMLAKN@id?9Gost28147?989?9CryptoPro?9A?9Par@ 000000000007d418     OpensslLib:obj_dat.obj
 0002:0000a460       ??_C@_0CF@GMKONGKM@id?9Gost28147?989?9CryptoPro?9B?9Par@ 000000000007d440     OpensslLib:obj_dat.obj
 0002:0000a488       ??_C@_0CF@KNCAAJGM@id?9Gost28147?989?9CryptoPro?9C?9Par@ 000000000007d468     OpensslLib:obj_dat.obj
 0002:0000a4b0       ??_C@_0CF@IEBLBMOP@id?9Gost28147?989?9CryptoPro?9D?9Par@ 000000000007d490     OpensslLib:obj_dat.obj
 0002:0000a4d8       ??_C@_0CN@EJBNJDBM@id?9Gost28147?989?9CryptoPro?9Oscar@ 000000000007d4b8     OpensslLib:obj_dat.obj
 0002:0000a508       ??_C@_0CN@IIJDEMNM@id?9Gost28147?989?9CryptoPro?9Oscar@ 000000000007d4e8     OpensslLib:obj_dat.obj
 0002:0000a538       ??_C@_0CJ@IIADIAJH@id?9Gost28147?989?9CryptoPro?9RIC?91@ 000000000007d518     OpensslLib:obj_dat.obj
 0002:0000a568       ??_C@_0BN@NAOAJFAF@id?9GostR3410?994?9TestParamSet@ 000000000007d548     OpensslLib:obj_dat.obj
 0002:0000a588       ??_C@_0CF@MNFOPPCD@id?9GostR3410?994?9CryptoPro?9A?9Par@ 000000000007d568     OpensslLib:obj_dat.obj
 0002:0000a5b0       ??_C@_0CF@FELMJJCC@id?9GostR3410?994?9CryptoPro?9B?9Par@ 000000000007d590     OpensslLib:obj_dat.obj
 0002:0000a5d8       ??_C@_0CF@JFDCEGOC@id?9GostR3410?994?9CryptoPro?9C?9Par@ 000000000007d5b8     OpensslLib:obj_dat.obj
 0002:0000a600       ??_C@_0CF@LMAJFDGB@id?9GostR3410?994?9CryptoPro?9D?9Par@ 000000000007d5e0     OpensslLib:obj_dat.obj
 0002:0000a628       ??_C@_0CI@FLGMGEEM@id?9GostR3410?994?9CryptoPro?9XchA?9@ 000000000007d608     OpensslLib:obj_dat.obj
 0002:0000a650       ??_C@_0CI@MCIOACEN@id?9GostR3410?994?9CryptoPro?9XchB?9@ 000000000007d630     OpensslLib:obj_dat.obj
 0002:0000a678       ??_C@_0CI@DAANNIN@id?9GostR3410?994?9CryptoPro?9XchC?9@ 000000000007d658     OpensslLib:obj_dat.obj
 0002:0000a6a0       ??_C@_0BP@GEEJLPDI@id?9GostR3410?92001?9TestParamSet@ 000000000007d680     OpensslLib:obj_dat.obj
 0002:0000a6c0       ??_C@_0CH@GDAPDBKP@id?9GostR3410?92001?9CryptoPro?9A?9P@ 000000000007d6a0     OpensslLib:obj_dat.obj
 0002:0000a6e8       ??_C@_0CH@PKONFHKO@id?9GostR3410?92001?9CryptoPro?9B?9P@ 000000000007d6c8     OpensslLib:obj_dat.obj
 0002:0000a710       ??_C@_0CH@DLGDIIGO@id?9GostR3410?92001?9CryptoPro?9C?9P@ 000000000007d6f0     OpensslLib:obj_dat.obj
 0002:0000a738       ??_C@_0CK@PKFGBNKE@id?9GostR3410?92001?9CryptoPro?9Xch@ 000000000007d718     OpensslLib:obj_dat.obj
 0002:0000a768       ??_C@_0CK@GDLEHLKF@id?9GostR3410?92001?9CryptoPro?9Xch@ 000000000007d748     OpensslLib:obj_dat.obj
 0002:0000a798       ??_C@_0BC@CHIDFKJO@id?9GostR3410?994?9a@ 000000000007d778     OpensslLib:obj_dat.obj
 0002:0000a7b0       ??_C@_0BF@LBGBLILF@id?9GostR3410?994?9aBis@ 000000000007d790     OpensslLib:obj_dat.obj
 0002:0000a7c8       ??_C@_0BC@MKOAJFN@id?9GostR3410?994?9b@ 000000000007d7a8     OpensslLib:obj_dat.obj
 0002:0000a7e0       ??_C@_0BF@PGMBMCGF@id?9GostR3410?994?9bBis@ 000000000007d7c0     OpensslLib:obj_dat.obj
 0002:0000a7f8       ??_C@_0BD@MEAAKKFJ@id?9Gost28147?989?9cc@ 000000000007d7d8     OpensslLib:obj_dat.obj
 0002:0000a810       ??_C@_0CB@KNOPDNHN@GOST?528147?989?5Cryptocom?5ParamSe@ 000000000007d7f0     OpensslLib:obj_dat.obj
 0002:0000a838       ??_C@_08LCDFMIFG@gost94cc@ 000000000007d818     OpensslLib:obj_dat.obj
 0002:0000a848       ??_C@_0BI@GJIILMEB@GOST?534?410?994?5Cryptocom@ 000000000007d828     OpensslLib:obj_dat.obj
 0002:0000a860       ??_C@_0L@PKDOCLKG@gost2001cc@ 000000000007d840     OpensslLib:obj_dat.obj
 0002:0000a870       ??_C@_0BK@IGCJADLM@GOST?534?410?92001?5Cryptocom@ 000000000007d850     OpensslLib:obj_dat.obj
 0002:0000a890       ??_C@_0CF@FCIKJGLH@id?9GostR3411?994?9with?9GostR3410?9@ 000000000007d870     OpensslLib:obj_dat.obj
 0002:0000a8b8       ??_C@_0CP@ILDIBBAJ@GOST?5R?534?411?994?5with?5GOST?5R?534?4@ 000000000007d898     OpensslLib:obj_dat.obj
 0002:0000a8e8       ??_C@_0CH@JJNMILDM@id?9GostR3411?994?9with?9GostR3410?9@ 000000000007d8c8     OpensslLib:obj_dat.obj
 0002:0000a910       ??_C@_0DB@BGOOPLFE@GOST?5R?534?411?994?5with?5GOST?5R?534?4@ 000000000007d8f0     OpensslLib:obj_dat.obj
 0002:0000a948       ??_C@_0BO@LBPHKLOM@id?9GostR3410?92001?9ParamSet?9cc@ 000000000007d928     OpensslLib:obj_dat.obj
 0002:0000a968       ??_C@_0CJ@NCCJHEBD@GOST?5R?53410?92001?5Parameter?5Set?5@ 000000000007d948     OpensslLib:obj_dat.obj
 0002:0000a994       ??_C@_04JCCMGALL@HMAC@     000000000007d974     OpensslLib:obj_dat.obj
 0002:0000a99c       ??_C@_04FOBGICMD@hmac@     000000000007d97c     OpensslLib:obj_dat.obj
 0002:0000a9a8       ??_C@_0M@LCODBGNO@LocalKeySet@ 000000000007d988     OpensslLib:obj_dat.obj
 0002:0000a9b8       ??_C@_0BI@FMFOLFMC@Microsoft?5Local?5Key?5set@ 000000000007d998     OpensslLib:obj_dat.obj
 0002:0000a9d0       ??_C@_0M@PKNKMHEG@freshestCRL@ 000000000007d9b0     OpensslLib:obj_dat.obj
 0002:0000a9e0       ??_C@_0BE@KEJIKEFG@X509v3?5Freshest?5CRL@ 000000000007d9c0     OpensslLib:obj_dat.obj
 0002:0000a9f8       ??_C@_0BK@BMFCOPIC@id?9on?9permanentIdentifier@ 000000000007d9d8     OpensslLib:obj_dat.obj
 0002:0000aa18       ??_C@_0BF@DGGAJJCO@Permanent?5Identifier@ 000000000007d9f8     OpensslLib:obj_dat.obj
 0002:0000aa30       ??_C@_0M@MCCFGANF@searchGuide@ 000000000007da10     OpensslLib:obj_dat.obj
 0002:0000aa40       ??_C@_0BB@GFJJGHBI@businessCategory@ 000000000007da20     OpensslLib:obj_dat.obj
 0002:0000aa58       ??_C@_0O@KABBPKPG@postalAddress@ 000000000007da38     OpensslLib:obj_dat.obj
 0002:0000aa68       ??_C@_0O@PCCHCGPG@postOfficeBox@ 000000000007da48     OpensslLib:obj_dat.obj
 0002:0000aa78       ??_C@_0BL@DENBGONK@physicalDeliveryOfficeName@ 000000000007da58     OpensslLib:obj_dat.obj
 0002:0000aa98       ??_C@_0BA@NCAGJGBF@telephoneNumber@ 000000000007da78     OpensslLib:obj_dat.obj
 0002:0000aaa8       ??_C@_0M@MMDMBPMM@telexNumber@ 000000000007da88     OpensslLib:obj_dat.obj
 0002:0000aab8       ??_C@_0BK@BBNEJJDC@teletexTerminalIdentifier@ 000000000007da98     OpensslLib:obj_dat.obj
 0002:0000aad8       ??_C@_0BJ@NDMMBDAB@facsimileTelephoneNumber@ 000000000007dab8     OpensslLib:obj_dat.obj
 0002:0000aaf8       ??_C@_0M@MOCAHDLJ@x121Address@ 000000000007dad8     OpensslLib:obj_dat.obj
 0002:0000ab08       ??_C@_0BI@OAHCBLEE@internationaliSDNNumber@ 000000000007dae8     OpensslLib:obj_dat.obj
 0002:0000ab20       ??_C@_0BC@DLLOJDNE@registeredAddress@ 000000000007db00     OpensslLib:obj_dat.obj
 0002:0000ab38       ??_C@_0BF@CMAFNEOO@destinationIndicator@ 000000000007db18     OpensslLib:obj_dat.obj
 0002:0000ab50       ??_C@_0BI@MKMMOKIA@preferredDeliveryMethod@ 000000000007db30     OpensslLib:obj_dat.obj
 0002:0000ab68       ??_C@_0BE@KHACCONJ@presentationAddress@ 000000000007db48     OpensslLib:obj_dat.obj
 0002:0000ab80       ??_C@_0BM@NHJFOGBI@supportedApplicationContext@ 000000000007db60     OpensslLib:obj_dat.obj
 0002:0000ab9c       ??_C@_06HDFDANIG@member@   000000000007db7c     OpensslLib:obj_dat.obj
 0002:0000aba4       ??_C@_05HEIBENID@owner@    000000000007db84     OpensslLib:obj_dat.obj
 0002:0000abb0       ??_C@_0N@NAEJMDPF@roleOccupant@ 000000000007db90     OpensslLib:obj_dat.obj
 0002:0000abc0       ??_C@_07JJAENDGN@seeAlso@  000000000007dba0     OpensslLib:obj_dat.obj
 0002:0000abc8       ??_C@_0N@JHMNNHKM@userPassword@ 000000000007dba8     OpensslLib:obj_dat.obj
 0002:0000abd8       ??_C@_0BA@FEECIELF@userCertificate@ 000000000007dbb8     OpensslLib:obj_dat.obj
 0002:0000abe8       ??_C@_0O@JJCNKCKK@cACertificate@ 000000000007dbc8     OpensslLib:obj_dat.obj
 0002:0000abf8       ??_C@_0BI@EODAEBFG@authorityRevocationList@ 000000000007dbd8     OpensslLib:obj_dat.obj
 0002:0000ac10       ??_C@_0BK@IMFDMOND@certificateRevocationList@ 000000000007dbf0     OpensslLib:obj_dat.obj
 0002:0000ac30       ??_C@_0BF@GAAPBDAE@crossCertificatePair@ 000000000007dc10     OpensslLib:obj_dat.obj
 0002:0000ac48       ??_C@_0BE@NNAGLFEM@enhancedSearchGuide@ 000000000007dc28     OpensslLib:obj_dat.obj
 0002:0000ac60       ??_C@_0BE@FKAMNJMM@protocolInformation@ 000000000007dc40     OpensslLib:obj_dat.obj
 0002:0000ac78       ??_C@_0BC@IIJOGNNH@distinguishedName@ 000000000007dc58     OpensslLib:obj_dat.obj
 0002:0000ac90       ??_C@_0N@FIGDLDDJ@uniqueMember@ 000000000007dc70     OpensslLib:obj_dat.obj
 0002:0000aca0       ??_C@_0BA@EKKIBBF@houseIdentifier@ 000000000007dc80     OpensslLib:obj_dat.obj
 0002:0000acb0       ??_C@_0BE@KGOGIPEN@supportedAlgorithms@ 000000000007dc90     OpensslLib:obj_dat.obj
 0002:0000acc8       ??_C@_0BE@MNOFELKF@deltaRevocationList@ 000000000007dca8     OpensslLib:obj_dat.obj
 0002:0000ace0       ??_C@_07ILKEFPGB@dmdName@  000000000007dcc0     OpensslLib:obj_dat.obj
 0002:0000ace8       ??_C@_0BA@NJOHMDIG@id?9alg?9PWRI?9KEK@ 000000000007dcc8     OpensslLib:obj_dat.obj
 0002:0000acf8       ??_C@_04OFPMFBKK@CMAC@     000000000007dcd8     OpensslLib:obj_dat.obj
 0002:0000ad00       ??_C@_04CJMGLDNC@cmac@     000000000007dce0     OpensslLib:obj_dat.obj
 0002:0000ad08       ??_C@_0O@LNIKAOOL@id?9aes128?9GCM@ 000000000007dce8     OpensslLib:obj_dat.obj
 0002:0000ad18       ??_C@_0M@ODEOFOCG@aes?9128?9gcm@ 000000000007dcf8     OpensslLib:obj_dat.obj
 0002:0000ad28       ??_C@_0O@DCOIJJLM@id?9aes128?9CCM@ 000000000007dd08     OpensslLib:obj_dat.obj
 0002:0000ad38       ??_C@_0M@GMCMMJHB@aes?9128?9ccm@ 000000000007dd18     OpensslLib:obj_dat.obj
 0002:0000ad48       ??_C@_0BD@HMJBEGNL@id?9aes128?9wrap?9pad@ 000000000007dd28     OpensslLib:obj_dat.obj
 0002:0000ad60       ??_C@_0O@BOBGHJHH@id?9aes192?9GCM@ 000000000007dd40     OpensslLib:obj_dat.obj
 0002:0000ad70       ??_C@_0M@EANCCJLK@aes?9192?9gcm@ 000000000007dd50     OpensslLib:obj_dat.obj
 0002:0000ad80       ??_C@_0O@JBHEOOCA@id?9aes192?9CCM@ 000000000007dd60     OpensslLib:obj_dat.obj
 0002:0000ad90       ??_C@_0M@MPLALOON@aes?9192?9ccm@ 000000000007dd70     OpensslLib:obj_dat.obj
 0002:0000ada0       ??_C@_0BD@OPKMLKFB@id?9aes192?9wrap?9pad@ 000000000007dd80     OpensslLib:obj_dat.obj
 0002:0000adb8       ??_C@_0O@MMKIFGPG@id?9aes256?9GCM@ 000000000007dd98     OpensslLib:obj_dat.obj
 0002:0000adc8       ??_C@_0M@JCGMAGDL@aes?9256?9gcm@ 000000000007dda8     OpensslLib:obj_dat.obj
 0002:0000add8       ??_C@_0O@EDMKMBKB@id?9aes256?9CCM@ 000000000007ddb8     OpensslLib:obj_dat.obj
 0002:0000ade8       ??_C@_0M@BNAOJBGM@aes?9256?9ccm@ 000000000007ddc8     OpensslLib:obj_dat.obj
 0002:0000adf8       ??_C@_0BD@OHLFOIJM@id?9aes256?9wrap?9pad@ 000000000007ddd8     OpensslLib:obj_dat.obj
 0002:0000ae10       ??_C@_0M@GEBEOIJJ@AES?9128?9CTR@ 000000000007ddf0     OpensslLib:obj_dat.obj
 0002:0000ae20       ??_C@_0M@LIBPHCBK@aes?9128?9ctr@ 000000000007de00     OpensslLib:obj_dat.obj
 0002:0000ae30       ??_C@_0M@MHIIJPAF@AES?9192?9CTR@ 000000000007de10     OpensslLib:obj_dat.obj
 0002:0000ae40       ??_C@_0M@BLIDAFIG@aes?9192?9ctr@ 000000000007de20     OpensslLib:obj_dat.obj
 0002:0000ae50       ??_C@_0M@BFDGLAIE@AES?9256?9CTR@ 000000000007de30     OpensslLib:obj_dat.obj
 0002:0000ae60       ??_C@_0M@MJDNCKAH@aes?9256?9ctr@ 000000000007de40     OpensslLib:obj_dat.obj
 0002:0000ae70       ??_C@_0BE@JENMCLBD@id?9camellia128?9wrap@ 000000000007de50     OpensslLib:obj_dat.obj
 0002:0000ae88       ??_C@_0BE@GNMGGIAL@id?9camellia192?9wrap@ 000000000007de68     OpensslLib:obj_dat.obj
 0002:0000aea0       ??_C@_0BE@PHKLGFJC@id?9camellia256?9wrap@ 000000000007de80     OpensslLib:obj_dat.obj
 0002:0000aeb8       ??_C@_0BE@FKFLDMON@anyExtendedKeyUsage@ 000000000007de98     OpensslLib:obj_dat.obj
 0002:0000aed0       ??_C@_0BH@FHBOBBKO@Any?5Extended?5Key?5Usage@ 000000000007deb0     OpensslLib:obj_dat.obj
 0002:0000aee8       ??_C@_04CNDHACFO@MGF1@     000000000007dec8     OpensslLib:obj_dat.obj
 0002:0000aef0       ??_C@_04HEIJMEIE@mgf1@     000000000007ded0     OpensslLib:obj_dat.obj
 0002:0000aef8       ??_C@_0L@CPMAKEFG@RSASSA?9PSS@ 000000000007ded8     OpensslLib:obj_dat.obj
 0002:0000af08       ??_C@_09FGGKIFKD@rsassaPss@ 000000000007dee8     OpensslLib:obj_dat.obj
 0002:0000af18       ??_C@_0M@PKBHAJEG@AES?9128?9XTS@ 000000000007def8     OpensslLib:obj_dat.obj
 0002:0000af28       ??_C@_0M@CGBMJDMF@aes?9128?9xts@ 000000000007df08     OpensslLib:obj_dat.obj
 0002:0000af38       ??_C@_0M@ILDFFBFL@AES?9256?9XTS@ 000000000007df18     OpensslLib:obj_dat.obj
 0002:0000af48       ??_C@_0M@FHDOMLNI@aes?9256?9xts@ 000000000007df28     OpensslLib:obj_dat.obj
 0002:0000af58       ??_C@_0N@MFFPBCGK@RC4?9HMAC?9MD5@ 000000000007df38     OpensslLib:obj_dat.obj
 0002:0000af68       ??_C@_0N@EFPJLHOG@rc4?9hmac?9md5@ 000000000007df48     OpensslLib:obj_dat.obj
 0002:0000af78       ??_C@_0BG@OKEPPAEE@AES?9128?9CBC?9HMAC?9SHA1@ 000000000007df58     OpensslLib:obj_dat.obj
 0002:0000af90       ??_C@_0BG@CLBGODOC@aes?9128?9cbc?9hmac?9sha1@ 000000000007df70     OpensslLib:obj_dat.obj
 0002:0000afa8       ??_C@_0BG@KLHGFOHC@AES?9192?9CBC?9HMAC?9SHA1@ 000000000007df88     OpensslLib:obj_dat.obj
 0002:0000afc0       ??_C@_0BG@GKCPENNE@aes?9192?9cbc?9hmac?9sha1@ 000000000007dfa0     OpensslLib:obj_dat.obj
 0002:0000afd8       ??_C@_0BG@NJKHMG@AES?9256?9CBC?9HMAC?9SHA1@ 000000000007dfb8     OpensslLib:obj_dat.obj
 0002:0000aff0       ??_C@_0BG@MBIALEGA@aes?9256?9cbc?9hmac?9sha1@ 000000000007dfd0     OpensslLib:obj_dat.obj
 0002:0000b008       ??_C@_0L@NCPDMLAN@RSAES?9OAEP@ 000000000007dfe8     OpensslLib:obj_dat.obj
 0002:0000b018       ??_C@_09FHIEKOPH@rsaesOaep@ 000000000007dff8     OpensslLib:obj_dat.obj
 0002:0000b028       ??_C@_0P@BHMOKJEG@dhpublicnumber@ 000000000007e008     OpensslLib:obj_dat.obj
 0002:0000b038       ??_C@_08HOHHODNK@X9?442?5DH@ 000000000007e018     OpensslLib:obj_dat.obj
 0002:0000b048       ??_C@_0BA@CDGJLDLH@brainpoolP160r1@ 000000000007e028     OpensslLib:obj_dat.obj
 0002:0000b058       ??_C@_0BA@CHOEMPAF@brainpoolP160t1@ 000000000007e038     OpensslLib:obj_dat.obj
 0002:0000b068       ??_C@_0BA@LDAOMON@brainpoolP192r1@ 000000000007e048     OpensslLib:obj_dat.obj
 0002:0000b078       ??_C@_0BA@PLNJAFP@brainpoolP192t1@ 000000000007e058     OpensslLib:obj_dat.obj
 0002:0000b088       ??_C@_0BA@NPBPPAIO@brainpoolP224r1@ 000000000007e068     OpensslLib:obj_dat.obj
 0002:0000b098       ??_C@_0BA@NLJCIMDM@brainpoolP224t1@ 000000000007e078     OpensslLib:obj_dat.obj
 0002:0000b0a8       ??_C@_0BA@MHDGOEBF@brainpoolP256r1@ 000000000007e088     OpensslLib:obj_dat.obj
 0002:0000b0b8       ??_C@_0BA@MDLLJIKH@brainpoolP256t1@ 000000000007e098     OpensslLib:obj_dat.obj
 0002:0000b0c8       ??_C@_0BA@JLCBLEHM@brainpoolP320r1@ 000000000007e0a8     OpensslLib:obj_dat.obj
 0002:0000b0d8       ??_C@_0BA@JPKMMIMO@brainpoolP320t1@ 000000000007e0b8     OpensslLib:obj_dat.obj
 0002:0000b0e8       ??_C@_0BA@FOPDDLIK@brainpoolP384r1@ 000000000007e0c8     OpensslLib:obj_dat.obj
 0002:0000b0f8       ??_C@_0BA@FKHOEHDI@brainpoolP384t1@ 000000000007e0d8     OpensslLib:obj_dat.obj
 0002:0000b108       ??_C@_0BA@KANBOFDK@brainpoolP512r1@ 000000000007e0e8     OpensslLib:obj_dat.obj
 0002:0000b118       ??_C@_0BA@KEFMJJII@brainpoolP512t1@ 000000000007e0f8     OpensslLib:obj_dat.obj
 0002:0000b128       ??_C@_0L@CDJFGILH@PSPECIFIED@ 000000000007e108     OpensslLib:obj_dat.obj
 0002:0000b138       ??_C@_0L@NKKFNJEH@pSpecified@ 000000000007e118     OpensslLib:obj_dat.obj
 0002:0000b148       ??_C@_0CC@GCFJNDOJ@dhSinglePass?9stdDH?9sha1kdf?9sche@ 000000000007e128     OpensslLib:obj_dat.obj
 0002:0000b170       ??_C@_0CE@OPNDOJI@dhSinglePass?9stdDH?9sha224kdf?9sc@ 000000000007e150     OpensslLib:obj_dat.obj
 0002:0000b198       ??_C@_0CE@JPLFKGFP@dhSinglePass?9stdDH?9sha256kdf?9sc@ 000000000007e178     OpensslLib:obj_dat.obj
 0002:0000b1c0       ??_C@_0CE@KJKNLJMI@dhSinglePass?9stdDH?9sha384kdf?9sc@ 000000000007e1a0     OpensslLib:obj_dat.obj
 0002:0000b1e8       ??_C@_0CE@DJMHFNHG@dhSinglePass?9stdDH?9sha512kdf?9sc@ 000000000007e1c8     OpensslLib:obj_dat.obj
 0002:0000b210       ??_C@_0CH@DHIHBIGF@dhSinglePass?9cofactorDH?9sha1kdf@ 000000000007e1f0     OpensslLib:obj_dat.obj
 0002:0000b238       ??_C@_0CJ@JFHNKHDJ@dhSinglePass?9cofactorDH?9sha224k@ 000000000007e218     OpensslLib:obj_dat.obj
 0002:0000b268       ??_C@_0CJ@EDFDPPO@dhSinglePass?9cofactorDH?9sha256k@ 000000000007e248     OpensslLib:obj_dat.obj
 0002:0000b298       ??_C@_0CJ@DCCNCAGJ@dhSinglePass?9cofactorDH?9sha384k@ 000000000007e278     OpensslLib:obj_dat.obj
 0002:0000b2c8       ??_C@_0CJ@KCEHMENH@dhSinglePass?9cofactorDH?9sha512k@ 000000000007e2a8     OpensslLib:obj_dat.obj
 0002:0000b2f8       ??_C@_0L@MFGJJBLE@dh?9std?9kdf@ 000000000007e2d8     OpensslLib:obj_dat.obj
 0002:0000b308       ??_C@_0BA@LJEJAEDG@dh?9cofactor?9kdf@ 000000000007e2e8     OpensslLib:obj_dat.obj
 0002:0000b318       ??_C@_0BI@JAKBILLC@AES?9128?9CBC?9HMAC?9SHA256@ 000000000007e2f8     OpensslLib:obj_dat.obj
 0002:0000b330       ??_C@_0BI@OMECBAFK@aes?9128?9cbc?9hmac?9sha256@ 000000000007e310     OpensslLib:obj_dat.obj
 0002:0000b348       ??_C@_0BI@CINDNFBB@AES?9192?9CBC?9HMAC?9SHA256@ 000000000007e328     OpensslLib:obj_dat.obj
 0002:0000b360       ??_C@_0BI@FEDAEOPJ@aes?9192?9cbc?9hmac?9sha256@ 000000000007e340     OpensslLib:obj_dat.obj
 0002:0000b378       ??_C@_0BI@GMBLFPLK@AES?9256?9CBC?9HMAC?9SHA256@ 000000000007e358     OpensslLib:obj_dat.obj
 0002:0000b390       ??_C@_0BI@BAPIMEFC@aes?9256?9cbc?9hmac?9sha256@ 000000000007e370     OpensslLib:obj_dat.obj
 0002:0000b3a8       ??_C@_0BA@EKNBJPMK@ct_precert_scts@ 000000000007e388     OpensslLib:obj_dat.obj
 0002:0000b3b8       ??_C@_0BH@MJHOKGCL@CT?5Precertificate?5SCTs@ 000000000007e398     OpensslLib:obj_dat.obj
 0002:0000b3d0       ??_C@_0BC@DHAKLICB@ct_precert_poison@ 000000000007e3b0     OpensslLib:obj_dat.obj
 0002:0000b3e8       ??_C@_0BJ@OJAHFLBJ@CT?5Precertificate?5Poison@ 000000000007e3c8     OpensslLib:obj_dat.obj
 0002:0000b408       ??_C@_0BC@CGBIKIAJ@ct_precert_signer@ 000000000007e3e8     OpensslLib:obj_dat.obj
 0002:0000b420       ??_C@_0BJ@PIBFELDB@CT?5Precertificate?5Signer@ 000000000007e400     OpensslLib:obj_dat.obj
 0002:0000b440       ??_C@_0N@GIBNBHKA@ct_cert_scts@ 000000000007e420     OpensslLib:obj_dat.obj
 0002:0000b450       ??_C@_0BE@OLBHFOCE@CT?5Certificate?5SCTs@ 000000000007e430     OpensslLib:obj_dat.obj
 0002:0000b468       ??_C@_0O@CEMHPDIN@jurisdictionL@ 000000000007e448     OpensslLib:obj_dat.obj
 0002:0000b478       ??_C@_0BJ@DGGEPBOP@jurisdictionLocalityName@ 000000000007e458     OpensslLib:obj_dat.obj
 0002:0000b498       ??_C@_0P@FKIAEEHD@jurisdictionST@ 000000000007e478     OpensslLib:obj_dat.obj
 0002:0000b4a8       ??_C@_0CA@ILILPDLE@jurisdictionStateOrProvinceName@ 000000000007e488     OpensslLib:obj_dat.obj
 0002:0000b4c8       ??_C@_0O@KDFPOPEC@jurisdictionC@ 000000000007e4a8     OpensslLib:obj_dat.obj
 0002:0000b4d8       ??_C@_0BI@IBHEHEJE@jurisdictionCountryName@ 000000000007e4b8     OpensslLib:obj_dat.obj
 0002:0000b4f0       ??_C@_0M@HNGJPAIF@AES?9128?9OCB@ 000000000007e4d0     OpensslLib:obj_dat.obj
 0002:0000b500       ??_C@_0M@KBGCGKAG@aes?9128?9ocb@ 000000000007e4e0     OpensslLib:obj_dat.obj
 0002:0000b510       ??_C@_0M@NOPFIHBJ@AES?9192?9OCB@ 000000000007e4f0     OpensslLib:obj_dat.obj
 0002:0000b520       ??_C@_0M@CPOBNJK@aes?9192?9ocb@ 000000000007e500     OpensslLib:obj_dat.obj
 0002:0000b530       ??_C@_0M@MELKIJI@AES?9256?9OCB@ 000000000007e510     OpensslLib:obj_dat.obj
 0002:0000b540       ??_C@_0M@NAEADCBL@aes?9256?9ocb@ 000000000007e520     OpensslLib:obj_dat.obj
 0002:0000b550       ??_C@_0BB@GAIDNACN@CAMELLIA?9128?9GCM@ 000000000007e530     OpensslLib:obj_dat.obj
 0002:0000b568       ??_C@_0BB@HDMLAOJK@camellia?9128?9gcm@ 000000000007e548     OpensslLib:obj_dat.obj
 0002:0000b580       ??_C@_0BB@OPOBEHHK@CAMELLIA?9128?9CCM@ 000000000007e560     OpensslLib:obj_dat.obj
 0002:0000b598       ??_C@_0BB@PMKJJJMN@camellia?9128?9ccm@ 000000000007e578     OpensslLib:obj_dat.obj
 0002:0000b5b0       ??_C@_0BB@DLNCPMBB@CAMELLIA?9128?9CTR@ 000000000007e590     OpensslLib:obj_dat.obj
 0002:0000b5c8       ??_C@_0BB@CIJKCCKG@camellia?9128?9ctr@ 000000000007e5a8     OpensslLib:obj_dat.obj
 0002:0000b5e0       ??_C@_0BC@ICKOOLPE@CAMELLIA?9128?9CMAC@ 000000000007e5c0     OpensslLib:obj_dat.obj
 0002:0000b5f8       ??_C@_0BC@ECDMKBKH@camellia?9128?9cmac@ 000000000007e5d8     OpensslLib:obj_dat.obj
 0002:0000b610       ??_C@_0BB@MDBPKHLB@CAMELLIA?9192?9GCM@ 000000000007e5f0     OpensslLib:obj_dat.obj
 0002:0000b628       ??_C@_0BB@NAFHHJAG@camellia?9192?9gcm@ 000000000007e608     OpensslLib:obj_dat.obj
 0002:0000b640       ??_C@_0BB@EMHNDAOG@CAMELLIA?9192?9CCM@ 000000000007e620     OpensslLib:obj_dat.obj
 0002:0000b658       ??_C@_0BB@FPDFOOFB@camellia?9192?9ccm@ 000000000007e638     OpensslLib:obj_dat.obj
 0002:0000b670       ??_C@_0BB@JIEOILIN@CAMELLIA?9192?9CTR@ 000000000007e650     OpensslLib:obj_dat.obj
 0002:0000b688       ??_C@_0BB@ILAGFFDK@camellia?9192?9ctr@ 000000000007e668     OpensslLib:obj_dat.obj
 0002:0000b6a0       ??_C@_0BC@HLLEKIOM@CAMELLIA?9192?9CMAC@ 000000000007e680     OpensslLib:obj_dat.obj
 0002:0000b6b8       ??_C@_0BC@LLCGOCLP@camellia?9192?9cmac@ 000000000007e698     OpensslLib:obj_dat.obj
 0002:0000b6d0       ??_C@_0BB@BBKBIIDA@CAMELLIA?9256?9GCM@ 000000000007e6b0     OpensslLib:obj_dat.obj
 0002:0000b6e8       ??_C@_0BB@COJFGIH@camellia?9256?9gcm@ 000000000007e6c8     OpensslLib:obj_dat.obj
 0002:0000b700       ??_C@_0BB@JOMDBPGH@CAMELLIA?9256?9CCM@ 000000000007e6e0     OpensslLib:obj_dat.obj
 0002:0000b718       ??_C@_0BB@INILMBNA@camellia?9256?9ccm@ 000000000007e6f8     OpensslLib:obj_dat.obj
 0002:0000b730       ??_C@_0BB@EKPAKEAM@CAMELLIA?9256?9CTR@ 000000000007e710     OpensslLib:obj_dat.obj
 0002:0000b748       ??_C@_0BB@FJLIHKLL@camellia?9256?9ctr@ 000000000007e728     OpensslLib:obj_dat.obj
 0002:0000b760       ??_C@_0BC@OBNJKFHF@CAMELLIA?9256?9CMAC@ 000000000007e740     OpensslLib:obj_dat.obj
 0002:0000b778       ??_C@_0BC@CBELOPCG@camellia?9256?9cmac@ 000000000007e758     OpensslLib:obj_dat.obj
 0002:0000b790       ??_C@_09ILBMCAEF@id?9scrypt@ 000000000007e770     OpensslLib:obj_dat.obj
 0002:0000b79c       ??_C@_06LLPEBPNI@scrypt@   000000000007e77c     OpensslLib:obj_dat.obj
 0002:0000b7a8       ??_C@_07BKIAFLHB@id?9tc26@ 000000000007e788     OpensslLib:obj_dat.obj
 0002:0000b7b0       ??_C@_0O@HGEOMPGF@gost89?9cnt?912@ 000000000007e790     OpensslLib:obj_dat.obj
 0002:0000b7c0       ??_C@_0M@KEFEFFFO@gost?9mac?912@ 000000000007e7a0     OpensslLib:obj_dat.obj
 0002:0000b7d0       ??_C@_0BD@PKHBIAHP@id?9tc26?9algorithms@ 000000000007e7b0     OpensslLib:obj_dat.obj
 0002:0000b7e8       ??_C@_0N@HMCOAPHF@id?9tc26?9sign@ 000000000007e7c8     OpensslLib:obj_dat.obj
 0002:0000b7f8       ??_C@_0N@MINOOKEF@gost2012_256@ 000000000007e7d8     OpensslLib:obj_dat.obj
 0002:0000b808       ??_C@_0CH@DJAHIKCF@GOST?5R?534?410?92012?5with?5256?5bit?5@ 000000000007e7e8     OpensslLib:obj_dat.obj
 0002:0000b830       ??_C@_0N@DGGMLPCE@gost2012_512@ 000000000007e810     OpensslLib:obj_dat.obj
 0002:0000b840       ??_C@_0CH@FHCOJICI@GOST?5R?534?410?92012?5with?5512?5bit?5@ 000000000007e820     OpensslLib:obj_dat.obj
 0002:0000b868       ??_C@_0P@KKGLKDLG@id?9tc26?9digest@ 000000000007e848     OpensslLib:obj_dat.obj
 0002:0000b878       ??_C@_0O@CBIKGGLN@md_gost12_256@ 000000000007e858     OpensslLib:obj_dat.obj
 0002:0000b888       ??_C@_0CE@FGDJHNGL@GOST?5R?534?411?92012?5with?5256?5bit?5@ 000000000007e868     OpensslLib:obj_dat.obj
 0002:0000b8b0       ??_C@_0O@NPDIDDNM@md_gost12_512@ 000000000007e890     OpensslLib:obj_dat.obj
 0002:0000b8c0       ??_C@_0CE@JIJFDDMO@GOST?5R?534?411?92012?5with?5512?5bit?5@ 000000000007e8a0     OpensslLib:obj_dat.obj
 0002:0000b8e8       ??_C@_0BH@DGELPKNI@id?9tc26?9signwithdigest@ 000000000007e8c8     OpensslLib:obj_dat.obj
 0002:0000b900       ??_C@_0CJ@IEAKGPIK@id?9tc26?9signwithdigest?9gost3410@ 000000000007e8e0     OpensslLib:obj_dat.obj
 0002:0000b930       ??_C@_0DD@IIJACCAI@GOST?5R?534?410?92012?5with?5GOST?5R?53@ 000000000007e910     OpensslLib:obj_dat.obj
 0002:0000b968       ??_C@_0CJ@HKLIDKOL@id?9tc26?9signwithdigest?9gost3410@ 000000000007e948     OpensslLib:obj_dat.obj
 0002:0000b998       ??_C@_0DD@JMPEGFCI@GOST?5R?534?410?92012?5with?5GOST?5R?53@ 000000000007e978     OpensslLib:obj_dat.obj
 0002:0000b9d0       ??_C@_0M@ICFDDKIB@id?9tc26?9mac@ 000000000007e9b0     OpensslLib:obj_dat.obj
 0002:0000b9e0       ??_C@_0CA@JKDKOOFJ@id?9tc26?9hmac?9gost?93411?92012?9256@ 000000000007e9c0     OpensslLib:obj_dat.obj
 0002:0000ba00       ??_C@_0BN@JOOLALJM@HMAC?5GOST?534?411?92012?5256?5bit@ 000000000007e9e0     OpensslLib:obj_dat.obj
 0002:0000ba20       ??_C@_0CA@GEIILLDI@id?9tc26?9hmac?9gost?93411?92012?9512@ 000000000007ea00     OpensslLib:obj_dat.obj
 0002:0000ba40       ??_C@_0BN@PLPAGEIA@HMAC?5GOST?534?411?92012?5512?5bit@ 000000000007ea20     OpensslLib:obj_dat.obj
 0002:0000ba60       ??_C@_0P@BJHHGDD@id?9tc26?9cipher@ 000000000007ea40     OpensslLib:obj_dat.obj
 0002:0000ba70       ??_C@_0BC@DJLELDPH@id?9tc26?9agreement@ 000000000007ea50     OpensslLib:obj_dat.obj
 0002:0000ba88       ??_C@_0CF@JALEKNFA@id?9tc26?9agreement?9gost?93410?9201@ 000000000007ea68     OpensslLib:obj_dat.obj
 0002:0000bab0       ??_C@_0CF@GOAGPIDB@id?9tc26?9agreement?9gost?93410?9201@ 000000000007ea90     OpensslLib:obj_dat.obj
 0002:0000bad8       ??_C@_0BC@CNAIEHBN@id?9tc26?9constants@ 000000000007eab8     OpensslLib:obj_dat.obj
 0002:0000baf0       ??_C@_0BH@FMPMHLHM@id?9tc26?9sign?9constants@ 000000000007ead0     OpensslLib:obj_dat.obj
 0002:0000bb08       ??_C@_0CF@ONCEGCLN@id?9tc26?9gost?93410?92012?9512?9cons@ 000000000007eae8     OpensslLib:obj_dat.obj
 0002:0000bb30       ??_C@_0CI@GGHEPEIH@id?9tc26?9gost?93410?92012?9512?9para@ 000000000007eb10     OpensslLib:obj_dat.obj
 0002:0000bb58       ??_C@_0DC@INCJCNBI@GOST?5R?534?410?92012?5?$CI512?5bit?$CJ?5tes@ 000000000007eb38     OpensslLib:obj_dat.obj
 0002:0000bb90       ??_C@_0CF@PHGDEBIC@id?9tc26?9gost?93410?92012?9512?9para@ 000000000007eb70     OpensslLib:obj_dat.obj
 0002:0000bbb8       ??_C@_0CH@KEBIEEKM@GOST?5R?534?410?92012?5?$CI512?5bit?$CJ?5Par@ 000000000007eb98     OpensslLib:obj_dat.obj
 0002:0000bbe0       ??_C@_0CF@NMEOBCEB@id?9tc26?9gost?93410?92012?9512?9para@ 000000000007ebc0     OpensslLib:obj_dat.obj
 0002:0000bc08       ??_C@_0CH@IPDFBHGP@GOST?5R?534?410?92012?5?$CI512?5bit?$CJ?5Par@ 000000000007ebe8     OpensslLib:obj_dat.obj
 0002:0000bc30       ??_C@_0BJ@GEIKEFNA@id?9tc26?9digest?9constants@ 000000000007ec10     OpensslLib:obj_dat.obj
 0002:0000bc50       ??_C@_0BJ@NHFOAFHC@id?9tc26?9cipher?9constants@ 000000000007ec30     OpensslLib:obj_dat.obj
 0002:0000bc70       ??_C@_0BN@EAAGDAMM@id?9tc26?9gost?928147?9constants@ 000000000007ec50     OpensslLib:obj_dat.obj
 0002:0000bc90       ??_C@_0BL@JJBMFHGO@id?9tc26?9gost?928147?9param?9Z@ 000000000007ec70     OpensslLib:obj_dat.obj
 0002:0000bcb0       ??_C@_0CB@CNOGCECB@GOST?528147?989?5TC26?5parameter?5se@ 000000000007ec90     OpensslLib:obj_dat.obj
 0002:0000bcd4       ??_C@_03CMFJPFBF@INN@      000000000007ecb4     OpensslLib:obj_dat.obj
 0002:0000bcd8       ??_C@_04OEHPDPKL@OGRN@     000000000007ecb8     OpensslLib:obj_dat.obj
 0002:0000bce0       ??_C@_05CNOOKPKJ@SNILS@    000000000007ecc0     OpensslLib:obj_dat.obj
 0002:0000bce8       ??_C@_0BA@NDMKBCND@subjectSignTool@ 000000000007ecc8     OpensslLib:obj_dat.obj
 0002:0000bcf8       ??_C@_0BI@GJCFDOKO@Signing?5Tool?5of?5Subject@ 000000000007ecd8     OpensslLib:obj_dat.obj
 0002:0000bd10       ??_C@_0P@DOAHENPB@issuerSignTool@ 000000000007ecf0     OpensslLib:obj_dat.obj
 0002:0000bd20       ??_C@_0BH@GHEABPMA@Signing?5Tool?5of?5Issuer@ 000000000007ed00     OpensslLib:obj_dat.obj
 0002:0000bd38       ??_C@_0L@IBPHNLAN@gost89?9cbc@ 000000000007ed18     OpensslLib:obj_dat.obj
 0002:0000bd48       ??_C@_0L@LMEFNPKH@gost89?9ecb@ 000000000007ed28     OpensslLib:obj_dat.obj
 0002:0000bd58       ??_C@_0L@MKIFCHNP@gost89?9ctr@ 000000000007ed38     OpensslLib:obj_dat.obj
 0002:0000bd68       ??_C@_0BA@BNIBKCOB@grasshopper?9ecb@ 000000000007ed48     OpensslLib:obj_dat.obj
 0002:0000bd78       ??_C@_0BA@GLEBFKJJ@grasshopper?9ctr@ 000000000007ed58     OpensslLib:obj_dat.obj
 0002:0000bd88       ??_C@_0BA@HEPHIAGO@grasshopper?9ofb@ 000000000007ed68     OpensslLib:obj_dat.obj
 0002:0000bd98       ??_C@_0BA@CADDKGEL@grasshopper?9cbc@ 000000000007ed78     OpensslLib:obj_dat.obj
 0002:0000bda8       ??_C@_0BA@DOCBDPNG@grasshopper?9cfb@ 000000000007ed88     OpensslLib:obj_dat.obj
 0002:0000bdb8       ??_C@_0BA@MCKKGPCB@grasshopper?9mac@ 000000000007ed98     OpensslLib:obj_dat.obj
 0002:0000bdc8       ??_C@_0BC@PEKIBJLH@ChaCha20?9Poly1305@ 000000000007eda8     OpensslLib:obj_dat.obj
 0002:0000bde0       ??_C@_0BC@KDNKBNLK@chacha20?9poly1305@ 000000000007edc0     OpensslLib:obj_dat.obj
 0002:0000bdf8       ??_C@_08ILJLPLOJ@ChaCha20@ 000000000007edd8     OpensslLib:obj_dat.obj
 0002:0000be08       ??_C@_08OMGHMHM@chacha20@  000000000007ede8     OpensslLib:obj_dat.obj
 0002:0000be18       ??_C@_0L@MLJIFHHA@tlsfeature@ 000000000007edf8     OpensslLib:obj_dat.obj
 0002:0000be28       ??_C@_0M@FNEPCNIJ@TLS?5Feature@ 000000000007ee08     OpensslLib:obj_dat.obj
 0002:0000be38       ??_C@_08KOCGPNOB@TLS1?9PRF@ 000000000007ee18     OpensslLib:obj_dat.obj
 0002:0000be48       ??_C@_08BHOHOJPE@tls1?9prf@ 000000000007ee28     OpensslLib:obj_dat.obj
 0002:0000be58       ??_C@_08JJANKCK@ipsecIKE@  000000000007ee38     OpensslLib:obj_dat.obj
 0002:0000be68       ??_C@_0BM@OPBJFEOG@ipsec?5Internet?5Key?5Exchange@ 000000000007ee48     OpensslLib:obj_dat.obj
 0002:0000be88       ??_C@_08PPHHBOBH@capwapAC@ 000000000007ee68     OpensslLib:obj_dat.obj
 0002:0000be98       ??_C@_0BK@IALCAIEG@Ctrl?1provision?5WAP?5Access@ 000000000007ee78     OpensslLib:obj_dat.obj
 0002:0000beb8       ??_C@_09FFIMBCDL@capwapWTP@ 000000000007ee98     OpensslLib:obj_dat.obj
 0002:0000bec8       ??_C@_0BP@LFGCKHED@Ctrl?1Provision?5WAP?5Termination@ 000000000007eea8     OpensslLib:obj_dat.obj
 0002:0000bee8       ??_C@_0BC@DBPEJOAM@secureShellClient@ 000000000007eec8     OpensslLib:obj_dat.obj
 0002:0000bf00       ??_C@_0L@CACOODCE@SSH?5Client@ 000000000007eee0     OpensslLib:obj_dat.obj
 0002:0000bf10       ??_C@_0BC@HOLGEFIP@secureShellServer@ 000000000007eef0     OpensslLib:obj_dat.obj
 0002:0000bf28       ??_C@_0L@GPGMDIKH@SSH?5Server@ 000000000007ef08     OpensslLib:obj_dat.obj
 0002:0000bf38       ??_C@_0L@MPOEEOHI@sendRouter@ 000000000007ef18     OpensslLib:obj_dat.obj
 0002:0000bf48       ??_C@_0M@BCAJACPB@Send?5Router@ 000000000007ef28     OpensslLib:obj_dat.obj
 0002:0000bf58       ??_C@_0BC@KKHBJBOB@sendProxiedRouter@ 000000000007ef38     OpensslLib:obj_dat.obj
 0002:0000bf70       ??_C@_0BE@JHOOFFHO@Send?5Proxied?5Router@ 000000000007ef50     OpensslLib:obj_dat.obj
 0002:0000bf88       ??_C@_09JAHHKBGP@sendOwner@ 000000000007ef68     OpensslLib:obj_dat.obj
 0002:0000bf98       ??_C@_0L@HAEHOBAA@Send?5Owner@ 000000000007ef78     OpensslLib:obj_dat.obj
 0002:0000bfa8       ??_C@_0BB@LFHBPODH@sendProxiedOwner@ 000000000007ef88     OpensslLib:obj_dat.obj
 0002:0000bfc0       ??_C@_0BD@PCCALGFC@Send?5Proxied?5Owner@ 000000000007efa0     OpensslLib:obj_dat.obj
 0002:0000bfd8       ??_C@_09JPKOOJPP@id?9pkinit@ 000000000007efb8     OpensslLib:obj_dat.obj
 0002:0000bfe8       ??_C@_0BB@EPFMAKG@pkInitClientAuth@ 000000000007efc8     OpensslLib:obj_dat.obj
 0002:0000c000       ??_C@_0BD@EMKKJPI@PKINIT?5Client?5Auth@ 000000000007efe0     OpensslLib:obj_dat.obj
 0002:0000c018       ??_C@_09BKCKBNGN@pkInitKDC@ 000000000007eff8     OpensslLib:obj_dat.obj
 0002:0000c028       ??_C@_0BF@JILKFMLF@Signing?5KDC?5Response@ 000000000007f008     OpensslLib:obj_dat.obj
 0002:0000c040       ??_C@_06LOACBMIP@X25519@   000000000007f020     OpensslLib:obj_dat.obj
 0002:0000c048       ??_C@_04HKAKBCKJ@X448@     000000000007f028     OpensslLib:obj_dat.obj
 0002:0000c050       ??_C@_04MMPLAJMJ@HKDF@     000000000007f030     OpensslLib:obj_dat.obj
 0002:0000c058       ??_C@_04MBOLLB@hkdf@       000000000007f038     OpensslLib:obj_dat.obj
 0002:0000c060       ??_C@_05EJMCGHJ@KxRSA@     000000000007f040     OpensslLib:obj_dat.obj
 0002:0000c068       ??_C@_06NOGFLIHP@kx?9rsa@  000000000007f048     OpensslLib:obj_dat.obj
 0002:0000c070       ??_C@_07JGJKHBHF@KxECDHE@  000000000007f050     OpensslLib:obj_dat.obj
 0002:0000c078       ??_C@_08HKLONAAL@kx?9ecdhe@ 000000000007f058     OpensslLib:obj_dat.obj
 0002:0000c084       ??_C@_05FPBKHKP@KxDHE@     000000000007f064     OpensslLib:obj_dat.obj
 0002:0000c08c       ??_C@_06NPAIDJKJ@kx?9dhe@  000000000007f06c     OpensslLib:obj_dat.obj
 0002:0000c098       ??_C@_0M@BEDLOEBI@KxECDHE?9PSK@ 000000000007f078     OpensslLib:obj_dat.obj
 0002:0000c0a8       ??_C@_0N@BCMOIGGJ@kx?9ecdhe?9psk@ 000000000007f088     OpensslLib:obj_dat.obj
 0002:0000c0b8       ??_C@_09DLNJIEPF@KxDHE?9PSK@ 000000000007f098     OpensslLib:obj_dat.obj
 0002:0000c0c8       ??_C@_0L@EHLMOCJB@kx?9dhe?9psk@ 000000000007f0a8     OpensslLib:obj_dat.obj
 0002:0000c0d8       ??_C@_09PMFHIFNE@KxRSA_PSK@ 000000000007f0b8     OpensslLib:obj_dat.obj
 0002:0000c0e8       ??_C@_0L@DCAFABP@kx?9rsa?9psk@ 000000000007f0c8     OpensslLib:obj_dat.obj
 0002:0000c0f4       ??_C@_05FEHKAGHI@KxPSK@    000000000007f0d4     OpensslLib:obj_dat.obj
 0002:0000c0fc       ??_C@_06IOIDJIHO@kx?9psk@  000000000007f0dc     OpensslLib:obj_dat.obj
 0002:0000c104       ??_C@_05OODLAIDL@KxSRP@    000000000007f0e4     OpensslLib:obj_dat.obj
 0002:0000c10c       ??_C@_06DEMCJGDN@kx?9srp@  000000000007f0ec     OpensslLib:obj_dat.obj
 0002:0000c114       ??_C@_06FKGHEKCF@KxGOST@   000000000007f0f4     OpensslLib:obj_dat.obj
 0002:0000c120       ??_C@_07CGFKDCCM@kx?9gost@ 000000000007f100     OpensslLib:obj_dat.obj
 0002:0000c128       ??_C@_07BONHEHLG@AuthRSA@  000000000007f108     OpensslLib:obj_dat.obj
 0002:0000c130       ??_C@_08JIOIJHAA@auth?9rsa@ 000000000007f110     OpensslLib:obj_dat.obj
 0002:0000c140       ??_C@_09JEFCHIOE@AuthECDSA@ 000000000007f120     OpensslLib:obj_dat.obj
 0002:0000c150       ??_C@_0L@NNHEHHD@auth?9ecdsa@ 000000000007f130     OpensslLib:obj_dat.obj
 0002:0000c160       ??_C@_07EODBGHLH@AuthPSK@  000000000007f140     OpensslLib:obj_dat.obj
 0002:0000c168       ??_C@_08MIAOLHAB@auth?9psk@ 000000000007f148     OpensslLib:obj_dat.obj
 0002:0000c178       ??_C@_07BDFBDPCG@AuthDSS@  000000000007f158     OpensslLib:obj_dat.obj
 0002:0000c180       ??_C@_08JFGOOPJA@auth?9dss@ 000000000007f160     OpensslLib:obj_dat.obj
 0002:0000c190       ??_C@_0L@JLNHNDLF@AuthGOST01@ 000000000007f170     OpensslLib:obj_dat.obj
 0002:0000c1a0       ??_C@_0M@MNGIBGIN@auth?9gost01@ 000000000007f180     OpensslLib:obj_dat.obj
 0002:0000c1b0       ??_C@_0L@LBDIOKEB@AuthGOST12@ 000000000007f190     OpensslLib:obj_dat.obj
 0002:0000c1c0       ??_C@_0M@OHIHCPHJ@auth?9gost12@ 000000000007f1a0     OpensslLib:obj_dat.obj
 0002:0000c1d0       ??_C@_07PEHAGJPE@AuthSRP@  000000000007f1b0     OpensslLib:obj_dat.obj
 0002:0000c1d8       ??_C@_08HCEPLJEC@auth?9srp@ 000000000007f1b8     OpensslLib:obj_dat.obj
 0002:0000c1e8       ??_C@_08PGHDHHPL@AuthNULL@ 000000000007f1c8     OpensslLib:obj_dat.obj
 0002:0000c1f8       ??_C@_09EBHDHKDA@auth?9null@ 000000000007f1d8     OpensslLib:obj_dat.obj
 0002:0000c208       ??_C@_0L@JAJLMLPM@BLAKE2b512@ 000000000007f1e8     OpensslLib:obj_dat.obj
 0002:0000c218       ??_C@_0L@ONGAJOJC@blake2b512@ 000000000007f1f8     OpensslLib:obj_dat.obj
 0002:0000c228       ??_C@_0L@DDKJCAKP@BLAKE2s256@ 000000000007f208     OpensslLib:obj_dat.obj
 0002:0000c238       ??_C@_0L@EOFCHFMB@blake2s256@ 000000000007f218     OpensslLib:obj_dat.obj
 0002:0000c248       ??_C@_0BO@OGCFEAKN@id?9smime?9ct?9contentCollection@ 000000000007f228     OpensslLib:obj_dat.obj
 0002:0000c268       ??_C@_0BO@INCMCPON@id?9smime?9ct?9authEnvelopedData@ 000000000007f248     OpensslLib:obj_dat.obj
 0002:0000c288       ??_C@_09GGALBJKN@id?9ct?9xml@ 000000000007f268     OpensslLib:obj_dat.obj
 0002:0000c298       ??_C@_08PKNBIDPH@Poly1305@ 000000000007f278     OpensslLib:obj_dat.obj
 0002:0000c2a8       ??_C@_08HICAABFE@poly1305@ 000000000007f288     OpensslLib:obj_dat.obj
 0002:0000c2b8       ??_C@_07EEPCGEAM@SipHash@  000000000007f298     OpensslLib:obj_dat.obj
 0002:0000c2c0       ??_C@_07HMEFCJFO@siphash@  000000000007f2a0     OpensslLib:obj_dat.obj
 0002:0000c2c8       ??_C@_05NANFHGHC@KxANY@    000000000007f2a8     OpensslLib:obj_dat.obj
 0002:0000c2d0       ??_C@_06KCMOIHE@kx?9any@   000000000007f2b0     OpensslLib:obj_dat.obj
 0002:0000c2d8       ??_C@_07MKJOBHLN@AuthANY@  000000000007f2b8     OpensslLib:obj_dat.obj
 0002:0000c2e0       ??_C@_08EMKBMHAL@auth?9any@ 000000000007f2c0     OpensslLib:obj_dat.obj
 0002:0000c2f0       ??_C@_0N@FEKJCEDM@ARIA?9128?9ECB@ 000000000007f2d0     OpensslLib:obj_dat.obj
 0002:0000c300       ??_C@_0N@DLNMPFEK@aria?9128?9ecb@ 000000000007f2e0     OpensslLib:obj_dat.obj
 0002:0000c310       ??_C@_0N@GJBLCAJG@ARIA?9128?9CBC@ 000000000007f2f0     OpensslLib:obj_dat.obj
 0002:0000c320       ??_C@_0N@GGOPBOA@aria?9128?9cbc@ 000000000007f300     OpensslLib:obj_dat.obj
 0002:0000c330       ??_C@_0N@HHAJLJAL@ARIA?9128?9CFB@ 000000000007f310     OpensslLib:obj_dat.obj
 0002:0000c340       ??_C@_0N@BIHMGIHN@aria?9128?9cfb@ 000000000007f320     OpensslLib:obj_dat.obj
 0002:0000c350       ??_C@_0N@DNNPAGLD@ARIA?9128?9OFB@ 000000000007f330     OpensslLib:obj_dat.obj
 0002:0000c360       ??_C@_0N@FCKKNHMF@aria?9128?9ofb@ 000000000007f340     OpensslLib:obj_dat.obj
 0002:0000c370       ??_C@_0N@CCGJNMEE@ARIA?9128?9CTR@ 000000000007f350     OpensslLib:obj_dat.obj
 0002:0000c380       ??_C@_0N@ENBMANDC@aria?9128?9ctr@ 000000000007f360     OpensslLib:obj_dat.obj
 0002:0000c390       ??_C@_0N@PHDFFDKA@ARIA?9192?9ECB@ 000000000007f370     OpensslLib:obj_dat.obj
 0002:0000c3a0       ??_C@_0N@JIEAICNG@aria?9192?9ecb@ 000000000007f380     OpensslLib:obj_dat.obj
 0002:0000c3b0       ??_C@_0N@MKIHFHAK@ARIA?9192?9CBC@ 000000000007f390     OpensslLib:obj_dat.obj
 0002:0000c3c0       ??_C@_0N@KFPCIGHM@aria?9192?9cbc@ 000000000007f3a0     OpensslLib:obj_dat.obj
 0002:0000c3d0       ??_C@_0N@NEJFMOJH@ARIA?9192?9CFB@ 000000000007f3b0     OpensslLib:obj_dat.obj
 0002:0000c3e0       ??_C@_0N@LLOABPOB@aria?9192?9cfb@ 000000000007f3c0     OpensslLib:obj_dat.obj
 0002:0000c3f0       ??_C@_0N@JOEDHBCP@ARIA?9192?9OFB@ 000000000007f3d0     OpensslLib:obj_dat.obj
 0002:0000c400       ??_C@_0N@PBDGKAFJ@aria?9192?9ofb@ 000000000007f3e0     OpensslLib:obj_dat.obj
 0002:0000c410       ??_C@_0N@IBPFKLNI@ARIA?9192?9CTR@ 000000000007f3f0     OpensslLib:obj_dat.obj
 0002:0000c420       ??_C@_0N@OOIAHKKO@aria?9192?9ctr@ 000000000007f400     OpensslLib:obj_dat.obj
 0002:0000c430       ??_C@_0N@CFILHMCB@ARIA?9256?9ECB@ 000000000007f410     OpensslLib:obj_dat.obj
 0002:0000c440       ??_C@_0N@EKPOKNFH@aria?9256?9ecb@ 000000000007f420     OpensslLib:obj_dat.obj
 0002:0000c450       ??_C@_0N@BIDJHIIL@ARIA?9256?9CBC@ 000000000007f430     OpensslLib:obj_dat.obj
 0002:0000c460       ??_C@_0N@HHEMKJPN@aria?9256?9cbc@ 000000000007f440     OpensslLib:obj_dat.obj
 0002:0000c470       ??_C@_0N@GCLOBBG@ARIA?9256?9CFB@ 000000000007f450     OpensslLib:obj_dat.obj
 0002:0000c480       ??_C@_0N@GJFODAGA@aria?9256?9cfb@ 000000000007f460     OpensslLib:obj_dat.obj
 0002:0000c490       ??_C@_0N@EMPNFOKO@ARIA?9256?9OFB@ 000000000007f470     OpensslLib:obj_dat.obj
 0002:0000c4a0       ??_C@_0N@CDIIIPNI@aria?9256?9ofb@ 000000000007f480     OpensslLib:obj_dat.obj
 0002:0000c4b0       ??_C@_0N@FDELIEFJ@ARIA?9256?9CTR@ 000000000007f490     OpensslLib:obj_dat.obj
 0002:0000c4c0       ??_C@_0N@DMDOFFCP@aria?9256?9ctr@ 000000000007f4a0     OpensslLib:obj_dat.obj
 0002:0000c4d0       ??_C@_0O@FBPINHID@ARIA?9128?9CFB1@ 000000000007f4b0     OpensslLib:obj_dat.obj
 0002:0000c4e0       ??_C@_0O@OIPBHGFL@aria?9128?9cfb1@ 000000000007f4c0     OpensslLib:obj_dat.obj
 0002:0000c4f0       ??_C@_0O@KIOCJEJL@ARIA?9192?9CFB1@ 000000000007f4d0     OpensslLib:obj_dat.obj
 0002:0000c500       ??_C@_0O@BBOLDFED@aria?9192?9cfb1@ 000000000007f4e0     OpensslLib:obj_dat.obj
 0002:0000c510       ??_C@_0O@DCIPJJAC@ARIA?9256?9CFB1@ 000000000007f4f0     OpensslLib:obj_dat.obj
 0002:0000c520       ??_C@_0O@ILIGDINK@aria?9256?9cfb1@ 000000000007f500     OpensslLib:obj_dat.obj
 0002:0000c530       ??_C@_0O@IADKGMMK@ARIA?9128?9CFB8@ 000000000007f510     OpensslLib:obj_dat.obj
 0002:0000c540       ??_C@_0O@DJDDMNBC@aria?9128?9cfb8@ 000000000007f520     OpensslLib:obj_dat.obj
 0002:0000c550       ??_C@_0O@HJCACPNC@ARIA?9192?9CFB8@ 000000000007f530     OpensslLib:obj_dat.obj
 0002:0000c560       ??_C@_0O@MACJIOAK@aria?9192?9cfb8@ 000000000007f540     OpensslLib:obj_dat.obj
 0002:0000c570       ??_C@_0O@ODENCCEL@ARIA?9256?9CFB8@ 000000000007f550     OpensslLib:obj_dat.obj
 0002:0000c580       ??_C@_0O@FKEEIDJD@aria?9256?9cfb8@ 000000000007f560     OpensslLib:obj_dat.obj
 0002:0000c590       ??_C@_0CB@IFNLAOKJ@id?9smime?9aa?9signingCertificateV@ 000000000007f570     OpensslLib:obj_dat.obj
 0002:0000c5b8       ??_C@_07IHEPCGKL@ED25519@  000000000007f598     OpensslLib:obj_dat.obj
 0002:0000c5c0       ??_C@_05PHGPKFEL@ED448@    000000000007f5a0     OpensslLib:obj_dat.obj
 0002:0000c5c8       ??_C@_0BH@IMGBFLPH@organizationIdentifier@ 000000000007f5a8     OpensslLib:obj_dat.obj
 0002:0000c5e0       ??_C@_02LOEEDGKE@c3@       000000000007f5c0     OpensslLib:obj_dat.obj
 0002:0000c5e8       ??_C@_0O@FPCOELAL@countryCode3c@ 000000000007f5c8     OpensslLib:obj_dat.obj
 0002:0000c5f8       ??_C@_02LGJMKFPH@n3@       000000000007f5d8     OpensslLib:obj_dat.obj
 0002:0000c600       ??_C@_0O@OKIADFEG@countryCode3n@ 000000000007f5e0     OpensslLib:obj_dat.obj
 0002:0000c610       ??_C@_07KEJPHHNP@dnsName@  000000000007f5f0     OpensslLib:obj_dat.obj
 0002:0000c618       ??_C@_0BB@NCOFGOBL@x509ExtAdmission@ 000000000007f5f8     OpensslLib:obj_dat.obj
 0002:0000c630       ??_C@_0DA@NCCMDEGO@Professional?5Information?5or?5bas@ 000000000007f610     OpensslLib:obj_dat.obj
 0002:0000c660       ??_C@_0L@EEJNOJOJ@SHA512?9224@ 000000000007f640     OpensslLib:obj_dat.obj
 0002:0000c670       ??_C@_0L@PKNOHEN@sha512?9224@ 000000000007f650     OpensslLib:obj_dat.obj
 0002:0000c680       ??_C@_0L@HDOEJNOO@SHA512?9256@ 000000000007f660     OpensslLib:obj_dat.obj
 0002:0000c690       ??_C@_0L@DINEJDEK@sha512?9256@ 000000000007f670     OpensslLib:obj_dat.obj
 0002:0000c6a0       ??_C@_08DHHFFNOC@SHA3?9224@ 000000000007f680     OpensslLib:obj_dat.obj
 0002:0000c6b0       ??_C@_08IDEPIEIL@sha3?9224@ 000000000007f690     OpensslLib:obj_dat.obj
 0002:0000c6c0       ??_C@_08MCJOF@SHA3?9256@   000000000007f6a0     OpensslLib:obj_dat.obj
 0002:0000c6d0       ??_C@_08LEDGPAIM@sha3?9256@ 000000000007f6b0     OpensslLib:obj_dat.obj
 0002:0000c6e0       ??_C@_08ICFOLPFB@SHA3?9384@ 000000000007f6c0     OpensslLib:obj_dat.obj
 0002:0000c6f0       ??_C@_08DGGEGGDI@sha3?9384@ 000000000007f6d0     OpensslLib:obj_dat.obj
 0002:0000c700       ??_C@_08POLOHMIE@SHA3?9512@ 000000000007f6e0     OpensslLib:obj_dat.obj
 0002:0000c710       ??_C@_08EKIEKFON@sha3?9512@ 000000000007f6f0     OpensslLib:obj_dat.obj
 0002:0000c720       ??_C@_08MHEGAOCA@SHAKE128@ 000000000007f700     OpensslLib:obj_dat.obj
 0002:0000c730       ??_C@_08LFBBPNHL@shake128@ 000000000007f710     OpensslLib:obj_dat.obj
 0002:0000c740       ??_C@_08EODPJKMF@SHAKE256@ 000000000007f720     OpensslLib:obj_dat.obj
 0002:0000c750       ??_C@_08DMGIGJJO@shake256@ 000000000007f730     OpensslLib:obj_dat.obj
 0002:0000c760       ??_C@_0BE@MGFGMONP@id?9hmacWithSHA3?9224@ 000000000007f740     OpensslLib:obj_dat.obj
 0002:0000c778       ??_C@_0O@ICMEJKOD@hmac?9sha3?9224@ 000000000007f758     OpensslLib:obj_dat.obj
 0002:0000c788       ??_C@_0BE@PBCPLKNI@id?9hmacWithSHA3?9256@ 000000000007f768     OpensslLib:obj_dat.obj
 0002:0000c7a0       ??_C@_0O@LFLNOOOE@hmac?9sha3?9256@ 000000000007f780     OpensslLib:obj_dat.obj
 0002:0000c7b0       ??_C@_0BE@HDHNCMGM@id?9hmacWithSHA3?9384@ 000000000007f790     OpensslLib:obj_dat.obj
 0002:0000c7c8       ??_C@_0O@DHOPHIFA@hmac?9sha3?9384@ 000000000007f7a8     OpensslLib:obj_dat.obj
 0002:0000c7d8       ??_C@_0BE@PJNOPLJ@id?9hmacWithSHA3?9512@ 000000000007f7b8     OpensslLib:obj_dat.obj
 0002:0000c7f0       ??_C@_0O@ELAPLLIF@hmac?9sha3?9512@ 000000000007f7d0     OpensslLib:obj_dat.obj
 0002:0000c800       ??_C@_0BD@LAAPDDDN@id?9dsa?9with?9sha384@ 000000000007f7e0     OpensslLib:obj_dat.obj
 0002:0000c818       ??_C@_0BA@NOAAHENE@dsa_with_SHA384@ 000000000007f7f8     OpensslLib:obj_dat.obj
 0002:0000c828       ??_C@_0BD@MMOPPAOI@id?9dsa?9with?9sha512@ 000000000007f808     OpensslLib:obj_dat.obj
 0002:0000c840       ??_C@_0BA@KCOALHAB@dsa_with_SHA512@ 000000000007f820     OpensslLib:obj_dat.obj
 0002:0000c850       ??_C@_0BF@MEJGBMIA@id?9dsa?9with?9sha3?9224@ 000000000007f830     OpensslLib:obj_dat.obj
 0002:0000c868       ??_C@_0BC@KDJCOOBJ@dsa_with_SHA3?9224@ 000000000007f848     OpensslLib:obj_dat.obj
 0002:0000c880       ??_C@_0BF@PDOPGIIH@id?9dsa?9with?9sha3?9256@ 000000000007f860     OpensslLib:obj_dat.obj
 0002:0000c898       ??_C@_0BC@JEOLJKBO@dsa_with_SHA3?9256@ 000000000007f878     OpensslLib:obj_dat.obj
 0002:0000c8b0       ??_C@_0BF@HBLNPODD@id?9dsa?9with?9sha3?9384@ 000000000007f890     OpensslLib:obj_dat.obj
 0002:0000c8c8       ??_C@_0BC@BGLJAMKK@dsa_with_SHA3?9384@ 000000000007f8a8     OpensslLib:obj_dat.obj
 0002:0000c8e0       ??_C@_0BF@NFNDNOG@id?9dsa?9with?9sha3?9512@ 000000000007f8c0     OpensslLib:obj_dat.obj
 0002:0000c8f8       ??_C@_0BC@GKFJMPHP@dsa_with_SHA3?9512@ 000000000007f8d8     OpensslLib:obj_dat.obj
 0002:0000c910       ??_C@_0BH@CPKNOLKD@id?9ecdsa?9with?9sha3?9224@ 000000000007f8f0     OpensslLib:obj_dat.obj
 0002:0000c928       ??_C@_0BE@HAIIGEO@ecdsa_with_SHA3?9224@ 000000000007f908     OpensslLib:obj_dat.obj
 0002:0000c940       ??_C@_0BH@BINEJPKE@id?9ecdsa?9with?9sha3?9256@ 000000000007f920     OpensslLib:obj_dat.obj
 0002:0000c958       ??_C@_0BE@DAHBPCEJ@ecdsa_with_SHA3?9256@ 000000000007f938     OpensslLib:obj_dat.obj
 0002:0000c970       ??_C@_0BH@JKIGAJBA@id?9ecdsa?9with?9sha3?9384@ 000000000007f950     OpensslLib:obj_dat.obj
 0002:0000c988       ??_C@_0BE@LCCDGEPN@ecdsa_with_SHA3?9384@ 000000000007f968     OpensslLib:obj_dat.obj
 0002:0000c9a0       ??_C@_0BH@OGGGMKMF@id?9ecdsa?9with?9sha3?9512@ 000000000007f980     OpensslLib:obj_dat.obj
 0002:0000c9b8       ??_C@_0BE@MOMDKHCI@ecdsa_with_SHA3?9512@ 000000000007f998     OpensslLib:obj_dat.obj
 0002:0000c9d0       ??_C@_0CD@HOFJHNFO@id?9rsassa?9pkcs1?9v1_5?9with?9sha3?9@ 000000000007f9b0     OpensslLib:obj_dat.obj
 0002:0000c9f8       ??_C@_0N@FBFOELEH@RSA?9SHA3?9224@ 000000000007f9d8     OpensslLib:obj_dat.obj
 0002:0000ca08       ??_C@_0CD@EJCAAJFJ@id?9rsassa?9pkcs1?9v1_5?9with?9sha3?9@ 000000000007f9e8     OpensslLib:obj_dat.obj
 0002:0000ca30       ??_C@_0N@GGCHDPEA@RSA?9SHA3?9256@ 000000000007fa10     OpensslLib:obj_dat.obj
 0002:0000ca40       ??_C@_0CD@MLHCJPON@id?9rsassa?9pkcs1?9v1_5?9with?9sha3?9@ 000000000007fa20     OpensslLib:obj_dat.obj
 0002:0000ca68       ??_C@_0N@OEHFKJPE@RSA?9SHA3?9384@ 000000000007fa48     OpensslLib:obj_dat.obj
 0002:0000ca78       ??_C@_0CD@LHJCFMDI@id?9rsassa?9pkcs1?9v1_5?9with?9sha3?9@ 000000000007fa58     OpensslLib:obj_dat.obj
 0002:0000caa0       ??_C@_0N@JIJFGKCB@RSA?9SHA3?9512@ 000000000007fa80     OpensslLib:obj_dat.obj
 0002:0000cab0       ??_C@_0N@PGFKGHCP@ARIA?9128?9CCM@ 000000000007fa90     OpensslLib:obj_dat.obj
 0002:0000cac0       ??_C@_0N@JJCPLGFJ@aria?9128?9ccm@ 000000000007faa0     OpensslLib:obj_dat.obj
 0002:0000cad0       ??_C@_0N@FFMGBALD@ARIA?9192?9CCM@ 000000000007fab0     OpensslLib:obj_dat.obj
 0002:0000cae0       ??_C@_0N@DKLDMBMF@aria?9192?9ccm@ 000000000007fac0     OpensslLib:obj_dat.obj
 0002:0000caf0       ??_C@_0N@IHHIDPDC@ARIA?9256?9CCM@ 000000000007fad0     OpensslLib:obj_dat.obj
 0002:0000cb00       ??_C@_0N@OIANOOEE@aria?9256?9ccm@ 000000000007fae0     OpensslLib:obj_dat.obj
 0002:0000cb10       ??_C@_0N@HJDIPAHI@ARIA?9128?9GCM@ 000000000007faf0     OpensslLib:obj_dat.obj
 0002:0000cb20       ??_C@_0N@BGENCBAO@aria?9128?9gcm@ 000000000007fb00     OpensslLib:obj_dat.obj
 0002:0000cb30       ??_C@_0N@NKKEIHOE@ARIA?9192?9GCM@ 000000000007fb10     OpensslLib:obj_dat.obj
 0002:0000cb40       ??_C@_0N@LFNBFGJC@aria?9192?9gcm@ 000000000007fb20     OpensslLib:obj_dat.obj
 0002:0000cb50       ??_C@_0N@IBKKIGF@ARIA?9256?9GCM@ 000000000007fb30     OpensslLib:obj_dat.obj
 0002:0000cb60       ??_C@_0N@GHGPHJBD@aria?9256?9gcm@ 000000000007fb40     OpensslLib:obj_dat.obj
 0002:0000cb70       ??_C@_09EEADMLEK@ffdhe2048@ 000000000007fb50     OpensslLib:obj_dat.obj
 0002:0000cb80       ??_C@_09IBMKLECJ@ffdhe3072@ 000000000007fb60     OpensslLib:obj_dat.obj
 0002:0000cb90       ??_C@_09FNBIIADH@ffdhe4096@ 000000000007fb70     OpensslLib:obj_dat.obj
 0002:0000cba0       ??_C@_09KFIKEFOD@ffdhe6144@ 000000000007fb80     OpensslLib:obj_dat.obj
 0002:0000cbb0       ??_C@_09EEDIMPFH@ffdhe8192@ 000000000007fb90     OpensslLib:obj_dat.obj
 0002:0000cbbc       ??_C@_05BDNCIFGE@cmcCA@    000000000007fb9c     OpensslLib:obj_dat.obj
 0002:0000cbc8       ??_C@_0BK@LBDJBFMP@CMC?5Certificate?5Authority@ 000000000007fba8     OpensslLib:obj_dat.obj
 0002:0000cbe4       ??_C@_05ODGEMCD@cmcRA@     000000000007fbc4     OpensslLib:obj_dat.obj
 0002:0000cbf0       ??_C@_0BL@NBGEGOFM@CMC?5Registration?5Authority@ 000000000007fbd0     OpensslLib:obj_dat.obj
 0002:0000cc10       ??_C@_07NOELNIBF@SM4?9ECB@ 000000000007fbf0     OpensslLib:obj_dat.obj
 0002:0000cc18       ??_C@_07OFHLEOKD@sm4?9ecb@ 000000000007fbf8     OpensslLib:obj_dat.obj
 0002:0000cc20       ??_C@_07ODPJNMLP@SM4?9CBC@ 000000000007fc00     OpensslLib:obj_dat.obj
 0002:0000cc28       ??_C@_07NIMJEKAJ@sm4?9cbc@ 000000000007fc08     OpensslLib:obj_dat.obj
 0002:0000cc30       ??_C@_07LHDNPKJK@SM4?9OFB@ 000000000007fc10     OpensslLib:obj_dat.obj
 0002:0000cc38       ??_C@_07IMANGMCM@sm4?9ofb@ 000000000007fc18     OpensslLib:obj_dat.obj
 0002:0000cc40       ??_C@_08BDMAKNBD@SM4?9CFB1@ 000000000007fc20     OpensslLib:obj_dat.obj
 0002:0000cc50       ??_C@_08DBPJILDM@sm4?9cfb1@ 000000000007fc30     OpensslLib:obj_dat.obj
 0002:0000cc60       ??_C@_07PNOLEFCC@SM4?9CFB@ 000000000007fc40     OpensslLib:obj_dat.obj
 0002:0000cc68       ??_C@_07MGNLNDJE@sm4?9cfb@ 000000000007fc48     OpensslLib:obj_dat.obj
 0002:0000cc70       ??_C@_08MCACBGFK@SM4?9CFB8@ 000000000007fc50     OpensslLib:obj_dat.obj
 0002:0000cc80       ??_C@_08OADLDAHF@sm4?9cfb8@ 000000000007fc60     OpensslLib:obj_dat.obj
 0002:0000cc90       ??_C@_07KIILCAGN@SM4?9CTR@ 000000000007fc70     OpensslLib:obj_dat.obj
 0002:0000cc98       ??_C@_07JDLLLGNL@sm4?9ctr@ 000000000007fc78     OpensslLib:obj_dat.obj
 0002:0000cca0       ??_C@_06KNMHIDBL@ISO?9CN@  000000000007fc80     OpensslLib:obj_dat.obj
 0002:0000cca8       ??_C@_0BD@GLPDOOPB@ISO?5CN?5Member?5Body@ 000000000007fc88     OpensslLib:obj_dat.obj
 0002:0000ccbc       ??_C@_05BGAJAOLO@oscca@    000000000007fc9c     OpensslLib:obj_dat.obj
 0002:0000ccc8       ??_C@_09GAILPDAI@sm?9scheme@ 000000000007fca8     OpensslLib:obj_dat.obj
 0002:0000ccd4       ??_C@_03ILCKPLAM@SM3@      000000000007fcb4     OpensslLib:obj_dat.obj
 0002:0000ccd8       ??_C@_03BDFFBCNC@sm3@      000000000007fcb8     OpensslLib:obj_dat.obj
 0002:0000cce0       ??_C@_07DHCHMOJE@RSA?9SM3@ 000000000007fcc0     OpensslLib:obj_dat.obj
 0002:0000cce8       ??_C@_0BF@LJEMNFBJ@sm3WithRSAEncryption@ 000000000007fcc8     OpensslLib:obj_dat.obj
 0002:0000cd00       ??_C@_0P@BJPJCBFP@RSA?9SHA512?1224@ 000000000007fce0     OpensslLib:obj_dat.obj
 0002:0000cd10       ??_C@_0BM@OAMEHMHD@sha512?9224WithRSAEncryption@ 000000000007fcf0     OpensslLib:obj_dat.obj
 0002:0000cd30       ??_C@_0P@COIAFFFI@RSA?9SHA512?1256@ 000000000007fd10     OpensslLib:obj_dat.obj
 0002:0000cd40       ??_C@_0BM@HFDENMBB@sha512?9256WithRSAEncryption@ 000000000007fd20     OpensslLib:obj_dat.obj
 0002:0000cd60       ??_C@_0CF@ELFGJJJE@id?9tc26?9gost?93410?92012?9256?9cons@ 000000000007fd40     OpensslLib:obj_dat.obj
 0002:0000cd88       ??_C@_0CF@FBBBLKKL@id?9tc26?9gost?93410?92012?9256?9para@ 000000000007fd68     OpensslLib:obj_dat.obj
 0002:0000cdb0       ??_C@_0CH@KHJMDINL@GOST?5R?534?410?92012?5?$CI256?5bit?$CJ?5Par@ 000000000007fd90     OpensslLib:obj_dat.obj
 0002:0000cdd8       ??_C@_0CF@MFFFCDAA@id?9tc26?9gost?93410?92012?9512?9para@ 000000000007fdb8     OpensslLib:obj_dat.obj
 0002:0000ce00       ??_C@_0CH@JGCOCGCO@GOST?5R?534?410?92012?5?$CI512?5bit?$CJ?5Par@ 000000000007fde0     OpensslLib:obj_dat.obj
 0002:0000ce28       ??_C@_06DCPEEABG@ISO?9UA@  000000000007fe08     OpensslLib:obj_dat.obj
 0002:0000ce30       ??_C@_06LNLILMPE@ua?9pki@  000000000007fe10     OpensslLib:obj_dat.obj
 0002:0000ce38       ??_C@_09LIAMILCI@dstu28147@ 000000000007fe18     OpensslLib:obj_dat.obj
 0002:0000ce48       ??_C@_0BF@BOFOAMLJ@DSTU?5Gost?528147?92009@ 000000000007fe28     OpensslLib:obj_dat.obj
 0002:0000ce60       ??_C@_0O@KAGMLFFF@dstu28147?9ofb@ 000000000007fe40     OpensslLib:obj_dat.obj
 0002:0000ce70       ??_C@_0BO@NJFBFPDF@DSTU?5Gost?528147?92009?5OFB?5mode@ 000000000007fe50     OpensslLib:obj_dat.obj
 0002:0000ce90       ??_C@_0O@OKLKAKON@dstu28147?9cfb@ 000000000007fe70     OpensslLib:obj_dat.obj
 0002:0000cea0       ??_C@_0BO@DPGFKMCB@DSTU?5Gost?528147?92009?5CFB?5mode@ 000000000007fe80     OpensslLib:obj_dat.obj
 0002:0000cec0       ??_C@_0P@LJDDBCOK@dstu28147?9wrap@ 000000000007fea0     OpensslLib:obj_dat.obj
 0002:0000ced0       ??_C@_0BO@GCIMDMBJ@DSTU?5Gost?528147?92009?5key?5wrap@ 000000000007feb0     OpensslLib:obj_dat.obj
 0002:0000cef0       ??_C@_0BC@NEKEGBFA@hmacWithDstu34311@ 000000000007fed0     OpensslLib:obj_dat.obj
 0002:0000cf08       ??_C@_0BI@PPEFMJDF@HMAC?5DSTU?5Gost?534311?995@ 000000000007fee8     OpensslLib:obj_dat.obj
 0002:0000cf20       ??_C@_09EMDIBIGK@dstu34311@ 000000000007ff00     OpensslLib:obj_dat.obj
 0002:0000cf30       ??_C@_0BD@KEGEMFDO@DSTU?5Gost?534311?995@ 000000000007ff10     OpensslLib:obj_dat.obj
 0002:0000cf48       ??_C@_0L@HJONHGCF@dstu4145le@ 000000000007ff28     OpensslLib:obj_dat.obj
 0002:0000cf58       ??_C@_0BN@DLDIMCIJ@DSTU?54145?92002?5little?5endian@ 000000000007ff38     OpensslLib:obj_dat.obj
 0002:0000cf78       ??_C@_0L@HDHDFLCP@dstu4145be@ 000000000007ff58     OpensslLib:obj_dat.obj
 0002:0000cf88       ??_C@_0BK@JAHDELLE@DSTU?54145?92002?5big?5endian@ 000000000007ff68     OpensslLib:obj_dat.obj
 0002:0000cfa8       ??_C@_08CCOHEDD@uacurve0@  000000000007ff88     OpensslLib:obj_dat.obj
 0002:0000cfb8       ??_C@_0N@OIEODNOG@DSTU?5curve?50@ 000000000007ff98     OpensslLib:obj_dat.obj
 0002:0000cfc8       ??_C@_08BLDFEFHC@uacurve1@ 000000000007ffa8     OpensslLib:obj_dat.obj
 0002:0000cfd8       ??_C@_0N@PBFFAMKH@DSTU?5curve?51@ 000000000007ffb8     OpensslLib:obj_dat.obj
 0002:0000cfe8       ??_C@_08DABIBGLB@uacurve2@ 000000000007ffc8     OpensslLib:obj_dat.obj
 0002:0000cff8       ??_C@_0N@NKHIFPGE@DSTU?5curve?52@ 000000000007ffd8     OpensslLib:obj_dat.obj
 0002:0000d008       ??_C@_08CJADCHPA@uacurve3@ 000000000007ffe8     OpensslLib:obj_dat.obj
 0002:0000d018       ??_C@_0N@MDGDGOCF@DSTU?5curve?53@ 000000000007fff8     OpensslLib:obj_dat.obj
 0002:0000d028       ??_C@_08GGECLBDH@uacurve4@ 0000000000080008     OpensslLib:obj_dat.obj
 0002:0000d038       ??_C@_0N@IMCCPIOC@DSTU?5curve?54@ 0000000000080018     OpensslLib:obj_dat.obj
 0002:0000d048       ??_C@_08HPFJIAHG@uacurve5@ 0000000000080028     OpensslLib:obj_dat.obj
 0002:0000d058       ??_C@_0N@JFDJMJKD@DSTU?5curve?55@ 0000000000080038     OpensslLib:obj_dat.obj
 0002:0000d068       ??_C@_08FEHENDLF@uacurve6@ 0000000000080048     OpensslLib:obj_dat.obj
 0002:0000d078       ??_C@_0N@LOBEJKGA@DSTU?5curve?56@ 0000000000080058     OpensslLib:obj_dat.obj
 0002:0000d088       ??_C@_08ENGPOCPE@uacurve7@ 0000000000080068     OpensslLib:obj_dat.obj
 0002:0000d098       ??_C@_0N@KHAPKLCB@DSTU?5curve?57@ 0000000000080078     OpensslLib:obj_dat.obj
 0002:0000d0a8       ??_C@_08MKPHPODL@uacurve8@ 0000000000080088     OpensslLib:obj_dat.obj
 0002:0000d0b8       ??_C@_0N@CAJHLHOO@DSTU?5curve?58@ 0000000000080098     OpensslLib:obj_dat.obj
 0002:0000d0c8       ??_C@_08NDOMMPHK@uacurve9@ 00000000000800a8     OpensslLib:obj_dat.obj
 0002:0000d0d8       ??_C@_0N@DJIMIGKP@DSTU?5curve?59@ 00000000000800b8     OpensslLib:obj_dat.obj
 0002:0000d0e8       ??_C@_04PHJBIMMG@ieee@     00000000000800c8     OpensslLib:obj_dat.obj
 0002:0000d0f0       ??_C@_0L@LDKGPNGG@ieee?9siswg@ 00000000000800d0     OpensslLib:obj_dat.obj
 0002:0000d100       ??_C@_0CH@DHDAMGDO@IEEE?5Security?5in?5Storage?5Workin@ 00000000000800e0     OpensslLib:obj_dat.obj
 0002:0000d128       ??_C@_03JCDBMKEN@SM2@      0000000000080108     OpensslLib:obj_dat.obj
 0002:0000d12c       ??_C@_03KEOCDJD@sm2@       000000000008010c     OpensslLib:obj_dat.obj
 0002:0000d130       ??_C@_0CE@MLINIGJF@id?9tc26?9cipher?9gostr3412?92015?9m@ 0000000000080110     OpensslLib:obj_dat.obj
 0002:0000d158       ??_C@_0CN@OJMMMFNF@id?9tc26?9cipher?9gostr3412?92015?9m@ 0000000000080138     OpensslLib:obj_dat.obj
 0002:0000d188       ??_C@_0DC@HJFGIJEF@id?9tc26?9cipher?9gostr3412?92015?9m@ 0000000000080168     OpensslLib:obj_dat.obj
 0002:0000d1c0       ??_C@_0CJ@OIMAFCDH@id?9tc26?9cipher?9gostr3412?92015?9k@ 00000000000801a0     OpensslLib:obj_dat.obj
 0002:0000d1f0       ??_C@_0DC@FCNHEHI@id?9tc26?9cipher?9gostr3412?92015?9k@ 00000000000801d0     OpensslLib:obj_dat.obj
 0002:0000d228       ??_C@_0DH@OMEPNOK@id?9tc26?9cipher?9gostr3412?92015?9k@ 0000000000080208     OpensslLib:obj_dat.obj
 0002:0000d260       ??_C@_0N@NOHKDKEG@id?9tc26?9wrap@ 0000000000080240     OpensslLib:obj_dat.obj
 0002:0000d270       ??_C@_0CC@ICCBFKEK@id?9tc26?9wrap?9gostr3412?92015?9mag@ 0000000000080250     OpensslLib:obj_dat.obj
 0002:0000d298       ??_C@_0CJ@GAGBMOFA@id?9tc26?9wrap?9gostr3412?92015?9mag@ 0000000000080278     OpensslLib:obj_dat.obj
 0002:0000d2c8       ??_C@_0CH@HODOOMNG@id?9tc26?9wrap?9gostr3412?92015?9kuz@ 00000000000802a8     OpensslLib:obj_dat.obj
 0002:0000d2f0       ??_C@_0CO@KKJKILDM@id?9tc26?9wrap?9gostr3412?92015?9kuz@ 00000000000802d0     OpensslLib:obj_dat.obj
 0002:0000d320       ??_C@_0CF@HKDMOJGI@id?9tc26?9gost?93410?92012?9256?9para@ 0000000000080300     OpensslLib:obj_dat.obj
 0002:0000d348       ??_C@_0CH@IMLBGLBI@GOST?5R?534?410?92012?5?$CI256?5bit?$CJ?5Par@ 0000000000080328     OpensslLib:obj_dat.obj
 0002:0000d370       ??_C@_0CF@GDCHNICJ@id?9tc26?9gost?93410?92012?9256?9para@ 0000000000080350     OpensslLib:obj_dat.obj
 0002:0000d398       ??_C@_0CH@JFKKFKFJ@GOST?5R?534?410?92012?5?$CI256?5bit?$CJ?5Par@ 0000000000080378     OpensslLib:obj_dat.obj
 0002:0000d3c0       ??_C@_0CF@CMGGEOOO@id?9tc26?9gost?93410?92012?9256?9para@ 00000000000803a0     OpensslLib:obj_dat.obj
 0002:0000d3e8       ??_C@_0CH@NKOLMMJO@GOST?5R?534?410?92012?5?$CI256?5bit?$CJ?5Par@ 00000000000803c8     OpensslLib:obj_dat.obj
 0002:0000d410       ??_C@_09KIGAEFAO@magma?9ecb@ 00000000000803f0     OpensslLib:obj_dat.obj
 0002:0000d420       ??_C@_09NOKALNHG@magma?9ctr@ 0000000000080400     OpensslLib:obj_dat.obj
 0002:0000d430       ??_C@_09MBBGGHIB@magma?9ofb@ 0000000000080410     OpensslLib:obj_dat.obj
 0002:0000d440       ??_C@_09JFNCEBKE@magma?9cbc@ 0000000000080420     OpensslLib:obj_dat.obj
 0002:0000d450       ??_C@_09ILMANIDJ@magma?9cfb@ 0000000000080430     OpensslLib:obj_dat.obj
 0002:0000d460       ??_C@_09HHELIIMO@magma?9mac@ 0000000000080440     OpensslLib:obj_dat.obj
 0002:0000d470       ??_C@_0BD@EJFCDPF@hmacWithSHA512?9224@ 0000000000080450     OpensslLib:obj_dat.obj
 0002:0000d488       ??_C@_0BD@DDOMFHPC@hmacWithSHA512?9256@ 0000000000080468     OpensslLib:obj_dat.obj
 0002:0001e3b8       ??_C@_09DHMKJJNA@ASN1_TIME@ 0000000000091398     OpensslLib:a_time.obj
 0002:0001e3c8       ??_C@_0BK@EMDNDBLP@?$CF04d?$CF02d?$CF02d?$CF02d?$CF02d?$CF02dZ@ 00000000000913a8     OpensslLib:a_time.obj
 0002:0001e3e8       ??_C@_0BK@PMAAGDOP@?$CF02d?$CF02d?$CF02d?$CF02d?$CF02d?$CF02dZ@ 00000000000913c8     OpensslLib:a_time.obj
 0002:0001e404       ??_C@_04FIEKMBKB@?5GMT@    00000000000913e4     OpensslLib:a_time.obj
 0002:0001e410       ??_C@_0BP@OGIOIJMK@?$CFs?5?$CF2d?5?$CF02d?3?$CF02d?3?$CF02d?$CF?4?$CKs?5?$CFd?$CFs@ 00000000000913f0     OpensslLib:a_time.obj
 0002:0001e430       ??_C@_0BL@NKCHLFNC@?$CFs?5?$CF2d?5?$CF02d?3?$CF02d?3?$CF02d?5?$CFd?$CFs@ 0000000000091410     OpensslLib:a_time.obj
 0002:0001e450       ??_C@_0P@FGACABCD@Bad?5time?5value@ 0000000000091430     OpensslLib:a_time.obj
 0002:0001e4e8       ASN1_TIME_it               00000000000914c8     OpensslLib:a_time.obj
 0002:0001e580       ??_C@_04HCDDPBNL@TRUE@     0000000000091560     OpensslLib:v3_utl.obj
 0002:0001e588       ??_C@_05MAJJAKPI@FALSE@    0000000000091568     OpensslLib:v3_utl.obj
 0002:0001e590       ??_C@_03EPGOEBGO@?90x@     0000000000091570     OpensslLib:v3_utl.obj
 0002:0001e594       ??_C@_02MDDDDAID@0x@       0000000000091574     OpensslLib:v3_utl.obj
 0002:0001e598       ??_C@_04LOAJBDKD@true@     0000000000091578     OpensslLib:v3_utl.obj
 0002:0001e5a0       ??_C@_01NFFPALBN@Y@        0000000000091580     OpensslLib:v3_utl.obj
 0002:0001e5a4       ??_C@_01EANLCPLP@y@        0000000000091584     OpensslLib:v3_utl.obj
 0002:0001e5a8       ??_C@_03IPHJCBHH@YES@      0000000000091588     OpensslLib:v3_utl.obj
 0002:0001e5ac       ??_C@_03ICICOMAL@yes@      000000000009158c     OpensslLib:v3_utl.obj
 0002:0001e5b0       ??_C@_05LAPONLG@false@     0000000000091590     OpensslLib:v3_utl.obj
 0002:0001e5b8       ??_C@_01NANMIPIL@N@        0000000000091598     OpensslLib:v3_utl.obj
 0002:0001e5bc       ??_C@_02NFLNFON@NO@        000000000009159c     OpensslLib:v3_utl.obj
 0002:0001e5c0       ??_C@_02KAJCLHKP@no@       00000000000915a0     OpensslLib:v3_utl.obj
 0002:0001e5c8       ??_C@_07BDICHDDB@?0value?3@ 00000000000915a8     OpensslLib:v3_utl.obj
 0002:0001e5d0       ??_C@_06FONLLLNC@?0name?3@ 00000000000915b0     OpensslLib:v3_utl.obj
 0002:0001e5d8       ??_C@_08PCLJGJAL@section?3@ 00000000000915b8     OpensslLib:v3_utl.obj
 0002:0001e5e4       ??_C@_04DLDJKMIA@xn?9?9@   00000000000915c4     OpensslLib:v3_utl.obj
 0002:0001e5f0       ??_C@_0M@PCENNPGA@?$CFd?4?$CFd?4?$CFd?4?$CFd@ 00000000000915d0     OpensslLib:v3_utl.obj
 0002:0001e5fc       ??_C@_06CBHGEMFM@?$DMNULL?$DO@ 00000000000915dc     OpensslLib:err.obj
 0002:0001e608       ??_C@_0L@LCHPILLE@SSL?5client@ 00000000000915e8     OpensslLib:v3_purp.obj
 0002:0001e618       ??_C@_09BLMJDCHK@sslclient@ 00000000000915f8     OpensslLib:v3_purp.obj
 0002:0001e628       ??_C@_0L@PNDNFADH@SSL?5server@ 0000000000091608     OpensslLib:v3_purp.obj
 0002:0001e638       ??_C@_09FEILOJPJ@sslserver@ 0000000000091618     OpensslLib:v3_purp.obj
 0002:0001e648       ??_C@_0BE@BPEJPGJG@Netscape?5SSL?5server@ 0000000000091628     OpensslLib:v3_purp.obj
 0002:0001e660       ??_C@_0M@GKHHMMAE@nssslserver@ 0000000000091640     OpensslLib:v3_purp.obj
 0002:0001e670       ??_C@_0P@LNDEBCCO@S?1MIME?5signing@ 0000000000091650     OpensslLib:v3_purp.obj
 0002:0001e680       ??_C@_09JPGBHOKH@smimesign@ 0000000000091660     OpensslLib:v3_purp.obj
 0002:0001e690       ??_C@_0BC@DOGNOPGC@S?1MIME?5encryption@ 0000000000091670     OpensslLib:v3_purp.obj
 0002:0001e6a8       ??_C@_0N@BPFJELMP@smimeencrypt@ 0000000000091688     OpensslLib:v3_purp.obj
 0002:0001e6b8       ??_C@_0M@MEKLJHLA@CRL?5signing@ 0000000000091698     OpensslLib:v3_purp.obj
 0002:0001e6c8       ??_C@_07IOMCDAPH@crlsign@  00000000000916a8     OpensslLib:v3_purp.obj
 0002:0001e6d0       ??_C@_0M@NMNFLNDB@Any?5Purpose@ 00000000000916b0     OpensslLib:v3_purp.obj
 0002:0001e6dc       ??_C@_03OBJFJEBA@any@      00000000000916bc     OpensslLib:v3_purp.obj
 0002:0001e6e0       ??_C@_0M@NEPIMEJA@OCSP?5helper@ 00000000000916c0     OpensslLib:v3_purp.obj
 0002:0001e6f0       ??_C@_0L@IMHCEJBK@ocsphelper@ 00000000000916d0     OpensslLib:v3_purp.obj
 0002:0001e700       ??_C@_0BD@HLGKGIIB@Time?5Stamp?5signing@ 00000000000916e0     OpensslLib:v3_purp.obj
 0002:0001e718       ??_C@_0O@MABGKINF@timestampsign@ 00000000000916f8     OpensslLib:v3_purp.obj
 0002:0001e758       X509_CRL_it                0000000000091738     OpensslLib:x_crl.obj
 0002:0001e788       X509_CRL_INFO_it           0000000000091768     OpensslLib:x_crl.obj
 0002:0001e7b8       ??_C@_0P@HBDMPDNI@revocationDate@ 0000000000091798     OpensslLib:x_crl.obj
 0002:0001e7c8       ??_C@_0N@JBPKOADN@X509_REVOKED@ 00000000000917a8     OpensslLib:x_crl.obj
 0002:0001e7d8       ??_C@_0L@MPDCJAIM@lastUpdate@ 00000000000917b8     OpensslLib:x_crl.obj
 0002:0001e7e8       ??_C@_0L@BMOABHOK@nextUpdate@ 00000000000917c8     OpensslLib:x_crl.obj
 0002:0001e7f8       ??_C@_07MIJFAMBD@revoked@  00000000000917d8     OpensslLib:x_crl.obj
 0002:0001e800       ??_C@_0O@IMOAEKCP@X509_CRL_INFO@ 00000000000917e0     OpensslLib:x_crl.obj
 0002:0001e810       ??_C@_08JGFBPDAP@X509_CRL@ 00000000000917f0     OpensslLib:x_crl.obj
 0002:0001e820       X509_REVOKED_it            0000000000091800     OpensslLib:x_crl.obj
 0002:0001ea40       ??_C@_07EEDOJOAA@type_id@  0000000000091a20     OpensslLib:v3_genn.obj
 0002:0001ea48       ??_C@_09MAFAINAH@OTHERNAME@ 0000000000091a28     OpensslLib:v3_genn.obj
 0002:0001ea58       ??_C@_0N@KBFEHHDO@nameAssigner@ 0000000000091a38     OpensslLib:v3_genn.obj
 0002:0001ea68       ??_C@_09EHIHAIPF@partyName@ 0000000000091a48     OpensslLib:v3_genn.obj
 0002:0001ea78       ??_C@_0N@GEILLNKP@EDIPARTYNAME@ 0000000000091a58     OpensslLib:v3_genn.obj
 0002:0001ea88       ??_C@_0M@FGIBMCEL@d?4otherName@ 0000000000091a68     OpensslLib:v3_genn.obj
 0002:0001ea98       ??_C@_0N@MMCCMIPN@d?4rfc822Name@ 0000000000091a78     OpensslLib:v3_genn.obj
 0002:0001eaa8       ??_C@_09HIBJABFB@d?4dNSName@ 0000000000091a88     OpensslLib:v3_genn.obj
 0002:0001eab8       ??_C@_0O@NKHOODFK@d?4x400Address@ 0000000000091a98     OpensslLib:v3_genn.obj
 0002:0001eac8       ??_C@_0BA@JLDFBFLN@d?4directoryName@ 0000000000091aa8     OpensslLib:v3_genn.obj
 0002:0001ead8       ??_C@_0P@OBCPPLOL@d?4ediPartyName@ 0000000000091ab8     OpensslLib:v3_genn.obj
 0002:0001eae8       ??_C@_0BM@CMCMADCA@d?4uniformResourceIdentifier@ 0000000000091ac8     OpensslLib:v3_genn.obj
 0002:0001eb08       ??_C@_0M@PANAALJB@d?4iPAddress@ 0000000000091ae8     OpensslLib:v3_genn.obj
 0002:0001eb18       ??_C@_0P@KIENIEMD@d?4registeredID@ 0000000000091af8     OpensslLib:v3_genn.obj
 0002:0001eb28       ??_C@_0N@JCNPGCGM@GENERAL_NAME@ 0000000000091b08     OpensslLib:v3_genn.obj
 0002:0001eb38       ??_C@_0N@CJKIBDLK@GeneralNames@ 0000000000091b18     OpensslLib:v3_genn.obj
 0002:0001eb48       ??_C@_0O@NFAAPMIG@GENERAL_NAMES@ 0000000000091b28     OpensslLib:v3_genn.obj
 0002:0001eb58       GENERAL_NAME_it            0000000000091b38     OpensslLib:v3_genn.obj
 0002:0001eb88       OTHERNAME_it               0000000000091b68     OpensslLib:v3_genn.obj
 0002:0001ec60       GENERAL_NAMES_it           0000000000091c40     OpensslLib:v3_genn.obj
 0002:0001ec90       EDIPARTYNAME_it            0000000000091c70     OpensslLib:v3_genn.obj
 0002:0001ede0       ??_C@_0L@IMDPAGCM@ssl_client@ 0000000000091dc0     OpensslLib:x509_vpm.obj
 0002:0001edf0       ??_C@_0L@MDHNNNKP@ssl_server@ 0000000000091dd0     OpensslLib:x509_vpm.obj
 0002:0001f008       X509_PUBKEY_it             0000000000091fe8     OpensslLib:x_pubkey.obj
 0002:0001f038       ??_C@_05CJCEEADM@algor@    0000000000092018     OpensslLib:x_pubkey.obj
 0002:0001f040       ??_C@_0L@PJCANJEE@public_key@ 0000000000092020     OpensslLib:x_pubkey.obj
 0002:0001f050       ??_C@_0M@INJPOKDH@X509_PUBKEY@ 0000000000092030     OpensslLib:x_pubkey.obj
 0002:0001f0d0       ??_C@_0L@JNOGJJCA@compatible@ 00000000000920b0     OpensslLib:x509_trs.obj
 0002:0001f0e0       ??_C@_0L@HNMCLCCI@SSL?5Client@ 00000000000920c0     OpensslLib:x509_trs.obj
 0002:0001f0f0       ??_C@_0L@DCIAGJKL@SSL?5Server@ 00000000000920d0     OpensslLib:x509_trs.obj
 0002:0001f100       ??_C@_0N@OEEPKGPL@S?1MIME?5email@ 00000000000920e0     OpensslLib:x509_trs.obj
 0002:0001f110       ??_C@_0O@EEPBMPKP@Object?5Signer@ 00000000000920f0     OpensslLib:x509_trs.obj
 0002:0001f120       ??_C@_0P@JHCOMJOI@OCSP?5responder@ 0000000000092100     OpensslLib:x509_trs.obj
 0002:0001f130       ??_C@_0N@CAJJAOJD@OCSP?5request@ 0000000000092110     OpensslLib:x509_trs.obj
 0002:0001f140       ??_C@_0L@CFEJKCOD@TSA?5server@ 0000000000092120     OpensslLib:x509_trs.obj
 0002:0001f190       v3_name_constraints        0000000000092170     OpensslLib:v3_ncons.obj
 0002:0001f1f8       NAME_CONSTRAINTS_it        00000000000921d8     OpensslLib:v3_ncons.obj
 0002:0001f290       GENERAL_SUBTREE_it         0000000000092270     OpensslLib:v3_ncons.obj
 0002:0001f2c0       ??_C@_04BHIIPFEC@base@     00000000000922a0     OpensslLib:v3_ncons.obj
 0002:0001f2c8       ??_C@_07CCOEHHFD@minimum@  00000000000922a8     OpensslLib:v3_ncons.obj
 0002:0001f2d0       ??_C@_07MEIENILC@maximum@  00000000000922b0     OpensslLib:v3_ncons.obj
 0002:0001f2d8       ??_C@_0BA@ECMIFHDE@GENERAL_SUBTREE@ 00000000000922b8     OpensslLib:v3_ncons.obj
 0002:0001f2e8       ??_C@_0BC@FACFJLFB@permittedSubtrees@ 00000000000922c8     OpensslLib:v3_ncons.obj
 0002:0001f300       ??_C@_0BB@HLFEMJKE@excludedSubtrees@ 00000000000922e0     OpensslLib:v3_ncons.obj
 0002:0001f318       ??_C@_0BB@MLLJAFMN@NAME_CONSTRAINTS@ 00000000000922f8     OpensslLib:v3_ncons.obj
 0002:0001f330       ??_C@_09HAKFOFAM@permitted@ 0000000000092310     OpensslLib:v3_ncons.obj
 0002:0001f340       ??_C@_08HPCEJEEF@excluded@ 0000000000092320     OpensslLib:v3_ncons.obj
 0002:0001f350       ??_C@_09DPPIOGNM@Permitted@ 0000000000092330     OpensslLib:v3_ncons.obj
 0002:0001f360       ??_C@_08PNNFBGOG@Excluded@ 0000000000092340     OpensslLib:v3_ncons.obj
 0002:0001f370       ??_C@_07GOIIHCND@?$CF?$CKs?$CFs?3?6@ 0000000000092350     OpensslLib:v3_ncons.obj
 0002:0001f378       ??_C@_03HIJPJGOM@?$CF?$CKs@ 0000000000092358     OpensslLib:v3_ncons.obj
 0002:0001f37c       ??_C@_03HBLCMHJN@IP?3@     000000000009235c     OpensslLib:v3_ncons.obj
 0002:0001f380       ??_C@_01KMDKNFGN@?1@       0000000000092360     OpensslLib:v3_ncons.obj
 0002:0001f490       ??_C@_0BC@PEBEKNCO@ASN1_OCTET_STRING@ 0000000000092470     OpensslLib:tasn_typ.obj
 0002:0001f4a8       ??_C@_0N@KIGEHGKE@ASN1_INTEGER@ 0000000000092488     OpensslLib:tasn_typ.obj
 0002:0001f4b8       ??_C@_0BA@CLGIIAJD@ASN1_ENUMERATED@ 0000000000092498     OpensslLib:tasn_typ.obj
 0002:0001f4c8       ??_C@_0BA@LJHGDIKH@ASN1_BIT_STRING@ 00000000000924a8     OpensslLib:tasn_typ.obj
 0002:0001f4d8       ??_C@_0BA@LEPDCAOC@ASN1_UTF8STRING@ 00000000000924b8     OpensslLib:tasn_typ.obj
 0002:0001f4e8       ??_C@_0BF@CPDMNKCA@ASN1_PRINTABLESTRING@ 00000000000924c8     OpensslLib:tasn_typ.obj
 0002:0001f500       ??_C@_0P@KBFNFBLB@ASN1_IA5STRING@ 00000000000924e0     OpensslLib:tasn_typ.obj
 0002:0001f510       ??_C@_0BF@MPJFOIHC@ASN1_GENERALIZEDTIME@ 00000000000924f0     OpensslLib:tasn_typ.obj
 0002:0001f528       ??_C@_09NHFFCPKK@ASN1_NULL@ 0000000000092508     OpensslLib:tasn_typ.obj
 0002:0001f538       ??_C@_0M@BJNOJGBL@ASN1_OBJECT@ 0000000000092518     OpensslLib:tasn_typ.obj
 0002:0001f548       ??_C@_08FIDCPDIJ@ASN1_ANY@ 0000000000092528     OpensslLib:tasn_typ.obj
 0002:0001f558       ??_C@_0O@NJFCFMGE@ASN1_SEQUENCE@ 0000000000092538     OpensslLib:tasn_typ.obj
 0002:0001f568       ??_C@_0P@NDKOCAEJ@ASN1_PRINTABLE@ 0000000000092548     OpensslLib:tasn_typ.obj
 0002:0001f578       ??_C@_0M@FANFDIEE@DISPLAYTEXT@ 0000000000092558     OpensslLib:tasn_typ.obj
 0002:0001f588       ??_C@_0BA@CBHCBCAE@DIRECTORYSTRING@ 0000000000092568     OpensslLib:tasn_typ.obj
 0002:0001f598       ??_C@_0N@HMAPMMGF@ASN1_BOOLEAN@ 0000000000092578     OpensslLib:tasn_typ.obj
 0002:0001f5a8       ??_C@_0O@JKANHMPI@ASN1_FBOOLEAN@ 0000000000092588     OpensslLib:tasn_typ.obj
 0002:0001f5b8       ??_C@_0BH@HEBAELGA@ASN1_OCTET_STRING_NDEF@ 0000000000092598     OpensslLib:tasn_typ.obj
 0002:0001f5d0       ??_C@_0BC@COPGMDLD@ASN1_SEQUENCE_ANY@ 00000000000925b0     OpensslLib:tasn_typ.obj
 0002:0001f5e8       ??_C@_0N@KHICOJGI@ASN1_SET_ANY@ 00000000000925c8     OpensslLib:tasn_typ.obj
 0002:0001f5f8       ASN1_NULL_it               00000000000925d8     OpensslLib:tasn_typ.obj
 0002:0001f628       ASN1_SEQUENCE_ANY_it       0000000000092608     OpensslLib:tasn_typ.obj
 0002:0001f658       ASN1_ENUMERATED_it         0000000000092638     OpensslLib:tasn_typ.obj
 0002:0001f6a8       ASN1_BOOLEAN_it            0000000000092688     OpensslLib:tasn_typ.obj
 0002:0001f6d8       ASN1_UTF8STRING_it         00000000000926b8     OpensslLib:tasn_typ.obj
 0002:0001f708       ASN1_GENERALIZEDTIME_it    00000000000926e8     OpensslLib:tasn_typ.obj
 0002:0001f738       ASN1_FBOOLEAN_it           0000000000092718     OpensslLib:tasn_typ.obj
 0002:0001f768       ASN1_SET_ANY_it            0000000000092748     OpensslLib:tasn_typ.obj
 0002:0001f7b8       ASN1_PRINTABLESTRING_it    0000000000092798     OpensslLib:tasn_typ.obj
 0002:0001f7e8       DISPLAYTEXT_it             00000000000927c8     OpensslLib:tasn_typ.obj
 0002:0001f818       ASN1_BIT_STRING_it         00000000000927f8     OpensslLib:tasn_typ.obj
 0002:0001f848       ASN1_INTEGER_it            0000000000092828     OpensslLib:tasn_typ.obj
 0002:0001f878       ASN1_OBJECT_it             0000000000092858     OpensslLib:tasn_typ.obj
 0002:0001f8a8       ASN1_PRINTABLE_it          0000000000092888     OpensslLib:tasn_typ.obj
 0002:0001f8d8       ASN1_OCTET_STRING_NDEF_it  00000000000928b8     OpensslLib:tasn_typ.obj
 0002:0001f908       ASN1_OCTET_STRING_it       00000000000928e8     OpensslLib:tasn_typ.obj
 0002:0001f938       ASN1_ANY_it                0000000000092918     OpensslLib:tasn_typ.obj
 0002:0001f968       ASN1_IA5STRING_it          0000000000092948     OpensslLib:tasn_typ.obj
 0002:0001f998       DIRECTORYSTRING_it         0000000000092978     OpensslLib:tasn_typ.obj
 0002:0001f9c8       ASN1_SEQUENCE_it           00000000000929a8     OpensslLib:tasn_typ.obj
 0002:0001f9f8       ??_C@_07NHKPEHKF@?0?5Type?$DN@ 00000000000929d8     OpensslLib:tasn_dec.obj
 0002:0001fa00       ??_C@_06GPKHKFJE@Field?$DN@ 00000000000929e0     OpensslLib:tasn_dec.obj
 0002:0001fa08       ??_C@_05GCCLHHOK@Type?$DN@ 00000000000929e8     OpensslLib:tasn_dec.obj
 0002:0001fa90       ??_C@_09DAGAJHIH@parameter@ 0000000000092a70     OpensslLib:x_algor.obj
 0002:0001faa0       ??_C@_0L@BFHONDPK@X509_ALGOR@ 0000000000092a80     OpensslLib:x_algor.obj
 0002:0001faf0       X509_ALGOR_it              0000000000092ad0     OpensslLib:x_algor.obj
 0002:0001fb20       ??_C@_08BMACPLOA@fullname@ 0000000000092b00     OpensslLib:v3_crld.obj
 0002:0001fb30       ??_C@_0N@LGEOMMHB@relativename@ 0000000000092b10     OpensslLib:v3_crld.obj
 0002:0001fb40       ??_C@_06CGLFEPBO@Unused@   0000000000092b20     OpensslLib:v3_crld.obj
 0002:0001fb48       ??_C@_06OJAIHGIC@unused@   0000000000092b28     OpensslLib:v3_crld.obj
 0002:0001fb50       ??_C@_0P@JENDIECI@Key?5Compromise@ 0000000000092b30     OpensslLib:v3_crld.obj
 0002:0001fb60       ??_C@_0O@MCEAAJLH@keyCompromise@ 0000000000092b40     OpensslLib:v3_crld.obj
 0002:0001fb70       ??_C@_0O@OOGICOKH@CA?5Compromise@ 0000000000092b50     OpensslLib:v3_crld.obj
 0002:0001fb80       ??_C@_0N@NONEFGOE@CACompromise@ 0000000000092b60     OpensslLib:v3_crld.obj
 0002:0001fb90       ??_C@_0BE@EECEIFAP@Affiliation?5Changed@ 0000000000092b70     OpensslLib:v3_crld.obj
 0002:0001fba8       ??_C@_0BD@BNOFAJLL@affiliationChanged@ 0000000000092b88     OpensslLib:v3_crld.obj
 0002:0001fbc0       ??_C@_0L@FBLGFHIM@Superseded@ 0000000000092ba0     OpensslLib:v3_crld.obj
 0002:0001fbd0       ??_C@_0L@NHCKNIFL@superseded@ 0000000000092bb0     OpensslLib:v3_crld.obj
 0002:0001fbe0       ??_C@_0BH@OLCOAMGF@Cessation?5Of?5Operation@ 0000000000092bc0     OpensslLib:v3_crld.obj
 0002:0001fbf8       ??_C@_0BF@IGJCOPF@cessationOfOperation@ 0000000000092bd8     OpensslLib:v3_crld.obj
 0002:0001fc10       ??_C@_0BB@IPDHDNJD@Certificate?5Hold@ 0000000000092bf0     OpensslLib:v3_crld.obj
 0002:0001fc28       ??_C@_0BA@FBHLCNLK@certificateHold@ 0000000000092c08     OpensslLib:v3_crld.obj
 0002:0001fc38       ??_C@_0BE@FJCCMGMM@Privilege?5Withdrawn@ 0000000000092c18     OpensslLib:v3_crld.obj
 0002:0001fc50       ??_C@_0BD@PBLGJKCE@privilegeWithdrawn@ 0000000000092c30     OpensslLib:v3_crld.obj
 0002:0001fc68       ??_C@_0O@PAGOKAK@AA?5Compromise@ 0000000000092c48     OpensslLib:v3_crld.obj
 0002:0001fc78       ??_C@_0N@LOIIODKP@AACompromise@ 0000000000092c58     OpensslLib:v3_crld.obj
 0002:0001fc88       ??_C@_08DGFAABGD@?$DMEMPTY?$DO?6@ 0000000000092c68     OpensslLib:v3_crld.obj
 0002:0001fc98       ??_C@_07PFOCLIJD@reasons@  0000000000092c78     OpensslLib:v3_crld.obj
 0002:0001fca0       ??_C@_09GJHADLCP@CRLissuer@ 0000000000092c80     OpensslLib:v3_crld.obj
 0002:0001fcb0       ??_C@_0O@HJHJCLAE@name?4fullname@ 0000000000092c90     OpensslLib:v3_crld.obj
 0002:0001fcc0       ??_C@_0BC@JDMJBKME@name?4relativename@ 0000000000092ca0     OpensslLib:v3_crld.obj
 0002:0001fcd8       ??_C@_0BA@MLHIPLLG@DIST_POINT_NAME@ 0000000000092cb8     OpensslLib:v3_crld.obj
 0002:0001fce8       ??_C@_09FBDFGJDL@distpoint@ 0000000000092cc8     OpensslLib:v3_crld.obj
 0002:0001fcf8       ??_C@_0L@ELIKPJIH@DIST_POINT@ 0000000000092cd8     OpensslLib:v3_crld.obj
 0002:0001fd08       ??_C@_0BG@CHNNADAE@CRLDistributionPoints@ 0000000000092ce8     OpensslLib:v3_crld.obj
 0002:0001fd20       ??_C@_0BA@BBHAIMOE@CRL_DIST_POINTS@ 0000000000092d00     OpensslLib:v3_crld.obj
 0002:0001fd30       ??_C@_08CENLBPEH@onlyuser@ 0000000000092d10     OpensslLib:v3_crld.obj
 0002:0001fd3c       ??_C@_06PMNIEKCA@onlyCA@   0000000000092d1c     OpensslLib:v3_crld.obj
 0002:0001fd48       ??_C@_0BA@FNMBIJDN@onlysomereasons@ 0000000000092d28     OpensslLib:v3_crld.obj
 0002:0001fd58       ??_C@_0M@BECDICJC@indirectCRL@ 0000000000092d38     OpensslLib:v3_crld.obj
 0002:0001fd68       ??_C@_08DBIINPPL@onlyattr@ 0000000000092d48     OpensslLib:v3_crld.obj
 0002:0001fd78       ??_C@_0BD@ENBCPHJ@ISSUING_DIST_POINT@ 0000000000092d58     OpensslLib:v3_crld.obj
 0002:0001fd8c       ??_C@_06PPFMJOEO@onlyAA@   0000000000092d6c     OpensslLib:v3_crld.obj
 0002:0001fe80       DIST_POINT_it              0000000000092e60     OpensslLib:v3_crld.obj
 0002:0001feb0       v3_crld                    0000000000092e90     OpensslLib:v3_crld.obj
 0002:0001ff18       DIST_POINT_NAME_it         0000000000092ef8     OpensslLib:v3_crld.obj
 0002:00020040       ISSUING_DIST_POINT_it      0000000000093020     OpensslLib:v3_crld.obj
 0002:00020070       v3_freshest_crl            0000000000093050     OpensslLib:v3_crld.obj
 0002:00020120       v3_idp                     0000000000093100     OpensslLib:v3_crld.obj
 0002:000201f0       CRL_DIST_POINTS_it         00000000000931d0     OpensslLib:v3_crld.obj
 0002:00020248       ??_C@_08CBBMEOFB@critical@ 0000000000093228     OpensslLib:x_exten.obj
 0002:00020258       ??_C@_0P@OMHBNPIC@X509_EXTENSION@ 0000000000093238     OpensslLib:x_exten.obj
 0002:000202d0       X509_EXTENSION_it          00000000000932b0     OpensslLib:x_exten.obj
 0002:00020300       ??_C@_05BMJJJIHB@trust@    00000000000932e0     OpensslLib:x_x509a.obj
 0002:00020308       ??_C@_06JPOFNODM@reject@   00000000000932e8     OpensslLib:x_x509a.obj
 0002:00020310       ??_C@_05NKHOCLEE@alias@    00000000000932f0     OpensslLib:x_x509a.obj
 0002:00020318       ??_C@_05CNHMOIOC@keyid@    00000000000932f8     OpensslLib:x_x509a.obj
 0002:00020320       ??_C@_05BGEKGIIP@other@    0000000000093300     OpensslLib:x_x509a.obj
 0002:00020328       ??_C@_0O@LJIIOIG@X509_CERT_AUX@ 0000000000093308     OpensslLib:x_x509a.obj
 0002:000203e0       X509_CERT_AUX_it           00000000000933c0     OpensslLib:x_x509a.obj
 0002:00020410       ??_C@_0BA@OPHCNPAP@AUTHORITY_KEYID@ 00000000000933f0     OpensslLib:v3_akeya.obj
 0002:00020420       AUTHORITY_KEYID_it         0000000000093400     OpensslLib:v3_akeya.obj
 0002:000204b0       ??_C@_09MJPOMOII@notBefore@ 0000000000093490     OpensslLib:x_val.obj
 0002:000204c0       ??_C@_08PJIFIJBI@notAfter@ 00000000000934a0     OpensslLib:x_val.obj
 0002:000204d0       ??_C@_08OPPGEJIL@X509_VAL@ 00000000000934b0     OpensslLib:x_val.obj
 0002:00020520       X509_VAL_it                0000000000093500     OpensslLib:x_val.obj
 0002:000207d0       ??_C@_03KCHOJKKI@set@      00000000000937b0     OpensslLib:x_attrib.obj
 0002:000207d8       ??_C@_0P@IBKNNFL@X509_ATTRIBUTE@ 00000000000937b8     OpensslLib:x_attrib.obj
 0002:00020830       X509_ATTRIBUTE_it          0000000000093810     OpensslLib:x_attrib.obj
 0002:00020c20       ??_C@_0N@MJCHLFGM@NO?5X509_NAME@ 0000000000093c00     OpensslLib:x509_obj.obj
 0002:00020c30       ??_C@_09OJNEAJGG@?$DMINVALID?$DO@ 0000000000093c10     OpensslLib:a_object.obj
 0002:00020e5c       ??_C@_01JOAMLHOP@?9@       0000000000093e3c     OpensslLib:asn1_par.obj
 0002:00020e60       ??_C@_02PLJDPFIO@00@       0000000000093e40     OpensslLib:asn1_par.obj
 0002:00020e64       ??_C@_03NCODFONH@EOC@      0000000000093e44     OpensslLib:asn1_par.obj
 0002:00020e68       ??_C@_07JDEDMABE@BOOLEAN@  0000000000093e48     OpensslLib:asn1_par.obj
 0002:00020e70       ??_C@_07EHCIHKNF@INTEGER@  0000000000093e50     OpensslLib:asn1_par.obj
 0002:00020e78       ??_C@_0L@EKOKPLKE@BIT?5STRING@ 0000000000093e58     OpensslLib:asn1_par.obj
 0002:00020e88       ??_C@_0N@KPGGMDFC@OCTET?5STRING@ 0000000000093e68     OpensslLib:asn1_par.obj
 0002:00020e98       ??_C@_06IAMCMNFI@OBJECT@   0000000000093e78     OpensslLib:asn1_par.obj
 0002:00020ea0       ??_C@_0BC@HDOCNDIH@OBJECT?5DESCRIPTOR@ 0000000000093e80     OpensslLib:asn1_par.obj
 0002:00020eb8       ??_C@_08JHLDEHEK@EXTERNAL@ 0000000000093e98     OpensslLib:asn1_par.obj
 0002:00020ec4       ??_C@_04PKFANLLI@REAL@     0000000000093ea4     OpensslLib:asn1_par.obj
 0002:00020ed0       ??_C@_0L@KNIEMAKM@ENUMERATED@ 0000000000093eb0     OpensslLib:asn1_par.obj
 0002:00020ee0       ??_C@_09EKNCOIGI@?$DMASN1?511?$DO@ 0000000000093ec0     OpensslLib:asn1_par.obj
 0002:00020ef0       ??_C@_0L@DCBPGANN@UTF8STRING@ 0000000000093ed0     OpensslLib:asn1_par.obj
 0002:00020f00       ??_C@_09EJFGDMAG@?$DMASN1?513?$DO@ 0000000000093ee0     OpensslLib:asn1_par.obj
 0002:00020f10       ??_C@_09EMBJCKID@?$DMASN1?514?$DO@ 0000000000093ef0     OpensslLib:asn1_par.obj
 0002:00020f20       ??_C@_09ENNLEALE@?$DMASN1?515?$DO@ 0000000000093f00     OpensslLib:asn1_par.obj
 0002:00020f30       ??_C@_08POLPFBMC@SEQUENCE@ 0000000000093f10     OpensslLib:asn1_par.obj
 0002:00020f3c       ??_C@_03KPIFFHNE@SET@      0000000000093f1c     OpensslLib:asn1_par.obj
 0002:00020f40       ??_C@_0O@DFADMOGA@NUMERICSTRING@ 0000000000093f20     OpensslLib:asn1_par.obj
 0002:00020f50       ??_C@_0BA@FKHILLED@PRINTABLESTRING@ 0000000000093f30     OpensslLib:asn1_par.obj
 0002:00020f60       ??_C@_09FMBHBANP@T61STRING@ 0000000000093f40     OpensslLib:asn1_par.obj
 0002:00020f70       ??_C@_0P@LNAMNBEL@VIDEOTEXSTRING@ 0000000000093f50     OpensslLib:asn1_par.obj
 0002:00020f80       ??_C@_09JOMPLKGB@IA5STRING@ 0000000000093f60     OpensslLib:asn1_par.obj
 0002:00020f90       ??_C@_07HIOLDDN@UTCTIME@   0000000000093f70     OpensslLib:asn1_par.obj
 0002:00020f98       ??_C@_0BA@LKNBIJBB@GENERALIZEDTIME@ 0000000000093f78     OpensslLib:asn1_par.obj
 0002:00020fa8       ??_C@_0O@MABADFB@GRAPHICSTRING@ 0000000000093f88     OpensslLib:asn1_par.obj
 0002:00020fb8       ??_C@_0O@KDAJCBO@VISIBLESTRING@ 0000000000093f98     OpensslLib:asn1_par.obj
 0002:00020fc8       ??_C@_0O@DKDEPFLO@GENERALSTRING@ 0000000000093fa8     OpensslLib:asn1_par.obj
 0002:00020fd8       ??_C@_0BA@EJHHDALK@UNIVERSALSTRING@ 0000000000093fb8     OpensslLib:asn1_par.obj
 0002:00020fe8       ??_C@_09FGHEBGDO@?$DMASN1?529?$DO@ 0000000000093fc8     OpensslLib:asn1_par.obj
 0002:00020ff8       ??_C@_09BIBABMFN@BMPSTRING@ 0000000000093fd8     OpensslLib:asn1_par.obj
 0002:00021008       ??_C@_09GPGAJHPD@?$CIunknown?$CJ@ 0000000000093fe8     OpensslLib:asn1_par.obj
 0002:00021118       ??_C@_08JJBFGKFE@minsize?$DN@ 00000000000940f8     OpensslLib:a_mbstr.obj
 0002:00021128       ??_C@_08EOPONIBF@maxsize?$DN@ 0000000000094108     OpensslLib:a_mbstr.obj
 0002:00021134       ??_C@_06CHOIGJDB@BIGNUM@   0000000000094114     OpensslLib:x_bignum.obj
 0002:00021140       ??_C@_07HILEKMCI@CBIGNUM@  0000000000094120     OpensslLib:x_bignum.obj
 0002:00021148       BIGNUM_it                  0000000000094128     OpensslLib:x_bignum.obj
 0002:00021178       CBIGNUM_it                 0000000000094158     OpensslLib:x_bignum.obj
 0002:000211a8       ??_C@_03PMGGPEJJ@?$CFd?6@  0000000000094188     OpensslLib:x_int64.obj
 0002:000211ac       ??_C@_03OBICDNNO@?$CFu?6@  000000000009418c     OpensslLib:x_int64.obj
 0002:000211b0       ??_C@_05OJLHEJN@INT32@     0000000000094190     OpensslLib:x_int64.obj
 0002:000211b8       ??_C@_06KFJALMLJ@ZINT32@   0000000000094198     OpensslLib:x_int64.obj
 0002:000211c0       ZINT32_it                  00000000000941a0     OpensslLib:x_int64.obj
 0002:000211f0       INT32_it                   00000000000941d0     OpensslLib:x_int64.obj
 0002:00021220       ??_C@_02DKCKIIND@?$CFs@    0000000000094200     OpensslLib:asn_mime.obj
 0002:00021224       ??_C@_02MFDMBIJM@ok@       0000000000094204     OpensslLib:x509_txt.obj
 0002:00021228       ??_C@_0CL@ICDMHEOH@unspecified?5certificate?5verific@ 0000000000094208     OpensslLib:x509_txt.obj
 0002:00021258       ??_C@_0CB@KFJODNFN@unable?5to?5get?5issuer?5certificat@ 0000000000094238     OpensslLib:x509_txt.obj
 0002:00021280       ??_C@_0BO@CIOBDJGN@unable?5to?5get?5certificate?5CRL@ 0000000000094260     OpensslLib:x509_txt.obj
 0002:000212a0       ??_C@_0CK@LBDBBNHI@unable?5to?5decrypt?5certificate?8s@ 0000000000094280     OpensslLib:x509_txt.obj
 0002:000212d0       ??_C@_0CC@KFEPDDPF@unable?5to?5decrypt?5CRL?8s?5signatu@ 00000000000942b0     OpensslLib:x509_txt.obj
 0002:000212f8       ??_C@_0CD@KOEKDJOF@unable?5to?5decode?5issuer?5public?5@ 00000000000942d8     OpensslLib:x509_txt.obj
 0002:00021320       ??_C@_0BO@FPBBKLNG@certificate?5signature?5failure@ 0000000000094300     OpensslLib:x509_txt.obj
 0002:00021340       ??_C@_0BG@PKEGLGEB@CRL?5signature?5failure@ 0000000000094320     OpensslLib:x509_txt.obj
 0002:00021358       ??_C@_0BN@JFLHFAGA@certificate?5is?5not?5yet?5valid@ 0000000000094338     OpensslLib:x509_txt.obj
 0002:00021378       ??_C@_0BI@HHICNLNC@certificate?5has?5expired@ 0000000000094358     OpensslLib:x509_txt.obj
 0002:00021390       ??_C@_0BF@MIBPKMEH@CRL?5is?5not?5yet?5valid@ 0000000000094370     OpensslLib:x509_txt.obj
 0002:000213a8       ??_C@_0BA@JMGDIGAP@CRL?5has?5expired@ 0000000000094388     OpensslLib:x509_txt.obj
 0002:000213b8       ??_C@_0CO@BGGBNHHG@format?5error?5in?5certificate?8s?5n@ 0000000000094398     OpensslLib:x509_txt.obj
 0002:000213e8       ??_C@_0CN@NPHCNDGF@format?5error?5in?5certificate?8s?5n@ 00000000000943c8     OpensslLib:x509_txt.obj
 0002:00021418       ??_C@_0CH@OEGANADM@format?5error?5in?5CRL?8s?5lastUpdat@ 00000000000943f8     OpensslLib:x509_txt.obj
 0002:00021440       ??_C@_0CH@DKJJKKIC@format?5error?5in?5CRL?8s?5nextUpdat@ 0000000000094420     OpensslLib:x509_txt.obj
 0002:00021468       ??_C@_0O@BNNCBLEN@out?5of?5memory@ 0000000000094448     OpensslLib:x509_txt.obj
 0002:00021478       ??_C@_0BI@PBDHIKFI@self?5signed?5certificate@ 0000000000094458     OpensslLib:x509_txt.obj
 0002:00021490       ??_C@_0CN@GCPAFAGL@self?5signed?5certificate?5in?5cert@ 0000000000094470     OpensslLib:x509_txt.obj
 0002:000214c0       ??_C@_0CH@NBHLNPJC@unable?5to?5get?5local?5issuer?5cert@ 00000000000944a0     OpensslLib:x509_txt.obj
 0002:000214e8       ??_C@_0CH@PCOLJJF@unable?5to?5verify?5the?5first?5cert@ 00000000000944c8     OpensslLib:x509_txt.obj
 0002:00021510       ??_C@_0BL@JGHJBAMD@certificate?5chain?5too?5long@ 00000000000944f0     OpensslLib:x509_txt.obj
 0002:00021530       ??_C@_0BE@PBLGGMOB@certificate?5revoked@ 0000000000094510     OpensslLib:x509_txt.obj
 0002:00021548       ??_C@_0BH@EKEBOKH@invalid?5CA?5certificate@ 0000000000094528     OpensslLib:x509_txt.obj
 0002:00021560       ??_C@_0CA@LLGONKGK@path?5length?5constraint?5exceeded@ 0000000000094540     OpensslLib:x509_txt.obj
 0002:00021580       ??_C@_0CA@LPAJAMFA@unsupported?5certificate?5purpose@ 0000000000094560     OpensslLib:x509_txt.obj
 0002:000215a0       ??_C@_0BI@GDICGBPK@certificate?5not?5trusted@ 0000000000094580     OpensslLib:x509_txt.obj
 0002:000215b8       ??_C@_0BF@OJPAOPB@certificate?5rejected@ 0000000000094598     OpensslLib:x509_txt.obj
 0002:000215d0       ??_C@_0BI@OHGOAFON@subject?5issuer?5mismatch@ 00000000000945b0     OpensslLib:x509_txt.obj
 0002:000215e8       ??_C@_0CO@HGJKNPBG@authority?5and?5subject?5key?5ident@ 00000000000945c8     OpensslLib:x509_txt.obj
 0002:00021618       ??_C@_0CM@GGIKLLEP@authority?5and?5issuer?5serial?5num@ 00000000000945f8     OpensslLib:x509_txt.obj
 0002:00021648       ??_C@_0CP@EEPOGHPG@key?5usage?5does?5not?5include?5cert@ 0000000000094628     OpensslLib:x509_txt.obj
 0002:00021678       ??_C@_0CF@OOPBMEA@unable?5to?5get?5CRL?5issuer?5certif@ 0000000000094658     OpensslLib:x509_txt.obj
 0002:000216a0       ??_C@_0BN@DHGAFJG@unhandled?5critical?5extension@ 0000000000094680     OpensslLib:x509_txt.obj
 0002:000216c0       ??_C@_0CH@JKPBLJBP@key?5usage?5does?5not?5include?5CRL?5@ 00000000000946a0     OpensslLib:x509_txt.obj
 0002:000216e8       ??_C@_0CB@OODOOIP@unhandled?5critical?5CRL?5extensio@ 00000000000946c8     OpensslLib:x509_txt.obj
 0002:00021710       ??_C@_0CN@GNFODAID@invalid?5non?9CA?5certificate?5?$CIhas@ 00000000000946f0     OpensslLib:x509_txt.obj
 0002:00021740       ??_C@_0CG@BIOFEFIK@proxy?5path?5length?5constraint?5ex@ 0000000000094720     OpensslLib:x509_txt.obj
 0002:00021768       ??_C@_0CN@HJJGOKEM@key?5usage?5does?5not?5include?5digi@ 0000000000094748     OpensslLib:x509_txt.obj
 0002:000217a0       ??_C@_0EA@EILBDOFP@proxy?5certificates?5not?5allowed?0@ 0000000000094780     OpensslLib:x509_txt.obj
 0002:000217e0       ??_C@_0CO@BIBMOLPK@invalid?5or?5inconsistent?5certifi@ 00000000000947c0     OpensslLib:x509_txt.obj
 0002:00021810       ??_C@_0DF@JOCKIEDN@invalid?5or?5inconsistent?5certifi@ 00000000000947f0     OpensslLib:x509_txt.obj
 0002:00021848       ??_C@_0BD@KPLGPDJA@no?5explicit?5policy@ 0000000000094828     OpensslLib:x509_txt.obj
 0002:00021860       ??_C@_0BE@FHFDNMCN@Different?5CRL?5scope@ 0000000000094840     OpensslLib:x509_txt.obj
 0002:00021878       ??_C@_0BO@CHPDNLHA@Unsupported?5extension?5feature@ 0000000000094858     OpensslLib:x509_txt.obj
 0002:00021898       ??_C@_0DD@IBFFGHC@RFC?53779?5resource?5not?5subset?5of@ 0000000000094878     OpensslLib:x509_txt.obj
 0002:000218d0       ??_C@_0BM@OAJDKGDI@permitted?5subtree?5violation@ 00000000000948b0     OpensslLib:x509_txt.obj
 0002:000218f0       ??_C@_0BL@OHBCHEHN@excluded?5subtree?5violation@ 00000000000948d0     OpensslLib:x509_txt.obj
 0002:00021910       ??_C@_0DD@KOHKHENH@name?5constraints?5minimum?5and?5ma@ 00000000000948f0     OpensslLib:x509_txt.obj
 0002:00021948       ??_C@_0CB@HLIFGCCB@application?5verification?5failur@ 0000000000094928     OpensslLib:x509_txt.obj
 0002:00021970       ??_C@_0CB@NJIFBAAK@unsupported?5name?5constraint?5typ@ 0000000000094950     OpensslLib:x509_txt.obj
 0002:00021998       ??_C@_0CO@MKOFKAHI@unsupported?5or?5invalid?5name?5con@ 0000000000094978     OpensslLib:x509_txt.obj
 0002:000219c8       ??_C@_0CD@FOPJHCDH@unsupported?5or?5invalid?5name?5syn@ 00000000000949a8     OpensslLib:x509_txt.obj
 0002:000219f0       ??_C@_0BK@IBKFOKDF@CRL?5path?5validation?5error@ 00000000000949d0     OpensslLib:x509_txt.obj
 0002:00021a10       ??_C@_09OLGELLAO@Path?5Loop@ 00000000000949f0     OpensslLib:x509_txt.obj
 0002:00021a20       ??_C@_0CF@FOANFLBA@Suite?5B?3?5certificate?5version?5in@ 0000000000094a00     OpensslLib:x509_txt.obj
 0002:00021a48       ??_C@_0CG@BICIPKHE@Suite?5B?3?5invalid?5public?5key?5alg@ 0000000000094a28     OpensslLib:x509_txt.obj
 0002:00021a70       ??_C@_0BL@FMOLHBNA@Suite?5B?3?5invalid?5ECC?5curve@ 0000000000094a50     OpensslLib:x509_txt.obj
 0002:00021a90       ??_C@_0CF@HDBBCDPB@Suite?5B?3?5invalid?5signature?5algo@ 0000000000094a70     OpensslLib:x509_txt.obj
 0002:00021ab8       ??_C@_0CI@KACFGKAG@Suite?5B?3?5curve?5not?5allowed?5for?5@ 0000000000094a98     OpensslLib:x509_txt.obj
 0002:00021ae0       ??_C@_0CG@KNKODCDA@Suite?5B?3?5cannot?5sign?5P?9384?5with@ 0000000000094ac0     OpensslLib:x509_txt.obj
 0002:00021b08       ??_C@_0BC@BKAJEJKO@Hostname?5mismatch@ 0000000000094ae8     OpensslLib:x509_txt.obj
 0002:00021b20       ??_C@_0BH@EANENMMC@Email?5address?5mismatch@ 0000000000094b00     OpensslLib:x509_txt.obj
 0002:00021b38       ??_C@_0BE@CAFPLHHN@IP?5address?5mismatch@ 0000000000094b18     OpensslLib:x509_txt.obj
 0002:00021b50       ??_C@_0BO@OPFDPPAC@No?5matching?5DANE?5TLSA?5records@ 0000000000094b30     OpensslLib:x509_txt.obj
 0002:00021b70       ??_C@_0BM@CJPGEEIN@EE?5certificate?5key?5too?5weak@ 0000000000094b50     OpensslLib:x509_txt.obj
 0002:00021b90       ??_C@_0BM@ENALCBIG@CA?5certificate?5key?5too?5weak@ 0000000000094b70     OpensslLib:x509_txt.obj
 0002:00021bb0       ??_C@_0CH@LKAOFJGJ@CA?5signature?5digest?5algorithm?5t@ 0000000000094b90     OpensslLib:x509_txt.obj
 0002:00021bd8       ??_C@_0CJ@LGEOKENH@Invalid?5certificate?5verificatio@ 0000000000094bb8     OpensslLib:x509_txt.obj
 0002:00021c08       ??_C@_0CA@IHGNDGJI@Issuer?5certificate?5lookup?5error@ 0000000000094be8     OpensslLib:x509_txt.obj
 0002:00021c28       ??_C@_0DL@IEHGPPOE@Certificate?5Transparency?5requir@ 0000000000094c08     OpensslLib:x509_txt.obj
 0002:00021c68       ??_C@_0BN@MGIIDFLE@proxy?5subject?5name?5violation@ 0000000000094c48     OpensslLib:x509_txt.obj
 0002:00021c88       ??_C@_0BJ@GCKALNFK@OCSP?5verification?5needed@ 0000000000094c68     OpensslLib:x509_txt.obj
 0002:00021ca8       ??_C@_0BJ@MKJKHEMF@OCSP?5verification?5failed@ 0000000000094c88     OpensslLib:x509_txt.obj
 0002:00021cc8       ??_C@_0BC@JFODIBJK@OCSP?5unknown?5cert@ 0000000000094ca8     OpensslLib:x509_txt.obj
 0002:00021ce0       ??_C@_0DD@FBNJLBKB@Certificate?5public?5key?5has?5expl@ 0000000000094cc0     OpensslLib:x509_txt.obj
 0002:00021d18       ??_C@_0CH@MPONIKPM@unknown?5certificate?5verificatio@ 0000000000094cf8     OpensslLib:x509_txt.obj
 0002:00021d40       ??_C@_08DFMPDBMK@X509_SIG@ 0000000000094d20     OpensslLib:x_sig.obj
 0002:00021d50       X509_SIG_it                0000000000094d30     OpensslLib:x_sig.obj
 0002:00021dc0       ??_C@_02ICGBAFJO@k1@       0000000000094da0     OpensslLib:ec_asn1.obj
 0002:00021dc4       ??_C@_02KJEMFGFN@k2@       0000000000094da4     OpensslLib:ec_asn1.obj
 0002:00021dc8       ??_C@_02LAFHGHBM@k3@       0000000000094da8     OpensslLib:ec_asn1.obj
 0002:00021dd0       ??_C@_0BC@NPDMPFCL@X9_62_PENTANOMIAL@ 0000000000094db0     OpensslLib:ec_asn1.obj
 0002:00021de8       ??_C@_07PBHIMFBE@p?4other@ 0000000000094dc8     OpensslLib:ec_asn1.obj
 0002:00021df0       ??_C@_09KOBBOOPN@p?4onBasis@ 0000000000094dd0     OpensslLib:ec_asn1.obj
 0002:00021e00       ??_C@_09LICBCEBD@p?4tpBasis@ 0000000000094de0     OpensslLib:ec_asn1.obj
 0002:00021e10       ??_C@_09DMGLCKOJ@p?4ppBasis@ 0000000000094df0     OpensslLib:ec_asn1.obj
 0002:00021e1c       ??_C@_01GOHFPIOK@m@        0000000000094dfc     OpensslLib:ec_asn1.obj
 0002:00021e20       ??_C@_0BJ@CCODLOLO@X9_62_CHARACTERISTIC_TWO@ 0000000000094e00     OpensslLib:ec_asn1.obj
 0002:00021e40       ??_C@_07DPJEDCLB@p?4prime@ 0000000000094e20     OpensslLib:ec_asn1.obj
 0002:00021e48       ??_C@_0L@NLMAKEBL@p?4char_two@ 0000000000094e28     OpensslLib:ec_asn1.obj
 0002:00021e58       ??_C@_09OAOLGAOM@fieldType@ 0000000000094e38     OpensslLib:ec_asn1.obj
 0002:00021e68       ??_C@_0O@PGPIAKKH@X9_62_FIELDID@ 0000000000094e48     OpensslLib:ec_asn1.obj
 0002:00021e78       ??_C@_01MCMALHOG@a@        0000000000094e58     OpensslLib:ec_asn1.obj
 0002:00021e7c       ??_C@_01OJONOECF@b@        0000000000094e5c     OpensslLib:ec_asn1.obj
 0002:00021e80       ??_C@_04MENKDCKE@seed@     0000000000094e60     OpensslLib:ec_asn1.obj
 0002:00021e88       ??_C@_0M@BHDPNPCK@X9_62_CURVE@ 0000000000094e68     OpensslLib:ec_asn1.obj
 0002:00021e98       ??_C@_07MJJGNICD@fieldID@  0000000000094e78     OpensslLib:ec_asn1.obj
 0002:00021ea0       ??_C@_05HIKPKPAA@curve@    0000000000094e80     OpensslLib:ec_asn1.obj
 0002:00021ea8       ??_C@_05NDNMCCJH@order@    0000000000094e88     OpensslLib:ec_asn1.obj
 0002:00021eb0       ??_C@_08DKFAOMDI@cofactor@ 0000000000094e90     OpensslLib:ec_asn1.obj
 0002:00021ec0       ??_C@_0N@ECDPFONH@ECPARAMETERS@ 0000000000094ea0     OpensslLib:ec_asn1.obj
 0002:00021ed0       ??_C@_0BC@JEJHGDNN@value?4named_curve@ 0000000000094eb0     OpensslLib:ec_asn1.obj
 0002:00021ee8       ??_C@_0BB@KOECJJJ@value?4parameters@ 0000000000094ec8     OpensslLib:ec_asn1.obj
 0002:00021f00       ??_C@_0BD@HOIIAPI@value?4implicitlyCA@ 0000000000094ee0     OpensslLib:ec_asn1.obj
 0002:00021f18       ??_C@_0P@PBBIGPFJ@ECPKPARAMETERS@ 0000000000094ef8     OpensslLib:ec_asn1.obj
 0002:00021f28       ??_C@_0L@BCENACFO@privateKey@ 0000000000094f08     OpensslLib:ec_asn1.obj
 0002:00021f38       ??_C@_0L@HHPOFMCB@parameters@ 0000000000094f18     OpensslLib:ec_asn1.obj
 0002:00021f48       ??_C@_09IDENFCJL@publicKey@ 0000000000094f28     OpensslLib:ec_asn1.obj
 0002:00021f58       ??_C@_0O@DFJMHGOP@EC_PRIVATEKEY@ 0000000000094f38     OpensslLib:ec_asn1.obj
 0002:00021f68       ??_C@_01LKDEMHDF@s@        0000000000094f48     OpensslLib:ec_asn1.obj
 0002:00021f70       ??_C@_09FLJPBFIA@ECDSA_SIG@ 0000000000094f50     OpensslLib:ec_asn1.obj
 0002:00021f80       ECPARAMETERS_it            0000000000094f60     OpensslLib:ec_asn1.obj
 0002:00022320       ECPKPARAMETERS_it          0000000000095300     OpensslLib:ec_asn1.obj
 0002:000225b0       ??_C@_01GBGANLPD@0@        0000000000095590     OpensslLib:bn_print.obj
 0002:000225b4       ??_C@_04FCIJFPNK@?$CFllu@  0000000000095594     OpensslLib:bn_print.obj
 0002:000225c0       ??_C@_07ICEKBAEF@?$CF019llu@ 00000000000955a0     OpensslLib:bn_print.obj
 0002:000225e8       ??_C@_0BD@LDHEJACI@OpenSSL?5PKCS?$CD1?5RSA@ 00000000000955c8     OpensslLib:rsa_ossl.obj
 0002:000225fc       ??_C@_06GABBCIBA@method@   00000000000955dc     OpensslLib:v3_info.obj
 0002:00022608       ??_C@_08CBBFJFMD@location@ 00000000000955e8     OpensslLib:v3_info.obj
 0002:00022618       ??_C@_0BD@IKHCEBLA@ACCESS_DESCRIPTION@ 00000000000955f8     OpensslLib:v3_info.obj
 0002:00022630       ??_C@_0BG@PFEKCAHJ@AUTHORITY_INFO_ACCESS@ 0000000000095610     OpensslLib:v3_info.obj
 0002:00022648       ??_C@_07FCJAGJJB@?$CFs?5?9?5?$CFs@ 0000000000095628     OpensslLib:v3_info.obj
 0002:00022650       ??_C@_06KFEJCPI@value?$DN@ 0000000000095630     OpensslLib:v3_info.obj
 0002:00022658       AUTHORITY_INFO_ACCESS_it   0000000000095638     OpensslLib:v3_info.obj
 0002:00022688       ACCESS_DESCRIPTION_it      0000000000095668     OpensslLib:v3_info.obj
 0002:00022700       v3_sinfo                   00000000000956e0     OpensslLib:v3_info.obj
 0002:00022770       v3_info                    0000000000095750     OpensslLib:v3_info.obj
 0002:000227f8       ??_C@_08OMICEKMJ@?0?5value?$DN@ 00000000000957d8     OpensslLib:conf_mod.obj
 0002:00022808       ??_C@_0P@BLMEJDMO@policyLanguage@ 00000000000957e8     OpensslLib:v3_pcia.obj
 0002:00022818       ??_C@_06NJNJNICG@policy@   00000000000957f8     OpensslLib:v3_pcia.obj
 0002:00022820       ??_C@_0N@CLKEFBDI@PROXY_POLICY@ 0000000000095800     OpensslLib:v3_pcia.obj
 0002:00022830       ??_C@_0BH@JBGKCLHC@pcPathLengthConstraint@ 0000000000095810     OpensslLib:v3_pcia.obj
 0002:00022848       ??_C@_0M@KKFBCGOG@proxyPolicy@ 0000000000095828     OpensslLib:v3_pcia.obj
 0002:00022858       ??_C@_0BK@PILNOGHK@PROXY_CERT_INFO_EXTENSION@ 0000000000095838     OpensslLib:v3_pcia.obj
 0002:000228c0       PROXY_CERT_INFO_EXTENSION_it 00000000000958a0     OpensslLib:v3_pcia.obj
 0002:00022930       PROXY_POLICY_it            0000000000095910     OpensslLib:v3_pcia.obj
 0002:00022960       v3_bcons                   0000000000095940     OpensslLib:v3_bcons.obj
 0002:000229c8       ??_C@_02DGMJAJHC@ca@       00000000000959a8     OpensslLib:v3_bcons.obj
 0002:000229d0       ??_C@_07OGCPICFF@pathlen@  00000000000959b0     OpensslLib:v3_bcons.obj
 0002:000229d8       ??_C@_0BC@PKPCGCD@BASIC_CONSTRAINTS@ 00000000000959b8     OpensslLib:v3_bcons.obj
 0002:000229ec       ??_C@_02JLAAGLDA@CA@       00000000000959cc     OpensslLib:v3_bcons.obj
 0002:00022a30       BASIC_CONSTRAINTS_it       0000000000095a10     OpensslLib:v3_bcons.obj
 0002:00022a60       v3_alt                     0000000000095a40     OpensslLib:v3_alt.obj
 0002:00022b98       ??_C@_0O@NHCJKCDC@?$DMunsupported?$DO@ 0000000000095b78     OpensslLib:v3_alt.obj
 0002:00022ba8       ??_C@_09PAKBLAPA@othername@ 0000000000095b88     OpensslLib:v3_alt.obj
 0002:00022bb8       ??_C@_08EBDOEGJI@X400Name@ 0000000000095b98     OpensslLib:v3_alt.obj
 0002:00022bc8       ??_C@_0N@EEELPIKD@EdiPartyName@ 0000000000095ba8     OpensslLib:v3_alt.obj
 0002:00022bd8       ??_C@_05HKHCDHCL@email@    0000000000095bb8     OpensslLib:v3_alt.obj
 0002:00022be0       ??_C@_03CBFPEBNE@DNS@      0000000000095bc0     OpensslLib:v3_alt.obj
 0002:00022be4       ??_C@_03GMOLNBOB@URI@      0000000000095bc4     OpensslLib:v3_alt.obj
 0002:00022be8       ??_C@_07FDBCPIKC@DirName@  0000000000095bc8     OpensslLib:v3_alt.obj
 0002:00022bf0       ??_C@_09DPMBDOD@?$DMinvalid?$DO@ 0000000000095bd0     OpensslLib:v3_alt.obj
 0002:00022c00       ??_C@_0L@NGHMMCPJ@IP?5Address@ 0000000000095be0     OpensslLib:v3_alt.obj
 0002:00022c10       ??_C@_0O@KAIENCPE@Registered?5ID@ 0000000000095bf0     OpensslLib:v3_alt.obj
 0002:00022c20       ??_C@_04COAGEIMF@copy@     0000000000095c00     OpensslLib:v3_alt.obj
 0002:00022c28       ??_C@_04HDMMNHEL@move@     0000000000095c08     OpensslLib:v3_alt.obj
 0002:00022c30       ??_C@_03FEOBNLIE@RID@      0000000000095c10     OpensslLib:v3_alt.obj
 0002:00022c34       ??_C@_02MFEOMNPG@IP@       0000000000095c14     OpensslLib:v3_alt.obj
 0002:00022c38       ??_C@_07KKGEJKPE@dirName@  0000000000095c18     OpensslLib:v3_alt.obj
 0002:00022c40       ??_C@_09DBGAJPPE@otherName@ 0000000000095c20     OpensslLib:v3_alt.obj
 0002:00022c50       ??_C@_08LNPIPPMM@section?$DN@ 0000000000095c30     OpensslLib:v3_alt.obj
 0002:00022c60       ??_C@_0CL@JMAEHKDJ@SECG?1WTLS?5curve?5over?5a?5112?5bit?5@ 0000000000095c40     OpensslLib:ec_curve.obj
 0002:00022c90       ??_C@_0CG@IMPBFOOG@SECG?5curve?5over?5a?5112?5bit?5prime@ 0000000000095c70     OpensslLib:ec_curve.obj
 0002:00022cb8       ??_C@_0CG@DNCCBNMA@SECG?5curve?5over?5a?5128?5bit?5prime@ 0000000000095c98     OpensslLib:ec_curve.obj
 0002:00022ce0       ??_C@_0CG@MDBLLOCO@SECG?5curve?5over?5a?5160?5bit?5prime@ 0000000000095cc0     OpensslLib:ec_curve.obj
 0002:00022d08       ??_C@_0CL@NDOOJKPB@SECG?1WTLS?5curve?5over?5a?5160?5bit?5@ 0000000000095ce8     OpensslLib:ec_curve.obj
 0002:00022d38       ??_C@_0CG@IFFAEDGD@SECG?5curve?5over?5a?5192?5bit?5prime@ 0000000000095d18     OpensslLib:ec_curve.obj
 0002:00022d60       ??_C@_0CG@IOHCCJAA@SECG?5curve?5over?5a?5224?5bit?5prime@ 0000000000095d40     OpensslLib:ec_curve.obj
 0002:00022d88       ??_C@_0CL@NHPHHEEB@NIST?1SECG?5curve?5over?5a?5224?5bit?5@ 0000000000095d68     OpensslLib:ec_curve.obj
 0002:00022db8       ??_C@_0CG@MBJIMJMI@SECG?5curve?5over?5a?5256?5bit?5prime@ 0000000000095d98     OpensslLib:ec_curve.obj
 0002:00022de0       ??_C@_0CL@MPIFFEHD@NIST?1SECG?5curve?5over?5a?5384?5bit?5@ 0000000000095dc0     OpensslLib:ec_curve.obj
 0002:00022e10       ??_C@_0CL@NCEJLDDF@NIST?1SECG?5curve?5over?5a?5521?5bit?5@ 0000000000095df0     OpensslLib:ec_curve.obj
 0002:00022e40       ??_C@_0DB@HJIMEGJL@NIST?1X9?462?1SECG?5curve?5over?5a?519@ 0000000000095e20     OpensslLib:ec_curve.obj
 0002:00022e78       ??_C@_0CH@BHJCBJE@X9?462?5curve?5over?5a?5192?5bit?5prim@ 0000000000095e58     OpensslLib:ec_curve.obj
 0002:00022ea0       ??_C@_0CH@COBCAEEE@X9?462?5curve?5over?5a?5239?5bit?5prim@ 0000000000095e80     OpensslLib:ec_curve.obj
 0002:00022ec8       ??_C@_0CM@IACJENLF@X9?462?1SECG?5curve?5over?5a?5256?5bit@ 0000000000095ea8     OpensslLib:ec_curve.obj
 0002:00022ef8       ??_C@_0CG@NOPNGNKB@WTLS?5curve?5over?5a?5112?5bit?5prime@ 0000000000095ed8     OpensslLib:ec_curve.obj
 0002:00022f20       ??_C@_0CG@JBBHINGJ@WTLS?5curve?5over?5a?5160?5bit?5prime@ 0000000000095f00     OpensslLib:ec_curve.obj
 0002:00022f48       ??_C@_0CG@NMHOBKEH@WTLS?5curve?5over?5a?5224?5bit?5prime@ 0000000000095f28     OpensslLib:ec_curve.obj
 0002:00022f70       ??_C@_0CK@DKPAAAHG@RFC?55639?5curve?5over?5a?5160?5bit?5p@ 0000000000095f50     OpensslLib:ec_curve.obj
 0002:00022fa0       ??_C@_0CK@HMLLPNDL@RFC?55639?5curve?5over?5a?5192?5bit?5p@ 0000000000095f80     OpensslLib:ec_curve.obj
 0002:00022fd0       ??_C@_0CK@HHJJJHFI@RFC?55639?5curve?5over?5a?5224?5bit?5p@ 0000000000095fb0     OpensslLib:ec_curve.obj
 0002:00023000       ??_C@_0CK@DIHDHHJA@RFC?55639?5curve?5over?5a?5256?5bit?5p@ 0000000000095fe0     OpensslLib:ec_curve.obj
 0002:00023030       ??_C@_0CK@BJFGHLBI@RFC?55639?5curve?5over?5a?5320?5bit?5p@ 0000000000096010     OpensslLib:ec_curve.obj
 0002:00023060       ??_C@_0CK@GPOLLHGK@RFC?55639?5curve?5over?5a?5384?5bit?5p@ 0000000000096040     OpensslLib:ec_curve.obj
 0002:00023090       ??_C@_0CK@DLPHALOH@RFC?55639?5curve?5over?5a?5512?5bit?5p@ 0000000000096070     OpensslLib:ec_curve.obj
 0002:000230c0       ??_C@_0CF@CCLOOCBH@SM2?5curve?5over?5a?5256?5bit?5prime?5@ 00000000000960a0     OpensslLib:ec_curve.obj
 0002:000230e8       ??_C@_05KJOGHNFI@B?9163@   00000000000960c8     OpensslLib:ec_curve.obj
 0002:000230f0       ??_C@_05LNJIBAFN@B?9233@   00000000000960d0     OpensslLib:ec_curve.obj
 0002:000230f8       ??_C@_05LBMNPPLM@B?9283@   00000000000960d8     OpensslLib:ec_curve.obj
 0002:00023100       ??_C@_05GAFKBJFC@B?9409@   00000000000960e0     OpensslLib:ec_curve.obj
 0002:00023108       ??_C@_05BFHAOCLK@B?9571@   00000000000960e8     OpensslLib:ec_curve.obj
 0002:00023110       ??_C@_05IOOJCMJA@K?9163@   00000000000960f0     OpensslLib:ec_curve.obj
 0002:00023118       ??_C@_05JKJHEBJF@K?9233@   00000000000960f8     OpensslLib:ec_curve.obj
 0002:00023120       ??_C@_05JGMCKOHE@K?9283@   0000000000096100     OpensslLib:ec_curve.obj
 0002:00023128       ??_C@_05EHFFEIJK@K?9409@   0000000000096108     OpensslLib:ec_curve.obj
 0002:00023130       ??_C@_05DCHPLDHC@K?9571@   0000000000096110     OpensslLib:ec_curve.obj
 0002:00023138       ??_C@_05PFLPKILE@P?9192@   0000000000096118     OpensslLib:ec_curve.obj
 0002:00023140       ??_C@_05LNAFEPDN@P?9224@   0000000000096120     OpensslLib:ec_curve.obj
 0002:00023148       ??_C@_05IKHMDLDK@P?9256@   0000000000096128     OpensslLib:ec_curve.obj
 0002:00023150       ??_C@_05ICOKNIO@P?9384@    0000000000096130     OpensslLib:ec_curve.obj
 0002:00023158       ??_C@_05FNKFIDMB@P?9521@   0000000000096138     OpensslLib:ec_curve.obj
 0002:000255c8       ??_C@_0BG@NHEBIAGP@OpenSSL?5EC_KEY?5method@ 00000000000985a8     OpensslLib:ec_kmeth.obj
 0002:00025660       v3_policy_constraints      0000000000098640     OpensslLib:v3_pcons.obj
 0002:000256c8       ??_C@_0BG@HGJBEKFE@requireExplicitPolicy@ 00000000000986a8     OpensslLib:v3_pcons.obj
 0002:000256e0       ??_C@_0BF@MOMLJGAL@inhibitPolicyMapping@ 00000000000986c0     OpensslLib:v3_pcons.obj
 0002:000256f8       ??_C@_0BD@MMPNIEIJ@POLICY_CONSTRAINTS@ 00000000000986d8     OpensslLib:v3_pcons.obj
 0002:00025710       ??_C@_0BI@HNCHDEDI@Require?5Explicit?5Policy@ 00000000000986f0     OpensslLib:v3_pcons.obj
 0002:00025728       ??_C@_0BH@HMKHOMED@Inhibit?5Policy?5Mapping@ 0000000000098708     OpensslLib:v3_pcons.obj
 0002:00025740       POLICY_CONSTRAINTS_it      0000000000098720     OpensslLib:v3_pcons.obj
 0002:000257b0       v3_cpols                   0000000000098790     OpensslLib:v3_cpols.obj
 0002:00025818       ??_C@_0BE@GJBJOOCP@CERTIFICATEPOLICIES@ 00000000000987f8     OpensslLib:v3_cpols.obj
 0002:00025830       ??_C@_08NEBFOBH@policyid@  0000000000098810     OpensslLib:v3_cpols.obj
 0002:00025840       ??_C@_0L@HMNGMMJI@qualifiers@ 0000000000098820     OpensslLib:v3_cpols.obj
 0002:00025850       ??_C@_0L@POLPGHJK@POLICYINFO@ 0000000000098830     OpensslLib:v3_cpols.obj
 0002:00025860       ??_C@_08EECALGEF@d?4cpsuri@ 0000000000098840     OpensslLib:v3_cpols.obj
 0002:00025870       ??_C@_0N@JPAHANFF@d?4usernotice@ 0000000000098850     OpensslLib:v3_cpols.obj
 0002:00025880       ??_C@_07LEEILOKB@pqualid@  0000000000098860     OpensslLib:v3_cpols.obj
 0002:00025888       ??_C@_0P@POBJIHLD@POLICYQUALINFO@ 0000000000098868     OpensslLib:v3_cpols.obj
 0002:00025898       ??_C@_09FIKFDFH@noticeref@ 0000000000098878     OpensslLib:v3_cpols.obj
 0002:000258a8       ??_C@_07MHGINJOA@exptext@  0000000000098888     OpensslLib:v3_cpols.obj
 0002:000258b0       ??_C@_0L@HCNDPADF@USERNOTICE@ 0000000000098890     OpensslLib:v3_cpols.obj
 0002:000258c0       ??_C@_0N@HEIPMDAG@organization@ 00000000000988a0     OpensslLib:v3_cpols.obj
 0002:000258d0       ??_C@_09CFGHNILC@noticenos@ 00000000000988b0     OpensslLib:v3_cpols.obj
 0002:000258e0       ??_C@_09DFHLGOKA@NOTICEREF@ 00000000000988c0     OpensslLib:v3_cpols.obj
 0002:000258ec       ??_C@_06MIFIGELF@ia5org@   00000000000988cc     OpensslLib:v3_cpols.obj
 0002:000258f8       ??_C@_0BB@FIJMMMGE@policyIdentifier@ 00000000000988d8     OpensslLib:v3_cpols.obj
 0002:0002590c       ??_C@_03KKDAPHBH@CPS@      00000000000988ec     OpensslLib:v3_cpols.obj
 0002:00025910       ??_C@_0L@LADHLIJ@userNotice@ 00000000000988f0     OpensslLib:v3_cpols.obj
 0002:0002591c       ??_C@_04OOMJJNCF@UTF8@     00000000000988fc     OpensslLib:v3_cpols.obj
 0002:00025928       ??_C@_0L@PJIJIHJD@UTF8String@ 0000000000098908     OpensslLib:v3_cpols.obj
 0002:00025934       ??_C@_03CNFPPDJC@BMP@      0000000000098914     OpensslLib:v3_cpols.obj
 0002:00025938       ??_C@_07MCGNPFEO@VISIBLE@  0000000000098918     OpensslLib:v3_cpols.obj
 0002:00025940       ??_C@_0N@EALKMFB@explicitText@ 0000000000098920     OpensslLib:v3_cpols.obj
 0002:00025950       ??_C@_0O@OKDALMJE@noticeNumbers@ 0000000000098930     OpensslLib:v3_cpols.obj
 0002:00025960       ??_C@_0O@JBOAGIFP@?$CF?$CKsCPS?3?5?$CF?4?$CKs?6@ 0000000000098940     OpensslLib:v3_cpols.obj
 0002:00025970       ??_C@_0BH@KMGGMA@?$CF?$CKsOrganization?3?5?$CF?4?$CKs?6@ 0000000000098950     OpensslLib:v3_cpols.obj
 0002:00025988       ??_C@_0O@EFHNHHDA@?$CF?$CKsNumber?$CFs?3?5@ 0000000000098968     OpensslLib:v3_cpols.obj
 0002:00025998       ??_C@_06OJHGLDPL@?$CInull?$CJ@ 0000000000098978     OpensslLib:v3_cpols.obj
 0002:000259a0       ??_C@_0BI@GOILGMJA@?$CF?$CKsExplicit?5Text?3?5?$CF?4?$CKs?6@ 0000000000098980     OpensslLib:v3_cpols.obj
 0002:000259b8       NOTICEREF_it               0000000000098998     OpensslLib:v3_cpols.obj
 0002:00025a70       USERNOTICE_it              0000000000098a50     OpensslLib:v3_cpols.obj
 0002:00025ba0       POLICYQUALINFO_it          0000000000098b80     OpensslLib:v3_cpols.obj
 0002:00025c10       POLICYINFO_it              0000000000098bf0     OpensslLib:v3_cpols.obj
 0002:00025c40       CERTIFICATEPOLICIES_it     0000000000098c20     OpensslLib:v3_cpols.obj
 0002:00025c70       ??_C@_0BC@MGHKLCAP@OpenSSL?5DH?5Method@ 0000000000098c50     OpensslLib:dh_key.obj
 0002:00025c90       cmac_asn1_meth             0000000000098c70     OpensslLib:cm_ameth.obj
 0002:00025da8       ??_C@_0BE@GBIGMENL@OpenSSL?5CMAC?5method@ 0000000000098d88     OpensslLib:cm_ameth.obj
 0002:00025dc0       ed448_asn1_meth            0000000000098da0     OpensslLib:ecx_meth.obj
 0002:00025ee0       ed25519_asn1_meth          0000000000098ec0     OpensslLib:ecx_meth.obj
 0002:00026000       ecx25519_asn1_meth         0000000000098fe0     OpensslLib:ecx_meth.obj
 0002:00026120       ecx448_asn1_meth           0000000000099100     OpensslLib:ecx_meth.obj
 0002:00026240       ecx448_pkey_meth           0000000000099220     OpensslLib:ecx_meth.obj
 0002:00026340       ed448_pkey_meth            0000000000099320     OpensslLib:ecx_meth.obj
 0002:00026440       ecx25519_pkey_meth         0000000000099420     OpensslLib:ecx_meth.obj
 0002:00026540       ed25519_pkey_meth          0000000000099520     OpensslLib:ecx_meth.obj
 0002:00026640       ??_C@_0BK@JGHKCBDG@?$CF?$CKs?$DMINVALID?5PRIVATE?5KEY?$DO?6@ 0000000000099620     OpensslLib:ecx_meth.obj
 0002:00026660       ??_C@_0BE@BHOIIFAI@?$CF?$CKs?$CFs?5Private?9Key?3?6@ 0000000000099640     OpensslLib:ecx_meth.obj
 0002:00026678       ??_C@_09CDOGNPAC@?$CF?$CKspriv?3?6@ 0000000000099658     OpensslLib:ecx_meth.obj
 0002:00026688       ??_C@_0BJ@NBDPFAFL@?$CF?$CKs?$DMINVALID?5PUBLIC?5KEY?$DO?6@ 0000000000099668     OpensslLib:ecx_meth.obj
 0002:000266a8       ??_C@_0BD@HFJAOMDB@?$CF?$CKs?$CFs?5Public?9Key?3?6@ 0000000000099688     OpensslLib:ecx_meth.obj
 0002:000266c0       ??_C@_08BMIKENKP@?$CF?$CKspub?3?6@ 00000000000996a0     OpensslLib:ecx_meth.obj
 0002:000266d0       ??_C@_0BJ@OPPGOKJE@OpenSSL?5X25519?5algorithm@ 00000000000996b0     OpensslLib:ecx_meth.obj
 0002:000266f0       ??_C@_0BH@LCCDECOI@OpenSSL?5X448?5algorithm@ 00000000000996d0     OpensslLib:ecx_meth.obj
 0002:00026708       ??_C@_0BK@EOFFJDOF@OpenSSL?5ED25519?5algorithm@ 00000000000996e8     OpensslLib:ecx_meth.obj
 0002:00026728       ??_C@_0BI@FPELGGCO@OpenSSL?5ED448?5algorithm@ 0000000000099708     OpensslLib:ecx_meth.obj
 0002:00026740       sm2_asn1_meth              0000000000099720     OpensslLib:ec_ameth.obj
 0002:00026860       eckey_asn1_meth            0000000000099840     OpensslLib:ec_ameth.obj
 0002:00026978       ??_C@_0M@CJKOCIEC@Private?9Key@ 0000000000099958     OpensslLib:ec_ameth.obj
 0002:00026988       ??_C@_0L@FMJMEKAC@Public?9Key@ 0000000000099968     OpensslLib:ec_ameth.obj
 0002:00026998       ??_C@_0BB@DMDKLH@ECDSA?9Parameters@ 0000000000099978     OpensslLib:ec_ameth.obj
 0002:000269b0       ??_C@_0O@OPPPNLCD@?$CFs?3?5?$CI?$CFd?5bit?$CJ?6@ 0000000000099990     OpensslLib:ec_ameth.obj
 0002:000269c0       ??_C@_02KNLLHFAA@EC@       00000000000999a0     OpensslLib:ec_ameth.obj
 0002:000269c8       ??_C@_0BF@DKDIFOGG@OpenSSL?5EC?5algorithm@ 00000000000999a8     OpensslLib:ec_ameth.obj
 0002:000269e0       siphash_asn1_meth          00000000000999c0     OpensslLib:siphash_ameth.obj
 0002:00026af8       ??_C@_07IBBIJFNK@SIPHASH@  0000000000099ad8     OpensslLib:siphash_ameth.obj
 0002:00026b00       ??_C@_0BH@FCFCAEA@OpenSSL?5SIPHASH?5method@ 0000000000099ae0     OpensslLib:siphash_ameth.obj
 0002:00026b20       hmac_asn1_meth             0000000000099b00     OpensslLib:hm_ameth.obj
 0002:00026c38       ??_C@_0BE@BABEGANF@OpenSSL?5HMAC?5method@ 0000000000099c18     OpensslLib:hm_ameth.obj
 0002:00026c50       rsa_pss_asn1_meth          0000000000099c30     OpensslLib:rsa_ameth.obj
 0002:00026d70       rsa_asn1_meths             0000000000099d50     OpensslLib:rsa_ameth.obj
 0002:00026fa0       ??_C@_0BP@CGCIOPAF@No?5PSS?5parameter?5restrictions?6@ 0000000000099f80     OpensslLib:rsa_ameth.obj
 0002:00026fc0       ??_C@_0BM@OMMNCLDM@PSS?5parameter?5restrictions?3@ 0000000000099fa0     OpensslLib:rsa_ameth.obj
 0002:00026fe0       ??_C@_0BK@KFGFELEH@?$CIINVALID?5PSS?5PARAMETERS?$CJ?6@ 0000000000099fc0     OpensslLib:rsa_ameth.obj
 0002:00027000       ??_C@_0BB@PMMDHLKH@Hash?5Algorithm?3?5@ 0000000000099fe0     OpensslLib:rsa_ameth.obj
 0002:00027018       ??_C@_0P@ODEAMLKF@sha1?5?$CIdefault?$CJ@ 0000000000099ff8     OpensslLib:rsa_ameth.obj
 0002:00027028       ??_C@_0BB@HEAMLCPA@Mask?5Algorithm?3?5@ 000000000009a008     OpensslLib:rsa_ameth.obj
 0002:0002703c       ??_C@_06BIDGLIKJ@?5with?5@ 000000000009a01c     OpensslLib:rsa_ameth.obj
 0002:00027048       ??_C@_07DNODLGKM@INVALID@  000000000009a028     OpensslLib:rsa_ameth.obj
 0002:00027050       ??_C@_0BJ@NNFOENLD@mgf1?5with?5sha1?5?$CIdefault?$CJ@ 000000000009a030     OpensslLib:rsa_ameth.obj
 0002:00027070       ??_C@_07NLJCBFAF@Minimum@  000000000009a050     OpensslLib:rsa_ameth.obj
 0002:00027078       ??_C@_0BD@DPAJFAGN@?$CFs?5Salt?5Length?3?50x@ 000000000009a058     OpensslLib:rsa_ameth.obj
 0002:00027090       ??_C@_0N@CGLOPGL@14?5?$CIdefault?$CJ@ 000000000009a070     OpensslLib:rsa_ameth.obj
 0002:000270a0       ??_C@_0BC@EDKEKAHK@Trailer?5Field?3?50x@ 000000000009a080     OpensslLib:rsa_ameth.obj
 0002:000270b8       ??_C@_0N@FFIHJHFK@BC?5?$CIdefault?$CJ@ 000000000009a098     OpensslLib:rsa_ameth.obj
 0002:000270c8       ??_C@_07FGNHIEKH@RSA?9PSS@ 000000000009a0a8     OpensslLib:rsa_ameth.obj
 0002:000270d0       ??_C@_03IKGEINEE@?$CFs?5@  000000000009a0b0     OpensslLib:rsa_ameth.obj
 0002:000270d8       ??_C@_0CC@BJIIEMBB@Private?9Key?3?5?$CI?$CFd?5bit?0?5?$CFd?5primes@ 000000000009a0b8     OpensslLib:rsa_ameth.obj
 0002:00027100       ??_C@_08OKDKAJKD@modulus?3@ 000000000009a0e0     OpensslLib:rsa_ameth.obj
 0002:00027110       ??_C@_0BA@FAAMOFHC@publicExponent?3@ 000000000009a0f0     OpensslLib:rsa_ameth.obj
 0002:00027120       ??_C@_0BG@HAJOCCOP@Public?9Key?3?5?$CI?$CFd?5bit?$CJ?6@ 000000000009a100     OpensslLib:rsa_ameth.obj
 0002:00027138       ??_C@_08GIMLILAA@Modulus?3@ 000000000009a118     OpensslLib:rsa_ameth.obj
 0002:00027148       ??_C@_09DALHJPOO@Exponent?3@ 000000000009a128     OpensslLib:rsa_ameth.obj
 0002:00027158       ??_C@_0BB@NFOLHHHJ@privateExponent?3@ 000000000009a138     OpensslLib:rsa_ameth.obj
 0002:00027170       ??_C@_07PNLMLIF@prime1?3@  000000000009a150     OpensslLib:rsa_ameth.obj
 0002:00027178       ??_C@_07NJNHFNM@prime2?3@  000000000009a158     OpensslLib:rsa_ameth.obj
 0002:00027180       ??_C@_0L@OIOCMGKP@exponent1?3@ 000000000009a160     OpensslLib:rsa_ameth.obj
 0002:00027190       ??_C@_0L@OKKEHIPG@exponent2?3@ 000000000009a170     OpensslLib:rsa_ameth.obj
 0002:000271a0       ??_C@_0N@GNAMJPHF@coefficient?3@ 000000000009a180     OpensslLib:rsa_ameth.obj
 0002:000271b0       ??_C@_08BCNLBGP@prime?$CFd?3@ 000000000009a190     OpensslLib:rsa_ameth.obj
 0002:000271c0       ??_C@_0M@NKHBEBLE@exponent?$CFd?3@ 000000000009a1a0     OpensslLib:rsa_ameth.obj
 0002:000271d0       ??_C@_0P@FAPFJECG@coefficient?$CFd?3@ 000000000009a1b0     OpensslLib:rsa_ameth.obj
 0002:000271e0       ??_C@_0BD@MHOEKPBI@OpenSSL?5RSA?5method@ 000000000009a1c0     OpensslLib:rsa_ameth.obj
 0002:000271f8       ??_C@_0BH@JANGLOLP@OpenSSL?5RSA?9PSS?5method@ 000000000009a1d8     OpensslLib:rsa_ameth.obj
 0002:00027210       dh_asn1_meth               000000000009a1f0     OpensslLib:dh_ameth.obj
 0002:00027330       dhx_asn1_meth              000000000009a310     OpensslLib:dh_ameth.obj
 0002:00027448       ??_C@_0P@ELBFBOG@DH?5Private?9Key@ 000000000009a428     OpensslLib:dh_ameth.obj
 0002:00027458       ??_C@_0O@EBAKGDPN@DH?5Public?9Key@ 000000000009a438     OpensslLib:dh_ameth.obj
 0002:00027468       ??_C@_0O@OMPEPKAJ@DH?5Parameters@ 000000000009a448     OpensslLib:dh_ameth.obj
 0002:00027478       ??_C@_0N@MPONDEBM@private?9key?3@ 000000000009a458     OpensslLib:dh_ameth.obj
 0002:00027488       ??_C@_0M@BCALNHOD@public?9key?3@ 000000000009a468     OpensslLib:dh_ameth.obj
 0002:00027494       ??_C@_06POMKLBDA@prime?3@  000000000009a474     OpensslLib:dh_ameth.obj
 0002:000274a0       ??_C@_0L@HDGHCIJF@generator?3@ 000000000009a480     OpensslLib:dh_ameth.obj
 0002:000274b0       ??_C@_0BA@PFGIPGBD@subgroup?5order?3@ 000000000009a490     OpensslLib:dh_ameth.obj
 0002:000274c0       ??_C@_0BB@HEOELHJJ@subgroup?5factor?3@ 000000000009a4a0     OpensslLib:dh_ameth.obj
 0002:000274d4       ??_C@_05PENGGDLK@seed?3@   000000000009a4b4     OpensslLib:dh_ameth.obj
 0002:000274dc       ??_C@_06LEJCPMLM@?$CF02x?$CFs@ 000000000009a4bc     OpensslLib:dh_ameth.obj
 0002:000274e8       ??_C@_08ILALFGPI@counter?3@ 000000000009a4c8     OpensslLib:dh_ameth.obj
 0002:000274f8       ??_C@_0CF@KKPEILHE@recommended?9private?9length?3?5?$CFd?5@ 000000000009a4d8     OpensslLib:dh_ameth.obj
 0002:00027520       ??_C@_02EPINMGPM@DH@       000000000009a500     OpensslLib:dh_ameth.obj
 0002:00027528       ??_C@_0BJ@OPGBMMOB@OpenSSL?5PKCS?$CD3?5DH?5method@ 000000000009a508     OpensslLib:dh_ameth.obj
 0002:00027548       ??_C@_0BI@JOIJFJMC@OpenSSL?5X9?442?5DH?5method@ 000000000009a528     OpensslLib:dh_ameth.obj
 0002:00027560       ??_C@_03MEGLGNML@SM4@      000000000009a540     OpensslLib:c_allc.obj
 0002:00027564       ??_C@_03FMBEIEBF@sm4@      000000000009a544     OpensslLib:c_allc.obj
 0002:00027568       ??_C@_0M@DJNCOMHD@aes128?9wrap@ 000000000009a548     OpensslLib:c_allc.obj
 0002:00027574       ??_C@_06NICOGCEJ@AES128@   000000000009a554     OpensslLib:c_allc.obj
 0002:0002757c       ??_C@_06NBPOHBOH@aes128@   000000000009a55c     OpensslLib:c_allc.obj
 0002:00027588       ??_C@_0M@MAMIKPGL@aes192?9wrap@ 000000000009a568     OpensslLib:c_allc.obj
 0002:00027594       ??_C@_06COJEGFCC@AES192@   000000000009a574     OpensslLib:c_allc.obj
 0002:0002759c       ??_C@_06CHEEHGIM@aes192@   000000000009a57c     OpensslLib:c_allc.obj
 0002:000275a8       ??_C@_0M@FKKFKCPC@aes256?9wrap@ 000000000009a588     OpensslLib:c_allc.obj
 0002:000275b4       ??_C@_06FBFHPGKM@AES256@   000000000009a594     OpensslLib:c_allc.obj
 0002:000275bc       ??_C@_06FIIHOFAC@aes256@   000000000009a59c     OpensslLib:c_allc.obj
 0002:000275c8       ??_C@_07POIDCCOH@ARIA128@  000000000009a5a8     OpensslLib:c_allc.obj
 0002:000275d0       ??_C@_07OCFFDBP@aria128@   000000000009a5b0     OpensslLib:c_allc.obj
 0002:000275d8       ??_C@_07IDJCFIM@ARIA192@   000000000009a5b8     OpensslLib:c_allc.obj
 0002:000275e0       ??_C@_07PIJPFEHE@aria192@  000000000009a5c0     OpensslLib:c_allc.obj
 0002:000275e8       ??_C@_07HHPKLGAC@ARIA256@  000000000009a5c8     OpensslLib:c_allc.obj
 0002:000275f0       ??_C@_07IHFMMHPK@aria256@  000000000009a5d0     OpensslLib:c_allc.obj
 0002:00027618       ??_C@_08CBANLEIB@ssl3?9md5@ 000000000009a5f8     OpensslLib:c_alld.obj
 0002:00027628       ??_C@_09KCHAKJIH@ssl3?9sha1@ 000000000009a608     OpensslLib:c_alld.obj
 0002:00027640       dhx_pkey_meth              000000000009a620     OpensslLib:dh_pmeth.obj
 0002:00027740       dh_pkey_meth               000000000009a720     OpensslLib:dh_pmeth.obj
 0002:00027840       ??_C@_0BG@LEMCDPBI@dh_paramgen_prime_len@ 000000000009a820     OpensslLib:dh_pmeth.obj
 0002:00027858       ??_C@_0L@CMAICHCO@dh_rfc5114@ 000000000009a838     OpensslLib:dh_pmeth.obj
 0002:00027868       ??_C@_08DJOKJGHP@dh_param@ 000000000009a848     OpensslLib:dh_pmeth.obj
 0002:00027878       ??_C@_0BG@POLEFOHA@dh_paramgen_generator@ 000000000009a858     OpensslLib:dh_pmeth.obj
 0002:00027890       ??_C@_0BJ@HCAFJLBI@dh_paramgen_subprime_len@ 000000000009a870     OpensslLib:dh_pmeth.obj
 0002:000278b0       ??_C@_0BB@DCMALDKK@dh_paramgen_type@ 000000000009a890     OpensslLib:dh_pmeth.obj
 0002:000278c4       ??_C@_06GADFDCHC@dh_pad@   000000000009a8a4     OpensslLib:dh_pmeth.obj
 0002:000278d0       cmac_pkey_meth             000000000009a8b0     OpensslLib:cm_pmeth.obj
 0002:000279d0       ??_C@_06KDGDAFPH@cipher@   000000000009a9b0     OpensslLib:cm_pmeth.obj
 0002:000279d8       ??_C@_06BHJHKMJC@hexkey@   000000000009a9b8     OpensslLib:cm_pmeth.obj
 0002:000279e0       rsa_pkey_meth              000000000009a9c0     OpensslLib:rsa_pmeth.obj
 0002:00027ae0       rsa_pss_pkey_meth          000000000009aac0     OpensslLib:rsa_pmeth.obj
 0002:00027be0       ??_C@_0BB@BILFEOKG@rsa_padding_mode@ 000000000009abc0     OpensslLib:rsa_pmeth.obj
 0002:00027bf4       ??_C@_06PDLHKEJK@sslv23@   000000000009abd4     OpensslLib:rsa_pmeth.obj
 0002:00027bfc       ??_C@_04CGFJFPFD@none@     000000000009abdc     OpensslLib:rsa_pmeth.obj
 0002:00027c04       ??_C@_04EIGNDHKO@oeap@     000000000009abe4     OpensslLib:rsa_pmeth.obj
 0002:00027c0c       ??_C@_04MAAGAICF@oaep@     000000000009abec     OpensslLib:rsa_pmeth.obj
 0002:00027c14       ??_C@_04JNCMEILM@x931@     000000000009abf4     OpensslLib:rsa_pmeth.obj
 0002:00027c20       ??_C@_0BA@CIHMEEHB@rsa_pss_saltlen@ 000000000009ac00     OpensslLib:rsa_pmeth.obj
 0002:00027c30       ??_C@_03LJAEFNNE@max@      000000000009ac10     OpensslLib:rsa_pmeth.obj
 0002:00027c34       ??_C@_04HAPDLBFF@auto@     000000000009ac14     OpensslLib:rsa_pmeth.obj
 0002:00027c40       ??_C@_0BA@GFPKPLAF@rsa_keygen_bits@ 000000000009ac20     OpensslLib:rsa_pmeth.obj
 0002:00027c50       ??_C@_0BC@DMECNPFD@rsa_keygen_pubexp@ 000000000009ac30     OpensslLib:rsa_pmeth.obj
 0002:00027c68       ??_C@_0BC@KMPAJFPF@rsa_keygen_primes@ 000000000009ac48     OpensslLib:rsa_pmeth.obj
 0002:00027c80       ??_C@_0M@CNLGKALE@rsa_mgf1_md@ 000000000009ac60     OpensslLib:rsa_pmeth.obj
 0002:00027c90       ??_C@_0BH@OIJPKNFL@rsa_pss_keygen_mgf1_md@ 000000000009ac70     OpensslLib:rsa_pmeth.obj
 0002:00027ca8       ??_C@_0BC@BFLLMFID@rsa_pss_keygen_md@ 000000000009ac88     OpensslLib:rsa_pmeth.obj
 0002:00027cc0       ??_C@_0BH@MFJEKBFK@rsa_pss_keygen_saltlen@ 000000000009aca0     OpensslLib:rsa_pmeth.obj
 0002:00027cd8       ??_C@_0M@OPEEJBKE@rsa_oaep_md@ 000000000009acb8     OpensslLib:rsa_pmeth.obj
 0002:00027ce8       ??_C@_0P@NCFNIFLM@rsa_oaep_label@ 000000000009acc8     OpensslLib:rsa_pmeth.obj
 0002:00027d00       tls1_prf_pkey_meth         000000000009ace0     OpensslLib:tls1_prf.obj
 0002:00027e00       ??_C@_06PNMBKEGN@secret@   000000000009ade0     OpensslLib:tls1_prf.obj
 0002:00027e08       ??_C@_09CIFGBJCP@hexsecret@ 000000000009ade8     OpensslLib:tls1_prf.obj
 0002:00027e18       ??_C@_07FKCLENDA@hexseed@  000000000009adf8     OpensslLib:tls1_prf.obj
 0002:00027e20       hkdf_pkey_meth             000000000009ae00     OpensslLib:hkdf.obj
 0002:00027f20       ??_C@_04GMGOKAFF@mode@     000000000009af00     OpensslLib:hkdf.obj
 0002:00027f28       ??_C@_0BD@PBGBEBFD@EXTRACT_AND_EXPAND@ 000000000009af08     OpensslLib:hkdf.obj
 0002:00027f40       ??_C@_0N@OIPAJIAH@EXTRACT_ONLY@ 000000000009af20     OpensslLib:hkdf.obj
 0002:00027f50       ??_C@_0M@FMHABNKF@EXPAND_ONLY@ 000000000009af30     OpensslLib:hkdf.obj
 0002:00027f5c       ??_C@_04OKLIMCN@salt@      000000000009af3c     OpensslLib:hkdf.obj
 0002:00027f68       ??_C@_07JAFKPDLJ@hexsalt@  000000000009af48     OpensslLib:hkdf.obj
 0002:00027f70       ??_C@_07EGMICCIA@hexinfo@  000000000009af50     OpensslLib:hkdf.obj
 0002:00027f80       sm2_pkey_meth              000000000009af60     OpensslLib:sm2_pmeth.obj
 0002:00028080       ??_C@_0BC@BLCJLNNM@ec_paramgen_curve@ 000000000009b060     OpensslLib:sm2_pmeth.obj
 0002:00028098       ??_C@_0N@CHHABLAI@ec_param_enc@ 000000000009b078     OpensslLib:sm2_pmeth.obj
 0002:000280a8       ??_C@_08FCANLLBJ@explicit@ 000000000009b088     OpensslLib:sm2_pmeth.obj
 0002:000280b8       ??_C@_0M@FBFAECBG@named_curve@ 000000000009b098     OpensslLib:sm2_pmeth.obj
 0002:000280d0       siphash_pkey_meth          000000000009b0b0     OpensslLib:siphash_pmeth.obj
 0002:000281d0       ??_C@_0L@NANBDDC@digestsize@ 000000000009b1b0     OpensslLib:siphash_pmeth.obj
 0002:000281e0       ec_pkey_meth               000000000009b1c0     OpensslLib:ec_pmeth.obj
 0002:000282e0       ??_C@_0M@JAAKIKPH@ecdh_kdf_md@ 000000000009b2c0     OpensslLib:ec_pmeth.obj
 0002:000282f0       ??_C@_0BD@CPNABICB@ecdh_cofactor_mode@ 000000000009b2d0     OpensslLib:ec_pmeth.obj
 0002:00028310       hmac_pkey_meth             000000000009b2f0     OpensslLib:hm_pmeth.obj
 0002:00028410       ??_C@_0L@LIHNHIHF@?$CF?$CKs?$CF04x?5?9?5@ 000000000009b3f0     OpensslLib:b_dump.obj
 0002:0002841c       ??_C@_03NDEAONJP@?5?5?5@   000000000009b3fc     OpensslLib:b_dump.obj
 0002:00028420       ??_C@_02KNHHEEKP@?5?5@     000000000009b400     OpensslLib:b_dump.obj
 0002:00028490       ??_C@_0P@ONGHGJEC@message?5digest@ 000000000009b470     OpensslLib:bio_md.obj
 0002:00028560       ??_C@_06KAALCHHK@crlUrl@   000000000009b540     OpensslLib:ocsp_asn.obj
 0002:00028568       ??_C@_06DLEHNACA@crlNum@   000000000009b548     OpensslLib:ocsp_asn.obj
 0002:00028570       ??_C@_07BDEAJPPO@crlTime@  000000000009b550     OpensslLib:ocsp_asn.obj
 0002:00028578       ??_C@_0L@JOKCDHBA@OCSP_CRLID@ 000000000009b558     OpensslLib:ocsp_asn.obj
 0002:00028588       ??_C@_07PAIKCKMF@locator@  000000000009b568     OpensslLib:ocsp_asn.obj
 0002:00028590       ??_C@_0BA@JLGHGCLL@OCSP_SERVICELOC@ 000000000009b570     OpensslLib:ocsp_asn.obj
 0002:00028640       OCSP_SERVICELOC_it         000000000009b620     OpensslLib:ocsp_asn.obj
 0002:00028670       OCSP_CRLID_it              000000000009b650     OpensslLib:ocsp_asn.obj
 0002:000286a0       v3_ocsp_accresp            000000000009b680     OpensslLib:v3_extku.obj
 0002:00028710       v3_ext_ku                  000000000009b6f0     OpensslLib:v3_extku.obj
 0002:00028778       ??_C@_0BD@CKAGEBEF@EXTENDED_KEY_USAGE@ 000000000009b758     OpensslLib:v3_extku.obj
 0002:000287b0       EXTENDED_KEY_USAGE_it      000000000009b790     OpensslLib:v3_extku.obj
 0002:000287e0       v3_key_usage               000000000009b7c0     OpensslLib:v3_bitst.obj
 0002:00028850       v3_nscert                  000000000009b830     OpensslLib:v3_bitst.obj
 0002:000288b8       ??_C@_06DGDLPBAN@client@   000000000009b898     OpensslLib:v3_bitst.obj
 0002:000288c0       ??_C@_06HJHJCKIO@server@   000000000009b8a0     OpensslLib:v3_bitst.obj
 0002:000288c8       ??_C@_0P@DDHLFHHK@Object?5Signing@ 000000000009b8a8     OpensslLib:v3_bitst.obj
 0002:000288d8       ??_C@_07GIOKFKGL@objsign@  000000000009b8b8     OpensslLib:v3_bitst.obj
 0002:000288e0       ??_C@_08FINKBBAF@reserved@ 000000000009b8c0     OpensslLib:v3_bitst.obj
 0002:000288ec       ??_C@_06FMDLPOFJ@SSL?5CA@  000000000009b8cc     OpensslLib:v3_bitst.obj
 0002:000288f4       ??_C@_05JHLHLOEK@sslCA@    000000000009b8d4     OpensslLib:v3_bitst.obj
 0002:00028900       ??_C@_09GIEMCMEO@S?1MIME?5CA@ 000000000009b8e0     OpensslLib:v3_bitst.obj
 0002:00028910       ??_C@_07FFHDGPMJ@emailCA@  000000000009b8f0     OpensslLib:v3_bitst.obj
 0002:00028918       ??_C@_0BC@FAMHGMHB@Object?5Signing?5CA@ 000000000009b8f8     OpensslLib:v3_bitst.obj
 0002:0002892c       ??_C@_05JLEIJNEE@objCA@    000000000009b90c     OpensslLib:v3_bitst.obj
 0002:00028938       ??_C@_0BC@DPKEIPIO@Digital?5Signature@ 000000000009b918     OpensslLib:v3_bitst.obj
 0002:00028950       ??_C@_0BB@MFKHIIOM@digitalSignature@ 000000000009b930     OpensslLib:v3_bitst.obj
 0002:00028968       ??_C@_0BA@DJCGBBAI@Non?5Repudiation@ 000000000009b948     OpensslLib:v3_bitst.obj
 0002:00028978       ??_C@_0P@GPCNPOGO@nonRepudiation@ 000000000009b958     OpensslLib:v3_bitst.obj
 0002:00028988       ??_C@_0BB@KNACIBEN@Key?5Encipherment@ 000000000009b968     OpensslLib:v3_bitst.obj
 0002:000289a0       ??_C@_0BA@MINCLOJG@keyEncipherment@ 000000000009b980     OpensslLib:v3_bitst.obj
 0002:000289b0       ??_C@_0BC@GNPIAJLP@Data?5Encipherment@ 000000000009b990     OpensslLib:v3_bitst.obj
 0002:000289c8       ??_C@_0BB@LBKKKIGO@dataEncipherment@ 000000000009b9a8     OpensslLib:v3_bitst.obj
 0002:000289e0       ??_C@_0O@EOJOBCHL@Key?5Agreement@ 000000000009b9c0     OpensslLib:v3_bitst.obj
 0002:000289f0       ??_C@_0N@GONHKOEO@keyAgreement@ 000000000009b9d0     OpensslLib:v3_bitst.obj
 0002:00028a00       ??_C@_0BB@ELNGMDLH@Certificate?5Sign@ 000000000009b9e0     OpensslLib:v3_bitst.obj
 0002:00028a18       ??_C@_0M@ONBOOMGI@keyCertSign@ 000000000009b9f8     OpensslLib:v3_bitst.obj
 0002:00028a28       ??_C@_08OCJGKMAN@CRL?5Sign@ 000000000009ba08     OpensslLib:v3_bitst.obj
 0002:00028a38       ??_C@_07IHBCCDFJ@cRLSign@  000000000009ba18     OpensslLib:v3_bitst.obj
 0002:00028a40       ??_C@_0O@CANGKMJD@Encipher?5Only@ 000000000009ba20     OpensslLib:v3_bitst.obj
 0002:00028a50       ??_C@_0N@BEFDLIKF@encipherOnly@ 000000000009ba30     OpensslLib:v3_bitst.obj
 0002:00028a60       ??_C@_0O@FKBAPCEG@Decipher?5Only@ 000000000009ba40     OpensslLib:v3_bitst.obj
 0002:00028a70       ??_C@_0N@LIFHMFCO@decipherOnly@ 000000000009ba50     OpensslLib:v3_bitst.obj
 0002:00028a80       v3_ocsp_crlid              000000000009ba60     OpensslLib:v3_ocsp.obj
 0002:00028af0       v3_crl_hold                000000000009bad0     OpensslLib:v3_ocsp.obj
 0002:00028b60       v3_ocsp_nocheck            000000000009bb40     OpensslLib:v3_ocsp.obj
 0002:00028bd0       v3_ocsp_acutoff            000000000009bbb0     OpensslLib:v3_ocsp.obj
 0002:00028c40       v3_ocsp_nonce              000000000009bc20     OpensslLib:v3_ocsp.obj
 0002:00028cb0       v3_crl_invdate             000000000009bc90     OpensslLib:v3_ocsp.obj
 0002:00028d20       v3_ocsp_serviceloc         000000000009bd00     OpensslLib:v3_ocsp.obj
 0002:00028d88       ??_C@_0M@KIKBFHBJ@?$CF?$CKscrlUrl?3?5@ 000000000009bd68     OpensslLib:v3_ocsp.obj
 0002:00028d98       ??_C@_0M@MLCMBODE@?$CF?$CKscrlNum?3?5@ 000000000009bd78     OpensslLib:v3_ocsp.obj
 0002:00028da8       ??_C@_0N@IBJOMEDL@?$CF?$CKscrlTime?3?5@ 000000000009bd88     OpensslLib:v3_ocsp.obj
 0002:00028db8       ??_C@_0M@IHOINNJF@?$CF?$CKsIssuer?3?5@ 000000000009bd98     OpensslLib:v3_ocsp.obj
 0002:00028dc4       ??_C@_04NFEJKGEM@?6?$CF?$CKs@ 000000000009bda4     OpensslLib:v3_ocsp.obj
 0002:00028dcc       ??_C@_03NLJIHOMM@?5?9?5@   000000000009bdac     OpensslLib:v3_ocsp.obj
 0002:00028dd0       v3_akey_id                 000000000009bdb0     OpensslLib:v3_akey.obj
 0002:00028e38       ??_C@_06KHDOHNKC@always@   000000000009be18     OpensslLib:v3_akey.obj
 0002:00028e40       v3_ns_ia5_list             000000000009be20     OpensslLib:v3_ia5.obj
 0002:00029180       v3_delta_crl               000000000009c160     OpensslLib:v3_int.obj
 0002:000291f0       v3_inhibit_anyp            000000000009c1d0     OpensslLib:v3_int.obj
 0002:00029260       v3_crl_num                 000000000009c240     OpensslLib:v3_int.obj
 0002:000292d0       v3_ext_admission           000000000009c2b0     OpensslLib:v3_admis.obj
 0002:00029338       ??_C@_0BC@KHBCHCNJ@namingAuthorityId@ 000000000009c318     OpensslLib:v3_admis.obj
 0002:00029350       ??_C@_0BD@DEIEGLEM@namingAuthorityUrl@ 000000000009c330     OpensslLib:v3_admis.obj
 0002:00029368       ??_C@_0BE@NPIMHIBI@namingAuthorityText@ 000000000009c348     OpensslLib:v3_admis.obj
 0002:00029380       ??_C@_0BB@COJAOCFM@NAMING_AUTHORITY@ 000000000009c360     OpensslLib:v3_admis.obj
 0002:00029398       ??_C@_0BA@DBBLIBJC@namingAuthority@ 000000000009c378     OpensslLib:v3_admis.obj
 0002:000293a8       ??_C@_0BA@JCIKJJCP@professionItems@ 000000000009c388     OpensslLib:v3_admis.obj
 0002:000293b8       ??_C@_0P@PBNEFCJO@professionOIDs@ 000000000009c398     OpensslLib:v3_admis.obj
 0002:000293c8       ??_C@_0BD@NJLNALHF@registrationNumber@ 000000000009c3a8     OpensslLib:v3_admis.obj
 0002:000293e0       ??_C@_0BC@EDMGMCCO@addProfessionInfo@ 000000000009c3c0     OpensslLib:v3_admis.obj
 0002:000293f8       ??_C@_0BA@KKEGAEAH@PROFESSION_INFO@ 000000000009c3d8     OpensslLib:v3_admis.obj
 0002:00029408       ??_C@_0BD@GKCCDPCL@admissionAuthority@ 000000000009c3e8     OpensslLib:v3_admis.obj
 0002:00029420       ??_C@_0BA@KJOLGNIM@professionInfos@ 000000000009c400     OpensslLib:v3_admis.obj
 0002:00029430       ??_C@_0L@OIMBEHAN@ADMISSIONS@ 000000000009c410     OpensslLib:v3_admis.obj
 0002:00029440       ??_C@_0BF@FNBKMPAG@contentsOfAdmissions@ 000000000009c420     OpensslLib:v3_admis.obj
 0002:00029458       ??_C@_0BB@PBMIGONA@ADMISSION_SYNTAX@ 000000000009c438     OpensslLib:v3_admis.obj
 0002:00029470       ??_C@_0BF@MPDFFBEA@?$CF?$CKsnamingAuthority?3?5@ 000000000009c450     OpensslLib:v3_admis.obj
 0002:00029488       ??_C@_0BM@DCICMEAO@?$CF?$CKs?5?5admissionAuthorityId?3?5@ 000000000009c468     OpensslLib:v3_admis.obj
 0002:000294a4       ??_C@_01PKGAHCOL@?$CJ@     000000000009c484     OpensslLib:v3_admis.obj
 0002:000294a8       ??_C@_02GFKOMOKH@?5?$CI@   000000000009c488     OpensslLib:v3_admis.obj
 0002:000294b0       ??_C@_09MCJOGJJM@?$CFs?$CFs?$CFs?$CFs?6@ 000000000009c490     OpensslLib:v3_admis.obj
 0002:000294c0       ??_C@_0BL@DELGFPFK@?$CF?$CKs?5?5namingAuthorityText?3?5@ 000000000009c4a0     OpensslLib:v3_admis.obj
 0002:000294e0       ??_C@_0BK@OPCGIEEP@?$CF?$CKs?5?5namingAuthorityUrl?3?5@ 000000000009c4c0     OpensslLib:v3_admis.obj
 0002:00029500       ??_C@_0BI@NKKBPCEB@?$CF?$CKsadmissionAuthority?3?6@ 000000000009c4e0     OpensslLib:v3_admis.obj
 0002:00029518       ??_C@_05EGGOJAEM@?$CF?$CKs?5?5@ 000000000009c4f8     OpensslLib:v3_admis.obj
 0002:00029520       ??_C@_0P@ONCDAKNH@?$CF?$CKsEntry?5?$CF0d?3?6@ 000000000009c500     OpensslLib:v3_admis.obj
 0002:00029530       ??_C@_0BK@MGPHHOEM@?$CF?$CKs?5?5admissionAuthority?3?6@ 000000000009c510     OpensslLib:v3_admis.obj
 0002:00029550       ??_C@_07BAKLHGB@?$CF?$CKs?5?5?5?5@ 000000000009c530     OpensslLib:v3_admis.obj
 0002:00029558       ??_C@_0CB@JOPMCDOG@?$CF?$CKs?5?5Profession?5Info?5Entry?5?$CF0d?3@ 000000000009c538     OpensslLib:v3_admis.obj
 0002:00029580       ??_C@_0BM@PNLACIIE@?$CF?$CKs?5?5?5?5registrationNumber?3?5@ 000000000009c560     OpensslLib:v3_admis.obj
 0002:000295a0       ??_C@_0BG@COHLBKD@?$CF?$CKs?5?5?5?5Info?5Entries?3?6@ 000000000009c580     OpensslLib:v3_admis.obj
 0002:000295b8       ??_C@_09IECKBPIB@?$CF?$CKs?5?5?5?5?5?5@ 000000000009c598     OpensslLib:v3_admis.obj
 0002:000295c8       ??_C@_0BJ@KFOBDAG@?$CF?$CKs?5?5?5?5Profession?5OIDs?3?6@ 000000000009c5a8     OpensslLib:v3_admis.obj
 0002:000295e8       ??_C@_0BD@OELCPJIC@?$CF?$CKs?5?5?5?5?5?5?$CFs?$CFs?$CFs?$CFs?6@ 000000000009c5c8     OpensslLib:v3_admis.obj
 0002:00029600       PROFESSION_INFO_it         000000000009c5e0     OpensslLib:v3_admis.obj
 0002:00029690       ADMISSION_SYNTAX_it        000000000009c670     OpensslLib:v3_admis.obj
 0002:000296c0       ADMISSIONS_it              000000000009c6a0     OpensslLib:v3_admis.obj
 0002:00029830       NAMING_AUTHORITY_it        000000000009c810     OpensslLib:v3_admis.obj
 0002:00029860       v3_skey_id                 000000000009c840     OpensslLib:v3_skey.obj
 0002:000298c8       ??_C@_04OIJGJDKO@hash@     000000000009c8a8     OpensslLib:v3_skey.obj
 0002:000298d0       v3_crl_reason              000000000009c8b0     OpensslLib:v3_enum.obj
 0002:00029938       ??_C@_0M@NNPCGPMF@Unspecified@ 000000000009c918     OpensslLib:v3_enum.obj
 0002:00029948       ??_C@_0M@MFMDLEDN@unspecified@ 000000000009c928     OpensslLib:v3_enum.obj
 0002:00029958       ??_C@_0BA@GLPEKBIK@Remove?5From?5CRL@ 000000000009c938     OpensslLib:v3_enum.obj
 0002:00029968       ??_C@_0O@BILLKPKO@removeFromCRL@ 000000000009c948     OpensslLib:v3_enum.obj
 0002:00029980       v3_pkey_usage_period       000000000009c960     OpensslLib:v3_pku.obj
 0002:000299e8       ??_C@_0BC@CCOKACDM@PKEY_USAGE_PERIOD@ 000000000009c9c8     OpensslLib:v3_pku.obj
 0002:00029a00       ??_C@_0N@KGLJEEMK@Not?5Before?3?5@ 000000000009c9e0     OpensslLib:v3_pku.obj
 0002:00029a10       ??_C@_0M@FCHJLIHE@Not?5After?3?5@ 000000000009c9f0     OpensslLib:v3_pku.obj
 0002:00029a60       PKEY_USAGE_PERIOD_it       000000000009ca40     OpensslLib:v3_pku.obj
 0002:00029a90       v3_policy_mappings         000000000009ca70     OpensslLib:v3_pmaps.obj
 0002:00029af8       ??_C@_0BD@JILOPHFL@issuerDomainPolicy@ 000000000009cad8     OpensslLib:v3_pmaps.obj
 0002:00029b10       ??_C@_0BE@FFIKMOKF@subjectDomainPolicy@ 000000000009caf0     OpensslLib:v3_pmaps.obj
 0002:00029b28       ??_C@_0P@NLHMKCKF@POLICY_MAPPING@ 000000000009cb08     OpensslLib:v3_pmaps.obj
 0002:00029b38       ??_C@_0BA@DHPBCFFC@POLICY_MAPPINGS@ 000000000009cb18     OpensslLib:v3_pmaps.obj
 0002:00029b90       POLICY_MAPPINGS_it         000000000009cb70     OpensslLib:v3_pmaps.obj
 0002:00029bc0       POLICY_MAPPING_it          000000000009cba0     OpensslLib:v3_pmaps.obj
 0002:00029c10       v3_sxnet                   000000000009cbf0     OpensslLib:v3_sxnet.obj
 0002:00029c78       ??_C@_04LDDJGOBB@zone@     000000000009cc58     OpensslLib:v3_sxnet.obj
 0002:00029c80       ??_C@_04CCHAHKJA@user@     000000000009cc60     OpensslLib:v3_sxnet.obj
 0002:00029c88       ??_C@_07FLDOGLPN@SXNETID@  000000000009cc68     OpensslLib:v3_sxnet.obj
 0002:00029c90       ??_C@_03NDFJNBKD@ids@      000000000009cc70     OpensslLib:v3_sxnet.obj
 0002:00029c94       ??_C@_05BPAJFIHK@SXNET@    000000000009cc74     OpensslLib:v3_sxnet.obj
 0002:00029ca0       ??_C@_0BF@NMLBNADB@?6?$CF?$CKsZone?3?5?$CFs?0?5User?3?5@ 000000000009cc80     OpensslLib:v3_sxnet.obj
 0002:00029d00       SXNETID_it                 000000000009cce0     OpensslLib:v3_sxnet.obj
 0002:00029d70       SXNET_it                   000000000009cd50     OpensslLib:v3_sxnet.obj
 0002:00029da0       v3_pci                     000000000009cd80     OpensslLib:v3_pci.obj
 0002:00029e08       ??_C@_0BG@IMLADBOH@?$CF?$CKsPolicy?5Text?3?5?$CF?4?$CKs?6@ 000000000009cde8     OpensslLib:v3_pci.obj
 0002:00029e20       ??_C@_08JGCCIMAA@language@ 000000000009ce00     OpensslLib:v3_pci.obj
 0002:00029e2c       ??_C@_04ODCMNEMO@hex?3@    000000000009ce0c     OpensslLib:v3_pci.obj
 0002:00029e34       ??_C@_05BOPHDICO@file?3@   000000000009ce14     OpensslLib:v3_pci.obj
 0002:00029e3c       ??_C@_05FHIGHPDA@text?3@   000000000009ce1c     OpensslLib:v3_pci.obj
 0002:00029e50       v3_tls_feature             000000000009ce30     OpensslLib:v3_tlsf.obj
 0002:00029eb8       ??_C@_0M@HGHOPPFP@TLS_FEATURE@ 000000000009ce98     OpensslLib:v3_tlsf.obj
 0002:00029ec8       ??_C@_0P@NAKMKOPA@status_request@ 000000000009cea8     OpensslLib:v3_tlsf.obj
 0002:00029ed8       ??_C@_0BC@HEECFCMD@status_request_v2@ 000000000009ceb8     OpensslLib:v3_tlsf.obj
 0002:00029f40       ??_C@_04JBGFELJA@tag?$DN@  000000000009cf20     OpensslLib:asn1_gen.obj
 0002:00029f48       ??_C@_05CCNLIHFO@ASCII@    000000000009cf28     OpensslLib:asn1_gen.obj
 0002:00029f50       ??_C@_03IECIMIEG@HEX@      000000000009cf30     OpensslLib:asn1_gen.obj
 0002:00029f58       ??_C@_07HMNLDFAL@BITLIST@  000000000009cf38     OpensslLib:asn1_gen.obj
 0002:00029f60       ??_C@_05NALEHOPE@Char?$DN@ 000000000009cf40     OpensslLib:asn1_gen.obj
 0002:00029f68       ??_C@_04PPJDIBFE@BOOL@     000000000009cf48     OpensslLib:asn1_gen.obj
 0002:00029f70       ??_C@_03JMHEAPMO@INT@      000000000009cf50     OpensslLib:asn1_gen.obj
 0002:00029f74       ??_C@_04PNKFCNMG@ENUM@     000000000009cf54     OpensslLib:asn1_gen.obj
 0002:00029f7c       ??_C@_03PGJCFEMG@OID@      000000000009cf5c     OpensslLib:asn1_gen.obj
 0002:00029f80       ??_C@_03JCIJEFNJ@UTC@      000000000009cf60     OpensslLib:asn1_gen.obj
 0002:00029f88       ??_C@_07EECHABMP@GENTIME@  000000000009cf68     OpensslLib:asn1_gen.obj
 0002:00029f90       ??_C@_03LBMHMDEB@OCT@      000000000009cf70     OpensslLib:asn1_gen.obj
 0002:00029f98       ??_C@_0M@JIDALIGG@OCTETSTRING@ 000000000009cf78     OpensslLib:asn1_gen.obj
 0002:00029fa4       ??_C@_06GOEDGPII@BITSTR@   000000000009cf84     OpensslLib:asn1_gen.obj
 0002:00029fb0       ??_C@_09MBLGEDKL@BITSTRING@ 000000000009cf90     OpensslLib:asn1_gen.obj
 0002:00029fbc       ??_C@_04CBEPCLMK@UNIV@     000000000009cf9c     OpensslLib:asn1_gen.obj
 0002:00029fc4       ??_C@_03OLMOBCBF@IA5@      000000000009cfa4     OpensslLib:asn1_gen.obj
 0002:00029fc8       ??_C@_09OMDMMLJJ@PRINTABLE@ 000000000009cfa8     OpensslLib:asn1_gen.obj
 0002:00029fd4       ??_C@_03HMGPCGIG@T61@      000000000009cfb4     OpensslLib:asn1_gen.obj
 0002:00029fd8       ??_C@_0O@GENPGMAM@TELETEXSTRING@ 000000000009cfb8     OpensslLib:asn1_gen.obj
 0002:00029fe8       ??_C@_0O@OIKLOOAP@GeneralString@ 000000000009cfc8     OpensslLib:asn1_gen.obj
 0002:00029ff8       ??_C@_06GBOJAPHH@GENSTR@   000000000009cfd8     OpensslLib:asn1_gen.obj
 0002:0002a000       ??_C@_07DBOJJFHC@NUMERIC@  000000000009cfe0     OpensslLib:asn1_gen.obj
 0002:0002a008       ??_C@_03NCPCKDJB@SEQ@      000000000009cfe8     OpensslLib:asn1_gen.obj
 0002:0002a00c       ??_C@_03KKGFKKLA@EXP@      000000000009cfec     OpensslLib:asn1_gen.obj
 0002:0002a010       ??_C@_08CNKBIFDO@EXPLICIT@ 000000000009cff0     OpensslLib:asn1_gen.obj
 0002:0002a01c       ??_C@_03PKFOHEJD@IMP@      000000000009cffc     OpensslLib:asn1_gen.obj
 0002:0002a020       ??_C@_08PPMOEJGF@IMPLICIT@ 000000000009d000     OpensslLib:asn1_gen.obj
 0002:0002a030       ??_C@_07KIEILLID@OCTWRAP@  000000000009d010     OpensslLib:asn1_gen.obj
 0002:0002a038       ??_C@_07LAEBDLGO@SEQWRAP@  000000000009d018     OpensslLib:asn1_gen.obj
 0002:0002a040       ??_C@_07OAIMKKNN@SETWRAP@  000000000009d020     OpensslLib:asn1_gen.obj
 0002:0002a048       ??_C@_07JHDNPBBM@BITWRAP@  000000000009d028     OpensslLib:asn1_gen.obj
 0002:0002a050       ??_C@_04HPGCGPG@FORM@      000000000009d030     OpensslLib:asn1_gen.obj
 0002:0002a058       ??_C@_06DPGELLJH@FORMAT@   000000000009d038     OpensslLib:asn1_gen.obj
 0002:0002a060       ??_C@_07IOGEOOAA@string?$DN@ 000000000009d040     OpensslLib:asn1_gen.obj
 0002:0002a068       ??_C@_03DNALGGBA@DIR@      000000000009d048     OpensslLib:asn1_gen.obj
 0002:0002a3c8       ??_C@_08KLAPILAK@SigEd448@ 000000000009d3a8     OpensslLib:eddsa.obj
 0002:000320a0       ??_C@_05NJJIPCOC@?$CFs?50?6@ 00000000000a5080     OpensslLib:t_pkey.obj
 0002:000320a8       ??_C@_0BE@KHLFKPFC@?$CFs?5?$CFs?$CFlu?5?$CI?$CFs0x?$CFlx?$CJ?6@ 00000000000a5088     OpensslLib:t_pkey.obj
 0002:000320c0       ??_C@_0M@IBLDKCHK@?5?$CINegative?$CJ@ 00000000000a50a0     OpensslLib:t_pkey.obj
 0002:000320cc       ??_C@_05JMJKDBEJ@?$CFs?$CFs?6@ 00000000000a50ac     OpensslLib:t_pkey.obj
 0002:00032160       curve448_point_identity    00000000000a5140     OpensslLib:curve448.obj
 0002:000322a0       ??_C@_0BI@DFFFIKFB@Generator?5?$CIcompressed?$CJ?3@ 00000000000a5280     OpensslLib:eck_prn.obj
 0002:000322b8       ??_C@_0BK@DOCPEENO@Generator?5?$CIuncompressed?$CJ?3@ 00000000000a5298     OpensslLib:eck_prn.obj
 0002:000322d8       ??_C@_0BE@FPCNHCIJ@Generator?5?$CIhybrid?$CJ?3@ 00000000000a52b8     OpensslLib:eck_prn.obj
 0002:000322f0       ??_C@_0N@JOFLCJFF@ASN1?5OID?3?5?$CFs@ 00000000000a52d0     OpensslLib:eck_prn.obj
 0002:00032300       ??_C@_0BA@LNIECBHN@NIST?5CURVE?3?5?$CFs?6@ 00000000000a52e0     OpensslLib:eck_prn.obj
 0002:00032310       ??_C@_0BA@KNKNOIFH@Field?5Type?3?5?$CFs?6@ 00000000000a52f0     OpensslLib:eck_prn.obj
 0002:00032320       ??_C@_0BA@ENMKKION@Basis?5Type?3?5?$CFs?6@ 00000000000a5300     OpensslLib:eck_prn.obj
 0002:00032330       ??_C@_0M@JDIPGLHE@Polynomial?3@ 00000000000a5310     OpensslLib:eck_prn.obj
 0002:0003233c       ??_C@_06DBHHIIKM@Prime?3@  00000000000a531c     OpensslLib:eck_prn.obj
 0002:00032344       ??_C@_05GMFDOKMO@A?3?5?5?5@ 00000000000a5324     OpensslLib:eck_prn.obj
 0002:0003234c       ??_C@_05OKMHJIGA@B?3?5?5?5@ 00000000000a532c     OpensslLib:eck_prn.obj
 0002:00032358       ??_C@_07KOGOKIFH@Order?3?5@ 00000000000a5338     OpensslLib:eck_prn.obj
 0002:00032360       ??_C@_0L@IEMHODML@Cofactor?3?5@ 00000000000a5340     OpensslLib:eck_prn.obj
 0002:0003236c       ??_C@_05PDHKGGIM@Seed?3@   00000000000a534c     OpensslLib:eck_prn.obj
 0002:00032374       ??_C@_02JPPHBJLD@?2?6@     00000000000a5354     OpensslLib:f_int.obj
 0002:00032378       ??_C@_01JEJKBAGA@g@        00000000000a5358     OpensslLib:dh_asn1.obj
 0002:0003237c       ??_C@_06IJDLPEM@length@    00000000000a535c     OpensslLib:dh_asn1.obj
 0002:00032388       ??_C@_08LKFDNFJ@DHparams@  00000000000a5368     OpensslLib:dh_asn1.obj
 0002:00032398       ??_C@_07HDOCMLOI@counter@  00000000000a5378     OpensslLib:dh_asn1.obj
 0002:000323a0       ??_C@_0O@KANPBCM@int_dhvparams@ 00000000000a5380     OpensslLib:dh_asn1.obj
 0002:000323b0       ??_C@_01CBDEGOCN@j@        00000000000a5390     OpensslLib:dh_asn1.obj
 0002:000323b8       ??_C@_07JLLHOFNK@vparams@  00000000000a5398     OpensslLib:dh_asn1.obj
 0002:000323c0       ??_C@_0O@HMLHGNDO@int_dhx942_dh@ 00000000000a53a0     OpensslLib:dh_asn1.obj
 0002:000324a0       DHparams_it                00000000000a5480     OpensslLib:dh_asn1.obj
 0002:00034190       ??_C@_0GE@BFJKPFGM@?$FLOPENSSL_RAND_POOL?$FN?5NULL?5RandBu@ 00000000000a7170     OpensslLib:rand_pool.obj
 0002:000341f8       ??_C@_0BL@BANKOLJL@RandBuffer?5?$CB?$DN?5?$CI?$CIvoid?5?$CK?$CJ?50?$CJ@ 00000000000a71d8     OpensslLib:rand_pool.obj
 0002:00034218       ??_C@_0DI@IALCLMIH@d?3?2myedk2?2edk2?2CryptoPkg?2Librar@ 00000000000a71f8     OpensslLib:rand_pool.obj
 0002:00034258       ??_C@_03JFFFKLGJ@C1x@      00000000000a7238     OpensslLib:sm2_crypt.obj
 0002:0003425c       ??_C@_03IMEOJKCI@C1y@      00000000000a723c     OpensslLib:sm2_crypt.obj
 0002:00034260       ??_C@_02IGAJHAEE@C3@       00000000000a7240     OpensslLib:sm2_crypt.obj
 0002:00034264       ??_C@_02JPBCEBAF@C2@       00000000000a7244     OpensslLib:sm2_crypt.obj
 0002:00034268       ??_C@_0P@HHMLELMD@SM2_Ciphertext@ 00000000000a7248     OpensslLib:sm2_crypt.obj
 0002:00034300       SM2_Ciphertext_it          00000000000a72e0     OpensslLib:sm2_crypt.obj
 0002:00035bf0       curve448_scalar_one        00000000000a8bd0     OpensslLib:scalar.obj
 0002:00035c70       curve448_scalar_zero       00000000000a8c50     OpensslLib:scalar.obj
 0002:0003dba0       ??_C@_09OJPHJNPC@fips_mode@ 00000000000b0b80     OpensslLib:evp_cnf.obj
 0002:0003dbb0       ??_C@_0M@HEHLDANB@alg_section@ 00000000000b0b90     OpensslLib:evp_cnf.obj
 0002:0003dbc0       ??_C@_0N@DJMJOKGL@stbl_section@ 00000000000b0ba0     OpensslLib:asn_mstbl.obj
 0002:0003dbd0       ??_C@_03KLIPLJLL@min@      00000000000b0bb0     OpensslLib:asn_mstbl.obj
 0002:0003dbd4       ??_C@_04LFLEPBN@mask@      00000000000b0bb4     OpensslLib:asn_mstbl.obj
 0002:0003dbdc       ??_C@_05GECEPKB@flags@     00000000000b0bbc     OpensslLib:asn_mstbl.obj
 0002:0003dbe4       ??_C@_06HCDOONEJ@nomask@   00000000000b0bc4     OpensslLib:asn_mstbl.obj
 0002:0003dbec       ??_C@_06KABKJMAI@field?$DN@ 00000000000b0bcc     OpensslLib:asn_mstbl.obj
 0002:0003dbf8       ??_C@_08IPPANOEC@ssl_conf@ 00000000000b0bd8     OpensslLib:conf_ssl.obj
 0002:0003dc08       ??_C@_0M@HCKPEIO@oid_section@ 00000000000b0be8     OpensslLib:asn_moid.obj
 0002:0003dce0       _bignum_dh2048_224_q       00000000000b0cc0     OpensslLib:bn_dh.obj
 0002:0003dcf8       _bignum_dh2048_256_g       00000000000b0cd8     OpensslLib:bn_dh.obj
 0002:0003dd10       _bignum_dh1024_160_g       00000000000b0cf0     OpensslLib:bn_dh.obj
 0002:0003dd28       _bignum_dh2048_224_p       00000000000b0d08     OpensslLib:bn_dh.obj
 0002:0003dd40       _bignum_dh2048_256_p       00000000000b0d20     OpensslLib:bn_dh.obj
 0002:0003dd58       _bignum_dh2048_224_g       00000000000b0d38     OpensslLib:bn_dh.obj
 0002:0003dd70       _bignum_dh1024_160_p       00000000000b0d50     OpensslLib:bn_dh.obj
 0002:0003dd88       _bignum_dh2048_256_q       00000000000b0d68     OpensslLib:bn_dh.obj
 0002:0003dda0       _bignum_dh1024_160_q       00000000000b0d80     OpensslLib:bn_dh.obj
 0002:0003ddb8       _bignum_ffdhe4096_p        00000000000b0d98     OpensslLib:bn_dh.obj
 0002:0003ddd0       _bignum_ffdhe8192_p        00000000000b0db0     OpensslLib:bn_dh.obj
 0002:0003dde8       _bignum_ffdhe2048_p        00000000000b0dc8     OpensslLib:bn_dh.obj
 0002:0003de00       _bignum_const_2            00000000000b0de0     OpensslLib:bn_dh.obj
 0002:0003de18       _bignum_ffdhe6144_p        00000000000b0df8     OpensslLib:bn_dh.obj
 0002:0003de30       _bignum_ffdhe3072_p        00000000000b0e10     OpensslLib:bn_dh.obj
 0002:0003ef30       CumulativeDays             00000000000b1f10     RuntimeCryptLib:TimerWrapper.obj
 0002:0003f010       ??_C@_0BN@FHPHCJAL@BufferToSort?5?$CB?$DN?5?$CI?$CIvoid?5?$CK?$CJ?50?$CJ@ 00000000000b1ff0     RuntimeCryptLib:CrtWrapper.obj
 0002:0003f030       ??_C@_0ED@BFHODHP@d?3?2myedk2?2edk2?2CryptoPkg?2Librar@ 00000000000b2010     RuntimeCryptLib:CrtWrapper.obj
 0002:0003f078       ??_C@_0CA@DJEMEKLN@CompareFunction?5?$CB?$DN?5?$CI?$CIvoid?5?$CK?$CJ?50?$CJ@ 00000000000b2058     RuntimeCryptLib:CrtWrapper.obj
 0002:0003f098       ??_C@_0BD@IPPNMEE@s1?5?$CB?$DN?5?$CI?$CIvoid?5?$CK?$CJ?50?$CJ@ 00000000000b2078     RuntimeCryptLib:CrtWrapper.obj
 0002:0003f0b0       ??_C@_0BD@OCHJABCG@s2?5?$CB?$DN?5?$CI?$CIvoid?5?$CK?$CJ?50?$CJ@ 00000000000b2090     RuntimeCryptLib:CrtWrapper.obj
 0002:0003f0c8       ??_C@_0BF@MBPLIJNB@base?5?$CB?$DN?5?$CI?$CIvoid?5?$CK?$CJ?50?$CJ@ 00000000000b20a8     RuntimeCryptLib:CrtWrapper.obj
 0002:0003f0e0       ??_C@_0BI@BKNMBGLA@compare?5?$CB?$DN?5?$CI?$CIvoid?5?$CK?$CJ?50?$CJ@ 00000000000b20c0     RuntimeCryptLib:CrtWrapper.obj
 0002:0003f100       ??_C@_0EE@KPJOBFDM@d?3?2myedk2?2edk2?2MdePkg?2Library?2B@ 00000000000b20e0     BaseMemoryLibRepStr:ScanMem8Wrapper.obj
 0002:0003f148       ??_C@_0DP@DAHOLNJI@d?3?2myedk2?2edk2?2MdePkg?2Library?2B@ 00000000000b2128     BaseRngLibTimerLib:RngLibTimer.obj
 0002:0003f188       ??_C@_0BF@NGOMKDDB@Rand?5?$CB?$DN?5?$CI?$CIvoid?5?$CK?$CJ?50?$CJ@ 00000000000b2168     BaseRngLibTimerLib:RngLibTimer.obj
 0002:0003f1a0       __real@4020000000000000    00000000000b2180     OpensslLib:drbg_lib.obj
 0002:0003f1a8       __real@43e0000000000000    00000000000b2188     OpensslLib:drbg_lib.obj
 0002:0003f1b0       __xmm@00000003000000020000000100000000 00000000000b2190     OpensslLib:f_generic.obj
 0002:0003f1c0       __xmm@00000008000000080000000800000008 00000000000b21a0     OpensslLib:f_generic.obj
 0002:0003f1d0       __xmm@36363636363636363636363636363636 00000000000b21b0     OpensslLib:hmac.obj
 0002:0003f1e0       __xmm@5c5c5c5c5c5c5c5c5c5c5c5c5c5c5c5c 00000000000b21c0     OpensslLib:hmac.obj
 0002:0003f254       __volatile_metadata        00000000000b2234     <linker-defined>
 0003:00000000       _fltused                   00000000000b2920     BaseIntrinsicLib:MemoryIntrinsics.obj
 0003:00000008       gEfiVendorKeysNvGuid       00000000000b2928     VariableRuntimeDxe:AutoGen.obj
 0003:00000018       gEfiGlobalVariableGuid     00000000000b2938     VariableRuntimeDxe:AutoGen.obj
 0003:00000028       gEdkiiVarErrorFlagGuid     00000000000b2948     VariableRuntimeDxe:AutoGen.obj
 0003:00000038       gEfiFirmwareVolumeBlockProtocolGuid 00000000000b2958     VariableRuntimeDxe:AutoGen.obj
 0003:00000048       gEfiSecureBootEnableDisableGuid 00000000000b2968     VariableRuntimeDxe:AutoGen.obj
 0003:00000058       gEfiEventReadyToBootGuid   00000000000b2978     VariableRuntimeDxe:AutoGen.obj
 0003:00000068       gEfiSystemNvDataFvGuid     00000000000b2988     VariableRuntimeDxe:AutoGen.obj
 0003:00000078       gEfiHardwareErrorVariableGuid 00000000000b2998     VariableRuntimeDxe:AutoGen.obj
 0003:00000088       gEfiImageSecurityDatabaseGuid 00000000000b29a8     VariableRuntimeDxe:AutoGen.obj
 0003:00000098       gEfiVariableWriteArchProtocolGuid 00000000000b29b8     VariableRuntimeDxe:AutoGen.obj
 0003:000000a8       gEdkiiVariableLockProtocolGuid 00000000000b29c8     VariableRuntimeDxe:AutoGen.obj
 0003:000000b8       gPcdProtocolGuid           00000000000b29d8     VariableRuntimeDxe:AutoGen.obj
 0003:000000c8       gVariableFlashInfoHobGuid  00000000000b29e8     VariableRuntimeDxe:AutoGen.obj
 0003:000000d8       gEfiCertPkcs7Guid          00000000000b29f8     VariableRuntimeDxe:AutoGen.obj
 0003:000000e8       gEfiVariableGuid           00000000000b2a08     VariableRuntimeDxe:AutoGen.obj
 0003:000000f8       gEfiCustomModeEnableGuid   00000000000b2a18     VariableRuntimeDxe:AutoGen.obj
 0003:00000108       gEfiFaultTolerantWriteProtocolGuid 00000000000b2a28     VariableRuntimeDxe:AutoGen.obj
 0003:00000118       gUefiOvmfPkgPlatformInfoGuid 00000000000b2a38     VariableRuntimeDxe:AutoGen.obj
 0003:00000128       gEfiMemoryOverwriteControlDataGuid 00000000000b2a48     VariableRuntimeDxe:AutoGen.obj
 0003:00000138       gEfiAuthenticatedVariableGuid 00000000000b2a58     VariableRuntimeDxe:AutoGen.obj
 0003:00000148       gEfiMemoryOverwriteRequestControlLockGuid 00000000000b2a68     VariableRuntimeDxe:AutoGen.obj
 0003:00000158       gEfiCertX509Guid           00000000000b2a78     VariableRuntimeDxe:AutoGen.obj
 0003:00000168       gEfiDevicePathUtilitiesProtocolGuid 00000000000b2a88     VariableRuntimeDxe:AutoGen.obj
 0003:00000178       gEdkiiFaultTolerantWriteGuid 00000000000b2a98     VariableRuntimeDxe:AutoGen.obj
 0003:00000188       gEfiHobListGuid            00000000000b2aa8     VariableRuntimeDxe:AutoGen.obj
 0003:00000198       gEfiCertDbGuid             00000000000b2ab8     VariableRuntimeDxe:AutoGen.obj
 0003:000001a8       gEdkiiVarCheckProtocolGuid 00000000000b2ac8     VariableRuntimeDxe:AutoGen.obj
 0003:000001b8       gEfiEndOfDxeEventGroupGuid 00000000000b2ad8     VariableRuntimeDxe:AutoGen.obj
 0003:000001c8       gEfiEventVirtualAddressChangeGuid 00000000000b2ae8     VariableRuntimeDxe:AutoGen.obj
 0003:000001d8       gEfiDxeServicesTableGuid   00000000000b2af8     VariableRuntimeDxe:AutoGen.obj
 0003:000001e8       gEdkiiVariablePolicyProtocolGuid 00000000000b2b08     VariableRuntimeDxe:AutoGen.obj
 0003:000001f8       gEfiVariableArchProtocolGuid 00000000000b2b18     VariableRuntimeDxe:AutoGen.obj
 0003:00000208       mVariableLock              00000000000b2b28     VariableRuntimeDxe:VariableDxe.obj
 0003:00000210       mVarCheck                  00000000000b2b30     VariableRuntimeDxe:VariableDxe.obj
 0003:00000228       mVariablePolicyProtocol    00000000000b2b48     VariableRuntimeDxe:VariableDxe.obj
 0003:00000260       mVariableEntryProperty     00000000000b2b80     VariableRuntimeDxe:Variable.obj
 0003:00000288       mCurrentBootVarErrFlag     00000000000b2ba8     VariableRuntimeDxe:Variable.obj
 0003:00000290       mAuthContextIn             00000000000b2bb0     VariableRuntimeDxe:Variable.obj
 0003:000002e0       mVariableType              00000000000b2c00     VariableRuntimeDxe:Measurement.obj
 0003:00000340       mVarCheckVariableWithWildcardName 00000000000b2c60     VarCheckLib:VarCheckLib.obj
 0003:00000430       mAuthVarEntry              00000000000b2d50     AuthVariableLib:AuthVariableLib.obj
 0003:00000500       mSignatureSupport          00000000000b2e20     AuthVariableLib:AuthVariableLib.obj
 0003:00000540       mSupportSigItem            00000000000b2e60     AuthVariableLib:AuthService.obj
 0003:00000660       mHwErrRecVariable          00000000000b2f80     VarCheckUefiLib:VarCheckUefiLibNullClass.obj
 0003:00000690       mGlobalVariableList        00000000000b2fb0     VarCheckUefiLib:VarCheckUefiLibNullClass.obj
 0003:00000b70       mImageSecurityVariableList 00000000000b3490     VarCheckUefiLib:VarCheckUefiLibNullClass.obj
 0003:00000bf0       mGlobalVariableList2       00000000000b3510     VarCheckUefiLib:VarCheckUefiLibNullClass.obj
 0003:00000cb8       mOidValue                  00000000000b35d8     RuntimeCryptLib:CryptPkcs7VerifyCommon.obj
 0003:000014c8       rand_meth                  00000000000b3de8     OpensslLib:drbg_lib.obj
 0003:00001840       mVarCheckAddressPointer    00000000000b4160     VariableRuntimeDxe:VariableDxe.obj
 0003:00001848       mHandle                    00000000000b4168     VariableRuntimeDxe:VariableDxe.obj
 0003:00001850       mVarCheckAddressPointerCount 00000000000b4170     VariableRuntimeDxe:VariableDxe.obj
 0003:00001858       mVirtualAddressChangeEvent 00000000000b4178     VariableRuntimeDxe:VariableDxe.obj
 0003:00001860       mFtwRegistration           00000000000b4180     VariableRuntimeDxe:VariableDxe.obj
 0003:00001868       mEndOfDxe                  00000000000b4188     VariableRuntimeDxe:Variable.obj
 0003:00001870       mNvFvHeaderCache           00000000000b4190     VariableRuntimeDxe:Variable.obj
 0003:00001878       mNvVariableCache           00000000000b4198     VariableRuntimeDxe:Variable.obj
 0003:00001880       mSecureBootVarData         00000000000b41a0     VariableRuntimeDxe:Measurement.obj
 0003:00001888       mSecureBootVarDataSize     00000000000b41a8     VariableRuntimeDxe:Measurement.obj
 0003:00001890       mPcd                       00000000000b41b0     DxePcdLib:DxePcdLib.obj
 0003:00001898       gST                        00000000000b41b8     UefiBootServicesTableLib:UefiBootServicesTableLib.obj
 0003:000018a0       gBS                        00000000000b41c0     UefiBootServicesTableLib:UefiBootServicesTableLib.obj
 0003:000018a8       gImageHandle               00000000000b41c8     UefiBootServicesTableLib:UefiBootServicesTableLib.obj
 0003:000018b0       gRT                        00000000000b41d0     UefiRuntimeServicesTableLib:UefiRuntimeServicesTableLib.obj
 0003:000018b8       mDevicePathLibDevicePathUtilities 00000000000b41d8     UefiDevicePathLibDevicePathProtocol:UefiDevicePathLib.obj
 0003:000018c0       mHobList                   00000000000b41e0     DxeHobLib:HobLib.obj
 0003:000018c8       mRTPageTable               00000000000b41e8     RuntimeCryptLib:RuntimeMemAllocation.obj
 0003:000018d0       mGetVariableHelper         00000000000b41f0     VariablePolicyLibRuntimeDxe:VariablePolicyLib.obj
 0003:000018e0       mPolicyTable               00000000000b4200     VariablePolicyLibRuntimeDxe:VariablePolicyLib.obj
 0003:00001900       mVarCheckLibEndOfDxeCallback 00000000000b4220     VarCheckLib:VarCheckLib.obj
 0003:00001908       mVarCheckLibAddressPointerMaxCount 00000000000b4228     VarCheckLib:VarCheckLib.obj
 0003:00001910       mMaxNumberOfVarCheckVariable 00000000000b4230     VarCheckLib:VarCheckLib.obj
 0003:00001918       mVarCheckLibAddressPointer 00000000000b4238     VarCheckLib:VarCheckLib.obj
 0003:00001920       mVarCheckLibEndOfDxe       00000000000b4240     VarCheckLib:VarCheckLib.obj
 0003:00001928       mVarCheckHandlerTable      00000000000b4248     VarCheckLib:VarCheckLib.obj
 0003:00001930       mNumberOfVarCheckHandler   00000000000b4250     VarCheckLib:VarCheckLib.obj
 0003:00001938       mVarCheckLibAddressPointerCount 00000000000b4258     VarCheckLib:VarCheckLib.obj
 0003:00001940       mVarCheckLibEndOfDxeCallbackMaxCount 00000000000b4260     VarCheckLib:VarCheckLib.obj
 0003:00001948       mNumberOfVarCheckVariable  00000000000b4268     VarCheckLib:VarCheckLib.obj
 0003:00001950       mVarCheckVariableTable     00000000000b4270     VarCheckLib:VarCheckLib.obj
 0003:00001958       mMaxNumberOfVarCheckHandler 00000000000b4278     VarCheckLib:VarCheckLib.obj
 0003:00001960       mVarCheckLibEndOfDxeCallbackCount 00000000000b4280     VarCheckLib:VarCheckLib.obj
 0003:00001968       mEfiAtRuntime              00000000000b4288     UefiRuntimeLib:RuntimeLib.obj
 0003:00001970       gDS                        00000000000b4290     DxeServicesTableLib:DxeServicesTableLib.obj
 0003:00001978       mAuthVarLibContextIn       00000000000b4298     AuthVariableLib:AuthVariableLib.obj
 0003:00001980       mHashCtx                   00000000000b42a0     AuthVariableLib:AuthVariableLib.obj
 0003:00001988       gParity                    00000000000b42a8     PcAtSerialPortLib:SerialPortLib.obj
 0003:00001989       gBreakSet                  00000000000b42a9     PcAtSerialPortLib:SerialPortLib.obj
 0003:0000198a       mTdDataReturned            00000000000b42aa     TdxLib:TdInfo.obj
 0003:00001990       mTdSharedPageMask          00000000000b42b0     TdxLib:TdInfo.obj
 0003:00001aa0       errno                      00000000000b43c0     RuntimeCryptLib:CrtWrapper.obj
 0003:00002460       mAuthVarAddressPointer     00000000000b4d80     <common>
 0003:000024a8       mCertDbStore               00000000000b4dc8     <common>
 0003:000024b0       mMaxCertDbSize             00000000000b4dd0     <common>
 0003:000024b4       mVendorKeyState            00000000000b4dd4     <common>
 0003:000024b8       mPlatformMode              00000000000b4dd8     <common>
 0003:000024c0       mEfiVirtualNotifyEvent     00000000000b4de0     <common>
 0003:000024c8       mInternalRT                00000000000b4de8     <common>
 0003:000024d0       mEfiExitBootServicesEvent  00000000000b4df0     <common>
 0003:000024d8       mVariableModuleGlobal      00000000000b4df8     <common>
 0003:000024e0       mAuthContextOut            00000000000b4e00     <common>

 entry point at        0001:00000298

 Static symbols

 0001:0000001a       InternalMemCopyMem.0       00000000000002da     BaseMemoryLibRepStr:CopyMem.obj
 0001:0000002a       @CopyBackward              00000000000002ea     BaseMemoryLibRepStr:CopyMem.obj
 0001:00000033       @CopyBytes                 00000000000002f3     BaseMemoryLibRepStr:CopyMem.obj
 0001:000000ff       AsmCpuid.0                 00000000000003bf     BaseLib:CpuId.obj
 0001:00000104       AsmCpuid.1                 00000000000003c4     BaseLib:CpuId.obj
 0001:0000010b       AsmCpuid.2                 00000000000003cb     BaseLib:CpuId.obj
 0001:00000114       AsmCpuid.3                 00000000000003d4     BaseLib:CpuId.obj
 0001:0000017e       TdVmCall.no_return_data    000000000000043e     BaseLib:TdVmcall.obj
 0001:0000028b       TdCall.exit                000000000000054b     BaseLib:TdCall.obj
 0001:00008420       IsValidVariablePolicyStructure 00000000000086e0 f   VariablePolicyLibRuntimeDxe:VariablePolicyLib.obj
 0001:000084e8       GetBestPolicyMatch         00000000000087a8 f   VariablePolicyLibRuntimeDxe:VariablePolicyLib.obj
 0001:00008a5c       VariablePolicyLibVirtualAddressCallback 0000000000008d1c f   VariablePolicyLibRuntimeDxe:VariablePolicyExtraInitRuntimeDxe.obj
 0001:0000c450       GetVariableFlashInfoFromHob 000000000000c710 f   BaseVariableFlashInfoLib:BaseVariableFlashInfoLib.obj
 0001:0000dfd0       InternalX509GetNIDName     000000000000e290 f   RuntimeCryptLib:CryptX509.obj
 0001:0000ec40       sha256_block_data_order    000000000000ef00 f   OpensslLib:sha256.obj
 0001:0000ef58       null_callback              000000000000f218 f   OpensslLib:x509_vfy.obj
 0001:0000ef5c       verify_cb_cert             000000000000f21c f   OpensslLib:x509_vfy.obj
 0001:0000efac       check_auth_level           000000000000f26c f   OpensslLib:x509_vfy.obj
 0001:0000f118       verify_chain               000000000000f3d8 f   OpensslLib:x509_vfy.obj
 0001:0000f378       find_issuer                000000000000f638 f   OpensslLib:x509_vfy.obj
 0001:0000f4a8       check_issued               000000000000f768 f   OpensslLib:x509_vfy.obj
 0001:0000f4c4       check_chain_extensions     000000000000f784 f   OpensslLib:x509_vfy.obj
 0001:0000f8e4       check_name_constraints     000000000000fba4 f   OpensslLib:x509_vfy.obj
 0001:0000fbe0       check_id_error             000000000000fea0 f   OpensslLib:x509_vfy.obj
 0001:0000fc2c       check_hosts                000000000000feec f   OpensslLib:x509_vfy.obj
 0001:0000fd28       check_id                   000000000000ffe8 f   OpensslLib:x509_vfy.obj
 0001:0000fe70       check_trust                0000000000010130 f   OpensslLib:x509_vfy.obj
 0001:000100fc       check_revocation           00000000000103bc f   OpensslLib:x509_vfy.obj
 0001:00010178       check_cert                 0000000000010438 f   OpensslLib:x509_vfy.obj
 0001:000103cc       check_crl_time             000000000001068c f   OpensslLib:x509_vfy.obj
 0001:000104c4       get_crl_sk                 0000000000010784 f   OpensslLib:x509_vfy.obj
 0001:0001082c       crl_extension_match        0000000000010aec f   OpensslLib:x509_vfy.obj
 0001:0001092c       crl_akid_check             0000000000010bec f   OpensslLib:x509_vfy.obj
 0001:00010ab8       check_crl_path             0000000000010d78 f   OpensslLib:x509_vfy.obj
 0001:00010bc0       idp_check_dp               0000000000010e80 f   OpensslLib:x509_vfy.obj
 0001:00010ea8       crl_crldp_check            0000000000011168 f   OpensslLib:x509_vfy.obj
 0001:00011008       check_crl                  00000000000112c8 f   OpensslLib:x509_vfy.obj
 0001:000112bc       cert_crl                   000000000001157c f   OpensslLib:x509_vfy.obj
 0001:00011368       check_policy               0000000000011628 f   OpensslLib:x509_vfy.obj
 0001:00011608       internal_verify            00000000000118c8 f   OpensslLib:x509_vfy.obj
 0001:00011e08       dane_match                 00000000000120c8 f   OpensslLib:x509_vfy.obj
 0001:0001212c       check_dane_issuer          00000000000123ec f   OpensslLib:x509_vfy.obj
 0001:000121a8       check_dane_pkeys           0000000000012468 f   OpensslLib:x509_vfy.obj
 0001:000122fc       check_leaf_suiteb          00000000000125bc f   OpensslLib:x509_vfy.obj
 0001:000123a4       dane_verify                0000000000012664 f   OpensslLib:x509_vfy.obj
 0001:000124e0       augment_stack              00000000000127a0 f   OpensslLib:x509_vfy.obj
 0001:00012590       build_chain                0000000000012850 f   OpensslLib:x509_vfy.obj
 0001:00012f28       check_key_level            00000000000131e8 f   OpensslLib:x509_vfy.obj
 0001:00012fa8       x509_cb                    0000000000013268 f   OpensslLib:x_x509.obj
 0001:00013318       sk_reserve                 00000000000135d8 f   OpensslLib:stack.obj
 0001:00013504       internal_delete            00000000000137c4 f   OpensslLib:stack.obj
 0001:00013558       internal_find              0000000000013818 f   OpensslLib:stack.obj
 0001:000136bc       init                       000000000001397c f   OpensslLib:m_sha1.obj
 0001:000136c8       update                     0000000000013988 f   OpensslLib:m_sha1.obj
 0001:000136d4       final                      0000000000013994 f   OpensslLib:m_sha1.obj
 0001:000136e4       ctrl                       00000000000139a4 f   OpensslLib:m_sha1.obj
 0001:000137f8       init224                    0000000000013ab8 f   OpensslLib:m_sha1.obj
 0001:00013804       update224                  0000000000013ac4 f   OpensslLib:m_sha1.obj
 0001:00013804       update256                  0000000000013ac4 f   OpensslLib:m_sha1.obj
 0001:00013810       final224                   0000000000013ad0 f   OpensslLib:m_sha1.obj
 0001:00013810       final256                   0000000000013ad0 f   OpensslLib:m_sha1.obj
 0001:00013820       init256                    0000000000013ae0 f   OpensslLib:m_sha1.obj
 0001:0001382c       init512_224                0000000000013aec f   OpensslLib:m_sha1.obj
 0001:000138c0       init512_256                0000000000013b80 f   OpensslLib:m_sha1.obj
 0001:00013954       init384                    0000000000013c14 f   OpensslLib:m_sha1.obj
 0001:00013960       update384                  0000000000013c20 f   OpensslLib:m_sha1.obj
 0001:00013960       update512                  0000000000013c20 f   OpensslLib:m_sha1.obj
 0001:0001396c       final384                   0000000000013c2c f   OpensslLib:m_sha1.obj
 0001:0001396c       final512                   0000000000013c2c f   OpensslLib:m_sha1.obj
 0001:0001397c       init512                    0000000000013c3c f   OpensslLib:m_sha1.obj
 0001:00013af4       pkey_set_type              0000000000013db4 f   OpensslLib:p_lib.obj
 0001:00013e24       x509_name_ex_new           00000000000140e4 f   OpensslLib:x_name.obj
 0001:00013ebc       x509_name_ex_free          000000000001417c f   OpensslLib:x_name.obj
 0001:00013f14       local_sk_X509_NAME_ENTRY_free 00000000000141d4 f   OpensslLib:x_name.obj
 0001:00013f3c       local_sk_X509_NAME_ENTRY_pop_free 00000000000141fc f   OpensslLib:x_name.obj
 0001:00013f48       x509_name_ex_d2i           0000000000014208 f   OpensslLib:x_name.obj
 0001:000141f0       x509_name_ex_i2d           00000000000144b0 f   OpensslLib:x_name.obj
 0001:00014258       x509_name_encode           0000000000014518 f   OpensslLib:x_name.obj
 0001:000143e8       x509_name_ex_print         00000000000146a8 f   OpensslLib:x_name.obj
 0001:00014430       x509_name_canon            00000000000146f0 f   OpensslLib:x_name.obj
 0001:00014634       asn1_string_canon          00000000000148f4 f   OpensslLib:x_name.obj
 0001:0001476c       i2d_name_canon             0000000000014a2c f   OpensslLib:x_name.obj
 0001:00014e7c       init                       000000000001513c f   OpensslLib:m_md5.obj
 0001:00014ebc       update                     000000000001517c f   OpensslLib:m_md5.obj
 0001:00014ec8       final                      0000000000015188 f   OpensslLib:m_md5.obj
 0001:0001508c       check_suite_b              000000000001534c f   OpensslLib:x509_cmp.obj
 0001:000152b0       x509_object_cmp            0000000000015570 f   OpensslLib:x509_lu.obj
 0001:000156d0       x509_store_add             0000000000015990 f   OpensslLib:x509_lu.obj
 0001:000157e8       x509_object_idx_cnt        0000000000015aa8 f   OpensslLib:x509_lu.obj
 0001:000165a4       send_bio_chars             0000000000016864 f   OpensslLib:a_strex.obj
 0001:000165e0       do_esc_char                00000000000168a0 f   OpensslLib:a_strex.obj
 0001:00016760       do_buf                     0000000000016a20 f   OpensslLib:a_strex.obj
 0001:0001698c       do_hex_dump                0000000000016c4c f   OpensslLib:a_strex.obj
 0001:00016a18       do_dump                    0000000000016cd8 f   OpensslLib:a_strex.obj
 0001:00016b30       do_print_ex                0000000000016df0 f   OpensslLib:a_strex.obj
 0001:00016d30       do_indent                  0000000000016ff0 f   OpensslLib:a_strex.obj
 0001:00016d9c       do_name_ex                 000000000001705c f   OpensslLib:a_strex.obj
 0001:000171d8       rsa_cb                     0000000000017498 f   OpensslLib:rsa_asn1.obj
 0001:0001724c       rsa_pss_cb                 000000000001750c f   OpensslLib:rsa_asn1.obj
 0001:0001730c       mem_init                   00000000000175cc f   OpensslLib:bss_mem.obj
 0001:000173a0       mem_new                    0000000000017660 f   OpensslLib:bss_mem.obj
 0001:000173a8       mem_free                   0000000000017668 f   OpensslLib:bss_mem.obj
 0001:000173e8       mem_buf_free               00000000000176a8 f   OpensslLib:bss_mem.obj
 0001:00017478       mem_buf_sync               0000000000017738 f   OpensslLib:bss_mem.obj
 0001:000174d4       mem_read                   0000000000017794 f   OpensslLib:bss_mem.obj
 0001:00017564       mem_write                  0000000000017824 f   OpensslLib:bss_mem.obj
 0001:0001762c       mem_ctrl                   00000000000178ec f   OpensslLib:bss_mem.obj
 0001:000177a0       mem_gets                   0000000000017a60 f   OpensslLib:bss_mem.obj
 0001:0001781c       mem_puts                   0000000000017adc f   OpensslLib:bss_mem.obj
 0001:00017848       bio_call_callback          0000000000017b08 f   OpensslLib:bio_lib.obj
 0001:00017acc       bio_read_intern            0000000000017d8c f   OpensslLib:bio_lib.obj
 0001:00017bf8       bio_write_intern           0000000000017eb8 f   OpensslLib:bio_lib.obj
 0001:00018604       pk7_cb                     00000000000188c4 f   OpensslLib:pk7_asn1.obj
 0001:00018670       si_cb                      0000000000018930 f   OpensslLib:pk7_asn1.obj
 0001:00018690       ri_cb                      0000000000018950 f   OpensslLib:pk7_asn1.obj
 0001:000186b0       o_names_init_ossl_         0000000000018970 f   OpensslLib:o_names.obj
 0001:00018740       obj_name_cmp               0000000000018a00 f   OpensslLib:o_names.obj
 0001:00018790       obj_name_hash              0000000000018a50 f   OpensslLib:o_names.obj
 0001:00018a18       sn_cmp_BSEARCH_CMP_FN      0000000000018cd8 f   OpensslLib:obj_dat.obj
 0001:00018a34       ln_cmp_BSEARCH_CMP_FN      0000000000018cf4 f   OpensslLib:obj_dat.obj
 0001:00018a54       added_obj_hash             0000000000018d14 f   OpensslLib:obj_dat.obj
 0001:00018b18       added_obj_cmp              0000000000018dd8 f   OpensslLib:obj_dat.obj
 0001:00018edc       obj_cmp_BSEARCH_CMP_FN     000000000001919c f   OpensslLib:obj_dat.obj
 0001:0001985c       bn_free_d                  0000000000019b1c f   OpensslLib:bn_lib.obj
 0001:00019c8c       bn2binpad                  0000000000019f4c f   OpensslLib:bn_lib.obj
 0001:0001a3b0       encode_pkcs1               000000000001a670 f   OpensslLib:rsa_sign.obj
 0001:0001a950       leap_year                  000000000001ac10 f   OpensslLib:a_time.obj
 0001:0001a9b0       determine_days             000000000001ac70 f   OpensslLib:a_time.obj
 0001:0001b24c       x509v3_add_len_value       000000000001b50c f   OpensslLib:v3_utl.obj
 0001:0001b418       bignum_to_string           000000000001b6d8 f   OpensslLib:v3_utl.obj
 0001:0001bad4       strip_spaces               000000000001bd94 f   OpensslLib:v3_utl.obj
 0001:0001bbb4       equal_nocase               000000000001be74 f   OpensslLib:v3_utl.obj
 0001:0001bc38       equal_case                 000000000001bef8 f   OpensslLib:v3_utl.obj
 0001:0001bc9c       equal_email                000000000001bf5c f   OpensslLib:v3_utl.obj
 0001:0001bd3c       wildcard_match             000000000001bffc f   OpensslLib:v3_utl.obj
 0001:0001be6c       valid_star                 000000000001c12c f   OpensslLib:v3_utl.obj
 0001:0001bfc0       equal_wildcard             000000000001c280 f   OpensslLib:v3_utl.obj
 0001:0001c064       do_check_string            000000000001c324 f   OpensslLib:v3_utl.obj
 0001:0001c1a4       do_x509_check              000000000001c464 f   OpensslLib:v3_utl.obj
 0001:0001c514       ipv4_from_asc              000000000001c7d4 f   OpensslLib:v3_utl.obj
 0001:0001c598       ipv6_from_asc              000000000001c858 f   OpensslLib:v3_utl.obj
 0001:0001c6a4       ipv6_cb                    000000000001c964 f   OpensslLib:v3_utl.obj
 0001:0001c894       ERR_STATE_free             000000000001cb54 f   OpensslLib:err.obj
 0001:0001ca88       get_error_values           000000000001cd48 f   OpensslLib:err.obj
 0001:0001cc28       err_do_init_ossl_          000000000001cee8 f   OpensslLib:err.obj
 0001:0001cd58       err_set_error_data_int     000000000001d018 f   OpensslLib:err.obj
 0001:0001d1d0       table_cmp_BSEARCH_CMP_FN   000000000001d490 f   OpensslLib:a_strnid.obj
 0001:0001d1d0       sig_cmp_BSEARCH_CMP_FN     000000000001d490 f   OpensslLib:obj_xref.obj
 0001:0001d1d0       nid_cmp_BSEARCH_CMP_FN     000000000001d490 f   OpensslLib:v3_purp.obj
 0001:0001d1d8       check_sig_alg_match        000000000001d498 f   OpensslLib:v3_purp.obj
 0001:0001d290       x509v3_cache_extensions    000000000001d550 f   OpensslLib:v3_purp.obj
 0001:0001d9d4       check_ca                   000000000001dc94 f   OpensslLib:v3_purp.obj
 0001:0001da34       check_purpose_ssl_client   000000000001dcf4 f   OpensslLib:v3_purp.obj
 0001:0001daa4       check_purpose_ssl_server   000000000001dd64 f   OpensslLib:v3_purp.obj
 0001:0001db14       check_purpose_ns_ssl_server 000000000001ddd4 f   OpensslLib:v3_purp.obj
 0001:0001db50       purpose_smime              000000000001de10 f   OpensslLib:v3_purp.obj
 0001:0001dbac       check_purpose_smime_sign   000000000001de6c f   OpensslLib:v3_purp.obj
 0001:0001dbe8       check_purpose_smime_encrypt 000000000001dea8 f   OpensslLib:v3_purp.obj
 0001:0001dc24       check_purpose_crl_sign     000000000001dee4 f   OpensslLib:v3_purp.obj
 0001:0001dc5c       ocsp_helper                000000000001df1c f   OpensslLib:v3_purp.obj
 0001:0001dc70       check_purpose_timestamp_sign 000000000001df30 f   OpensslLib:v3_purp.obj
 0001:0001dcfc       ecx_cmp_parameters         000000000001dfbc f   OpensslLib:ecx_meth.obj
 0001:0001dcfc       final                      000000000001dfbc f   OpensslLib:m_null.obj
 0001:0001dcfc       init                       000000000001dfbc f   OpensslLib:m_null.obj
 0001:0001dcfc       update                     000000000001dfbc f   OpensslLib:m_null.obj
 0001:0001dcfc       i2r_ocsp_nocheck           000000000001dfbc f   OpensslLib:v3_ocsp.obj
 0001:0001dcfc       no_check                   000000000001dfbc f   OpensslLib:v3_purp.obj
 0001:0001de3c       crl_inf_cb                 000000000001e0fc f   OpensslLib:x_crl.obj
 0001:0001de70       crl_cb                     000000000001e130 f   OpensslLib:x_crl.obj
 0001:0001e440       setup_idp                  000000000001e700 f   OpensslLib:x_crl.obj
 0001:0001e538       X509_REVOKED_cmp           000000000001e7f8 f   OpensslLib:x_crl.obj
 0001:0001e544       def_crl_verify             000000000001e804 f   OpensslLib:x_crl.obj
 0001:0001e56c       def_crl_lookup             000000000001e82c f   OpensslLib:x_crl.obj
 0001:0001e764       sk_OPENSSL_STRING_deep_copy 000000000001ea24 f   OpensslLib:x509_vpm.obj
 0001:0001e8d4       str_copy                   000000000001eb94 f   OpensslLib:x509_vpm.obj
 0001:0001e8dc       str_free                   000000000001eb9c f   OpensslLib:x509_vpm.obj
 0001:0001eb50       int_x509_param_set1        000000000001ee10 f   OpensslLib:x509_vpm.obj
 0001:0001ed24       table_cmp_BSEARCH_CMP_FN   000000000001efe4 f   OpensslLib:x509_vpm.obj
 0001:0001edb0       tree_init                  000000000001f070 f   OpensslLib:pcy_tree.obj
 0001:0001f11c       tree_link_nodes            000000000001f3dc f   OpensslLib:pcy_tree.obj
 0001:0001f2f0       tree_add_unmatched         000000000001f5b0 f   OpensslLib:pcy_tree.obj
 0001:0001f384       tree_link_any              000000000001f644 f   OpensslLib:pcy_tree.obj
 0001:0001f578       tree_add_auth_node         000000000001f838 f   OpensslLib:pcy_tree.obj
 0001:0001f5f4       tree_calculate_authority_set 000000000001f8b4 f   OpensslLib:pcy_tree.obj
 0001:0001f72c       tree_calculate_user_set    000000000001f9ec f   OpensslLib:pcy_tree.obj
 0001:0001f89c       tree_evaluate              000000000001fb5c f   OpensslLib:pcy_tree.obj
 0001:0001fa68       exnode_free                000000000001fd28 f   OpensslLib:pcy_tree.obj
 0001:0001fe48       pubkey_cb                  0000000000020108 f   OpensslLib:x_pubkey.obj
 0001:0001feac       x509_pubkey_decode         000000000002016c f   OpensslLib:x_pubkey.obj
 0001:0002012c       trust_1oidany              00000000000203ec f   OpensslLib:x509_trs.obj
 0001:00020138       trust_1oid                 00000000000203f8 f   OpensslLib:x509_trs.obj
 0001:00020144       trust_compat               0000000000020404 f   OpensslLib:x509_trs.obj
 0001:00020188       obj_trust                  0000000000020448 f   OpensslLib:x509_trs.obj
 0001:000202a8       cleanup_old_md_data        0000000000020568 f   OpensslLib:digest.obj
 0001:000206e0       do_ex_data_init_ossl_      00000000000209a0 f   OpensslLib:ex_data.obj
 0001:00020728       get_and_lock               00000000000209e8 f   OpensslLib:ex_data.obj
 0001:00020d1c       ia5ncasecmp                0000000000020fdc f   OpensslLib:v3_ncons.obj
 0001:00020d64       v2i_NAME_CONSTRAINTS       0000000000021024 f   OpensslLib:v3_ncons.obj
 0001:00020f24       i2r_NAME_CONSTRAINTS       00000000000211e4 f   OpensslLib:v3_ncons.obj
 0001:00020f80       do_i2r_name_constraints    0000000000021240 f   OpensslLib:v3_ncons.obj
 0001:0002140c       nc_match                   00000000000216cc f   OpensslLib:v3_ncons.obj
 0001:00021548       nc_match_single            0000000000021808 f   OpensslLib:v3_ncons.obj
 0001:000216dc       nc_email                   000000000002199c f   OpensslLib:v3_ncons.obj
 0001:00021834       nc_uri                     0000000000021af4 f   OpensslLib:v3_ncons.obj
 0001:00022220       i2c_ibuf                   00000000000224e0 f   OpensslLib:a_int.obj
 0001:000222f4       c2i_ibuf                   00000000000225b4 f   OpensslLib:a_int.obj
 0001:00022410       asn1_get_uint64            00000000000226d0 f   OpensslLib:a_int.obj
 0001:0002253c       asn1_string_get_int64      00000000000227fc f   OpensslLib:a_int.obj
 0001:00022610       asn1_string_set_int64      00000000000228d0 f   OpensslLib:a_int.obj
 0001:00022670       bn_to_asn1_string          0000000000022930 f   OpensslLib:a_int.obj
 0001:00022758       asn1_string_to_bn          0000000000022a18 f   OpensslLib:a_int.obj
 0001:000228ec       ocsp_nonce_free            0000000000022bac f   OpensslLib:v3_ocsp.obj
 0001:00022a5c       asn1_item_embed_d2i        0000000000022d1c f   OpensslLib:tasn_dec.obj
 0001:000231a8       asn1_template_ex_d2i       0000000000023468 f   OpensslLib:tasn_dec.obj
 0001:0002331c       asn1_template_noexp_d2i    00000000000235dc f   OpensslLib:tasn_dec.obj
 0001:000235ac       asn1_d2i_ex_primitive      000000000002386c f   OpensslLib:tasn_dec.obj
 0001:00023874       asn1_ex_c2i                0000000000023b34 f   OpensslLib:tasn_dec.obj
 0001:00023b14       asn1_find_end              0000000000023dd4 f   OpensslLib:tasn_dec.obj
 0001:00023c54       asn1_collect               0000000000023f14 f   OpensslLib:tasn_dec.obj
 0001:00023e04       asn1_check_tlen            00000000000240c4 f   OpensslLib:tasn_dec.obj
 0001:00024064       gnames_from_sectname       0000000000024324 f   OpensslLib:v3_crld.obj
 0001:00024108       set_dist_point_name        00000000000243c8 f   OpensslLib:v3_crld.obj
 0001:000242cc       set_reasons                000000000002458c f   OpensslLib:v3_crld.obj
 0001:000243c4       print_reasons              0000000000024684 f   OpensslLib:v3_crld.obj
 0001:00024498       crldp_from_section         0000000000024758 f   OpensslLib:v3_crld.obj
 0001:00024598       v2i_crld                   0000000000024858 f   OpensslLib:v3_crld.obj
 0001:00024764       dpn_cb                     0000000000024a24 f   OpensslLib:v3_crld.obj
 0001:000247c8       v2i_idp                    0000000000024a88 f   OpensslLib:v3_crld.obj
 0001:00024998       print_gens                 0000000000024c58 f   OpensslLib:v3_crld.obj
 0001:00024a18       print_distpoint            0000000000024cd8 f   OpensslLib:v3_crld.obj
 0001:00024a6c       i2r_idp                    0000000000024d2c f   OpensslLib:v3_crld.obj
 0001:00024ab0       i2r_crldp                  0000000000024d70 f   OpensslLib:v3_crld.obj
 0001:00024c78       asn1_item_embed_new        0000000000024f38 f   OpensslLib:tasn_new.obj
 0001:00024ec4       asn1_template_new          0000000000025184 f   OpensslLib:tasn_new.obj
 0001:00024f5c       asn1_template_clear        000000000002521c f   OpensslLib:tasn_new.obj
 0001:00024fd8       asn1_primitive_new         0000000000025298 f   OpensslLib:tasn_new.obj
 0001:00025114       policy_cache_create        00000000000253d4 f   OpensslLib:pcy_cache.obj
 0001:00025290       policy_cache_new           0000000000025550 f   OpensslLib:pcy_cache.obj
 0001:00025458       policy_data_cmp            0000000000025718 f   OpensslLib:pcy_cache.obj
 0001:0002582c       asn1_item_flags_i2d        0000000000025aec f   OpensslLib:tasn_enc.obj
 0001:00025c60       asn1_template_ex_i2d       0000000000025f20 f   OpensslLib:tasn_enc.obj
 0001:00025f44       der_cmp                    0000000000026204 f   OpensslLib:tasn_enc.obj
 0001:00025f84       asn1_set_seq_out           0000000000026244 f   OpensslLib:tasn_enc.obj
 0001:000261c8       asn1_i2d_ex_primitive      0000000000026488 f   OpensslLib:tasn_enc.obj
 0001:000262bc       asn1_ex_i2c                000000000002657c f   OpensslLib:tasn_enc.obj
 0001:000269a8       sha512_block_data_order    0000000000026c68 f   OpensslLib:sha512.obj
 0001:000270b4       sha1_block_data_order      0000000000027374 f   OpensslLib:sha1dgst.obj
 0001:000278c4       sk_table_cmp               0000000000027b84 f   OpensslLib:a_strnid.obj
 0001:000278c4       ameth_cmp_BSEARCH_CMP_FN   0000000000027b84 f   OpensslLib:ameth_lib.obj
 0001:000278c4       pmeth_cmp_BSEARCH_CMP_FN   0000000000027b84 f   OpensslLib:pmeth_lib.obj
 0001:000278c4       ext_cmp_BSEARCH_CMP_FN     0000000000027b84 f   OpensslLib:v3_lib.obj
 0001:00027a30       make_kn                    0000000000027cf0 f   OpensslLib:cmac.obj
 0001:00027df4       ossl_init_get_thread_local 00000000000280b4 f   OpensslLib:init.obj
 0001:00027e4c       ossl_init_base_ossl_       000000000002810c f   OpensslLib:init.obj
 0001:00027eb8       ossl_init_add_all_digests_ossl_ 0000000000028178 f   OpensslLib:init.obj
 0001:00027fd4       ossl_init_config_ossl_     0000000000028294 f   OpensslLib:init.obj
 0001:0002806c       ossl_init_async_ossl_      000000000002832c f   OpensslLib:init.obj
 0001:00028390       sigx_cmp_BSEARCH_CMP_FN    0000000000028650 f   OpensslLib:obj_xref.obj
 0001:000284f8       int_ctx_new                00000000000287b8 f   OpensslLib:pmeth_lib.obj
 0001:00028d1c       sec_alloc_realloc          0000000000028fdc f   OpensslLib:buffer.obj
 0001:00029960       st_free                    0000000000029c20 f   OpensslLib:a_strnid.obj
 0001:0002abec       ec_guess_cofactor          000000000002aeac f   OpensslLib:ec_lib.obj
 0001:0002b8ac       ec_precompute_mont_data    000000000002bb6c f   OpensslLib:ec_lib.obj
 0001:0002b980       ec_field_inverse_mod_ord   000000000002bc40 f   OpensslLib:ec_lib.obj
 0001:0002c2d0       traverse_string            000000000002c590 f   OpensslLib:a_mbstr.obj
 0001:0002c3c8       in_utf8                    000000000002c688 f   OpensslLib:a_mbstr.obj
 0001:0002c3d0       out_utf8                   000000000002c690 f   OpensslLib:a_mbstr.obj
 0001:0002c3f4       type_str                   000000000002c6b4 f   OpensslLib:a_mbstr.obj
 0001:0002c498       cpy_asc                    000000000002c758 f   OpensslLib:a_mbstr.obj
 0001:0002c4a8       cpy_bmp                    000000000002c768 f   OpensslLib:a_mbstr.obj
 0001:0002c4c4       cpy_univ                   000000000002c784 f   OpensslLib:a_mbstr.obj
 0001:0002c4f4       cpy_utf8                   000000000002c7b4 f   OpensslLib:a_mbstr.obj
 0001:0002c734       bn_new                     000000000002c9f4 f   OpensslLib:x_bignum.obj
 0001:0002c758       bn_secure_new              000000000002ca18 f   OpensslLib:x_bignum.obj
 0001:0002c784       bn_free                    000000000002ca44 f   OpensslLib:x_bignum.obj
 0001:0002c7b4       bn_i2c                     000000000002ca74 f   OpensslLib:x_bignum.obj
 0001:0002c82c       bn_c2i                     000000000002caec f   OpensslLib:x_bignum.obj
 0001:0002c894       bn_secure_c2i              000000000002cb54 f   OpensslLib:x_bignum.obj
 0001:0002c920       bn_print                   000000000002cbe0 f   OpensslLib:x_bignum.obj
 0001:0002ca28       uint64_new                 000000000002cce8 f   OpensslLib:x_int64.obj
 0001:0002ca64       uint32_new                 000000000002cd24 f   OpensslLib:x_int64.obj
 0001:0002caa0       uint32_free                000000000002cd60 f   OpensslLib:x_int64.obj
 0001:0002cac0       uint32_clear               000000000002cd80 f   OpensslLib:x_int64.obj
 0001:0002cac8       uint32_i2c                 000000000002cd88 f   OpensslLib:x_int64.obj
 0001:0002cb60       uint32_c2i                 000000000002ce20 f   OpensslLib:x_int64.obj
 0001:0002cc4c       uint32_print               000000000002cf0c f   OpensslLib:x_int64.obj
 0001:0002ceb4       PKCS7_get_octet_string     000000000002d174 f   OpensslLib:pk7_doit.obj
 0001:0002cf14       PKCS7_bio_add_digest       000000000002d1d4 f   OpensslLib:pk7_doit.obj
 0001:0002cfc0       pkcs7_encode_rinfo         000000000002d280 f   OpensslLib:pk7_doit.obj
 0001:0002d78c       PKCS7_find_digest          000000000002da4c f   OpensslLib:pk7_doit.obj
 0001:0002d818       do_pkcs7_signed_attrib     000000000002dad8 f   OpensslLib:pk7_doit.obj
 0001:0002e288       get_attribute              000000000002e548 f   OpensslLib:pk7_doit.obj
 0001:0002e2f4       add_attribute              000000000002e5b4 f   OpensslLib:pk7_doit.obj
 0001:0002ea04       expand                     000000000002ecc4 f   OpensslLib:lhash.obj
 0001:0002eb10       getrn                      000000000002edd0 f   OpensslLib:lhash.obj
 0001:0002ed2c       ec_asn1_group2fieldid      000000000002efec f   OpensslLib:ec_asn1.obj
 0001:0002ee5c       ec_asn1_group2curve        000000000002f11c f   OpensslLib:ec_asn1.obj
 0001:000317e4       bn_from_montgomery_word    0000000000031aa4 f   OpensslLib:bn_mont.obj
 0001:00031e70       rsa_ossl_public_encrypt    0000000000032130 f   OpensslLib:rsa_ossl.obj
 0001:00032110       rsa_get_blinding           00000000000323d0 f   OpensslLib:rsa_ossl.obj
 0001:00032188       rsa_ossl_private_encrypt   0000000000032448 f   OpensslLib:rsa_ossl.obj
 0001:000325dc       rsa_ossl_private_decrypt   000000000003289c f   OpensslLib:rsa_ossl.obj
 0001:000329a0       rsa_ossl_public_decrypt    0000000000032c60 f   OpensslLib:rsa_ossl.obj
 0001:00032cbc       rsa_ossl_mod_exp           0000000000032f7c f   OpensslLib:rsa_ossl.obj
 0001:000337ac       rsa_ossl_init              0000000000033a6c f   OpensslLib:rsa_ossl.obj
 0001:000337b8       rsa_ossl_finish            0000000000033a78 f   OpensslLib:rsa_ossl.obj
 0001:00033da8       rsa_get_public_exp         0000000000034068 f   OpensslLib:rsa_crpt.obj
 0001:00034188       julian_adj                 0000000000034448 f   OpensslLib:o_time.obj
 0001:000342a4       julian_to_date             0000000000034564 f   OpensslLib:o_time.obj
 0001:000343d0       i2v_AUTHORITY_INFO_ACCESS  0000000000034690 f   OpensslLib:v3_info.obj
 0001:00034580       v2i_AUTHORITY_INFO_ACCESS  0000000000034840 f   OpensslLib:v3_info.obj
 0001:0003474c       module_add                 0000000000034a0c f   OpensslLib:conf_mod.obj
 0001:00034ae0       i2v_BASIC_CONSTRAINTS      0000000000034da0 f   OpensslLib:v3_bcons.obj
 0001:00034b64       v2i_BASIC_CONSTRAINTS      0000000000034e24 f   OpensslLib:v3_bcons.obj
 0001:00034dd4       node_cmp                   0000000000035094 f   OpensslLib:pcy_node.obj
 0001:0003542c       v2i_issuer_alt             00000000000356ec f   OpensslLib:v3_alt.obj
 0001:00035554       copy_issuer                0000000000035814 f   OpensslLib:v3_alt.obj
 0001:000356b8       v2i_subject_alt            0000000000035978 f   OpensslLib:v3_alt.obj
 0001:00035818       copy_email                 0000000000035ad8 f   OpensslLib:v3_alt.obj
 0001:00035da0       do_othername               0000000000036060 f   OpensslLib:v3_alt.obj
 0001:00035e6c       do_dirname                 000000000003612c f   OpensslLib:v3_alt.obj
 0001:00036120       BN_STACK_push              00000000000363e0 f   OpensslLib:bn_ctx.obj
 0001:000361dc       BN_POOL_get                000000000003649c f   OpensslLib:bn_ctx.obj
 0001:000362e4       ec_group_new_from_data     00000000000365a4 f   OpensslLib:ec_curve.obj
 0001:00037014       bnrand                     00000000000372d4 f   OpensslLib:bn_rand.obj
 0001:0003719c       bnrand_range               000000000003745c f   OpensslLib:bn_rand.obj
 0001:000379d0       i2v_POLICY_CONSTRAINTS     0000000000037c90 f   OpensslLib:v3_pcons.obj
 0001:00037a14       v2i_POLICY_CONSTRAINTS     0000000000037cd4 f   OpensslLib:v3_pcons.obj
 0001:00037bb4       r2i_certpol                0000000000037e74 f   OpensslLib:v3_cpols.obj
 0001:00037dfc       policy_section             00000000000380bc f   OpensslLib:v3_cpols.obj
 0001:000380c4       displaytext_str2tag        0000000000038384 f   OpensslLib:v3_cpols.obj
 0001:00038198       notice_section             0000000000038458 f   OpensslLib:v3_cpols.obj
 0001:00038568       i2r_certpol                0000000000038828 f   OpensslLib:v3_cpols.obj
 0001:0003860c       print_qualifiers           00000000000388cc f   OpensslLib:v3_cpols.obj
 0001:00038c64       evp_EncryptDecryptUpdate   0000000000038f24 f   OpensslLib:evp_enc.obj
 0001:00039460       generate_key               0000000000039720 f   OpensslLib:dh_key.obj
 0001:000396b8       compute_key                0000000000039978 f   OpensslLib:dh_key.obj
 0001:00039824       dh_bn_mod_exp              0000000000039ae4 f   OpensslLib:dh_key.obj
 0001:00039860       dh_init                    0000000000039b20 f   OpensslLib:dh_key.obj
 0001:0003986c       dh_finish                  0000000000039b2c f   OpensslLib:dh_key.obj
 0001:00039884       cmac_size                  0000000000039b44 f   OpensslLib:cm_ameth.obj
 0001:0003988c       cmac_key_free              0000000000039b4c f   OpensslLib:cm_ameth.obj
 0001:0003988c       pkey_cmac_cleanup          0000000000039b4c f   OpensslLib:cm_pmeth.obj
 0001:00039898       ecx_key_op                 0000000000039b58 f   OpensslLib:ecx_meth.obj
 0001:00039b70       ecx_pub_encode             0000000000039e30 f   OpensslLib:ecx_meth.obj
 0001:00039c5c       ecx_pub_decode             0000000000039f1c f   OpensslLib:ecx_meth.obj
 0001:00039c88       ecx_pub_cmp                0000000000039f48 f   OpensslLib:ecx_meth.obj
 0001:00039cf8       ecx_priv_decode            0000000000039fb8 f   OpensslLib:ecx_meth.obj
 0001:00039d8c       ecx_priv_encode            000000000003a04c f   OpensslLib:ecx_meth.obj
 0001:00039eb0       ecx_size                   000000000003a170 f   OpensslLib:ecx_meth.obj
 0001:00039edc       ecx_bits                   000000000003a19c f   OpensslLib:ecx_meth.obj
 0001:00039f0c       ecx_security_bits          000000000003a1cc f   OpensslLib:ecx_meth.obj
 0001:00039f2c       ecx_free                   000000000003a1ec f   OpensslLib:ecx_meth.obj
 0001:00039fa8       ecx_key_print              000000000003a268 f   OpensslLib:ecx_meth.obj
 0001:0003a144       ecx_priv_print             000000000003a404 f   OpensslLib:ecx_meth.obj
 0001:0003a15c       ecx_pub_print              000000000003a41c f   OpensslLib:ecx_meth.obj
 0001:0003a170       ecx_ctrl                   000000000003a430 f   OpensslLib:ecx_meth.obj
 0001:0003a238       ecd_ctrl                   000000000003a4f8 f   OpensslLib:ecx_meth.obj
 0001:0003a250       ecx_set_priv_key           000000000003a510 f   OpensslLib:ecx_meth.obj
 0001:0003a278       ecx_set_pub_key            000000000003a538 f   OpensslLib:ecx_meth.obj
 0001:0003a29c       ecx_get_priv_key           000000000003a55c f   OpensslLib:ecx_meth.obj
 0001:0003a378       ecx_get_pub_key            000000000003a638 f   OpensslLib:ecx_meth.obj
 0001:0003a44c       ecd_size25519              000000000003a70c f   OpensslLib:ecx_meth.obj
 0001:0003a44c       hmac_size                  000000000003a70c f   OpensslLib:hm_ameth.obj
 0001:0003a454       ecd_size448                000000000003a714 f   OpensslLib:ecx_meth.obj
 0001:0003a45c       ecd_item_verify            000000000003a71c f   OpensslLib:ecx_meth.obj
 0001:0003a4d8       ecd_item_sign25519         000000000003a798 f   OpensslLib:ecx_meth.obj
 0001:0003a530       ecd_sig_info_set25519      000000000003a7f0 f   OpensslLib:ecx_meth.obj
 0001:0003a550       ecd_item_sign448           000000000003a810 f   OpensslLib:ecx_meth.obj
 0001:0003a5a8       ecd_sig_info_set448        000000000003a868 f   OpensslLib:ecx_meth.obj
 0001:0003a5c8       pkey_ecx_keygen            000000000003a888 f   OpensslLib:ecx_meth.obj
 0001:0003a5f4       validate_ecx_derive        000000000003a8b4 f   OpensslLib:ecx_meth.obj
 0001:0003a664       pkey_ecx_derive25519       000000000003a924 f   OpensslLib:ecx_meth.obj
 0001:0003a6ec       pkey_ecx_derive448         000000000003a9ac f   OpensslLib:ecx_meth.obj
 0001:0003a74c       pkey_ecx_ctrl              000000000003aa0c f   OpensslLib:ecx_meth.obj
 0001:0003a75c       pkey_ecd_digestsign25519   000000000003aa1c f   OpensslLib:ecx_meth.obj
 0001:0003a7c8       pkey_ecd_digestsign448     000000000003aa88 f   OpensslLib:ecx_meth.obj
 0001:0003a834       pkey_ecd_digestverify25519 000000000003aaf4 f   OpensslLib:ecx_meth.obj
 0001:0003a85c       pkey_ecd_digestverify448   000000000003ab1c f   OpensslLib:ecx_meth.obj
 0001:0003a89c       pkey_ecd_ctrl              000000000003ab5c f   OpensslLib:ecx_meth.obj
 0001:0003a8e4       eckey_param2type           000000000003aba4 f   OpensslLib:ec_ameth.obj
 0001:0003a9c0       eckey_pub_encode           000000000003ac80 f   OpensslLib:ec_ameth.obj
 0001:0003ab9c       eckey_pub_decode           000000000003ae5c f   OpensslLib:ec_ameth.obj
 0001:0003ad24       eckey_pub_cmp              000000000003afe4 f   OpensslLib:ec_ameth.obj
 0001:0003ad74       eckey_priv_decode          000000000003b034 f   OpensslLib:ec_ameth.obj
 0001:0003aef0       eckey_priv_encode          000000000003b1b0 f   OpensslLib:ec_ameth.obj
 0001:0003b014       int_ec_size                000000000003b2d4 f   OpensslLib:ec_ameth.obj
 0001:0003b020       ec_bits                    000000000003b2e0 f   OpensslLib:ec_ameth.obj
 0001:0003b030       ec_security_bits           000000000003b2f0 f   OpensslLib:ec_ameth.obj
 0001:0003b094       ec_missing_parameters      000000000003b354 f   OpensslLib:ec_ameth.obj
 0001:0003b0b0       ec_copy_parameters         000000000003b370 f   OpensslLib:ec_ameth.obj
 0001:0003b120       ec_cmp_parameters          000000000003b3e0 f   OpensslLib:ec_ameth.obj
 0001:0003b15c       int_ec_free                000000000003b41c f   OpensslLib:ec_ameth.obj
 0001:0003b168       do_EC_KEY_print            000000000003b428 f   OpensslLib:ec_ameth.obj
 0001:0003b39c       eckey_param_decode         000000000003b65c f   OpensslLib:ec_ameth.obj
 0001:0003b3e0       eckey_param_encode         000000000003b6a0 f   OpensslLib:ec_ameth.obj
 0001:0003b3ec       eckey_param_print          000000000003b6ac f   OpensslLib:ec_ameth.obj
 0001:0003b3fc       eckey_pub_print            000000000003b6bc f   OpensslLib:ec_ameth.obj
 0001:0003b40c       eckey_priv_print           000000000003b6cc f   OpensslLib:ec_ameth.obj
 0001:0003b418       old_ec_priv_decode         000000000003b6d8 f   OpensslLib:ec_ameth.obj
 0001:0003b460       old_ec_priv_encode         000000000003b720 f   OpensslLib:ec_ameth.obj
 0001:0003b46c       ec_pkey_ctrl               000000000003b72c f   OpensslLib:ec_ameth.obj
 0001:0003b574       ec_pkey_check              000000000003b834 f   OpensslLib:ec_ameth.obj
 0001:0003b5a8       ec_pkey_public_check       000000000003b868 f   OpensslLib:ec_ameth.obj
 0001:0003b5b4       ec_pkey_param_check        000000000003b874 f   OpensslLib:ec_ameth.obj
 0001:0003b5e8       siphash_size               000000000003b8a8 f   OpensslLib:siphash_ameth.obj
 0001:0003b5f0       hmac_key_free              000000000003b8b0 f   OpensslLib:hm_ameth.obj
 0001:0003b5f0       siphash_key_free           000000000003b8b0 f   OpensslLib:siphash_ameth.obj
 0001:0003b624       dh_pkey_ctrl               000000000003b8e4 f   OpensslLib:dh_ameth.obj
 0001:0003b624       siphash_pkey_ctrl          000000000003b8e4 f   OpensslLib:siphash_ameth.obj
 0001:0003b62c       hmac_pkey_public_cmp       000000000003b8ec f   OpensslLib:hm_ameth.obj
 0001:0003b62c       siphash_pkey_public_cmp    000000000003b8ec f   OpensslLib:siphash_ameth.obj
 0001:0003b64c       siphash_set_priv_key       000000000003b90c f   OpensslLib:siphash_ameth.obj
 0001:0003b6bc       siphash_get_priv_key       000000000003b97c f   OpensslLib:siphash_ameth.obj
 0001:0003b70c       hmac_pkey_ctrl             000000000003b9cc f   OpensslLib:hm_ameth.obj
 0001:0003b724       hmac_set_priv_key          000000000003b9e4 f   OpensslLib:hm_ameth.obj
 0001:0003b798       hmac_get_priv_key          000000000003ba58 f   OpensslLib:hm_ameth.obj
 0001:0003b7e0       rsa_param_encode           000000000003baa0 f   OpensslLib:rsa_ameth.obj
 0001:0003b838       rsa_param_decode           000000000003baf8 f   OpensslLib:rsa_ameth.obj
 0001:0003b8b4       rsa_pub_encode             000000000003bb74 f   OpensslLib:rsa_ameth.obj
 0001:0003b988       rsa_pub_decode             000000000003bc48 f   OpensslLib:rsa_ameth.obj
 0001:0003ba20       rsa_pub_cmp                000000000003bce0 f   OpensslLib:rsa_ameth.obj
 0001:0003ba88       old_rsa_priv_decode        000000000003bd48 f   OpensslLib:rsa_ameth.obj
 0001:0003bad4       old_rsa_priv_encode        000000000003bd94 f   OpensslLib:rsa_ameth.obj
 0001:0003bae8       rsa_priv_encode            000000000003bda8 f   OpensslLib:rsa_ameth.obj
 0001:0003bbc0       rsa_priv_decode            000000000003be80 f   OpensslLib:rsa_ameth.obj
 0001:0003bc54       int_rsa_size               000000000003bf14 f   OpensslLib:rsa_ameth.obj
 0001:0003bc78       rsa_bits                   000000000003bf38 f   OpensslLib:rsa_ameth.obj
 0001:0003bc88       rsa_security_bits          000000000003bf48 f   OpensslLib:rsa_ameth.obj
 0001:0003bd44       int_rsa_free               000000000003c004 f   OpensslLib:rsa_ameth.obj
 0001:0003bd50       rsa_pss_param_print        000000000003c010 f   OpensslLib:rsa_ameth.obj
 0001:0003c034       pkey_rsa_print             000000000003c2f4 f   OpensslLib:rsa_ameth.obj
 0001:0003c39c       rsa_pub_print              000000000003c65c f   OpensslLib:rsa_ameth.obj
 0001:0003c3a4       rsa_priv_print             000000000003c664 f   OpensslLib:rsa_ameth.obj
 0001:0003c3b0       rsa_pss_decode             000000000003c670 f   OpensslLib:rsa_ameth.obj
 0001:0003c434       rsa_sig_print              000000000003c6f4 f   OpensslLib:rsa_ameth.obj
 0001:0003c4e4       rsa_pkey_ctrl              000000000003c7a4 f   OpensslLib:rsa_ameth.obj
 0001:0003c5d8       rsa_md_to_algor            000000000003c898 f   OpensslLib:rsa_ameth.obj
 0001:0003c648       rsa_md_to_mgf1             000000000003c908 f   OpensslLib:rsa_ameth.obj
 0001:0003c838       rsa_ctx_to_pss_string      000000000003caf8 f   OpensslLib:rsa_ameth.obj
 0001:0003c9d4       rsa_pss_to_ctx             000000000003cc94 f   OpensslLib:rsa_ameth.obj
 0001:0003cdbc       rsa_item_verify            000000000003d07c f   OpensslLib:rsa_ameth.obj
 0001:0003ce1c       rsa_item_sign              000000000003d0dc f   OpensslLib:rsa_ameth.obj
 0001:0003ceec       rsa_sig_info_set           000000000003d1ac f   OpensslLib:rsa_ameth.obj
 0001:0003cfc0       rsa_pkey_check             000000000003d280 f   OpensslLib:rsa_ameth.obj
 0001:0003cfcc       i2d_dhp                    000000000003d28c f   OpensslLib:dh_ameth.obj
 0001:0003d074       int_dh_free                000000000003d334 f   OpensslLib:dh_ameth.obj
 0001:0003d080       dh_pub_decode              000000000003d340 f   OpensslLib:dh_ameth.obj
 0001:0003d234       dh_pub_encode              000000000003d4f4 f   OpensslLib:dh_ameth.obj
 0001:0003d364       dh_priv_decode             000000000003d624 f   OpensslLib:dh_ameth.obj
 0001:0003d544       dh_priv_encode             000000000003d804 f   OpensslLib:dh_ameth.obj
 0001:0003d654       dh_param_decode            000000000003d914 f   OpensslLib:dh_ameth.obj
 0001:0003d6b4       dh_param_encode            000000000003d974 f   OpensslLib:dh_ameth.obj
 0001:0003d6c0       do_dh_print                000000000003d980 f   OpensslLib:dh_ameth.obj
 0001:0003d9b4       int_dh_size                000000000003dc74 f   OpensslLib:dh_ameth.obj
 0001:0003d9d8       dh_bits                    000000000003dc98 f   OpensslLib:dh_ameth.obj
 0001:0003d9e8       dh_security_bits           000000000003dca8 f   OpensslLib:dh_ameth.obj
 0001:0003da30       dh_cmp_parameters          000000000003dcf0 f   OpensslLib:dh_ameth.obj
 0001:0003daa4       int_dh_bn_cpy              000000000003dd64 f   OpensslLib:dh_ameth.obj
 0001:0003daf0       int_dh_param_copy          000000000003ddb0 f   OpensslLib:dh_ameth.obj
 0001:0003dbbc       dh_copy_parameters         000000000003de7c f   OpensslLib:dh_ameth.obj
 0001:0003dc18       dh_missing_parameters      000000000003ded8 f   OpensslLib:dh_ameth.obj
 0001:0003dc38       dh_pub_cmp                 000000000003def8 f   OpensslLib:dh_ameth.obj
 0001:0003dc80       dh_param_print             000000000003df40 f   OpensslLib:dh_ameth.obj
 0001:0003dc8c       dh_public_print            000000000003df4c f   OpensslLib:dh_ameth.obj
 0001:0003dc9c       dh_private_print           000000000003df5c f   OpensslLib:dh_ameth.obj
 0001:0003dcac       dh_pkey_public_check       000000000003df6c f   OpensslLib:dh_ameth.obj
 0001:0003dd3c       dh_pkey_param_check        000000000003dffc f   OpensslLib:dh_ameth.obj
 0001:0003e3a4       rand_drbg_new              000000000003e664 f   OpensslLib:drbg_lib.obj
 0001:0003ee40       drbg_setup                 000000000003f100 f   OpensslLib:drbg_lib.obj
 0001:0003eef8       do_rand_drbg_init_ossl_    000000000003f1b8 f   OpensslLib:drbg_lib.obj
 0001:0003ef88       drbg_bytes                 000000000003f248 f   OpensslLib:drbg_lib.obj
 0001:0003f0e0       drbg_add                   000000000003f3a0 f   OpensslLib:drbg_lib.obj
 0001:0003f204       drbg_seed                  000000000003f4c4 f   OpensslLib:drbg_lib.obj
 0001:0003f214       drbg_status                000000000003f4d4 f   OpensslLib:drbg_lib.obj
 0001:0003f634       do_rand_init_ossl_         000000000003f8f4 f   OpensslLib:rand_lib.obj
 0001:0003f7fc       rand_pool_grow             000000000003fabc f   OpensslLib:rand_lib.obj
 0001:0003fb9c       pkey_dh_init               000000000003fe5c f   OpensslLib:dh_pmeth.obj
 0001:0003fbf8       pkey_dh_cleanup            000000000003feb8 f   OpensslLib:dh_pmeth.obj
 0001:0003fc2c       pkey_dh_copy               000000000003feec f   OpensslLib:dh_pmeth.obj
 0001:0003fce0       pkey_dh_ctrl               000000000003ffa0 f   OpensslLib:dh_pmeth.obj
 0001:0003fe98       pkey_dh_ctrl_str           0000000000040158 f   OpensslLib:dh_pmeth.obj
 0001:00040038       pkey_dh_paramgen           00000000000402f8 f   OpensslLib:dh_pmeth.obj
 0001:0004025c       pkey_dh_keygen             000000000004051c f   OpensslLib:dh_pmeth.obj
 0001:000402e8       pkey_dh_derive             00000000000405a8 f   OpensslLib:dh_pmeth.obj
 0001:00040474       pkey_cmac_init             0000000000040734 f   OpensslLib:cm_pmeth.obj
 0001:0004049c       pkey_cmac_copy             000000000004075c f   OpensslLib:cm_pmeth.obj
 0001:000404dc       pkey_cmac_keygen           000000000004079c f   OpensslLib:cm_pmeth.obj
 0001:00040544       int_update                 0000000000040804 f   OpensslLib:cm_pmeth.obj
 0001:00040638       cmac_signctx_init          00000000000408f8 f   OpensslLib:cm_pmeth.obj
 0001:00040650       cmac_signctx               0000000000040910 f   OpensslLib:cm_pmeth.obj
 0001:00040760       pkey_cmac_ctrl             0000000000040a20 f   OpensslLib:cm_pmeth.obj
 0001:000407ec       pkey_cmac_ctrl_str         0000000000040aac f   OpensslLib:cm_pmeth.obj
 0001:000408bc       pkey_rsa_init              0000000000040b7c f   OpensslLib:rsa_pmeth.obj
 0001:00040920       pkey_rsa_copy              0000000000040be0 f   OpensslLib:rsa_pmeth.obj
 0001:000409c0       setup_tbuf                 0000000000040c80 f   OpensslLib:rsa_pmeth.obj
 0001:00040a38       pkey_rsa_cleanup           0000000000040cf8 f   OpensslLib:rsa_pmeth.obj
 0001:00040a7c       pkey_rsa_sign              0000000000040d3c f   OpensslLib:rsa_pmeth.obj
 0001:00040c8c       pkey_rsa_verifyrecover     0000000000040f4c f   OpensslLib:rsa_pmeth.obj
 0001:00040e20       pkey_rsa_verify            00000000000410e0 f   OpensslLib:rsa_pmeth.obj
 0001:00040fcc       pkey_rsa_encrypt           000000000004128c f   OpensslLib:rsa_pmeth.obj
 0001:000410d0       pkey_rsa_decrypt           0000000000041390 f   OpensslLib:rsa_pmeth.obj
 0001:00041210       check_padding_md           00000000000414d0 f   OpensslLib:rsa_pmeth.obj
 0001:000412c8       pkey_rsa_ctrl              0000000000041588 f   OpensslLib:rsa_pmeth.obj
 0001:0004165c       pkey_rsa_ctrl_str          000000000004191c f   OpensslLib:rsa_pmeth.obj
 0001:00041ae8       pkey_rsa_keygen            0000000000041da8 f   OpensslLib:rsa_pmeth.obj
 0001:00041c88       pkey_pss_init              0000000000041f48 f   OpensslLib:rsa_pmeth.obj
 0001:00041d74       pkey_tls1_prf_init         0000000000042034 f   OpensslLib:tls1_prf.obj
 0001:00041db0       pkey_tls1_prf_cleanup      0000000000042070 f   OpensslLib:tls1_prf.obj
 0001:00041e10       pkey_tls1_prf_ctrl         00000000000420d0 f   OpensslLib:tls1_prf.obj
 0001:00041f24       pkey_tls1_prf_ctrl_str     00000000000421e4 f   OpensslLib:tls1_prf.obj
 0001:00042038       pkey_tls1_prf_derive       00000000000422f8 f   OpensslLib:tls1_prf.obj
 0001:000420ac       tls1_prf_P_hash            000000000004236c f   OpensslLib:tls1_prf.obj
 0001:000423dc       tls1_prf_alg               000000000004269c f   OpensslLib:tls1_prf.obj
 0001:0004254c       pkey_hkdf_init             000000000004280c f   OpensslLib:hkdf.obj
 0001:00042588       pkey_hkdf_cleanup          0000000000042848 f   OpensslLib:hkdf.obj
 0001:00042610       pkey_hkdf_ctrl             00000000000428d0 f   OpensslLib:hkdf.obj
 0001:00042778       pkey_hkdf_ctrl_str         0000000000042a38 f   OpensslLib:hkdf.obj
 0001:00042924       pkey_hkdf_derive_init      0000000000042be4 f   OpensslLib:hkdf.obj
 0001:000429b8       pkey_hkdf_derive           0000000000042c78 f   OpensslLib:hkdf.obj
 0001:00042b38       HKDF_Extract               0000000000042df8 f   OpensslLib:hkdf.obj
 0001:00042c20       HKDF_Expand                0000000000042ee0 f   OpensslLib:hkdf.obj
 0001:00042e08       pkey_sm2_init              00000000000430c8 f   OpensslLib:sm2_pmeth.obj
 0001:00042e44       pkey_sm2_cleanup           0000000000043104 f   OpensslLib:sm2_pmeth.obj
 0001:00042e88       pkey_sm2_copy              0000000000043148 f   OpensslLib:sm2_pmeth.obj
 0001:00042f4c       pkey_sm2_sign              000000000004320c f   OpensslLib:sm2_pmeth.obj
 0001:00042fe0       pkey_sm2_verify            00000000000432a0 f   OpensslLib:sm2_pmeth.obj
 0001:00043110       pkey_sm2_encrypt           00000000000433d0 f   OpensslLib:sm2_pmeth.obj
 0001:00043200       pkey_sm2_decrypt           00000000000434c0 f   OpensslLib:sm2_pmeth.obj
 0001:000432b4       pkey_sm2_ctrl              0000000000043574 f   OpensslLib:sm2_pmeth.obj
 0001:00043414       pkey_sm2_ctrl_str          00000000000436d4 f   OpensslLib:sm2_pmeth.obj
 0001:000434f8       pkey_sm2_digest_custom     00000000000437b8 f   OpensslLib:sm2_pmeth.obj
 0001:000435c8       pkey_siphash_init          0000000000043888 f   OpensslLib:siphash_pmeth.obj
 0001:00043614       pkey_siphash_cleanup       00000000000438d4 f   OpensslLib:siphash_pmeth.obj
 0001:00043688       pkey_siphash_copy          0000000000043948 f   OpensslLib:siphash_pmeth.obj
 0001:000436fc       pkey_siphash_keygen        00000000000439bc f   OpensslLib:siphash_pmeth.obj
 0001:00043738       int_update                 00000000000439f8 f   OpensslLib:siphash_pmeth.obj
 0001:00043758       siphash_signctx_init       0000000000043a18 f   OpensslLib:siphash_pmeth.obj
 0001:000437b8       siphash_signctx            0000000000043a78 f   OpensslLib:siphash_pmeth.obj
 0001:000437dc       pkey_siphash_ctrl          0000000000043a9c f   OpensslLib:siphash_pmeth.obj
 0001:000438d8       pkey_siphash_ctrl_str      0000000000043b98 f   OpensslLib:siphash_pmeth.obj
 0001:00043990       pkey_ec_init               0000000000043c50 f   OpensslLib:ec_pmeth.obj
 0001:000439d4       pkey_ec_copy               0000000000043c94 f   OpensslLib:ec_pmeth.obj
 0001:00043a7c       pkey_ec_cleanup            0000000000043d3c f   OpensslLib:ec_pmeth.obj
 0001:00043acc       pkey_ec_sign               0000000000043d8c f   OpensslLib:ec_pmeth.obj
 0001:00043ba0       pkey_ec_verify             0000000000043e60 f   OpensslLib:ec_pmeth.obj
 0001:00043c0c       pkey_ec_derive             0000000000043ecc f   OpensslLib:ec_pmeth.obj
 0001:00043cc8       pkey_ec_kdf_derive         0000000000043f88 f   OpensslLib:ec_pmeth.obj
 0001:00043df4       pkey_ec_ctrl               00000000000440b4 f   OpensslLib:ec_pmeth.obj
 0001:00044054       pkey_ec_ctrl_str           0000000000044314 f   OpensslLib:ec_pmeth.obj
 0001:000441c4       pkey_ec_paramgen           0000000000044484 f   OpensslLib:ec_pmeth.obj
 0001:00044248       pkey_ec_keygen             0000000000044508 f   OpensslLib:ec_pmeth.obj
 0001:00044334       pkey_hmac_init             00000000000445f4 f   OpensslLib:hm_pmeth.obj
 0001:000443a0       pkey_hmac_copy             0000000000044660 f   OpensslLib:hm_pmeth.obj
 0001:00044418       pkey_hmac_cleanup          00000000000446d8 f   OpensslLib:hm_pmeth.obj
 0001:00044484       pkey_hmac_keygen           0000000000044744 f   OpensslLib:hm_pmeth.obj
 0001:000444c8       int_update                 0000000000044788 f   OpensslLib:hm_pmeth.obj
 0001:00044500       hmac_signctx_init          00000000000447c0 f   OpensslLib:hm_pmeth.obj
 0001:00044540       hmac_signctx               0000000000044800 f   OpensslLib:hm_pmeth.obj
 0001:000445ac       pkey_hmac_ctrl             000000000004486c f   OpensslLib:hm_pmeth.obj
 0001:0004461c       pkey_hmac_ctrl_str         00000000000448dc f   OpensslLib:hm_pmeth.obj
 0001:000469e4       bn_get_bits                0000000000046ca4 f   OpensslLib:bn_exp.obj
 0001:00046a3c       MOD_EXP_CTIME_COPY_TO_PREBUF 0000000000046cfc f   OpensslLib:bn_exp.obj
 0001:00046a94       MOD_EXP_CTIME_COPY_FROM_PREBUF 0000000000046d54 f   OpensslLib:bn_exp.obj
 0001:00047864       enc_new                    0000000000047b24 f   OpensslLib:bio_enc.obj
 0001:000478e4       enc_free                   0000000000047ba4 f   OpensslLib:bio_enc.obj
 0001:0004795c       enc_read                   0000000000047c1c f   OpensslLib:bio_enc.obj
 0001:00047bf8       enc_write                  0000000000047eb8 f   OpensslLib:bio_enc.obj
 0001:00047d94       enc_ctrl                   0000000000048054 f   OpensslLib:bio_enc.obj
 0001:00047f8c       enc_callback_ctrl          000000000004824c f   OpensslLib:bio_enc.obj
 0001:00047f8c       md_callback_ctrl           000000000004824c f   OpensslLib:bio_md.obj
 0001:00047fa4       update                     0000000000048264 f   OpensslLib:m_sigver.obj
 0001:00047fc4       do_sigver_init             0000000000048284 f   OpensslLib:m_sigver.obj
 0001:000484bc       md_new                     000000000004877c f   OpensslLib:bio_md.obj
 0001:000484e8       md_free                    00000000000487a8 f   OpensslLib:bio_md.obj
 0001:00048530       md_read                    00000000000487f0 f   OpensslLib:bio_md.obj
 0001:000485d4       md_write                   0000000000048894 f   OpensslLib:bio_md.obj
 0001:00048678       md_ctrl                    0000000000048938 f   OpensslLib:bio_md.obj
 0001:000487a0       md_gets                    0000000000048a60 f   OpensslLib:bio_md.obj
 0001:00048944       null_gets                  0000000000048c04 f   OpensslLib:bss_null.obj
 0001:00048944       null_read                  0000000000048c04 f   OpensslLib:bss_null.obj
 0001:00048948       null_write                 0000000000048c08 f   OpensslLib:bss_null.obj
 0001:0004894c       null_ctrl                  0000000000048c0c f   OpensslLib:bss_null.obj
 0001:00048984       null_puts                  0000000000048c44 f   OpensslLib:bss_null.obj
 0001:00049278       bn_mod_inverse_no_branch   0000000000049538 f   OpensslLib:bn_gcd.obj
 0001:0004bb10       i2v_EXTENDED_KEY_USAGE     000000000004bdd0 f   OpensslLib:v3_extku.obj
 0001:0004bb9c       v2i_EXTENDED_KEY_USAGE     000000000004be5c f   OpensslLib:v3_extku.obj
 0001:0004bea8       i2r_ocsp_crlid             000000000004c168 f   OpensslLib:v3_ocsp.obj
 0001:0004bffc       i2r_ocsp_acutoff           000000000004c2bc f   OpensslLib:v3_ocsp.obj
 0001:0004c048       i2r_object                 000000000004c308 f   OpensslLib:v3_ocsp.obj
 0001:0004c08c       ocsp_nonce_new             000000000004c34c f   OpensslLib:v3_ocsp.obj
 0001:0004c098       i2d_ocsp_nonce             000000000004c358 f   OpensslLib:v3_ocsp.obj
 0001:0004c0d0       d2i_ocsp_nonce             000000000004c390 f   OpensslLib:v3_ocsp.obj
 0001:0004c168       i2r_ocsp_nonce             000000000004c428 f   OpensslLib:v3_ocsp.obj
 0001:0004c1ac       s2i_ocsp_nocheck           000000000004c46c f   OpensslLib:v3_ocsp.obj
 0001:0004c1b8       i2r_ocsp_serviceloc        000000000004c478 f   OpensslLib:v3_ocsp.obj
 0001:0004c2c4       i2v_AUTHORITY_KEYID        000000000004c584 f   OpensslLib:v3_akey.obj
 0001:0004c404       v2i_AUTHORITY_KEYID        000000000004c6c4 f   OpensslLib:v3_akey.obj
 0001:0004c844       s2i_asn1_int               000000000004cb04 f   OpensslLib:v3_int.obj
 0001:0004c84c       i2r_NAMING_AUTHORITY       000000000004cb0c f   OpensslLib:v3_admis.obj
 0001:0004c9f8       i2r_ADMISSION_SYNTAX       000000000004ccb8 f   OpensslLib:v3_admis.obj
 0001:0004ce34       s2i_skey_id                000000000004d0f4 f   OpensslLib:v3_skey.obj
 0001:0004d020       i2r_PKEY_USAGE_PERIOD      000000000004d2e0 f   OpensslLib:v3_pku.obj
 0001:0004d0ec       i2v_POLICY_MAPPINGS        000000000004d3ac f   OpensslLib:v3_pmaps.obj
 0001:0004d1a4       v2i_POLICY_MAPPINGS        000000000004d464 f   OpensslLib:v3_pmaps.obj
 0001:0004d38c       sxnet_i2r                  000000000004d64c f   OpensslLib:v3_sxnet.obj
 0001:0004d450       sxnet_v2i                  000000000004d710 f   OpensslLib:v3_sxnet.obj
 0001:0004d74c       i2r_pci                    000000000004da0c f   OpensslLib:v3_pci.obj
 0001:0004d7f0       process_pci_value          000000000004dab0 f   OpensslLib:v3_pci.obj
 0001:0004dc3c       r2i_pci                    000000000004defc f   OpensslLib:v3_pci.obj
 0001:0004e028       i2v_TLS_FEATURE            000000000004e2e8 f   OpensslLib:v3_tlsf.obj
 0001:0004e0dc       v2i_TLS_FEATURE            000000000004e39c f   OpensslLib:v3_tlsf.obj
 0001:0004e3a8       generate_v3                000000000004e668 f   OpensslLib:asn1_gen.obj
 0001:0004e6a4       asn1_cb                    000000000004e964 f   OpensslLib:asn1_gen.obj
 0001:0004e920       parse_tagging              000000000004ebe0 f   OpensslLib:asn1_gen.obj
 0001:0004e9cc       asn1_multi                 000000000004ec8c f   OpensslLib:asn1_gen.obj
 0001:0004eb54       append_exp                 000000000004ee14 f   OpensslLib:asn1_gen.obj
 0001:0004ebe8       asn1_str2tag               000000000004eea8 f   OpensslLib:asn1_gen.obj
 0001:0004ec80       asn1_str2type              000000000004ef40 f   OpensslLib:asn1_gen.obj
 0001:0004f014       bitstr_cb                  000000000004f2d4 f   OpensslLib:asn1_gen.obj
 0001:0004f068       mask_cb                    000000000004f328 f   OpensslLib:asn1_gen.obj
 0001:0004f9ac       ecdsa_sign_setup           000000000004fc6c f   OpensslLib:ecdsa_ossl.obj
 0001:00050a78       oneshot_hash               0000000000050d38 f   OpensslLib:eddsa.obj
 0001:00050b1c       hash_init_with_dom         0000000000050ddc f   OpensslLib:eddsa.obj
 0001:00051238       fe_frombytes               00000000000514f8 f   OpensslLib:curve25519.obj
 0001:000514f0       fe_tobytes                 00000000000517b0 f   OpensslLib:curve25519.obj
 0001:00051760       fe_mul                     0000000000051a20 f   OpensslLib:curve25519.obj
 0001:00052018       fe_sq                      00000000000522d8 f   OpensslLib:curve25519.obj
 0001:000525a4       fe_invert                  0000000000052864 f   OpensslLib:curve25519.obj
 0001:000527e4       fe_sq2                     0000000000052aa4 f   OpensslLib:curve25519.obj
 0001:00052d54       fe_pow22523                0000000000053014 f   OpensslLib:curve25519.obj
 0001:00052f98       ge_p3_tobytes              0000000000053258 f   OpensslLib:curve25519.obj
 0001:00053018       ge_frombytes_vartime       00000000000532d8 f   OpensslLib:curve25519.obj
 0001:00053270       ge_p3_to_cached            0000000000053530 f   OpensslLib:curve25519.obj
 0001:000532f0       ge_p1p1_to_p2              00000000000535b0 f   OpensslLib:curve25519.obj
 0001:0005334c       ge_p1p1_to_p3              000000000005360c f   OpensslLib:curve25519.obj
 0001:000533c0       ge_p2_dbl                  0000000000053680 f   OpensslLib:curve25519.obj
 0001:000534ac       ge_p3_dbl                  000000000005376c f   OpensslLib:curve25519.obj
 0001:0005351c       ge_madd                    00000000000537dc f   OpensslLib:curve25519.obj
 0001:0005365c       ge_add                     000000000005391c f   OpensslLib:curve25519.obj
 0001:000537b0       cmov                       0000000000053a70 f   OpensslLib:curve25519.obj
 0001:00053830       table_select               0000000000053af0 f   OpensslLib:curve25519.obj
 0001:00053a28       ge_scalarmult_base         0000000000053ce8 f   OpensslLib:curve25519.obj
 0001:00053c14       x25519_scalar_mult_generic 0000000000053ed4 f   OpensslLib:curve25519.obj
 0001:000540d8       slide                      0000000000054398 f   OpensslLib:curve25519.obj
 0001:000541d8       ge_double_scalarmult_vartime 0000000000054498 f   OpensslLib:curve25519.obj
 0001:00054740       x25519_sc_reduce           0000000000054a00 f   OpensslLib:curve25519.obj
 0001:00055578       sc_muladd                  0000000000055838 f   OpensslLib:curve25519.obj
 0001:00057960       gf_bias                    0000000000057c20 f   OpensslLib:curve448.obj
 0001:000579c0       gf_weak_reduce             0000000000057c80 f   OpensslLib:curve448.obj
 0001:000579c0       gf_weak_reduce             0000000000057c80 f   OpensslLib:f_generic.obj
 0001:00057a0c       gf_sub_nr                  0000000000057ccc f   OpensslLib:curve448.obj
 0001:00057a50       gf_cond_neg                0000000000057d10 f   OpensslLib:curve448.obj
 0001:00057ac8       gf_invert                  0000000000057d88 f   OpensslLib:curve448.obj
 0001:00057b54       point_double_internal      0000000000057e14 f   OpensslLib:curve448.obj
 0001:00057d20       pt_to_pniels               0000000000057fe0 f   OpensslLib:curve448.obj
 0001:00057da0       pniels_to_pt               0000000000058060 f   OpensslLib:curve448.obj
 0001:00057e40       niels_to_pt                0000000000058100 f   OpensslLib:curve448.obj
 0001:00057edc       add_niels_to_pt            000000000005819c f   OpensslLib:curve448.obj
 0001:00058050       sub_niels_from_pt          0000000000058310 f   OpensslLib:curve448.obj
 0001:000581b8       add_pniels_to_pt           0000000000058478 f   OpensslLib:curve448.obj
 0001:00058e44       recode_wnaf                0000000000059104 f   OpensslLib:curve448.obj
 0001:00059c90       print_bin                  0000000000059f50 f   OpensslLib:eck_prn.obj
 0001:0005a924       dh_cb                      000000000005abe4 f   OpensslLib:dh_asn1.obj
 0001:0005ad44       hmac_ctx_cleanup           000000000005b004 f   OpensslLib:hmac.obj
 0001:0005adec       hmac_ctx_alloc_mds         000000000005b0ac f   OpensslLib:hmac.obj
 0001:0005aed0       sm4_init_key               000000000005b190 f   OpensslLib:e_sm4.obj
 0001:0005aef0       sm4_cbc_cipher             000000000005b1b0 f   OpensslLib:e_sm4.obj
 0001:0005aff8       sm4_cfb128_cipher          000000000005b2b8 f   OpensslLib:e_sm4.obj
 0001:0005b0a8       sm4_ecb_cipher             000000000005b368 f   OpensslLib:e_sm4.obj
 0001:0005b12c       sm4_ofb_cipher             000000000005b3ec f   OpensslLib:e_sm4.obj
 0001:0005b22c       sm4_ctr_cipher             000000000005b4ec f   OpensslLib:e_sm4.obj
 0001:0005b294       aria_init_key              000000000005b554 f   OpensslLib:e_aria.obj
 0001:0005b300       aria_128_cbc_cipher        000000000005b5c0 f   OpensslLib:e_aria.obj
 0001:0005b300       aria_192_cbc_cipher        000000000005b5c0 f   OpensslLib:e_aria.obj
 0001:0005b300       aria_256_cbc_cipher        000000000005b5c0 f   OpensslLib:e_aria.obj
 0001:0005b3d4       aria_128_cfb128_cipher     000000000005b694 f   OpensslLib:e_aria.obj
 0001:0005b3d4       aria_192_cfb128_cipher     000000000005b694 f   OpensslLib:e_aria.obj
 0001:0005b3d4       aria_256_cfb128_cipher     000000000005b694 f   OpensslLib:e_aria.obj
 0001:0005b484       aria_128_ecb_cipher        000000000005b744 f   OpensslLib:e_aria.obj
 0001:0005b484       aria_192_ecb_cipher        000000000005b744 f   OpensslLib:e_aria.obj
 0001:0005b484       aria_256_ecb_cipher        000000000005b744 f   OpensslLib:e_aria.obj
 0001:0005b4fc       aria_128_ofb_cipher        000000000005b7bc f   OpensslLib:e_aria.obj
 0001:0005b4fc       aria_192_ofb_cipher        000000000005b7bc f   OpensslLib:e_aria.obj
 0001:0005b4fc       aria_256_ofb_cipher        000000000005b7bc f   OpensslLib:e_aria.obj
 0001:0005b5fc       aria_128_cfb1_cipher       000000000005b8bc f   OpensslLib:e_aria.obj
 0001:0005b5fc       aria_192_cfb1_cipher       000000000005b8bc f   OpensslLib:e_aria.obj
 0001:0005b5fc       aria_256_cfb1_cipher       000000000005b8bc f   OpensslLib:e_aria.obj
 0001:0005b6b8       aria_128_cfb8_cipher       000000000005b978 f   OpensslLib:e_aria.obj
 0001:0005b6b8       aria_192_cfb8_cipher       000000000005b978 f   OpensslLib:e_aria.obj
 0001:0005b6b8       aria_256_cfb8_cipher       000000000005b978 f   OpensslLib:e_aria.obj
 0001:0005b764       aria_ctr_cipher            000000000005ba24 f   OpensslLib:e_aria.obj
 0001:0005b7cc       aria_gcm_init_key          000000000005ba8c f   OpensslLib:e_aria.obj
 0001:0005b8e8       aria_gcm_ctrl              000000000005bba8 f   OpensslLib:e_aria.obj
 0001:0005bcd8       aria_gcm_tls_cipher        000000000005bf98 f   OpensslLib:e_aria.obj
 0001:0005be1c       aria_gcm_cipher            000000000005c0dc f   OpensslLib:e_aria.obj
 0001:0005bef4       aria_gcm_cleanup           000000000005c1b4 f   OpensslLib:e_aria.obj
 0001:0005bf24       aria_ccm_init_key          000000000005c1e4 f   OpensslLib:e_aria.obj
 0001:0005c004       aria_ccm_ctrl              000000000005c2c4 f   OpensslLib:e_aria.obj
 0001:0005c228       aria_ccm_tls_cipher        000000000005c4e8 f   OpensslLib:e_aria.obj
 0001:0005c408       aria_ccm_cipher            000000000005c6c8 f   OpensslLib:e_aria.obj
 0001:0005c63c       aes_init_key               000000000005c8fc f   OpensslLib:e_aes.obj
 0001:0005c6f4       aes_cbc_cipher             000000000005c9b4 f   OpensslLib:e_aes.obj
 0001:0005c760       aes_ecb_cipher             000000000005ca20 f   OpensslLib:e_aes.obj
 0001:0005c7d8       aes_ofb_cipher             000000000005ca98 f   OpensslLib:e_aes.obj
 0001:0005c838       aes_cfb_cipher             000000000005caf8 f   OpensslLib:e_aes.obj
 0001:0005c8a0       aes_cfb8_cipher            000000000005cb60 f   OpensslLib:e_aes.obj
 0001:0005c900       aes_cfb1_cipher            000000000005cbc0 f   OpensslLib:e_aes.obj
 0001:0005ca34       aes_ctr_cipher             000000000005ccf4 f   OpensslLib:e_aes.obj
 0001:0005cac8       aes_gcm_cleanup            000000000005cd88 f   OpensslLib:e_aes.obj
 0001:0005cb24       aes_gcm_ctrl               000000000005cde4 f   OpensslLib:e_aes.obj
 0001:0005cf14       aes_gcm_init_key           000000000005d1d4 f   OpensslLib:e_aes.obj
 0001:0005d00c       aes_gcm_tls_cipher         000000000005d2cc f   OpensslLib:e_aes.obj
 0001:0005d158       aes_gcm_cipher             000000000005d418 f   OpensslLib:e_aes.obj
 0001:0005d250       aes_xts_ctrl               000000000005d510 f   OpensslLib:e_aes.obj
 0001:0005d2c0       aes_xts_init_key           000000000005d580 f   OpensslLib:e_aes.obj
 0001:0005d40c       aes_xts_cipher             000000000005d6cc f   OpensslLib:e_aes.obj
 0001:0005d4a4       aes_ccm_ctrl               000000000005d764 f   OpensslLib:e_aes.obj
 0001:0005d6c8       aes_ccm_init_key           000000000005d988 f   OpensslLib:e_aes.obj
 0001:0005d780       aes_ccm_tls_cipher         000000000005da40 f   OpensslLib:e_aes.obj
 0001:0005d960       aes_ccm_cipher             000000000005dc20 f   OpensslLib:e_aes.obj
 0001:0005db94       aes_wrap_init_key          000000000005de54 f   OpensslLib:e_aes.obj
 0001:0005dc30       aes_wrap_cipher            000000000005def0 f   OpensslLib:e_aes.obj
 0001:0005ddd4       ctr_XOR                    000000000005e094 f   OpensslLib:drbg_ctr.obj
 0001:0005de54       ctr_BCC_block              000000000005e114 f   OpensslLib:drbg_ctr.obj
 0001:0005dec0       ctr_BCC_blocks             000000000005e180 f   OpensslLib:drbg_ctr.obj
 0001:0005df3c       ctr_BCC_update             000000000005e1fc f   OpensslLib:drbg_ctr.obj
 0001:0005e000       ctr_df                     000000000005e2c0 f   OpensslLib:drbg_ctr.obj
 0001:0005e264       ctr_update                 000000000005e524 f   OpensslLib:drbg_ctr.obj
 0001:0005e458       drbg_ctr_instantiate       000000000005e718 f   OpensslLib:drbg_ctr.obj
 0001:0005e550       drbg_ctr_reseed            000000000005e810 f   OpensslLib:drbg_ctr.obj
 0001:0005e5bc       drbg_ctr_generate          000000000005e87c f   OpensslLib:drbg_ctr.obj
 0001:0005e828       drbg_ctr_uninstantiate     000000000005eae8 f   OpensslLib:drbg_ctr.obj
 0001:0005eabc       init                       000000000005ed7c f   OpensslLib:m_sha3.obj
 0001:0005eb3c       sha3_init                  000000000005edfc f   OpensslLib:m_sha3.obj
 0001:0005eb44       shake_init                 000000000005ee04 f   OpensslLib:m_sha3.obj
 0001:0005eb4c       sha3_update                000000000005ee0c f   OpensslLib:m_sha3.obj
 0001:0005ec44       sha3_final                 000000000005ef04 f   OpensslLib:m_sha3.obj
 0001:0005ece8       shake_ctrl                 000000000005efa8 f   OpensslLib:m_sha3.obj
 0001:0005ed08       init                       000000000005efc8 f   OpensslLib:m_sm3.obj
 0001:0005ed64       update                     000000000005f024 f   OpensslLib:m_sm3.obj
 0001:0005ee78       final                      000000000005f138 f   OpensslLib:m_sm3.obj
 0001:0005ee88       init                       000000000005f148 f   OpensslLib:m_md5_sha1.obj
 0001:0005eecc       update                     000000000005f18c f   OpensslLib:m_md5_sha1.obj
 0001:0005ef10       final                      000000000005f1d0 f   OpensslLib:m_md5_sha1.obj
 0001:0005ef48       ctrl                       000000000005f208 f   OpensslLib:m_md5_sha1.obj
 0001:0005f0e8       RandGetBytes               000000000005f3a8 f   OpensslLib:rand_pool.obj
 0001:0005f204       trans_cb                   000000000005f4c4 f   OpensslLib:pmeth_gn.obj
 0001:0005f21c       dh_param_init              000000000005f4dc f   OpensslLib:dh_rfc7919.obj
 0001:0005f2dc       dh_builtin_genparams       000000000005f59c f   OpensslLib:dh_gen.obj
 0001:0005f5c8       rsa_builtin_keygen         000000000005f888 f   OpensslLib:rsa_gen.obj
 0001:0006093c       sm2_sig_gen                0000000000060bfc f   OpensslLib:sm2_sign.obj
 0001:00060be8       sm2_sig_verify             0000000000060ea8 f   OpensslLib:sm2_sign.obj
 0001:00060ff4       ec_field_size              00000000000612b4 f   OpensslLib:sm2_crypt.obj
 0001:000629e0       nist_cp_bn_0               0000000000062ca0 f   OpensslLib:bn_nist.obj
 0001:00064f38       witness                    00000000000651f8 f   OpensslLib:bn_prime.obj
 0001:00065018       probable_prime             00000000000652d8 f   OpensslLib:bn_prime.obj
 0001:000651ac       probable_prime_dh          000000000006546c f   OpensslLib:bn_prime.obj
 0001:0006549c       sc_subx                    000000000006575c f   OpensslLib:scalar.obj
 0001:00065528       sc_montmul                 00000000000657e8 f   OpensslLib:scalar.obj
 0001:000658ec       gf_sqrn                    0000000000065bac f   OpensslLib:f_generic.obj
 0001:00066114       SM4_T_slow                 00000000000663d4 f   OpensslLib:sm4.obj
 0001:00067a28       cfbr_encrypt_block         0000000000067ce8 f   OpensslLib:cfb128.obj
 0001:00067cf4       gcm_gmult_4bit             0000000000067fb4 f   OpensslLib:gcm128.obj
 0001:0006932c       rotnr                      00000000000695ec f   OpensslLib:aria.obj
 0001:000693b4       sl2                        0000000000069674 f   OpensslLib:aria.obj
 0001:00069444       a                          0000000000069704 f   OpensslLib:aria.obj
 0001:000695c0       FO                         0000000000069880 f   OpensslLib:aria.obj
 0001:0006b3d4       crypto_128_unwrap_raw      000000000006b694 f   OpensslLib:wrap128.obj
 0001:0006b810       alg_module_init            000000000006bad0 f   OpensslLib:evp_cnf.obj
 0001:0006b968       stbl_module_init           000000000006bc28 f   OpensslLib:asn_mstbl.obj
 0001:0006ba44       stbl_module_finish         000000000006bd04 f   OpensslLib:asn_mstbl.obj
 0001:0006ba70       do_tcreate                 000000000006bd30 f   OpensslLib:asn_mstbl.obj
 0001:0006bdd4       ssl_module_free            000000000006c094 f   OpensslLib:conf_ssl.obj
 0001:0006be90       ssl_module_init            000000000006c150 f   OpensslLib:conf_ssl.obj
 0001:0006c1ac       oid_module_init            000000000006c46c f   OpensslLib:asn_moid.obj
 0001:0006c3a0       oid_module_finish          000000000006c660 f   OpensslLib:asn_moid.obj
 0001:0006c3a4       Round                      000000000006c664 f   OpensslLib:keccak1600.obj
 0001:0006c774       KeccakF1600                000000000006ca34 f   OpensslLib:keccak1600.obj
 0001:0007279c       QuickSortWorker            0000000000072a5c f   RuntimeCryptLib:CrtWrapper.obj
 0002:00003750       K256                       0000000000076730     OpensslLib:sha256.obj
 0002:00003858       minbits_table              0000000000076838     OpensslLib:x509_vfy.obj
 0002:00003920       X509_CINF_seq_tt           0000000000076900     OpensslLib:x_x509.obj
 0002:00003a60       X509_seq_tt                0000000000076a40     OpensslLib:x_x509.obj
 0002:00003af0       X509_CINF_aux              0000000000076ad0     OpensslLib:x_x509.obj
 0002:00003b18       X509_aux                   0000000000076af8     OpensslLib:x_x509.obj
 0002:00003b70       sha1_md                    0000000000076b50     OpensslLib:m_sha1.obj
 0002:00003bc0       sha224_md                  0000000000076ba0     OpensslLib:m_sha1.obj
 0002:00003c10       sha512_224_md              0000000000076bf0     OpensslLib:m_sha1.obj
 0002:00003c60       sha256_md                  0000000000076c40     OpensslLib:m_sha1.obj
 0002:00003cb0       sha512_md                  0000000000076c90     OpensslLib:m_sha1.obj
 0002:00003d00       sha384_md                  0000000000076ce0     OpensslLib:m_sha1.obj
 0002:00003d50       sha512_256_md              0000000000076d30     OpensslLib:m_sha1.obj
 0002:00003e38       X509_NAME_ENTRIES_item_tt  0000000000076e18     OpensslLib:x_name.obj
 0002:00003e60       X509_NAME_ENTRY_seq_tt     0000000000076e40     OpensslLib:x_name.obj
 0002:00003ed0       X509_NAME_INTERNAL_item_tt 0000000000076eb0     OpensslLib:x_name.obj
 0002:00003ef0       x509_name_ff               0000000000076ed0     OpensslLib:x_name.obj
 0002:00003f28       X509_NAME_INTERNAL_it      0000000000076f08     OpensslLib:x_name.obj
 0002:00003f58       X509_NAME_ENTRIES_it       0000000000076f38     OpensslLib:x_name.obj
 0002:00003f90       md5_md                     0000000000076f70     OpensslLib:m_md5.obj
 0002:00004010       tag2nbyte                  0000000000076ff0     OpensslLib:a_strex.obj
 0002:00004030       char_type                  0000000000077010     OpensslLib:a_strex.obj
 0002:00004130       ?hexdig@?1??do_hex_dump@@9@9 0000000000077110     OpensslLib:a_strex.obj
 0002:00004130       ?hexdig@?1??OPENSSL_buf2hexstr@@9@9 0000000000077110     OpensslLib:o_str.obj
 0002:00004130       ?hex@?1??X509_NAME_oneline@@9@9 0000000000077110     OpensslLib:x509_obj.obj
 0002:00004210       RSAPublicKey_seq_tt        00000000000771f0     OpensslLib:rsa_asn1.obj
 0002:00004250       RSAPublicKey_aux           0000000000077230     OpensslLib:rsa_asn1.obj
 0002:00004280       RSAPrivateKey_seq_tt       0000000000077260     OpensslLib:rsa_asn1.obj
 0002:000043c0       RSAPrivateKey_aux          00000000000773a0     OpensslLib:rsa_asn1.obj
 0002:00004418       RSA_PSS_PARAMS_aux         00000000000773f8     OpensslLib:rsa_asn1.obj
 0002:00004440       RSA_PSS_PARAMS_seq_tt      0000000000077420     OpensslLib:rsa_asn1.obj
 0002:00004520       RSA_PRIME_INFO_seq_tt      0000000000077500     OpensslLib:rsa_asn1.obj
 0002:000045c0       mem_method                 00000000000775a0     OpensslLib:bss_mem.obj
 0002:000048b0       PKCS7_ENVELOPE_seq_tt      0000000000077890     OpensslLib:pk7_asn1.obj
 0002:000049a0       PKCS7_adb                  0000000000077980     OpensslLib:pk7_asn1.obj
 0002:000049d0       PKCS7_SIGNER_INFO_aux      00000000000779b0     OpensslLib:pk7_asn1.obj
 0002:00004a00       PKCS7_SIGNER_INFO_seq_tt   00000000000779e0     OpensslLib:pk7_asn1.obj
 0002:00004b40       PKCS7_ENC_CONTENT_seq_tt   0000000000077b20     OpensslLib:pk7_asn1.obj
 0002:00004c00       PKCS7_adbtbl               0000000000077be0     OpensslLib:pk7_asn1.obj
 0002:00004d20       PKCS7_RECIP_INFO_aux       0000000000077d00     OpensslLib:pk7_asn1.obj
 0002:00004d78       p7default_tt               0000000000077d58     OpensslLib:pk7_asn1.obj
 0002:00004da0       PKCS7_ISSUER_AND_SERIAL_seq_tt 0000000000077d80     OpensslLib:pk7_asn1.obj
 0002:00004de0       PKCS7_SIGN_ENVELOPE_seq_tt 0000000000077dc0     OpensslLib:pk7_asn1.obj
 0002:00004ec0       PKCS7_RECIP_INFO_seq_tt    0000000000077ea0     OpensslLib:pk7_asn1.obj
 0002:00004f70       PKCS7_aux                  0000000000077f50     OpensslLib:pk7_asn1.obj
 0002:00004fd0       PKCS7_SIGNED_seq_tt        0000000000077fb0     OpensslLib:pk7_asn1.obj
 0002:00005090       PKCS7_ATTR_SIGN_item_tt    0000000000078070     OpensslLib:pk7_asn1.obj
 0002:000050b0       PKCS7_DIGEST_seq_tt        0000000000078090     OpensslLib:pk7_asn1.obj
 0002:00005160       PKCS7_ATTR_VERIFY_item_tt  0000000000078140     OpensslLib:pk7_asn1.obj
 0002:00005180       PKCS7_seq_tt               0000000000078160     OpensslLib:pk7_asn1.obj
 0002:000051c0       PKCS7_ENCRYPT_seq_tt       00000000000781a0     OpensslLib:pk7_asn1.obj
 0002:0000d4a0       nid_objs                   0000000000080480     OpensslLib:obj_dat.obj
 0002:00018f60       ln_objs                    000000000008bf40     OpensslLib:obj_dat.obj
 0002:0001a1f0       so                         000000000008d1d0     OpensslLib:obj_dat.obj
 0002:0001c050       obj_objs                   000000000008f030     OpensslLib:obj_dat.obj
 0002:0001d110       sn_objs                    00000000000900f0     OpensslLib:obj_dat.obj
 0002:0001e398       ?const_one@?1??BN_value_one@@9@9 0000000000091378     OpensslLib:bn_lib.obj
 0002:0001e3b0       ?data_one@?1??BN_value_one@@9@9 0000000000091390     OpensslLib:bn_lib.obj
 0002:0001e460       ?max@?1??asn1_time_to_tm@@9@9 0000000000091440     OpensslLib:a_time.obj
 0002:0001e490       ?min@?1??asn1_time_to_tm@@9@9 0000000000091470     OpensslLib:a_time.obj
 0002:0001e4b8       _asn1_mon                  0000000000091498     OpensslLib:a_time.obj
 0002:0001e518       ?ydays@?1??determine_days@@9@9 00000000000914f8     OpensslLib:a_time.obj
 0002:0001e550       ?mdays@?1??asn1_time_to_tm@@9@9 0000000000091530     OpensslLib:a_time.obj
 0002:0001e728       ?supported_nids@?1??X509_supported_extension@@9@9 0000000000091708     OpensslLib:v3_purp.obj
 0002:0001e850       X509_REVOKED_seq_tt        0000000000091830     OpensslLib:x_crl.obj
 0002:0001e8b0       X509_CRL_INFO_seq_tt       0000000000091890     OpensslLib:x_crl.obj
 0002:0001e990       X509_CRL_seq_tt            0000000000091970     OpensslLib:x_crl.obj
 0002:0001e9f0       X509_CRL_INFO_aux          00000000000919d0     OpensslLib:x_crl.obj
 0002:0001ea18       X509_CRL_aux               00000000000919f8     OpensslLib:x_crl.obj
 0002:0001ebc0       OTHERNAME_seq_tt           0000000000091ba0     OpensslLib:v3_genn.obj
 0002:0001ec00       EDIPARTYNAME_seq_tt        0000000000091be0     OpensslLib:v3_genn.obj
 0002:0001ec40       GENERAL_NAMES_item_tt      0000000000091c20     OpensslLib:v3_genn.obj
 0002:0001ecc0       GENERAL_NAME_ch_tt         0000000000091ca0     OpensslLib:v3_genn.obj
 0002:0001ee00       default_table              0000000000091de0     OpensslLib:x509_vpm.obj
 0002:0001f060       X509_PUBKEY_aux            0000000000092040     OpensslLib:x_pubkey.obj
 0002:0001f090       X509_PUBKEY_seq_tt         0000000000092070     OpensslLib:x_pubkey.obj
 0002:0001f150       NAME_CONSTRAINTS_seq_tt    0000000000092130     OpensslLib:v3_ncons.obj
 0002:0001f230       GENERAL_SUBTREE_seq_tt     0000000000092210     OpensslLib:v3_ncons.obj
 0002:0001f390       ctype_char_map             0000000000092370     OpensslLib:ctype.obj
 0002:0001f688       ASN1_SEQUENCE_ANY_item_tt  0000000000092668     OpensslLib:tasn_typ.obj
 0002:0001f798       ASN1_SET_ANY_item_tt       0000000000092778     OpensslLib:tasn_typ.obj
 0002:0001fa10       tag2bit                    00000000000929f0     OpensslLib:tasn_dec.obj
 0002:0001fab0       X509_ALGOR_seq_tt          0000000000092a90     OpensslLib:x_algor.obj
 0002:0001fd98       CRL_DIST_POINTS_item_tt    0000000000092d78     OpensslLib:v3_crld.obj
 0002:0001fdc0       ISSUING_DIST_POINT_seq_tt  0000000000092da0     OpensslLib:v3_crld.obj
 0002:0001ff50       reason_flags               0000000000092f30     OpensslLib:v3_crld.obj
 0002:000200e0       DIST_POINT_NAME_ch_tt      00000000000930c0     OpensslLib:v3_crld.obj
 0002:00020190       DIST_POINT_seq_tt          0000000000093170     OpensslLib:v3_crld.obj
 0002:00020220       DIST_POINT_NAME_aux        0000000000093200     OpensslLib:v3_crld.obj
 0002:00020270       X509_EXTENSION_seq_tt      0000000000093250     OpensslLib:x_exten.obj
 0002:00020340       X509_CERT_AUX_seq_tt       0000000000093320     OpensslLib:x_x509a.obj
 0002:00020450       AUTHORITY_KEYID_seq_tt     0000000000093430     OpensslLib:v3_akeya.obj
 0002:000204e0       X509_VAL_seq_tt            00000000000934c0     OpensslLib:x_val.obj
 0002:00020550       K512                       0000000000093530     OpensslLib:sha512.obj
 0002:000207f0       X509_ATTRIBUTE_seq_tt      00000000000937d0     OpensslLib:x_attrib.obj
 0002:00020860       ?zero_iv@?1??CMAC_Init@@9@9 0000000000093840     OpensslLib:cmac.obj
 0002:00020880       sigoid_srt_xref            0000000000093860     OpensslLib:obj_xref.obj
 0002:000209e0       sigoid_srt                 00000000000939c0     OpensslLib:obj_xref.obj
 0002:00020c40       tbl_standard               0000000000093c20     OpensslLib:a_strnid.obj
 0002:00021020       ?tag2str@?1??ASN1_tag2str@@9@9 0000000000094000     OpensslLib:asn1_par.obj
 0002:00021d80       X509_SIG_seq_tt            0000000000094d60     OpensslLib:x_sig.obj
 0002:00021fb0       X9_62_CURVE_it             0000000000094f90     OpensslLib:ec_asn1.obj
 0002:00021fe0       X9_62_FIELDID_seq_tt       0000000000094fc0     OpensslLib:ec_asn1.obj
 0002:00022020       X9_62_PENTANOMIAL_seq_tt   0000000000095000     OpensslLib:ec_asn1.obj
 0002:00022080       fieldID_def_tt             0000000000095060     OpensslLib:ec_asn1.obj
 0002:000220a0       X9_62_CHARACTERISTIC_TWO_adb 0000000000095080     OpensslLib:ec_asn1.obj
 0002:000220d0       X9_62_CHARACTERISTIC_TWO_seq_tt 00000000000950b0     OpensslLib:ec_asn1.obj
 0002:00022130       ECDSA_SIG_seq_tt           0000000000095110     OpensslLib:ec_asn1.obj
 0002:00022170       ECPARAMETERS_seq_tt        0000000000095150     OpensslLib:ec_asn1.obj
 0002:00022230       ECDSA_SIG_it               0000000000095210     OpensslLib:ec_asn1.obj
 0002:00022260       X9_62_FIELDID_it           0000000000095240     OpensslLib:ec_asn1.obj
 0002:00022290       X9_62_CHARACTERISTIC_TWO_it 0000000000095270     OpensslLib:ec_asn1.obj
 0002:000222c0       ECPKPARAMETERS_ch_tt       00000000000952a0     OpensslLib:ec_asn1.obj
 0002:00022350       EC_PRIVATEKEY_it           0000000000095330     OpensslLib:ec_asn1.obj
 0002:00022380       X9_62_FIELDID_adb          0000000000095360     OpensslLib:ec_asn1.obj
 0002:000223b0       EC_PRIVATEKEY_seq_tt       0000000000095390     OpensslLib:ec_asn1.obj
 0002:00022430       X9_62_CURVE_seq_tt         0000000000095410     OpensslLib:ec_asn1.obj
 0002:00022490       X9_62_PENTANOMIAL_it       0000000000095470     OpensslLib:ec_asn1.obj
 0002:000224c0       X9_62_CHARACTERISTIC_TWO_adbtbl 00000000000954a0     OpensslLib:ec_asn1.obj
 0002:00022538       char_two_def_tt            0000000000095518     OpensslLib:ec_asn1.obj
 0002:00022560       X9_62_FIELDID_adbtbl       0000000000095540     OpensslLib:ec_asn1.obj
 0002:000225d0       Hex                        00000000000955b0     OpensslLib:bn_print.obj
 0002:000226c0       ACCESS_DESCRIPTION_seq_tt  00000000000956a0     OpensslLib:v3_info.obj
 0002:000227d8       AUTHORITY_INFO_ACCESS_item_tt 00000000000957b8     OpensslLib:v3_info.obj
 0002:00022880       PROXY_POLICY_seq_tt        0000000000095860     OpensslLib:v3_pcia.obj
 0002:000228f0       PROXY_CERT_INFO_EXTENSION_seq_tt 00000000000958d0     OpensslLib:v3_pcia.obj
 0002:000229f0       BASIC_CONSTRAINTS_seq_tt   00000000000959d0     OpensslLib:v3_bcons.obj
 0002:00023160       _EC_brainpoolP512t1        0000000000096140     OpensslLib:ec_curve.obj
 0002:000232f0       _EC_WTLS_8                 00000000000962d0     OpensslLib:ec_curve.obj
 0002:00023360       _EC_brainpoolP512r1        0000000000096340     OpensslLib:ec_curve.obj
 0002:000234f0       _EC_X9_62_PRIME_239V3      00000000000964d0     OpensslLib:ec_curve.obj
 0002:000235d0       _EC_SECG_PRIME_224K1       00000000000965b0     OpensslLib:ec_curve.obj
 0002:00023690       _EC_SECG_PRIME_128R2       0000000000096670     OpensslLib:ec_curve.obj
 0002:00023720       _EC_sm2p256v1              0000000000096700     OpensslLib:ec_curve.obj
 0002:000237f0       curve_list                 00000000000967d0     OpensslLib:ec_curve.obj
 0002:00023cf0       _EC_brainpoolP256t1        0000000000096cd0     OpensslLib:ec_curve.obj
 0002:00023dc0       _EC_SECG_PRIME_112R1       0000000000096da0     OpensslLib:ec_curve.obj
 0002:00023e40       _EC_NIST_PRIME_521         0000000000096e20     OpensslLib:ec_curve.obj
 0002:00023ff0       _EC_NIST_PRIME_192         0000000000096fd0     OpensslLib:ec_curve.obj
 0002:000240b0       _EC_NIST_PRIME_384         0000000000097090     OpensslLib:ec_curve.obj
 0002:00024200       _EC_SECG_PRIME_128R1       00000000000971e0     OpensslLib:ec_curve.obj
 0002:00024290       _EC_WTLS_9                 0000000000097270     OpensslLib:ec_curve.obj
 0002:00024320       _EC_SECG_PRIME_160R2       0000000000097300     OpensslLib:ec_curve.obj
 0002:000243d0       _EC_SECG_PRIME_192K1       00000000000973b0     OpensslLib:ec_curve.obj
 0002:00024470       _EC_NIST_PRIME_224         0000000000097450     OpensslLib:ec_curve.obj
 0002:00024540       _EC_brainpoolP160t1        0000000000097520     OpensslLib:ec_curve.obj
 0002:000245d0       _EC_brainpoolP384r1        00000000000975b0     OpensslLib:ec_curve.obj
 0002:00024700       _EC_WTLS_12                00000000000976e0     OpensslLib:ec_curve.obj
 0002:000247c0       _EC_SECG_PRIME_160K1       00000000000977a0     OpensslLib:ec_curve.obj
 0002:00024850       _EC_X9_62_PRIME_239V1      0000000000097830     OpensslLib:ec_curve.obj
 0002:00024930       _EC_brainpoolP160r1        0000000000097910     OpensslLib:ec_curve.obj
 0002:000249c0       _EC_brainpoolP224t1        00000000000979a0     OpensslLib:ec_curve.obj
 0002:00024a80       _EC_X9_62_PRIME_239V2      0000000000097a60     OpensslLib:ec_curve.obj
 0002:00024b60       _EC_X9_62_PRIME_192V2      0000000000097b40     OpensslLib:ec_curve.obj
 0002:00024c20       _EC_SECG_PRIME_256K1       0000000000097c00     OpensslLib:ec_curve.obj
 0002:00024cf0       _EC_brainpoolP224r1        0000000000097cd0     OpensslLib:ec_curve.obj
 0002:00024db0       _EC_SECG_PRIME_112R2       0000000000097d90     OpensslLib:ec_curve.obj
 0002:00024e30       _EC_brainpoolP192r1        0000000000097e10     OpensslLib:ec_curve.obj
 0002:00024ed0       _EC_brainpoolP320t1        0000000000097eb0     OpensslLib:ec_curve.obj
 0002:00024fd0       _EC_brainpoolP320r1        0000000000097fb0     OpensslLib:ec_curve.obj
 0002:000250d0       _EC_SECG_PRIME_160R1       00000000000980b0     OpensslLib:ec_curve.obj
 0002:00025180       _EC_brainpoolP256r1        0000000000098160     OpensslLib:ec_curve.obj
 0002:00025250       _EC_brainpoolP384t1        0000000000098230     OpensslLib:ec_curve.obj
 0002:00025380       _EC_brainpoolP192t1        0000000000098360     OpensslLib:ec_curve.obj
 0002:00025420       _EC_X9_62_PRIME_192V3      0000000000098400     OpensslLib:ec_curve.obj
 0002:000254e0       _EC_X9_62_PRIME_256V1      00000000000984c0     OpensslLib:ec_curve.obj
 0002:000255e0       openssl_ec_key_method      00000000000985c0     OpensslLib:ec_kmeth.obj
 0002:00025770       POLICY_CONSTRAINTS_seq_tt  0000000000098750     OpensslLib:v3_pcons.obj
 0002:000259e8       POLICYQUALINFO_adb         00000000000989c8     OpensslLib:v3_cpols.obj
 0002:00025a20       POLICYQUALINFO_adbtbl      0000000000098a00     OpensslLib:v3_cpols.obj
 0002:00025aa0       POLICYQUALINFO_seq_tt      0000000000098a80     OpensslLib:v3_cpols.obj
 0002:00025ae0       NOTICEREF_seq_tt           0000000000098ac0     OpensslLib:v3_cpols.obj
 0002:00025b20       policydefault_tt           0000000000098b00     OpensslLib:v3_cpols.obj
 0002:00025b40       USERNOTICE_seq_tt          0000000000098b20     OpensslLib:v3_cpols.obj
 0002:00025b80       CERTIFICATEPOLICIES_item_tt 0000000000098b60     OpensslLib:v3_cpols.obj
 0002:00025bd0       POLICYINFO_seq_tt          0000000000098bb0     OpensslLib:v3_cpols.obj
 0002:000275f8       ossl_pers_string           000000000009a5d8     OpensslLib:drbg_lib.obj
 0002:00028430       methods_enc                000000000009b410     OpensslLib:bio_enc.obj
 0002:000284a0       methods_md                 000000000009b480     OpensslLib:bio_md.obj
 0002:00028500       null_method                000000000009b4e0     OpensslLib:bss_null.obj
 0002:000285a0       OCSP_SERVICELOC_seq_tt     000000000009b580     OpensslLib:ocsp_asn.obj
 0002:000285e0       OCSP_CRLID_seq_tt          000000000009b5c0     OpensslLib:ocsp_asn.obj
 0002:00028790       EXTENDED_KEY_USAGE_item_tt 000000000009b770     OpensslLib:v3_extku.obj
 0002:00029630       ADMISSIONS_seq_tt          000000000009c610     OpensslLib:v3_admis.obj
 0002:000296f0       NAMING_AUTHORITY_seq_tt    000000000009c6d0     OpensslLib:v3_admis.obj
 0002:00029750       PROFESSION_INFO_seq_tt     000000000009c730     OpensslLib:v3_admis.obj
 0002:000297f0       ADMISSION_SYNTAX_seq_tt    000000000009c7d0     OpensslLib:v3_admis.obj
 0002:00029a20       PKEY_USAGE_PERIOD_seq_tt   000000000009ca00     OpensslLib:v3_pku.obj
 0002:00029b50       POLICY_MAPPING_seq_tt      000000000009cb30     OpensslLib:v3_pmaps.obj
 0002:00029bf0       POLICY_MAPPINGS_item_tt    000000000009cbd0     OpensslLib:v3_pmaps.obj
 0002:00029cc0       SXNET_seq_tt               000000000009cca0     OpensslLib:v3_sxnet.obj
 0002:00029d30       SXNETID_seq_tt             000000000009cd10     OpensslLib:v3_sxnet.obj
 0002:00029ef0       TLS_FEATURE_it             000000000009ced0     OpensslLib:v3_tlsf.obj
 0002:00029f20       TLS_FEATURE_item_tt        000000000009cf00     OpensslLib:v3_tlsf.obj
 0002:0002a070       ?tnst@?1??asn1_str2tag@@9@9 000000000009d050     OpensslLib:asn1_gen.obj
 0002:0002a380       null_md                    000000000009d360     OpensslLib:m_null.obj
 0002:0002a3e0       ?order@?1??c448_ed448_verify@@9@9 000000000009d3c0     OpensslLib:eddsa.obj
 0002:0002a420       ?zero@?1??fe_isnonzero@@9@9 000000000009d400     OpensslLib:curve25519.obj
 0002:0002a440       d                          000000000009d420     OpensslLib:curve25519.obj
 0002:0002a468       d2                         000000000009d448     OpensslLib:curve25519.obj
 0002:0002a490       k25519Precomp              000000000009d470     OpensslLib:curve25519.obj
 0002:00031c90       sqrtm1                     00000000000a4c70     OpensslLib:curve25519.obj
 0002:00031cb8       ?kZeros@?1??X25519@@9@9    00000000000a4c98     OpensslLib:curve25519.obj
 0002:00031ce0       Bi                         00000000000a4cc0     OpensslLib:curve25519.obj
 0002:000320e0       ONE                        00000000000a50c0     OpensslLib:curve448.obj
 0002:00032120       precomputed_scalarmul_adjustment 00000000000a5100     OpensslLib:curve448.obj
 0002:00032260       ZERO                       00000000000a5240     OpensslLib:curve448.obj
 0002:000323d0       DHvparams_it               00000000000a53b0     OpensslLib:dh_asn1.obj
 0002:00032400       DHxparams_seq_tt           00000000000a53e0     OpensslLib:dh_asn1.obj
 0002:000324d0       DHparams_seq_tt            00000000000a54b0     OpensslLib:dh_asn1.obj
 0002:00032530       DHvparams_seq_tt           00000000000a5510     OpensslLib:dh_asn1.obj
 0002:00032570       DHparams_aux               00000000000a5550     OpensslLib:dh_asn1.obj
 0002:00032598       DHxparams_it               00000000000a5578     OpensslLib:dh_asn1.obj
 0002:000325c8       ?dummy_key@?1??HMAC@@9@9   00000000000a55a8     OpensslLib:hmac.obj
 0002:000325d0       sm4_ecb                    00000000000a55b0     OpensslLib:e_sm4.obj
 0002:00032630       sm4_ctr_mode               00000000000a5610     OpensslLib:e_sm4.obj
 0002:00032690       sm4_cfb128                 00000000000a5670     OpensslLib:e_sm4.obj
 0002:000326f0       sm4_cbc                    00000000000a56d0     OpensslLib:e_sm4.obj
 0002:00032750       sm4_ofb                    00000000000a5730     OpensslLib:e_sm4.obj
 0002:000327b0       aria_256_ctr               00000000000a5790     OpensslLib:e_aria.obj
 0002:00032810       aria_192_ofb               00000000000a57f0     OpensslLib:e_aria.obj
 0002:00032870       aria_128_cbc               00000000000a5850     OpensslLib:e_aria.obj
 0002:000328d0       aria_192_ccm               00000000000a58b0     OpensslLib:e_aria.obj
 0002:00032930       aria_128_ofb               00000000000a5910     OpensslLib:e_aria.obj
 0002:00032990       aria_128_gcm               00000000000a5970     OpensslLib:e_aria.obj
 0002:000329f0       aria_192_cfb8              00000000000a59d0     OpensslLib:e_aria.obj
 0002:00032a50       aria_256_cbc               00000000000a5a30     OpensslLib:e_aria.obj
 0002:00032ab0       aria_192_cfb1              00000000000a5a90     OpensslLib:e_aria.obj
 0002:00032b10       aria_128_ecb               00000000000a5af0     OpensslLib:e_aria.obj
 0002:00032b70       aria_256_ecb               00000000000a5b50     OpensslLib:e_aria.obj
 0002:00032bd0       aria_192_ecb               00000000000a5bb0     OpensslLib:e_aria.obj
 0002:00032c30       aria_128_cfb1              00000000000a5c10     OpensslLib:e_aria.obj
 0002:00032c90       aria_256_cfb8              00000000000a5c70     OpensslLib:e_aria.obj
 0002:00032cf0       aria_256_gcm               00000000000a5cd0     OpensslLib:e_aria.obj
 0002:00032d50       aria_256_cfb1              00000000000a5d30     OpensslLib:e_aria.obj
 0002:00032db0       aria_128_cfb128            00000000000a5d90     OpensslLib:e_aria.obj
 0002:00032e10       aria_256_cfb128            00000000000a5df0     OpensslLib:e_aria.obj
 0002:00032e70       aria_128_ctr               00000000000a5e50     OpensslLib:e_aria.obj
 0002:00032ed0       aria_128_cfb8              00000000000a5eb0     OpensslLib:e_aria.obj
 0002:00032f30       aria_192_cfb128            00000000000a5f10     OpensslLib:e_aria.obj
 0002:00032f90       aria_192_cbc               00000000000a5f70     OpensslLib:e_aria.obj
 0002:00032ff0       aria_192_ctr               00000000000a5fd0     OpensslLib:e_aria.obj
 0002:00033050       aria_128_ccm               00000000000a6030     OpensslLib:e_aria.obj
 0002:000330b0       aria_256_ofb               00000000000a6090     OpensslLib:e_aria.obj
 0002:00033110       aria_256_ccm               00000000000a60f0     OpensslLib:e_aria.obj
 0002:00033170       aria_192_gcm               00000000000a6150     OpensslLib:e_aria.obj
 0002:000331d0       aes_192_ecb                00000000000a61b0     OpensslLib:e_aes.obj
 0002:00033230       aes_192_ccm                00000000000a6210     OpensslLib:e_aes.obj
 0002:00033290       aes_192_ctr                00000000000a6270     OpensslLib:e_aes.obj
 0002:000332f0       aes_128_ofb                00000000000a62d0     OpensslLib:e_aes.obj
 0002:00033350       aes_256_ccm                00000000000a6330     OpensslLib:e_aes.obj
 0002:000333b0       aes_192_gcm                00000000000a6390     OpensslLib:e_aes.obj
 0002:00033410       aes_128_wrap_pad           00000000000a63f0     OpensslLib:e_aes.obj
 0002:00033470       aes_256_ctr                00000000000a6450     OpensslLib:e_aes.obj
 0002:000334d0       aes_192_cfb8               00000000000a64b0     OpensslLib:e_aes.obj
 0002:00033530       aes_192_cfb                00000000000a6510     OpensslLib:e_aes.obj
 0002:00033590       aes_256_gcm                00000000000a6570     OpensslLib:e_aes.obj
 0002:000335f0       aes_128_gcm                00000000000a65d0     OpensslLib:e_aes.obj
 0002:00033650       aes_128_cfb1               00000000000a6630     OpensslLib:e_aes.obj
 0002:000336b0       aes_192_cbc                00000000000a6690     OpensslLib:e_aes.obj
 0002:00033710       aes_128_xts                00000000000a66f0     OpensslLib:e_aes.obj
 0002:00033770       aes_128_ctr                00000000000a6750     OpensslLib:e_aes.obj
 0002:000337d0       aes_256_wrap               00000000000a67b0     OpensslLib:e_aes.obj
 0002:00033830       aes_256_cbc                00000000000a6810     OpensslLib:e_aes.obj
 0002:00033890       aes_192_ofb                00000000000a6870     OpensslLib:e_aes.obj
 0002:000338f0       aes_256_wrap_pad           00000000000a68d0     OpensslLib:e_aes.obj
 0002:00033950       aes_128_ecb                00000000000a6930     OpensslLib:e_aes.obj
 0002:000339b0       aes_256_ofb                00000000000a6990     OpensslLib:e_aes.obj
 0002:00033a10       aes_256_cfb                00000000000a69f0     OpensslLib:e_aes.obj
 0002:00033a70       aes_128_wrap               00000000000a6a50     OpensslLib:e_aes.obj
 0002:00033ad0       aes_256_cfb1               00000000000a6ab0     OpensslLib:e_aes.obj
 0002:00033b30       aes_128_cbc                00000000000a6b10     OpensslLib:e_aes.obj
 0002:00033b90       aes_192_wrap_pad           00000000000a6b70     OpensslLib:e_aes.obj
 0002:00033bf0       aes_256_cfb8               00000000000a6bd0     OpensslLib:e_aes.obj
 0002:00033c50       aes_128_cfb8               00000000000a6c30     OpensslLib:e_aes.obj
 0002:00033cb0       aes_256_ecb                00000000000a6c90     OpensslLib:e_aes.obj
 0002:00033d10       aes_256_xts                00000000000a6cf0     OpensslLib:e_aes.obj
 0002:00033d70       aes_128_cfb                00000000000a6d50     OpensslLib:e_aes.obj
 0002:00033dd0       aes_192_wrap               00000000000a6db0     OpensslLib:e_aes.obj
 0002:00033e30       aes_192_cfb1               00000000000a6e10     OpensslLib:e_aes.obj
 0002:00033e90       aes_128_ccm                00000000000a6e70     OpensslLib:e_aes.obj
 0002:00033ee8       ?df_key@?3??drbg_ctr_init@@9@9 00000000000a6ec8     OpensslLib:drbg_ctr.obj
 0002:00033f10       ?shake128_md@?1??EVP_shake128@@9@9 00000000000a6ef0     OpensslLib:m_sha3.obj
 0002:00033f60       ?shake256_md@?1??EVP_shake256@@9@9 00000000000a6f40     OpensslLib:m_sha3.obj
 0002:00033fb0       ?sha3_224_md@?1??EVP_sha3_224@@9@9 00000000000a6f90     OpensslLib:m_sha3.obj
 0002:00034000       ?sha3_384_md@?1??EVP_sha3_384@@9@9 00000000000a6fe0     OpensslLib:m_sha3.obj
 0002:00034050       ?sha3_256_md@?1??EVP_sha3_256@@9@9 00000000000a7030     OpensslLib:m_sha3.obj
 0002:000340a0       ?sha3_512_md@?1??EVP_sha3_512@@9@9 00000000000a7080     OpensslLib:m_sha3.obj
 0002:000340f0       sm3_md                     00000000000a70d0     OpensslLib:m_sm3.obj
 0002:00034140       md5_sha1_md                00000000000a7120     OpensslLib:m_md5_sha1.obj
 0002:00034250       zeroes                     00000000000a7230     OpensslLib:rsa_pss.obj
 0002:00034280       SM2_Ciphertext_seq_tt      00000000000a7260     OpensslLib:sm2_crypt.obj
 0002:00034330       ?ret@?1??EC_GFp_nist_method@@9@9 00000000000a7310     OpensslLib:ecp_nist.obj
 0002:000344e0       _nist_p_256                00000000000a74c0     OpensslLib:bn_nist.obj
 0002:00034580       ?_bignum_nist_p_256_sqr@?1??BN_nist_mod_256@@9@9 00000000000a7560     OpensslLib:bn_nist.obj
 0002:000345a0       _nist_p_521                00000000000a7580     OpensslLib:bn_nist.obj
 0002:000345e8       _nist_p_192_sqr            00000000000a75c8     OpensslLib:bn_nist.obj
 0002:00034618       _nist_p_224_sqr            00000000000a75f8     OpensslLib:bn_nist.obj
 0002:00034650       _bignum_nist_p_521         00000000000a7630     OpensslLib:bn_nist.obj
 0002:00034668       _bignum_nist_p_256         00000000000a7648     OpensslLib:bn_nist.obj
 0002:00034680       _bignum_nist_p_384         00000000000a7660     OpensslLib:bn_nist.obj
 0002:00034698       ?_bignum_nist_p_521_sqr@?1??BN_nist_mod_521@@9@9 00000000000a7678     OpensslLib:bn_nist.obj
 0002:000346b0       _nist_p_384_sqr            00000000000a7690     OpensslLib:bn_nist.obj
 0002:00034710       ?_bignum_nist_p_224_sqr@?1??BN_nist_mod_224@@9@9 00000000000a76f0     OpensslLib:bn_nist.obj
 0002:00034730       _nist_p_224                00000000000a7710     OpensslLib:bn_nist.obj
 0002:00034770       ?_bignum_nist_p_384_sqr@?1??BN_nist_mod_384@@9@9 00000000000a7750     OpensslLib:bn_nist.obj
 0002:00034788       ?_bignum_nist_p_192_sqr@?1??BN_nist_mod_192@@9@9 00000000000a7768     OpensslLib:bn_nist.obj
 0002:000347a0       _nist_p_521_sqr            00000000000a7780     OpensslLib:bn_nist.obj
 0002:00034830       _nist_p_256_sqr            00000000000a7810     OpensslLib:bn_nist.obj
 0002:00034870       _bignum_nist_p_224         00000000000a7850     OpensslLib:bn_nist.obj
 0002:00034888       _bignum_nist_p_192         00000000000a7868     OpensslLib:bn_nist.obj
 0002:000348a0       _nist_p_384                00000000000a7880     OpensslLib:bn_nist.obj
 0002:00034990       _nist_p_192                00000000000a7970     OpensslLib:bn_nist.obj
 0002:000349e0       ?ret@?1??EC_GFp_mont_method@@9@9 00000000000a79c0     OpensslLib:ecp_mont.obj
 0002:00034b90       ?tab@?1??BN_kronecker@@9@9 00000000000a7b70     OpensslLib:bn_kron.obj
 0002:00034bb0       primes                     00000000000a7b90     OpensslLib:bn_prime.obj
 0002:00035bb0       sc_p                       00000000000a8b90     OpensslLib:scalar.obj
 0002:00035c30       sc_r2                      00000000000a8c10     OpensslLib:scalar.obj
 0002:00035cb0       curve448_wnaf_base_table   00000000000a8c90     OpensslLib:curve448_tables.obj
 0002:000374b0       curve448_precomputed_base_table 00000000000aa490     OpensslLib:curve448_tables.obj
 0002:0003b0b0       MODULUS                    00000000000ae090     OpensslLib:f_generic.obj
 0002:0003b0f0       ONE                        00000000000ae0d0     OpensslLib:f_generic.obj
 0002:0003b130       ?CK@?1??SM4_set_key@@9@9   00000000000ae110     OpensslLib:sm4.obj
 0002:0003b1b0       SM4_S                      00000000000ae190     OpensslLib:sm4.obj
 0002:0003b2b0       SM4_SBOX_T                 00000000000ae290     OpensslLib:sm4.obj
 0002:0003b6b0       rem_4bit                   00000000000ae690     OpensslLib:gcm128.obj
 0002:0003b730       sb4                        00000000000ae710     OpensslLib:aria.obj
 0002:0003b830       c3                         00000000000ae810     OpensslLib:aria.obj
 0002:0003b840       Td4                        00000000000ae820     OpensslLib:aes_core.obj
 0002:0003b840       sb3                        00000000000ae820     OpensslLib:aria.obj
 0002:0003b940       c2                         00000000000ae920     OpensslLib:aria.obj
 0002:0003b950       c1                         00000000000ae930     OpensslLib:aria.obj
 0002:0003b960       sb2                        00000000000ae940     OpensslLib:aria.obj
 0002:0003ba60       sb1                        00000000000aea40     OpensslLib:aria.obj
 0002:0003bb60       Td2                        00000000000aeb40     OpensslLib:aes_core.obj
 0002:0003bf60       Td1                        00000000000aef40     OpensslLib:aes_core.obj
 0002:0003c360       Td0                        00000000000af340     OpensslLib:aes_core.obj
 0002:0003c760       Te0                        00000000000af740     OpensslLib:aes_core.obj
 0002:0003cb60       rcon                       00000000000afb40     OpensslLib:aes_core.obj
 0002:0003cb90       Te3                        00000000000afb70     OpensslLib:aes_core.obj
 0002:0003cf90       Te2                        00000000000aff70     OpensslLib:aes_core.obj
 0002:0003d390       Td3                        00000000000b0370     OpensslLib:aes_core.obj
 0002:0003d790       Te1                        00000000000b0770     OpensslLib:aes_core.obj
 0002:0003db90       default_aiv                00000000000b0b70     OpensslLib:wrap128.obj
 0002:0003db98       default_iv                 00000000000b0b78     OpensslLib:wrap128.obj
 0002:0003dc20       iotas                      00000000000b0c00     OpensslLib:keccak1600.obj
 0002:0003de50       dh1024_160_g               00000000000b0e30     OpensslLib:bn_dh.obj
 0002:0003ded0       ffdhe4096_p                00000000000b0eb0     OpensslLib:bn_dh.obj
 0002:0003e0d0       dh2048_256_q               00000000000b10b0     OpensslLib:bn_dh.obj
 0002:0003e0f0       ffdhe3072_p                00000000000b10d0     OpensslLib:bn_dh.obj
 0002:0003e270       dh2048_256_p               00000000000b1250     OpensslLib:bn_dh.obj
 0002:0003e370       dh2048_256_g               00000000000b1350     OpensslLib:bn_dh.obj
 0002:0003e470       dh2048_224_g               00000000000b1450     OpensslLib:bn_dh.obj
 0002:0003e570       value_2                    00000000000b1550     OpensslLib:bn_dh.obj
 0002:0003e578       dh2048_224_q               00000000000b1558     OpensslLib:bn_dh.obj
 0002:0003e598       dh1024_160_q               00000000000b1578     OpensslLib:bn_dh.obj
 0002:0003e5b0       dh2048_224_p               00000000000b1590     OpensslLib:bn_dh.obj
 0002:0003e6b0       ffdhe8192_p                00000000000b1690     OpensslLib:bn_dh.obj
 0002:0003eab0       ffdhe2048_p                00000000000b1a90     OpensslLib:bn_dh.obj
 0002:0003ebb0       ffdhe6144_p                00000000000b1b90     OpensslLib:bn_dh.obj
 0002:0003eeb0       dh1024_160_p               00000000000b1e90     OpensslLib:bn_dh.obj
 0002:0003f1f0       allzeroes                  00000000000b21d0     OpensslLib:curve25519.obj
 0003:00000cc4       allow_customize            00000000000b35e4     OpensslLib:mem.obj
 0003:00000cc8       new_nid                    00000000000b35e8     OpensslLib:obj_dat.obj
 0003:00000cd0       memset_func                00000000000b35f0     OpensslLib:mem_clr.obj
 0003:00000ce0       xstandard                  00000000000b3600     OpensslLib:v3_purp.obj
 0003:00000e90       int_crl_meth               00000000000b37b0     OpensslLib:x_crl.obj
 0003:00000ec0       trstandard                 00000000000b37e0     OpensslLib:x509_trs.obj
 0003:00001000       standard_methods           00000000000b3920     OpensslLib:ameth_lib.obj
 0003:00001070       destructor_key             00000000000b3990     OpensslLib:init.obj
 0003:00001080       standard_methods           00000000000b39a0     OpensslLib:pmeth_lib.obj
 0003:00001100       bignum_pf                  00000000000b3a20     OpensslLib:x_bignum.obj
 0003:00001140       cbignum_pf                 00000000000b3a60     OpensslLib:x_bignum.obj
 0003:00001180       uint32_pf                  00000000000b3aa0     OpensslLib:x_int64.obj
 0003:000011c0       rsa_pkcs1_ossl_meth        00000000000b3ae0     OpensslLib:rsa_ossl.obj
 0003:00001240       standard_exts              00000000000b3b60     OpensslLib:v3_lib.obj
 0003:00001390       nist_curves                00000000000b3cb0     OpensslLib:ec_curve.obj
 0003:00001480       dh_ossl                    00000000000b3da0     OpensslLib:dh_key.obj
 0003:00001500       key_usage_type_table       00000000000b3e20     OpensslLib:v3_bitst.obj
 0003:000015f0       ns_cert_type_table         00000000000b3f10     OpensslLib:v3_bitst.obj
 0003:000016d0       crl_reasons                00000000000b3ff0     OpensslLib:v3_enum.obj
 0003:000017e0       tls_feature_tbl            00000000000b4100     OpensslLib:v3_tlsf.obj
 0003:00001800       drbg_ctr_meth              00000000000b4120     OpensslLib:drbg_ctr.obj
 0003:00001820       ?c80@?1??ctr_df@@9@9       00000000000b4140     OpensslLib:drbg_ctr.obj
 0003:000018d8       mInterfaceLocked           00000000000b41f8     VariablePolicyLibRuntimeDxe:VariablePolicyLib.obj
 0003:000018dc       mCurrentTableUsage         00000000000b41fc     VariablePolicyLibRuntimeDxe:VariablePolicyLib.obj
 0003:000018e8       mCurrentTableSize          00000000000b4208     VariablePolicyLibRuntimeDxe:VariablePolicyLib.obj
 0003:000018ec       mProtectionDisabled        00000000000b420c     VariablePolicyLibRuntimeDxe:VariablePolicyLib.obj
 0003:000018f0       mCurrentTableCount         00000000000b4210     VariablePolicyLibRuntimeDxe:VariablePolicyLib.obj
 0003:000018f8       mVariablePolicyLibVirtualAddressChangeEvent 00000000000b4218     VariablePolicyLibRuntimeDxe:VariablePolicyExtraInitRuntimeDxe.obj
 0003:00001998       names_lh                   00000000000b42b8     OpensslLib:o_names.obj
 0003:000019a0       init                       00000000000b42c0     OpensslLib:o_names.obj
 0003:000019a8       obj_lock                   00000000000b42c8     OpensslLib:o_names.obj
 0003:000019b0       o_names_init_ossl_ret_     00000000000b42d0     OpensslLib:o_names.obj
 0003:000019b8       added                      00000000000b42d8     OpensslLib:obj_dat.obj
 0003:000019c0       err_init                   00000000000b42e0     OpensslLib:err.obj
 0003:000019c4       err_do_init_ossl_ret_      00000000000b42e4     OpensslLib:err.obj
 0003:000019c8       xptable                    00000000000b42e8     OpensslLib:v3_purp.obj
 0003:000019d0       param_table                00000000000b42f0     OpensslLib:x509_vpm.obj
 0003:000019d8       trtable                    00000000000b42f8     OpensslLib:x509_trs.obj
 0003:000019e0       ex_data_lock               00000000000b4300     OpensslLib:ex_data.obj
 0003:000019e8       do_ex_data_init_ossl_ret_  00000000000b4308     OpensslLib:ex_data.obj
 0003:000019ec       ex_data_init               00000000000b430c     OpensslLib:ex_data.obj
 0003:000019f0       app_methods                00000000000b4310     OpensslLib:ameth_lib.obj
 0003:000019f8       ?thread_local_key@?1??CRYPTO_THREAD_init_local@@9@9 00000000000b4318     OpensslLib:threads_none.obj
 0003:000019fc       add_all_digests            00000000000b431c     OpensslLib:init.obj
 0003:00001a00       ossl_init_load_crypto_strings_ossl_ret_ 00000000000b4320     OpensslLib:init.obj
 0003:00001a04       ossl_init_base_ossl_ret_   00000000000b4324     OpensslLib:init.obj
 0003:00001a08       ossl_init_config_ossl_ret_ 00000000000b4328     OpensslLib:init.obj
 0003:00001a10       init_lock                  00000000000b4330     OpensslLib:init.obj
 0003:00001a18       register_atexit            00000000000b4338     OpensslLib:init.obj
 0003:00001a20       conf_settings              00000000000b4340     OpensslLib:init.obj
 0003:00001a28       ossl_init_async_ossl_ret_  00000000000b4348     OpensslLib:init.obj
 0003:00001a2c       ossl_init_zlib_ossl_ret_   00000000000b434c     OpensslLib:init.obj
 0003:00001a30       zlib                       00000000000b4350     OpensslLib:init.obj
 0003:00001a34       ossl_init_register_atexit_ossl_ret_ 00000000000b4354     OpensslLib:init.obj
 0003:00001a38       add_all_ciphers            00000000000b4358     OpensslLib:init.obj
 0003:00001a3c       ossl_init_load_crypto_nodelete_ossl_ret_ 00000000000b435c     OpensslLib:init.obj
 0003:00001a40       config                     00000000000b4360     OpensslLib:init.obj
 0003:00001a44       load_crypto_nodelete       00000000000b4364     OpensslLib:init.obj
 0003:00001a48       async                      00000000000b4368     OpensslLib:init.obj
 0003:00001a4c       ossl_init_add_all_ciphers_ossl_ret_ 00000000000b436c     OpensslLib:init.obj
 0003:00001a50       stopped                    00000000000b4370     OpensslLib:init.obj
 0003:00001a54       load_crypto_strings        00000000000b4374     OpensslLib:init.obj
 0003:00001a58       ossl_init_add_all_digests_ossl_ret_ 00000000000b4378     OpensslLib:init.obj
 0003:00001a5c       base                       00000000000b437c     OpensslLib:init.obj
 0003:00001a60       app_pkey_methods           00000000000b4380     OpensslLib:pmeth_lib.obj
 0003:00001a68       stable                     00000000000b4388     OpensslLib:a_strnid.obj
 0003:00001a70       supported_modules          00000000000b4390     OpensslLib:conf_mod.obj
 0003:00001a78       ext_list                   00000000000b4398     OpensslLib:v3_lib.obj
 0003:00001a80       openssl_configured         00000000000b43a0     OpensslLib:conf_sap.obj
 0003:00001a84       do_rand_drbg_init_ossl_ret_ 00000000000b43a4     OpensslLib:drbg_lib.obj
 0003:00001a88       rand_drbg_init             00000000000b43a8     OpensslLib:drbg_lib.obj
 0003:00001a8c       rand_drbg_flags            00000000000b43ac     OpensslLib:drbg_lib.obj
 0003:00001a90       rand_init                  00000000000b43b0     OpensslLib:rand_lib.obj
 0003:00001a94       do_rand_init_ossl_ret_     00000000000b43b4     OpensslLib:rand_lib.obj
 0003:00001a98       ?zeros@?1??CRYPTO_128_unwrap_pad@@9@9 00000000000b43b8     OpensslLib:wrap128.obj
 0003:00001ab0       ?Reclaimed@?1??ReclaimForOS@@9@9 00000000000b43d0     VariableRuntimeDxe:Variable.obj
 0003:00001ab1       mRunningOnQ35              00000000000b43d1     DxePciLibI440FxQ35:PciLib.obj
 0003:00001ab4       mAcpiTimerIoAddr           00000000000b43d4     DxeAcpiTimerLib:DxeAcpiTimerLib.obj
 0003:00001ab8       mVirtualAddressChangeEvent 00000000000b43d8     RuntimeCryptLib:RuntimeMemAllocation.obj
 0003:00001ac0       free_type                  00000000000b43e0     OpensslLib:o_names.obj
 0003:00001ac4       err_thread_local           00000000000b43e4     OpensslLib:err.obj
 0003:00001ac8       name_funcs_stack           00000000000b43e8     OpensslLib:o_names.obj
 0003:00001ad0       ?nilbn@?1??bn_init@@9@9    00000000000b43f0     OpensslLib:bn_lib.obj
 0003:00001ae8       err_string_lock            00000000000b4408     OpensslLib:err.obj
 0003:00001af0       ex_data                    00000000000b4410     OpensslLib:ex_data.obj
 0003:00001b70       ?m@?1??SHA512@@9@9         00000000000b4490     OpensslLib:sha512.obj
 0003:00001bb0       thread_local_storage       00000000000b44d0     OpensslLib:threads_none.obj
 0003:000023b0       pbe_algs                   00000000000b4cd0     OpensslLib:evp_pbe.obj
 0003:000023b8       sigx_app                   00000000000b4cd8     OpensslLib:obj_xref.obj
 0003:000023c0       sig_app                    00000000000b4ce0     OpensslLib:obj_xref.obj
 0003:000023c8       ctxkey                     00000000000b4ce8     OpensslLib:async.obj
 0003:000023cc       poolkey                    00000000000b4cec     OpensslLib:async.obj
 0003:000023d0       private_drbg               00000000000b4cf0     OpensslLib:drbg_lib.obj
 0003:000023d4       public_drbg                00000000000b4cf4     OpensslLib:drbg_lib.obj
 0003:000023d8       master_drbg                00000000000b4cf8     OpensslLib:drbg_lib.obj
 0003:000023e0       rand_nonce_count           00000000000b4d00     OpensslLib:rand_lib.obj
 0003:000023e8       default_RAND_meth          00000000000b4d08     OpensslLib:rand_lib.obj
 0003:000023f0       rand_nonce_lock            00000000000b4d10     OpensslLib:rand_lib.obj
 0003:000023f8       rand_meth_lock             00000000000b4d18     OpensslLib:rand_lib.obj
 0003:00002400       ?tntmp@?1??asn1_str2tag@@9@9 00000000000b4d20     OpensslLib:asn1_gen.obj
 0003:00002408       ssl_names_count            00000000000b4d28     OpensslLib:conf_ssl.obj
 0003:00002410       ?m@?1??HMAC@@9@9           00000000000b4d30     OpensslLib:hmac.obj
 0003:00002450       ssl_names                  00000000000b4d70     OpensslLib:conf_ssl.obj
 0005:00000000       $unwind$X509ConstructCertificate 00000000000b8fe0     RuntimeCryptLib:CryptX509.obj
 0005:00000000       $unwind$ASN1_INTEGER_cmp   00000000000b8fe0     OpensslLib:a_int.obj
 0005:00000000       $unwind$cpy_utf8           00000000000b8fe0     OpensslLib:a_mbstr.obj
 0005:00000000       $unwind$out_utf8           00000000000b8fe0     OpensslLib:a_mbstr.obj
 0005:00000000       $unwind$send_bio_chars     00000000000b8fe0     OpensslLib:a_strex.obj
 0005:00000000       $unwind$ASN1_item_new      00000000000b8fe0     OpensslLib:tasn_new.obj
 0005:00000000       $unwind$bn_free            00000000000b8fe0     OpensslLib:x_bignum.obj
 0005:00000000       $unwind$bn_new             00000000000b8fe0     OpensslLib:x_bignum.obj
 0005:00000000       $unwind$bn_secure_new      00000000000b8fe0     OpensslLib:x_bignum.obj
 0005:00000000       $unwind$BIO_push           00000000000b8fe0     OpensslLib:bio_lib.obj
 0005:00000000       $unwind$bread_conv         00000000000b8fe0     OpensslLib:bio_meth.obj
 0005:00000000       $unwind$bwrite_conv        00000000000b8fe0     OpensslLib:bio_meth.obj
 0005:00000000       $unwind$mem_buf_sync       00000000000b8fe0     OpensslLib:bss_mem.obj
 0005:00000000       $unwind$mem_free           00000000000b8fe0     OpensslLib:bss_mem.obj
 0005:00000000       $unwind$mem_gets           00000000000b8fe0     OpensslLib:bss_mem.obj
 0005:00000000       $unwind$bn_free_d          00000000000b8fe0     OpensslLib:bn_lib.obj
 0005:00000000       $unwind$nist_cp_bn_0       00000000000b8fe0     OpensslLib:bn_nist.obj
 0005:00000000       $unwind$pkey_cmac_init     00000000000b8fe0     OpensslLib:cm_pmeth.obj
 0005:00000000       $unwind$dh_cb              00000000000b8fe0     OpensslLib:dh_asn1.obj
 0005:00000000       $unwind$pkey_dh_cleanup    00000000000b8fe0     OpensslLib:dh_pmeth.obj
 0005:00000000       $unwind$ec_cmp_parameters  00000000000b8fe0     OpensslLib:ec_ameth.obj
 0005:00000000       $unwind$ec_GFp_mont_group_clear_finish 00000000000b8fe0     OpensslLib:ecp_mont.obj
 0005:00000000       $unwind$ec_GFp_mont_group_finish 00000000000b8fe0     OpensslLib:ecp_mont.obj
 0005:00000000       $unwind$ec_GFp_mont_group_init 00000000000b8fe0     OpensslLib:ecp_mont.obj
 0005:00000000       $unwind$ec_GFp_simple_group_clear_finish 00000000000b8fe0     OpensslLib:ecp_smpl.obj
 0005:00000000       $unwind$ec_GFp_simple_group_finish 00000000000b8fe0     OpensslLib:ecp_smpl.obj
 0005:00000000       $unwind$ec_GFp_simple_group_init 00000000000b8fe0     OpensslLib:ecp_smpl.obj
 0005:00000000       $unwind$ec_GFp_simple_point_clear_finish 00000000000b8fe0     OpensslLib:ecp_smpl.obj
 0005:00000000       $unwind$ec_GFp_simple_point_finish 00000000000b8fe0     OpensslLib:ecp_smpl.obj
 0005:00000000       $unwind$ec_GFp_simple_point_init 00000000000b8fe0     OpensslLib:ecp_smpl.obj
 0005:00000000       $unwind$ecd_item_sign25519 00000000000b8fe0     OpensslLib:ecx_meth.obj
 0005:00000000       $unwind$ecd_item_sign448   00000000000b8fe0     OpensslLib:ecx_meth.obj
 0005:00000000       $unwind$err_clear_last_constant_time 00000000000b8fe0     OpensslLib:err.obj
 0005:00000000       $unwind$err_set_error_data_int 00000000000b8fe0     OpensslLib:err.obj
 0005:00000000       $unwind$md_new             00000000000b8fe0     OpensslLib:bio_md.obj
 0005:00000000       $unwind$openssl_add_all_ciphers_int 00000000000b8fe0     OpensslLib:c_allc.obj
 0005:00000000       $unwind$EVP_MD_CTX_reset   00000000000b8fe0     OpensslLib:digest.obj
 0005:00000000       $unwind$EVP_CIPHER_CTX_reset 00000000000b8fe0     OpensslLib:evp_enc.obj
 0005:00000000       $unwind$init               00000000000b8fe0     OpensslLib:m_md5.obj
 0005:00000000       $unwind$init               00000000000b8fe0     OpensslLib:m_md5_sha1.obj
 0005:00000000       $unwind$EVP_add_cipher     00000000000b8fe0     OpensslLib:names.obj
 0005:00000000       $unwind$EVP_get_cipherbyname 00000000000b8fe0     OpensslLib:names.obj
 0005:00000000       $unwind$EVP_get_digestbyname 00000000000b8fe0     OpensslLib:names.obj
 0005:00000000       $unwind$do_ex_data_init_ossl_ 00000000000b8fe0     OpensslLib:ex_data.obj
 0005:00000000       $unwind$hmac_key_free      00000000000b8fe0     OpensslLib:hm_ameth.obj
 0005:00000000       $unwind$pkey_hmac_keygen   00000000000b8fe0     OpensslLib:hm_pmeth.obj
 0005:00000000       $unwind$HMAC_CTX_new       00000000000b8fe0     OpensslLib:hmac.obj
 0005:00000000       $unwind$hmac_ctx_cleanup   00000000000b8fe0     OpensslLib:hmac.obj
 0005:00000000       $unwind$ossl_init_thread_start 00000000000b8fe0     OpensslLib:init.obj
 0005:00000000       $unwind$OPENSSL_LH_retrieve 00000000000b8fe0     OpensslLib:lhash.obj
 0005:00000000       $unwind$openssl_lh_strcasehash 00000000000b8fe0     OpensslLib:lhash.obj
 0005:00000000       $unwind$CRYPTO_ccm128_setiv 00000000000b8fe0     OpensslLib:ccm128.obj
 0005:00000000       $unwind$CRYPTO_ccm128_tag  00000000000b8fe0     OpensslLib:ccm128.obj
 0005:00000000       $unwind$o_names_init_ossl_ 00000000000b8fe0     OpensslLib:o_names.obj
 0005:00000000       $unwind$obj_name_hash      00000000000b8fe0     OpensslLib:o_names.obj
 0005:00000000       $unwind$added_obj_hash     00000000000b8fe0     OpensslLib:obj_dat.obj
 0005:00000000       $unwind$PKCS7_get_octet_string 00000000000b8fe0     OpensslLib:pk7_doit.obj
 0005:00000000       $unwind$PKCS7_get_signer_info 00000000000b8fe0     OpensslLib:pk7_lib.obj
 0005:00000000       $unwind$do_rand_drbg_init_ossl_ 00000000000b8fe0     OpensslLib:drbg_lib.obj
 0005:00000000       $unwind$do_rand_init_ossl_ 00000000000b8fe0     OpensslLib:rand_lib.obj
 0005:00000000       $unwind$rand_drbg_cleanup_entropy 00000000000b8fe0     OpensslLib:rand_lib.obj
 0005:00000000       $unwind$rsa_param_encode   00000000000b8fe0     OpensslLib:rsa_ameth.obj
 0005:00000000       $unwind$rsa_security_bits  00000000000b8fe0     OpensslLib:rsa_ameth.obj
 0005:00000000       $unwind$rsa_multip_info_free 00000000000b8fe0     OpensslLib:rsa_mp.obj
 0005:00000000       $unwind$pkey_rsa_cleanup   00000000000b8fe0     OpensslLib:rsa_pmeth.obj
 0005:00000000       $unwind$pkey_rsa_init      00000000000b8fe0     OpensslLib:rsa_pmeth.obj
 0005:00000000       $unwind$SHA1_Init          00000000000b8fe0     OpensslLib:sha1dgst.obj
 0005:00000000       $unwind$SHA224_Init        00000000000b8fe0     OpensslLib:sha256.obj
 0005:00000000       $unwind$SHA256_Init        00000000000b8fe0     OpensslLib:sha256.obj
 0005:00000000       $unwind$siphash_get_priv_key 00000000000b8fe0     OpensslLib:siphash_ameth.obj
 0005:00000000       $unwind$siphash_key_free   00000000000b8fe0     OpensslLib:siphash_ameth.obj
 0005:00000000       $unwind$pkey_siphash_keygen 00000000000b8fe0     OpensslLib:siphash_pmeth.obj
 0005:00000000       $unwind$init               00000000000b8fe0     OpensslLib:m_sm3.obj
 0005:00000000       $unwind$X509_PUBKEY_set0_param 00000000000b8fe0     OpensslLib:x_pubkey.obj
 0005:00000000       $unwind$X509V3_EXT_d2i     00000000000b8fe0     OpensslLib:v3_lib.obj
 0005:00000000       $unwind$check_purpose_timestamp_sign 00000000000b8fe0     OpensslLib:v3_purp.obj
 0005:00000000       $unwind$equal_case         00000000000b8fe0     OpensslLib:v3_utl.obj
 0005:00000000       $unwind$ipv6_cb            00000000000b8fe0     OpensslLib:v3_utl.obj
 0005:00000000       $unwind$GetVariableFlashInfoFromHob 00000000000b8fe0     BaseVariableFlashInfoLib:BaseVariableFlashInfoLib.obj
 0005:00000000       $unwind$DumpVariablePolicy 00000000000b8fe0     VariablePolicyLibRuntimeDxe:VariablePolicyLib.obj
 0005:00000000       $unwind$VarCheckRegisterSetVariableCheckHandler 00000000000b8fe0     VariableRuntimeDxe:VarCheck.obj
 0005:00000000       $unwind$AcquireLockOnlyAtBootTime 00000000000b8fe0     VariableRuntimeDxe:VariableDxe.obj
 0005:00000000       $unwind$OnEndOfDxe         00000000000b8fe0     VariableRuntimeDxe:VariableDxe.obj
 0005:00000000       $unwind$OnReadyToBoot      00000000000b8fe0     VariableRuntimeDxe:VariableDxe.obj
 0005:00000000       $unwind$ReleaseLockOnlyAtBootTime 00000000000b8fe0     VariableRuntimeDxe:VariableDxe.obj
 0005:00000000       $unwind$VariableWriteServiceInitializeDxe 00000000000b8fe0     VariableRuntimeDxe:VariableDxe.obj
 0005:00000000       $unwind$GetVariableStoreStatus 00000000000b8fe0     VariableRuntimeDxe:VariableParsing.obj
 0005:00000000       $unwind$FlushPendingRuntimeVariableCacheUpdates 00000000000b8fe0     VariableRuntimeDxe:VariableRuntimeCache.obj
 0005:00000000       $unwind$IoRead32           00000000000b8fe0     BaseIoLibIntrinsicSev:IoLibMsc.obj
 0005:00000000       $unwind$IoWrite32          00000000000b8fe0     BaseIoLibIntrinsicSev:IoLibMsc.obj
 0005:00000000       $unwind$IoWrite8           00000000000b8fe0     BaseIoLibIntrinsicSev:IoLibMsc.obj
 0005:00000000       $unwind$SaveAndDisableInterrupts 00000000000b8fe0     BaseLib:Cpu.obj
 0005:00000000       $unwind$PciExpressRead32   00000000000b8fe0     BasePciExpressLib:PciExpressLib.obj
 0005:00000000       $unwind$_ModuleEntryPoint  00000000000b8fe0     UefiDriverEntryPoint:DriverEntryPoint.obj
 0005:00000000       $unwind$InternalAllocateZeroPool 00000000000b8fe0     UefiMemoryAllocationLib:MemoryAllocationLib.obj
 0005:00000008       $unwind$asn1_multi         00000000000b8fe8     OpensslLib:asn1_gen.obj
 0005:00000008       $unwind$probable_prime     00000000000b8fe8     OpensslLib:bn_prime.obj
 0005:00000008       $unwind$BN_bn2dec          00000000000b8fe8     OpensslLib:bn_print.obj
 0005:00000008       $unwind$ec_GFp_simple_group_set_curve 00000000000b8fe8     OpensslLib:ecp_smpl.obj
 0005:00000008       $unwind$aria_128_cbc_cipher 00000000000b8fe8     OpensslLib:e_aria.obj
 0005:00000008       $unwind$aria_192_cbc_cipher 00000000000b8fe8     OpensslLib:e_aria.obj
 0005:00000008       $unwind$aria_256_cbc_cipher 00000000000b8fe8     OpensslLib:e_aria.obj
 0005:00000008       $unwind$sm4_cbc_cipher     00000000000b8fe8     OpensslLib:e_sm4.obj
 0005:00000008       $unwind$EVP_DecryptUpdate  00000000000b8fe8     OpensslLib:evp_enc.obj
 0005:00000008       $unwind$check_hosts        00000000000b8fe8     OpensslLib:x509_vfy.obj
 0005:00000008       $unwind$X509V3_NAME_from_section 00000000000b8fe8     OpensslLib:v3_utl.obj
 0005:00000008       $unwind$ProcessLibraryConstructorList 00000000000b8fe8     VariableRuntimeDxe:AutoGen.obj
 0005:00000024       $unwind$ProcessLibraryDestructorList 00000000000b9004     VariableRuntimeDxe:AutoGen.obj
 0005:00000030       $unwind$RuntimeAllocateMem 00000000000b9010     RuntimeCryptLib:RuntimeMemAllocation.obj
 0005:00000030       $unwind$AES_set_decrypt_key 00000000000b9010     OpensslLib:aes_core.obj
 0005:00000030       $unwind$ASN1_STRING_cmp    00000000000b9010     OpensslLib:asn1_lib.obj
 0005:00000030       $unwind$ASN1_STRING_copy   00000000000b9010     OpensslLib:asn1_lib.obj
 0005:00000030       $unwind$ASN1_STRING_dup    00000000000b9010     OpensslLib:asn1_lib.obj
 0005:00000030       $unwind$der_cmp            00000000000b9010     OpensslLib:tasn_enc.obj
 0005:00000030       $unwind$asn1_primitive_free 00000000000b9010     OpensslLib:tasn_fre.obj
 0005:00000030       $unwind$BIO_indent         00000000000b9010     OpensslLib:bio_lib.obj
 0005:00000030       $unwind$BIO_pop            00000000000b9010     OpensslLib:bio_lib.obj
 0005:00000030       $unwind$mem_buf_free       00000000000b9010     OpensslLib:bss_mem.obj
 0005:00000030       $unwind$BN_dup             00000000000b9010     OpensslLib:bn_lib.obj
 0005:00000030       $unwind$BN_set_word        00000000000b9010     OpensslLib:bn_lib.obj
 0005:00000030       $unwind$BN_mod_lshift1_quick 00000000000b9010     OpensslLib:bn_mod.obj
 0005:00000030       $unwind$BN_mod_sub_quick   00000000000b9010     OpensslLib:bn_mod.obj
 0005:00000030       $unwind$BN_MONT_CTX_copy   00000000000b9010     OpensslLib:bn_mont.obj
 0005:00000030       $unwind$BN_lshift1         00000000000b9010     OpensslLib:bn_shift.obj
 0005:00000030       $unwind$BN_mod_word        00000000000b9010     OpensslLib:bn_word.obj
 0005:00000030       $unwind$pkey_cmac_copy     00000000000b9010     OpensslLib:cm_pmeth.obj
 0005:00000030       $unwind$dh_pub_cmp         00000000000b9010     OpensslLib:dh_ameth.obj
 0005:00000030       $unwind$dh_security_bits   00000000000b9010     OpensslLib:dh_ameth.obj
 0005:00000030       $unwind$int_dh_bn_cpy      00000000000b9010     OpensslLib:dh_ameth.obj
 0005:00000030       $unwind$pkey_dh_copy       00000000000b9010     OpensslLib:dh_pmeth.obj
 0005:00000030       $unwind$pkey_dh_ctrl       00000000000b9010     OpensslLib:dh_pmeth.obj
 0005:00000030       $unwind$dh_param_init      00000000000b9010     OpensslLib:dh_rfc7919.obj
 0005:00000030       $unwind$ge_p3_to_cached    00000000000b9010     OpensslLib:curve25519.obj
 0005:00000030       $unwind$gf_strong_reduce   00000000000b9010     OpensslLib:f_generic.obj
 0005:00000030       $unwind$ec_copy_parameters 00000000000b9010     OpensslLib:ec_ameth.obj
 0005:00000030       $unwind$EC_KEY_dup         00000000000b9010     OpensslLib:ec_key.obj
 0005:00000030       $unwind$EC_GROUP_dup       00000000000b9010     OpensslLib:ec_lib.obj
 0005:00000030       $unwind$pkey_ec_cleanup    00000000000b9010     OpensslLib:ec_pmeth.obj
 0005:00000030       $unwind$pkey_ec_copy       00000000000b9010     OpensslLib:ec_pmeth.obj
 0005:00000030       $unwind$ec_GFp_mont_group_copy 00000000000b9010     OpensslLib:ecp_mont.obj
 0005:00000030       $unwind$ec_GFp_simple_group_copy 00000000000b9010     OpensslLib:ecp_smpl.obj
 0005:00000030       $unwind$ec_GFp_simple_invert 00000000000b9010     OpensslLib:ecp_smpl.obj
 0005:00000030       $unwind$ec_GFp_simple_point_copy 00000000000b9010     OpensslLib:ecp_smpl.obj
 0005:00000030       $unwind$ecx_free           00000000000b9010     OpensslLib:ecx_meth.obj
 0005:00000030       $unwind$ERR_clear_error    00000000000b9010     OpensslLib:err.obj
 0005:00000030       $unwind$md_free            00000000000b9010     OpensslLib:bio_md.obj
 0005:00000030       $unwind$aes_gcm_cipher     00000000000b9010     OpensslLib:e_aes.obj
 0005:00000030       $unwind$aes_gcm_cleanup    00000000000b9010     OpensslLib:e_aes.obj
 0005:00000030       $unwind$aria_gcm_cipher    00000000000b9010     OpensslLib:e_aria.obj
 0005:00000030       $unwind$EVP_CIPHER_type    00000000000b9010     OpensslLib:evp_lib.obj
 0005:00000030       $unwind$final              00000000000b9010     OpensslLib:m_md5_sha1.obj
 0005:00000030       $unwind$EVP_add_digest     00000000000b9010     OpensslLib:names.obj
 0005:00000030       $unwind$HMAC_CTX_copy      00000000000b9010     OpensslLib:hmac.obj
 0005:00000030       $unwind$hmac_ctx_alloc_mds 00000000000b9010     OpensslLib:hmac.obj
 0005:00000030       $unwind$ossl_init_base_ossl_ 00000000000b9010     OpensslLib:init.obj
 0005:00000030       $unwind$pkey_hkdf_cleanup  00000000000b9010     OpensslLib:hkdf.obj
 0005:00000030       $unwind$pkey_hkdf_derive_init 00000000000b9010     OpensslLib:hkdf.obj
 0005:00000030       $unwind$pkey_tls1_prf_cleanup 00000000000b9010     OpensslLib:tls1_prf.obj
 0005:00000030       $unwind$CRYPTO_zalloc      00000000000b9010     OpensslLib:mem.obj
 0005:00000030       $unwind$CRYPTO_gcm128_tag  00000000000b9010     OpensslLib:gcm128.obj
 0005:00000030       $unwind$CRYPTO_strdup      00000000000b9010     OpensslLib:o_str.obj
 0005:00000030       $unwind$i2d_ocsp_nonce     00000000000b9010     OpensslLib:v3_ocsp.obj
 0005:00000030       $unwind$pk7_cb             00000000000b9010     OpensslLib:pk7_asn1.obj
 0005:00000030       $unwind$get_attribute      00000000000b9010     OpensslLib:pk7_doit.obj
 0005:00000030       $unwind$PKCS7_stream       00000000000b9010     OpensslLib:pk7_lib.obj
 0005:00000030       $unwind$RAND_priv_bytes    00000000000b9010     OpensslLib:rand_lib.obj
 0005:00000030       $unwind$rsa_pub_cmp        00000000000b9010     OpensslLib:rsa_ameth.obj
 0005:00000030       $unwind$pkey_rsa_copy      00000000000b9010     OpensslLib:rsa_pmeth.obj
 0005:00000030       $unwind$pkey_sm2_cleanup   00000000000b9010     OpensslLib:sm2_pmeth.obj
 0005:00000030       $unwind$internal_delete    00000000000b9010     OpensslLib:stack.obj
 0005:00000030       $unwind$X509_NAME_cmp      00000000000b9010     OpensslLib:x509_cmp.obj
 0005:00000030       $unwind$X509_cmp           00000000000b9010     OpensslLib:x509_cmp.obj
 0005:00000030       $unwind$check_suite_b      00000000000b9010     OpensslLib:x509_cmp.obj
 0005:00000030       $unwind$trust_compat       00000000000b9010     OpensslLib:x509_trs.obj
 0005:00000030       $unwind$X509v3_get_ext_by_NID 00000000000b9010     OpensslLib:x509_v3.obj
 0005:00000030       $unwind$X509_STORE_CTX_cleanup 00000000000b9010     OpensslLib:x509_vfy.obj
 0005:00000030       $unwind$check_dane_issuer  00000000000b9010     OpensslLib:x509_vfy.obj
 0005:00000030       $unwind$check_key_level    00000000000b9010     OpensslLib:x509_vfy.obj
 0005:00000030       $unwind$verify_chain       00000000000b9010     OpensslLib:x509_vfy.obj
 0005:00000030       $unwind$X509_NAME_get_index_by_NID 00000000000b9010     OpensslLib:x509name.obj
 0005:00000030       $unwind$pubkey_cb          00000000000b9010     OpensslLib:x_pubkey.obj
 0005:00000030       $unwind$displaytext_str2tag 00000000000b9010     OpensslLib:v3_cpols.obj
 0005:00000030       $unwind$i2r_idp            00000000000b9010     OpensslLib:v3_crld.obj
 0005:00000030       $unwind$i2r_PKEY_USAGE_PERIOD 00000000000b9010     OpensslLib:v3_pku.obj
 0005:00000030       $unwind$X509_check_akid    00000000000b9010     OpensslLib:v3_purp.obj
 0005:00000030       $unwind$check_purpose_ns_ssl_server 00000000000b9010     OpensslLib:v3_purp.obj
 0005:00000030       $unwind$x509_likely_issued 00000000000b9010     OpensslLib:v3_purp.obj
 0005:00000030       $unwind$a2i_ipadd          00000000000b9010     OpensslLib:v3_utl.obj
 0005:00000030       $unwind$name_cmp           00000000000b9010     OpensslLib:v3_utl.obj
 0005:00000030       $unwind$VarCheckLibInitializeAtEndOfDxe 00000000000b9010     VarCheckLib:VarCheckLib.obj
 0005:00000030       $unwind$VarCheckLibRegisterSetVariableCheckHandler 00000000000b9010     VarCheckLib:VarCheckLib.obj
 0005:00000030       $unwind$VarCheckLibVariablePropertyGet 00000000000b9010     VarCheckLib:VarCheckLib.obj
 0005:00000030       $unwind$IsHwErrRecVariable 00000000000b9010     VarCheckUefiLib:VarCheckUefiLibNullClass.obj
 0005:00000030       $unwind$VariableClassAddressChangeEvent 00000000000b9010     VariableRuntimeDxe:VariableDxe.obj
 0005:00000030       $unwind$StrnLenS           00000000000b9010     BaseLib:SafeString.obj
 0005:00000030       $unwind$AsciiStrCmp        00000000000b9010     BaseLib:String.obj
 0005:00000030       $unwind$AsciiStrLen        00000000000b9010     BaseLib:String.obj
 0005:00000030       $unwind$AsciiStriCmp       00000000000b9010     BaseLib:String.obj
 0005:00000030       $unwind$ZeroMem            00000000000b9010     BaseMemoryLibRepStr:ZeroMemWrapper.obj
 0005:00000030       $unwind$GetRandomNumber64  00000000000b9010     BaseRngLibTimerLib:RngLibTimer.obj
 0005:00000030       $unwind$NextDevicePathNode 00000000000b9010     UefiDevicePathLibDevicePathProtocol:UefiDevicePathLib.obj
 0005:0000003c       $unwind$FtwNotificationEvent 00000000000b901c     VariableRuntimeDxe:VariableDxe.obj
 0005:0000004c       $unwind$VariableServiceInitialize 00000000000b902c     VariableRuntimeDxe:VariableDxe.obj
 0005:00000060       $unwind$UpdateVariableStore 00000000000b9040     VariableRuntimeDxe:Variable.obj
 0005:00000078       $unwind$RecordVarErrorFlag 00000000000b9058     VariableRuntimeDxe:Variable.obj
 0005:00000088       $unwind$InitializeVarErrorFlag 00000000000b9068     VariableRuntimeDxe:Variable.obj
 0005:00000090       $unwind$pkey_ecd_digestverify448 00000000000b9070     OpensslLib:ecx_meth.obj
 0005:00000090       $unwind$pkey_tls1_prf_derive 00000000000b9070     OpensslLib:tls1_prf.obj
 0005:00000090       $unwind$IsUserVariable     00000000000b9070     VariableRuntimeDxe:Variable.obj
 0005:00000098       $unwind$OBJ_find_sigid_algs 00000000000b9078     OpensslLib:obj_xref.obj
 0005:00000098       $unwind$drbg_ctr_reseed    00000000000b9078     OpensslLib:drbg_ctr.obj
 0005:00000098       $unwind$X509V3_get_value_int 00000000000b9078     OpensslLib:v3_utl.obj
 0005:00000098       $unwind$CalculateCommonUserVariableTotalSize 00000000000b9078     VariableRuntimeDxe:Variable.obj
 0005:000000a4       $unwind$bn_div_fixed_top   00000000000b9084     OpensslLib:bn_div.obj
 0005:000000a4       $unwind$Reclaim            00000000000b9084     VariableRuntimeDxe:Variable.obj
 0005:000000bc       $unwind$ge_p2_dbl          00000000000b909c     OpensslLib:curve25519.obj
 0005:000000bc       $unwind$cfbr_encrypt_block 00000000000b909c     OpensslLib:cfb128.obj
 0005:000000bc       $unwind$FindVariable       00000000000b909c     VariableRuntimeDxe:Variable.obj
 0005:000000bc       $unwind$ProcessVarWithKek  00000000000b909c     AuthVariableLib:AuthService.obj
 0005:000000d4       $unwind$i2c_ASN1_BIT_STRING 00000000000b90b4     OpensslLib:a_bitstr.obj
 0005:000000d4       $unwind$mem_ctrl           00000000000b90b4     OpensslLib:bss_mem.obj
 0005:000000d4       $unwind$BN_mul_word        00000000000b90b4     OpensslLib:bn_word.obj
 0005:000000d4       $unwind$cmac_signctx       00000000000b90b4     OpensslLib:cm_pmeth.obj
 0005:000000d4       $unwind$DH_check_params    00000000000b90b4     OpensslLib:dh_check.obj
 0005:000000d4       $unwind$ge_p1p1_to_p3      00000000000b90b4     OpensslLib:curve25519.obj
 0005:000000d4       $unwind$EVP_CIPHER_set_asn1_iv 00000000000b90b4     OpensslLib:evp_lib.obj
 0005:000000d4       $unwind$sha3_update        00000000000b90b4     OpensslLib:m_sha3.obj
 0005:000000d4       $unwind$expand             00000000000b90b4     OpensslLib:lhash.obj
 0005:000000d4       $unwind$MD5_Final          00000000000b90b4     OpensslLib:md5_dgst.obj
 0005:000000d4       $unwind$MD5_Update         00000000000b90b4     OpensslLib:md5_dgst.obj
 0005:000000d4       $unwind$SHA3_absorb        00000000000b90b4     OpensslLib:keccak1600.obj
 0005:000000d4       $unwind$SHA1_Update        00000000000b90b4     OpensslLib:sha1dgst.obj
 0005:000000d4       $unwind$SHA256_Update      00000000000b90b4     OpensslLib:sha256.obj
 0005:000000d4       $unwind$SHA512_Update      00000000000b90b4     OpensslLib:sha512.obj
 0005:000000d4       $unwind$update             00000000000b90b4     OpensslLib:m_sm3.obj
 0005:000000d4       $unwind$sm3_final          00000000000b90b4     OpensslLib:sm3.obj
 0005:000000d4       $unwind$check_crl          00000000000b90b4     OpensslLib:x509_vfy.obj
 0005:000000d4       $unwind$dane_verify        00000000000b90b4     OpensslLib:x509_vfy.obj
 0005:000000d4       $unwind$internal_verify    00000000000b90b4     OpensslLib:x509_vfy.obj
 0005:000000d4       $unwind$X509_VERIFY_PARAM_inherit 00000000000b90b4     OpensslLib:x509_vpm.obj
 0005:000000d4       $unwind$i2v_GENERAL_NAMES  00000000000b90b4     OpensslLib:v3_alt.obj
 0005:000000d4       $unwind$i2r_crldp          00000000000b90b4     OpensslLib:v3_crld.obj
 0005:000000d4       $unwind$SXNET_get_id_INTEGER 00000000000b90b4     OpensslLib:v3_sxnet.obj
 0005:000000d4       $unwind$GetHobVariableStore 00000000000b90b4     VariableRuntimeDxe:Variable.obj
 0005:000000d4       $unwind$GetIndexFromSupportedLangCodes 00000000000b90b4     VariableRuntimeDxe:Variable.obj
 0005:000000d4       $unwind$EfiGetSystemConfigurationTable 00000000000b90b4     UefiLib:UefiLib.obj
 0005:000000ec       $unwind$RuntimeCryptLibAddressChangeEvent 00000000000b90cc     RuntimeCryptLib:RuntimeMemAllocation.obj
 0005:000000ec       $unwind$ASN1_ENUMERATED_get 00000000000b90cc     OpensslLib:a_int.obj
 0005:000000ec       $unwind$ASN1_INTEGER_get   00000000000b90cc     OpensslLib:a_int.obj
 0005:000000ec       $unwind$asn1_string_set_int64 00000000000b90cc     OpensslLib:a_int.obj
 0005:000000ec       $unwind$ASN1_OBJECT_free   00000000000b90cc     OpensslLib:a_object.obj
 0005:000000ec       $unwind$st_free            00000000000b90cc     OpensslLib:a_strnid.obj
 0005:000000ec       $unwind$ASN1_STRING_free   00000000000b90cc     OpensslLib:asn1_lib.obj
 0005:000000ec       $unwind$stbl_module_finish 00000000000b90cc     OpensslLib:asn_mstbl.obj
 0005:000000ec       $unwind$ASN1_TYPE_free     00000000000b90cc     OpensslLib:tasn_typ.obj
 0005:000000ec       $unwind$X509_ALGOR_free    00000000000b90cc     OpensslLib:x_algor.obj
 0005:000000ec       $unwind$uint32_free        00000000000b90cc     OpensslLib:x_int64.obj
 0005:000000ec       $unwind$BN_GENCB_call      00000000000b90cc     OpensslLib:bn_prime.obj
 0005:000000ec       $unwind$int_dh_size        00000000000b90cc     OpensslLib:dh_ameth.obj
 0005:000000ec       $unwind$dh_finish          00000000000b90cc     OpensslLib:dh_key.obj
 0005:000000ec       $unwind$gf_sub_nr          00000000000b90cc     OpensslLib:curve448.obj
 0005:000000ec       $unwind$ec_security_bits   00000000000b90cc     OpensslLib:ec_ameth.obj
 0005:000000ec       $unwind$eckey_pub_cmp      00000000000b90cc     OpensslLib:ec_ameth.obj
 0005:000000ec       $unwind$ERR_pop_to_mark    00000000000b90cc     OpensslLib:err.obj
 0005:000000ec       $unwind$ERR_set_mark       00000000000b90cc     OpensslLib:err.obj
 0005:000000ec       $unwind$get_error_values   00000000000b90cc     OpensslLib:err.obj
 0005:000000ec       $unwind$md_gets            00000000000b90cc     OpensslLib:bio_md.obj
 0005:000000ec       $unwind$aria_gcm_cleanup   00000000000b90cc     OpensslLib:e_aria.obj
 0005:000000ec       $unwind$sm4_init_key       00000000000b90cc     OpensslLib:e_sm4.obj
 0005:000000ec       $unwind$EVP_CIPHER_CTX_iv_length 00000000000b90cc     OpensslLib:evp_lib.obj
 0005:000000ec       $unwind$hmac_get_priv_key  00000000000b90cc     OpensslLib:hm_ameth.obj
 0005:000000ec       $unwind$hmac_pkey_public_cmp 00000000000b90cc     OpensslLib:hm_ameth.obj
 0005:000000ec       $unwind$int_update         00000000000b90cc     OpensslLib:hm_pmeth.obj
 0005:000000ec       $unwind$ossl_init_add_all_digests_ossl_ 00000000000b90cc     OpensslLib:init.obj
 0005:000000ec       $unwind$ossl_init_config_ossl_ 00000000000b90cc     OpensslLib:init.obj
 0005:000000ec       $unwind$obj_name_cmp       00000000000b90cc     OpensslLib:o_names.obj
 0005:000000ec       $unwind$added_obj_cmp      00000000000b90cc     OpensslLib:obj_dat.obj
 0005:000000ec       $unwind$obj_cmp_BSEARCH_CMP_FN 00000000000b90cc     OpensslLib:obj_dat.obj
 0005:000000ec       $unwind$i2r_object         00000000000b90cc     OpensslLib:v3_ocsp.obj
 0005:000000ec       $unwind$i2r_ocsp_acutoff   00000000000b90cc     OpensslLib:v3_ocsp.obj
 0005:000000ec       $unwind$i2r_ocsp_nonce     00000000000b90cc     OpensslLib:v3_ocsp.obj
 0005:000000ec       $unwind$ri_cb              00000000000b90cc     OpensslLib:pk7_asn1.obj
 0005:000000ec       $unwind$si_cb              00000000000b90cc     OpensslLib:pk7_asn1.obj
 0005:000000ec       $unwind$RAND_DRBG_get0_master 00000000000b90cc     OpensslLib:drbg_lib.obj
 0005:000000ec       $unwind$drbg_status        00000000000b90cc     OpensslLib:drbg_lib.obj
 0005:000000ec       $unwind$RAND_get_rand_method 00000000000b90cc     OpensslLib:rand_lib.obj
 0005:000000ec       $unwind$int_rsa_size       00000000000b90cc     OpensslLib:rsa_ameth.obj
 0005:000000ec       $unwind$rsa_pss_cb         00000000000b90cc     OpensslLib:rsa_asn1.obj
 0005:000000ec       $unwind$siphash_pkey_public_cmp 00000000000b90cc     OpensslLib:siphash_ameth.obj
 0005:000000ec       $unwind$int_update         00000000000b90cc     OpensslLib:siphash_pmeth.obj
 0005:000000ec       $unwind$x509_object_cmp    00000000000b90cc     OpensslLib:x509_lu.obj
 0005:000000ec       $unwind$check_issued       00000000000b90cc     OpensslLib:x509_vfy.obj
 0005:000000ec       $unwind$str_free           00000000000b90cc     OpensslLib:x509_vpm.obj
 0005:000000ec       $unwind$X509_ATTRIBUTE_free 00000000000b90cc     OpensslLib:x_attrib.obj
 0005:000000ec       $unwind$X509_CRL_free      00000000000b90cc     OpensslLib:x_crl.obj
 0005:000000ec       $unwind$X509_NAME_ENTRY_free 00000000000b90cc     OpensslLib:x_name.obj
 0005:000000ec       $unwind$local_sk_X509_NAME_ENTRY_free 00000000000b90cc     OpensslLib:x_name.obj
 0005:000000ec       $unwind$X509_free          00000000000b90cc     OpensslLib:x_x509.obj
 0005:000000ec       $unwind$policy_data_cmp    00000000000b90cc     OpensslLib:pcy_cache.obj
 0005:000000ec       $unwind$node_cmp           00000000000b90cc     OpensslLib:pcy_node.obj
 0005:000000ec       $unwind$policy_node_free   00000000000b90cc     OpensslLib:pcy_node.obj
 0005:000000ec       $unwind$exnode_free        00000000000b90cc     OpensslLib:pcy_tree.obj
 0005:000000ec       $unwind$POLICYINFO_free    00000000000b90cc     OpensslLib:v3_cpols.obj
 0005:000000ec       $unwind$POLICYQUALINFO_free 00000000000b90cc     OpensslLib:v3_cpols.obj
 0005:000000ec       $unwind$DIST_POINT_free    00000000000b90cc     OpensslLib:v3_crld.obj
 0005:000000ec       $unwind$dpn_cb             00000000000b90cc     OpensslLib:v3_crld.obj
 0005:000000ec       $unwind$GENERAL_NAMES_free 00000000000b90cc     OpensslLib:v3_genn.obj
 0005:000000ec       $unwind$GENERAL_NAME_free  00000000000b90cc     OpensslLib:v3_genn.obj
 0005:000000ec       $unwind$ACCESS_DESCRIPTION_free 00000000000b90cc     OpensslLib:v3_info.obj
 0005:000000ec       $unwind$POLICY_MAPPING_free 00000000000b90cc     OpensslLib:v3_pmaps.obj
 0005:000000ec       $unwind$check_purpose_crl_sign 00000000000b90cc     OpensslLib:v3_purp.obj
 0005:000000ec       $unwind$check_purpose_smime_encrypt 00000000000b90cc     OpensslLib:v3_purp.obj
 0005:000000ec       $unwind$check_purpose_smime_sign 00000000000b90cc     OpensslLib:v3_purp.obj
 0005:000000ec       $unwind$check_purpose_ssl_client 00000000000b90cc     OpensslLib:v3_purp.obj
 0005:000000ec       $unwind$check_purpose_ssl_server 00000000000b90cc     OpensslLib:v3_purp.obj
 0005:000000ec       $unwind$purpose_smime      00000000000b90cc     OpensslLib:v3_purp.obj
 0005:000000ec       $unwind$X509V3_conf_free   00000000000b90cc     OpensslLib:v3_utl.obj
 0005:000000ec       $unwind$InternalVarCheckDevicePath 00000000000b90cc     VarCheckUefiLib:VarCheckUefiLibNullClass.obj
 0005:000000ec       $unwind$InternalVarCheckLoadOption 00000000000b90cc     VarCheckUefiLib:VarCheckUefiLibNullClass.obj
 0005:000000ec       $unwind$VariablePolicyLibVirtualAddressCallback 00000000000b90cc     VariablePolicyLibRuntimeDxe:VariablePolicyExtraInitRuntimeDxe.obj
 0005:000000ec       $unwind$GetLangFromSupportedLangCodes 00000000000b90cc     VariableRuntimeDxe:Variable.obj
 0005:000000ec       $unwind$InitNonVolatileVariableStore 00000000000b90cc     VariableRuntimeDxe:VariableNonVolatile.obj
 0005:000000ec       $unwind$GetHobList         00000000000b90cc     DxeHobLib:HobLib.obj
 0005:000000ec       $unwind$GetPcdProtocol     00000000000b90cc     DxePcdLib:DxePcdLib.obj
 0005:000000ec       $unwind$TdSharedPageMask   00000000000b90cc     TdxLib:TdInfo.obj
 0005:000000ec       $unwind$AllocatePool       00000000000b90cc     UefiMemoryAllocationLib:MemoryAllocationLib.obj
 0005:000000ec       $unwind$AllocateRuntimePool 00000000000b90cc     UefiMemoryAllocationLib:MemoryAllocationLib.obj
 0005:000000ec       $unwind$FreePool           00000000000b90cc     UefiMemoryAllocationLib:MemoryAllocationLib.obj
 0005:000000f4       $unwind$VariableGetBestLanguage 00000000000b90d4     VariableRuntimeDxe:Variable.obj
 0005:00000108       $unwind$CheckRemainingSpaceForConsistencyInternal 00000000000b90e8     VariableRuntimeDxe:Variable.obj
 0005:00000118       $unwind$CheckRemainingSpaceForConsistency 00000000000b90f8     VariableRuntimeDxe:Variable.obj
 0005:00000118       $unwind$VariableExLibCheckRemainingSpaceForConsistency 00000000000b90f8     VariableRuntimeDxe:VariableExLib.obj
 0005:00000120       $unwind$AutoUpdateLangVariable 00000000000b9100     VariableRuntimeDxe:Variable.obj
 0005:00000140       $unwind$UpdateVariable     00000000000b9120     VariableRuntimeDxe:Variable.obj
 0005:0000015c       $unwind$VariableServiceGetVariable 00000000000b913c     VariableRuntimeDxe:Variable.obj
 0005:00000174       $unwind$VariableServiceGetNextVariableName 00000000000b9154     VariableRuntimeDxe:Variable.obj
 0005:0000018c       $unwind$FlushHobVariableToFlash 00000000000b916c     VariableRuntimeDxe:Variable.obj
 0005:0000018c       $unwind$VariableServiceSetVariable 00000000000b916c     VariableRuntimeDxe:Variable.obj
 0005:000001a8       $unwind$VariableServiceQueryVariableInfoInternal 00000000000b9188     VariableRuntimeDxe:Variable.obj
 0005:000001c0       $unwind$X509_ALGOR_set0    00000000000b91a0     OpensslLib:x_algor.obj
 0005:000001c0       $unwind$BN_set_bit         00000000000b91a0     OpensslLib:bn_lib.obj
 0005:000001c0       $unwind$BN_MONT_CTX_set_locked 00000000000b91a0     OpensslLib:bn_mont.obj
 0005:000001c0       $unwind$BN_add_word        00000000000b91a0     OpensslLib:bn_word.obj
 0005:000001c0       $unwind$ge_p1p1_to_p2      00000000000b91a0     OpensslLib:curve25519.obj
 0005:000001c0       $unwind$niels_to_pt        00000000000b91a0     OpensslLib:curve448.obj
 0005:000001c0       $unwind$oneshot_hash       00000000000b91a0     OpensslLib:eddsa.obj
 0005:000001c0       $unwind$EC_curve_nist2nid  00000000000b91a0     OpensslLib:ec_curve.obj
 0005:000001c0       $unwind$ec_precompute_mont_data 00000000000b91a0     OpensslLib:ec_lib.obj
 0005:000001c0       $unwind$aes_ccm_ctrl       00000000000b91a0     OpensslLib:e_aes.obj
 0005:000001c0       $unwind$aes_wrap_init_key  00000000000b91a0     OpensslLib:e_aes.obj
 0005:000001c0       $unwind$aria_ccm_ctrl      00000000000b91a0     OpensslLib:e_aria.obj
 0005:000001c0       $unwind$init               00000000000b91a0     OpensslLib:m_sha3.obj
 0005:000001c0       $unwind$sha3_final         00000000000b91a0     OpensslLib:m_sha3.obj
 0005:000001c0       $unwind$hmac_set_priv_key  00000000000b91a0     OpensslLib:hm_ameth.obj
 0005:000001c0       $unwind$pkey_hkdf_ctrl     00000000000b91a0     OpensslLib:hkdf.obj
 0005:000001c0       $unwind$pkey_tls1_prf_ctrl 00000000000b91a0     OpensslLib:tls1_prf.obj
 0005:000001c0       $unwind$CRYPTO_clear_realloc 00000000000b91a0     OpensslLib:mem.obj
 0005:000001c0       $unwind$CRYPTO_ccm128_init 00000000000b91a0     OpensslLib:ccm128.obj
 0005:000001c0       $unwind$PKCS7_add1_attrib_digest 00000000000b91a0     OpensslLib:pk7_attr.obj
 0005:000001c0       $unwind$ctr_BCC_update     00000000000b91a0     OpensslLib:drbg_ctr.obj
 0005:000001c0       $unwind$rsa_pss_params_create 00000000000b91a0     OpensslLib:rsa_ameth.obj
 0005:000001c0       $unwind$OPENSSL_sk_insert  00000000000b91a0     OpensslLib:stack.obj
 0005:000001c0       $unwind$x509_store_add     00000000000b91a0     OpensslLib:x509_lu.obj
 0005:000001c0       $unwind$X509_check_trust   00000000000b91a0     OpensslLib:x509_trs.obj
 0005:000001c0       $unwind$check_crl_time     00000000000b91a0     OpensslLib:x509_vfy.obj
 0005:000001c0       $unwind$crl_extension_match 00000000000b91a0     OpensslLib:x509_vfy.obj
 0005:000001c0       $unwind$x509_check_cert_time 00000000000b91a0     OpensslLib:x509_vfy.obj
 0005:000001c0       $unwind$X509_ATTRIBUTE_create 00000000000b91a0     OpensslLib:x_attrib.obj
 0005:000001c0       $unwind$tree_add_unmatched 00000000000b91a0     OpensslLib:pcy_tree.obj
 0005:000001c0       $unwind$do_othername       00000000000b91a0     OpensslLib:v3_alt.obj
 0005:000001c0       $unwind$print_gens         00000000000b91a0     OpensslLib:v3_crld.obj
 0005:000001c0       $unwind$print_reasons      00000000000b91a0     OpensslLib:v3_crld.obj
 0005:000001c0       $unwind$nc_uri             00000000000b91a0     OpensslLib:v3_ncons.obj
 0005:000001c0       $unwind$VarCheckAddTableEntry 00000000000b91a0     VarCheckLib:VarCheckLib.obj
 0005:000001c0       $unwind$VariableServiceQueryVariableInfo 00000000000b91a0     VariableRuntimeDxe:Variable.obj
 0005:000001c0       $unwind$StrnCmp            00000000000b91a0     BaseLib:String.obj
 0005:000001c0       $unwind$CompareMem         00000000000b91a0     BaseMemoryLibRepStr:CompareMemWrapper.obj
 0005:000001c0       $unwind$CopyMem            00000000000b91a0     BaseMemoryLibRepStr:CopyMemWrapper.obj
 0005:000001c0       $unwind$GetNextGuidHob     00000000000b91a0     DxeHobLib:HobLib.obj
 0005:000001c0       $unwind$InternalReallocatePool 00000000000b91a0     UefiMemoryAllocationLib:MemoryAllocationLib.obj
 0005:000001c0       $unwind$SerialPortWrite    00000000000b91a0     PcAtSerialPortLib:SerialPortLib.obj
 0005:000001d4       $unwind$asn1_get_uint64    00000000000b91b4     OpensslLib:a_int.obj
 0005:000001d4       $unwind$bitstr_cb          00000000000b91b4     OpensslLib:asn1_gen.obj
 0005:000001d4       $unwind$parse_tagging      00000000000b91b4     OpensslLib:asn1_gen.obj
 0005:000001d4       $unwind$BN_CTX_new         00000000000b91b4     OpensslLib:bn_ctx.obj
 0005:000001d4       $unwind$BN_mod_exp         00000000000b91b4     OpensslLib:bn_exp.obj
 0005:000001d4       $unwind$BN_new             00000000000b91b4     OpensslLib:bn_lib.obj
 0005:000001d4       $unwind$BN_MONT_CTX_new    00000000000b91b4     OpensslLib:bn_mont.obj
 0005:000001d4       $unwind$BUF_MEM_new        00000000000b91b4     OpensslLib:buffer.obj
 0005:000001d4       $unwind$DH_new_by_nid      00000000000b91b4     OpensslLib:dh_rfc7919.obj
 0005:000001d4       $unwind$ec_pkey_check      00000000000b91b4     OpensslLib:ec_ameth.obj
 0005:000001d4       $unwind$ec_pkey_param_check 00000000000b91b4     OpensslLib:ec_ameth.obj
 0005:000001d4       $unwind$EC_GROUP_new_from_ecpkparameters 00000000000b91b4     OpensslLib:ec_asn1.obj
 0005:000001d4       $unwind$EC_KEY_check_key   00000000000b91b4     OpensslLib:ec_key.obj
 0005:000001d4       $unwind$ec_key_simple_generate_public_key 00000000000b91b4     OpensslLib:ec_key.obj
 0005:000001d4       $unwind$EC_POINT_add       00000000000b91b4     OpensslLib:ec_lib.obj
 0005:000001d4       $unwind$EC_POINT_cmp       00000000000b91b4     OpensslLib:ec_lib.obj
 0005:000001d4       $unwind$EC_POINT_copy      00000000000b91b4     OpensslLib:ec_lib.obj
 0005:000001d4       $unwind$EC_POINT_dbl       00000000000b91b4     OpensslLib:ec_lib.obj
 0005:000001d4       $unwind$EC_POINT_invert    00000000000b91b4     OpensslLib:ec_lib.obj
 0005:000001d4       $unwind$EC_POINT_is_at_infinity 00000000000b91b4     OpensslLib:ec_lib.obj
 0005:000001d4       $unwind$EC_POINT_is_on_curve 00000000000b91b4     OpensslLib:ec_lib.obj
 0005:000001d4       $unwind$EC_POINT_set_to_infinity 00000000000b91b4     OpensslLib:ec_lib.obj
 0005:000001d4       $unwind$EC_POINT_oct2point 00000000000b91b4     OpensslLib:ec_oct.obj
 0005:000001d4       $unwind$EC_POINT_point2oct 00000000000b91b4     OpensslLib:ec_oct.obj
 0005:000001d4       $unwind$EC_POINT_set_compressed_coordinates 00000000000b91b4     OpensslLib:ec_oct.obj
 0005:000001d4       $unwind$ossl_ecdh_compute_key 00000000000b91b4     OpensslLib:ecdh_ossl.obj
 0005:000001d4       $unwind$ossl_ecdsa_sign_setup 00000000000b91b4     OpensslLib:ecdsa_ossl.obj
 0005:000001d4       $unwind$ecx_priv_print     00000000000b91b4     OpensslLib:ecx_meth.obj
 0005:000001d4       $unwind$ecx_pub_decode     00000000000b91b4     OpensslLib:ecx_meth.obj
 0005:000001d4       $unwind$ecx_pub_print      00000000000b91b4     OpensslLib:ecx_meth.obj
 0005:000001d4       $unwind$ecx_set_priv_key   00000000000b91b4     OpensslLib:ecx_meth.obj
 0005:000001d4       $unwind$ecx_set_pub_key    00000000000b91b4     OpensslLib:ecx_meth.obj
 0005:000001d4       $unwind$pkey_ecd_ctrl      00000000000b91b4     OpensslLib:ecx_meth.obj
 0005:000001d4       $unwind$pkey_ecx_keygen    00000000000b91b4     OpensslLib:ecx_meth.obj
 0005:000001d4       $unwind$validate_ecx_derive 00000000000b91b4     OpensslLib:ecx_meth.obj
 0005:000001d4       $unwind$aria_init_key      00000000000b91b4     OpensslLib:e_aria.obj
 0005:000001d4       $unwind$EVP_CIPHER_CTX_ctrl 00000000000b91b4     OpensslLib:evp_enc.obj
 0005:000001d4       $unwind$EVP_CIPHER_CTX_set_key_length 00000000000b91b4     OpensslLib:evp_enc.obj
 0005:000001d4       $unwind$update             00000000000b91b4     OpensslLib:m_sigver.obj
 0005:000001d4       $unwind$EVP_PKEY_verify    00000000000b91b4     OpensslLib:pmeth_fn.obj
 0005:000001d4       $unwind$pkey_hmac_ctrl     00000000000b91b4     OpensslLib:hm_pmeth.obj
 0005:000001d4       $unwind$rand_pool_add_end  00000000000b91b4     OpensslLib:rand_lib.obj
 0005:000001d4       $unwind$RSA_pkey_ctx_ctrl  00000000000b91b4     OpensslLib:rsa_lib.obj
 0005:000001d4       $unwind$check_padding_md   00000000000b91b4     OpensslLib:rsa_pmeth.obj
 0005:000001d4       $unwind$siphash_signctx_init 00000000000b91b4     OpensslLib:siphash_pmeth.obj
 0005:000001d4       $unwind$X509_OBJECT_new    00000000000b91b4     OpensslLib:x509_lu.obj
 0005:000001d4       $unwind$def_crl_verify     00000000000b91b4     OpensslLib:x_crl.obj
 0005:000001d4       $unwind$GENERAL_NAME_print 00000000000b91b4     OpensslLib:v3_alt.obj
 0005:000001d4       $unwind$X509V3_get_section 00000000000b91b4     OpensslLib:v3_conf.obj
 0005:000001d4       $unwind$ReclaimForOS       00000000000b91b4     VariableRuntimeDxe:Variable.obj
 0005:000001d4       $unwind$VendorKeyIsModified 00000000000b91b4     AuthVariableLib:AuthService.obj
 0005:000001dc       $unwind$eckey_param2type   00000000000b91bc     OpensslLib:ec_ameth.obj
 0005:000001dc       $unwind$EC_KEY_priv2buf    00000000000b91bc     OpensslLib:ec_key.obj
 0005:000001dc       $unwind$CRYPTO_gcm128_init 00000000000b91bc     OpensslLib:gcm128.obj
 0005:000001dc       $unwind$VariableWriteServiceInitialize 00000000000b91bc     VariableRuntimeDxe:Variable.obj
 0005:000001f0       $unwind$CreateBasicVariablePolicy 00000000000b91d0     VariablePolicyHelperLib:VariablePolicyHelperLib.obj
 0005:000001f0       $unwind$ConvertNormalVarStorageToAuthVarStorage 00000000000b91d0     VariableRuntimeDxe:Variable.obj
 0005:0000020c       $unwind$strncasecmp        00000000000b91ec     RuntimeCryptLib:CrtWrapper.obj
 0005:0000020c       $unwind$realloc            00000000000b91ec     RuntimeCryptLib:RuntimeMemAllocation.obj
 0005:0000020c       $unwind$asn1_str2tag       00000000000b91ec     OpensslLib:asn1_gen.obj
 0005:0000020c       $unwind$mask_cb            00000000000b91ec     OpensslLib:asn1_gen.obj
 0005:0000020c       $unwind$PKCS8_pkey_set0    00000000000b91ec     OpensslLib:p8_pkey.obj
 0005:0000020c       $unwind$bn_c2i             00000000000b91ec     OpensslLib:x_bignum.obj
 0005:0000020c       $unwind$bn_i2c             00000000000b91ec     OpensslLib:x_bignum.obj
 0005:0000020c       $unwind$mem_init           00000000000b91ec     OpensslLib:bss_mem.obj
 0005:0000020c       $unwind$mem_read           00000000000b91ec     OpensslLib:bss_mem.obj
 0005:0000020c       $unwind$BN_add             00000000000b91ec     OpensslLib:bn_add.obj
 0005:0000020c       $unwind$BN_sub             00000000000b91ec     OpensslLib:bn_add.obj
 0005:0000020c       $unwind$BN_copy            00000000000b91ec     OpensslLib:bn_lib.obj
 0005:0000020c       $unwind$BN_sub_word        00000000000b91ec     OpensslLib:bn_word.obj
 0005:0000020c       $unwind$sec_alloc_realloc  00000000000b91ec     OpensslLib:buffer.obj
 0005:0000020c       $unwind$pkey_cmac_keygen   00000000000b91ec     OpensslLib:cm_pmeth.obj
 0005:0000020c       $unwind$CMAC_CTX_copy      00000000000b91ec     OpensslLib:cmac.obj
 0005:0000020c       $unwind$ssl_module_free    00000000000b91ec     OpensslLib:conf_ssl.obj
 0005:0000020c       $unwind$dh_cmp_parameters  00000000000b91ec     OpensslLib:dh_ameth.obj
 0005:0000020c       $unwind$dh_copy_parameters 00000000000b91ec     OpensslLib:dh_ameth.obj
 0005:0000020c       $unwind$int_dh_param_copy  00000000000b91ec     OpensslLib:dh_ameth.obj
 0005:0000020c       $unwind$d2i_DHxparams      00000000000b91ec     OpensslLib:dh_asn1.obj
 0005:0000020c       $unwind$pt_to_pniels       00000000000b91ec     OpensslLib:curve448.obj
 0005:0000020c       $unwind$EC_KEY_set_group   00000000000b91ec     OpensslLib:ec_key.obj
 0005:0000020c       $unwind$ecx_get_priv_key   00000000000b91ec     OpensslLib:ecx_meth.obj
 0005:0000020c       $unwind$ecx_get_pub_key    00000000000b91ec     OpensslLib:ecx_meth.obj
 0005:0000020c       $unwind$ERR_put_error      00000000000b91ec     OpensslLib:err.obj
 0005:0000020c       $unwind$enc_free           00000000000b91ec     OpensslLib:bio_enc.obj
 0005:0000020c       $unwind$EVP_DigestFinal_ex 00000000000b91ec     OpensslLib:digest.obj
 0005:0000020c       $unwind$cleanup_old_md_data 00000000000b91ec     OpensslLib:digest.obj
 0005:0000020c       $unwind$aes_gcm_init_key   00000000000b91ec     OpensslLib:e_aes.obj
 0005:0000020c       $unwind$update             00000000000b91ec     OpensslLib:m_md5_sha1.obj
 0005:0000020c       $unwind$EVP_PKEY_CTX_hex2ctrl 00000000000b91ec     OpensslLib:pmeth_lib.obj
 0005:0000020c       $unwind$pkey_hmac_cleanup  00000000000b91ec     OpensslLib:hm_pmeth.obj
 0005:0000020c       $unwind$pkey_hmac_copy     00000000000b91ec     OpensslLib:hm_pmeth.obj
 0005:0000020c       $unwind$pkey_hmac_ctrl_str 00000000000b91ec     OpensslLib:hm_pmeth.obj
 0005:0000020c       $unwind$OPENSSL_LH_new     00000000000b91ec     OpensslLib:lhash.obj
 0005:0000020c       $unwind$CRYPTO_strndup     00000000000b91ec     OpensslLib:o_str.obj
 0005:0000020c       $unwind$drbg_ctr_uninstantiate 00000000000b91ec     OpensslLib:drbg_ctr.obj
 0005:0000020c       $unwind$rsa_md_to_algor    00000000000b91ec     OpensslLib:rsa_ameth.obj
 0005:0000020c       $unwind$rsa_cb             00000000000b91ec     OpensslLib:rsa_asn1.obj
 0005:0000020c       $unwind$rsa_get_blinding   00000000000b91ec     OpensslLib:rsa_ossl.obj
 0005:0000020c       $unwind$rsa_ossl_finish    00000000000b91ec     OpensslLib:rsa_ossl.obj
 0005:0000020c       $unwind$siphash_set_priv_key 00000000000b91ec     OpensslLib:siphash_ameth.obj
 0005:0000020c       $unwind$pkey_siphash_cleanup 00000000000b91ec     OpensslLib:siphash_pmeth.obj
 0005:0000020c       $unwind$pkey_siphash_copy  00000000000b91ec     OpensslLib:siphash_pmeth.obj
 0005:0000020c       $unwind$pkey_siphash_ctrl_str 00000000000b91ec     OpensslLib:siphash_pmeth.obj
 0005:0000020c       $unwind$OPENSSL_sk_new_reserve 00000000000b91ec     OpensslLib:stack.obj
 0005:0000020c       $unwind$check_revocation   00000000000b91ec     OpensslLib:x509_vfy.obj
 0005:0000020c       $unwind$int_x509_param_set1 00000000000b91ec     OpensslLib:x509_vpm.obj
 0005:0000020c       $unwind$X509_NAME_delete_entry 00000000000b91ec     OpensslLib:x509name.obj
 0005:0000020c       $unwind$x509_name_ex_i2d   00000000000b91ec     OpensslLib:x_name.obj
 0005:0000020c       $unwind$tree_add_auth_node 00000000000b91ec     OpensslLib:pcy_tree.obj
 0005:0000020c       $unwind$nc_match_single    00000000000b91ec     OpensslLib:v3_ncons.obj
 0005:0000020c       $unwind$X509_check_purpose 00000000000b91ec     OpensslLib:v3_purp.obj
 0005:0000020c       $unwind$X509V3_add_value_int 00000000000b91ec     OpensslLib:v3_utl.obj
 0005:0000020c       $unwind$rand_pool_acquire_entropy 00000000000b91ec     OpensslLib:rand_pool.obj
 0005:0000020c       $unwind$VarCheckVariablePropertyGet 00000000000b91ec     VariableRuntimeDxe:VarCheck.obj
 0005:0000020c       $unwind$VarCheckVariablePropertySet 00000000000b91ec     VariableRuntimeDxe:VarCheck.obj
 0005:0000020c       $unwind$VariableCommonInitialize 00000000000b91ec     VariableRuntimeDxe:Variable.obj
 0005:0000020c       $unwind$DivU64x32Remainder 00000000000b91ec     BaseLib:DivU64x32Remainder.obj
 0005:0000020c       $unwind$AsciiStrnCmp       00000000000b91ec     BaseLib:String.obj
 0005:0000020c       $unwind$StrCmp             00000000000b91ec     BaseLib:String.obj
 0005:0000020c       $unwind$StrLen             00000000000b91ec     BaseLib:String.obj
 0005:0000020c       $unwind$CopyGuid           00000000000b91ec     BaseMemoryLibRepStr:MemLibGuid.obj
 0005:0000020c       $unwind$ScanMem8           00000000000b91ec     BaseMemoryLibRepStr:ScanMem8Wrapper.obj
 0005:0000020c       $unwind$SetMem             00000000000b91ec     BaseMemoryLibRepStr:SetMemWrapper.obj
 0005:0000020c       $unwind$PciCf8Read32       00000000000b91ec     BasePciCf8Lib:PciCf8Lib.obj
 0005:0000020c       $unwind$InternalAllocateCopyPool 00000000000b91ec     UefiMemoryAllocationLib:MemoryAllocationLib.obj
 0005:0000020c       $unwind$InternalAcpiDelay  00000000000b91ec     DxeAcpiTimerLib:AcpiTimerLib.obj
 0005:0000021c       $unwind$GetFvbInfoByAddress 00000000000b91fc     VariableRuntimeDxe:Variable.obj
 0005:00000234       $unwind$VariableLockRequestToLock 00000000000b9214     VariableRuntimeDxe:VariableLockRequestToLock.obj
 0005:00000248       $unwind$strcpy             00000000000b9228     RuntimeCryptLib:CrtWrapper.obj
 0005:00000248       $unwind$BIO_free           00000000000b9228     OpensslLib:bio_lib.obj
 0005:00000248       $unwind$pkey_ecd_digestsign448 00000000000b9228     OpensslLib:ecx_meth.obj
 0005:00000248       $unwind$aes_ctr_cipher     00000000000b9228     OpensslLib:e_aes.obj
 0005:00000248       $unwind$MorLockInitAtEndOfDxe 00000000000b9228     VariableRuntimeDxe:TcgMorLockDxe.obj
 0005:00000248       $unwind$AsciiStrCatS       00000000000b9228     BaseLib:SafeString.obj
 0005:00000248       $unwind$AsciiStrDecimalToUintnS 00000000000b9228     BaseLib:SafeString.obj
 0005:00000248       $unwind$AsciiStrnCpyS      00000000000b9228     BaseLib:SafeString.obj
 0005:00000250       $unwind$BN_uadd            00000000000b9230     OpensslLib:bn_add.obj
 0005:00000250       $unwind$bn_div_words       00000000000b9230     OpensslLib:bn_asm.obj
 0005:00000250       $unwind$BN_bin2bn          00000000000b9230     OpensslLib:bn_lib.obj
 0005:00000250       $unwind$BN_num_bits        00000000000b9230     OpensslLib:bn_lib.obj
 0005:00000250       $unwind$bn_from_mont_fixed_top 00000000000b9230     OpensslLib:bn_mont.obj
 0005:00000250       $unwind$BN_div_word        00000000000b9230     OpensslLib:bn_word.obj
 0005:00000250       $unwind$int_update         00000000000b9230     OpensslLib:cm_pmeth.obj
 0005:00000250       $unwind$ec_GFp_simple_group_get_curve 00000000000b9230     OpensslLib:ecp_smpl.obj
 0005:00000250       $unwind$md_ctrl            00000000000b9230     OpensslLib:bio_md.obj
 0005:00000250       $unwind$EVP_Digest         00000000000b9230     OpensslLib:digest.obj
 0005:00000250       $unwind$aes_ecb_cipher     00000000000b9230     OpensslLib:e_aes.obj
 0005:00000250       $unwind$aria_128_ecb_cipher 00000000000b9230     OpensslLib:e_aria.obj
 0005:00000250       $unwind$aria_192_ecb_cipher 00000000000b9230     OpensslLib:e_aria.obj
 0005:00000250       $unwind$aria_256_ecb_cipher 00000000000b9230     OpensslLib:e_aria.obj
 0005:00000250       $unwind$sm4_ecb_cipher     00000000000b9230     OpensslLib:e_sm4.obj
 0005:00000250       $unwind$getrn              00000000000b9230     OpensslLib:lhash.obj
 0005:00000250       $unwind$OBJ_NAME_add       00000000000b9230     OpensslLib:o_names.obj
 0005:00000250       $unwind$SHA1_Final         00000000000b9230     OpensslLib:sha1dgst.obj
 0005:00000250       $unwind$SHA256_Final       00000000000b9230     OpensslLib:sha256.obj
 0005:00000250       $unwind$SM4_decrypt        00000000000b9230     OpensslLib:sm4.obj
 0005:00000250       $unwind$SM4_encrypt        00000000000b9230     OpensslLib:sm4.obj
 0005:00000250       $unwind$obj_trust          00000000000b9230     OpensslLib:x509_trs.obj
 0005:00000250       $unwind$augment_stack      00000000000b9230     OpensslLib:x509_vfy.obj
 0005:00000250       $unwind$i2r_certpol        00000000000b9230     OpensslLib:v3_cpols.obj
 0005:00000250       $unwind$crldp_from_section 00000000000b9230     OpensslLib:v3_crld.obj
 0005:00000250       $unwind$VarCheckLibVariablePropertySet 00000000000b9230     VarCheckLib:VarCheckLib.obj
 0005:00000250       $unwind$MeasureVariable    00000000000b9230     VariableRuntimeDxe:Measurement.obj
 0005:00000250       $unwind$IsDevicePathValid  00000000000b9230     UefiDevicePathLibDevicePathProtocol:UefiDevicePathLib.obj
 0005:00000268       $unwind$OBJ_txt2obj        00000000000b9248     OpensslLib:obj_dat.obj
 0005:00000268       $unwind$sxnet_v2i          00000000000b9248     OpensslLib:v3_sxnet.obj
 0005:00000268       $unwind$InternalGetVariable 00000000000b9248     VariableRuntimeDxe:Measurement.obj
 0005:0000027c       $unwind$asn1_template_free 00000000000b925c     OpensslLib:tasn_fre.obj
 0005:0000027c       $unwind$SecureBootHook     00000000000b925c     VariableRuntimeDxe:Measurement.obj
 0005:00000290       $unwind$gmtime             00000000000b9270     RuntimeCryptLib:TimerWrapper.obj
 0005:00000290       $unwind$BN_kronecker       00000000000b9270     OpensslLib:bn_kron.obj
 0005:00000290       $unwind$bn_lshift_fixed_top 00000000000b9270     OpensslLib:bn_shift.obj
 0005:00000290       $unwind$bn_rshift_fixed_top 00000000000b9270     OpensslLib:bn_shift.obj
 0005:00000290       $unwind$aes_gcm_tls_cipher 00000000000b9270     OpensslLib:e_aes.obj
 0005:00000290       $unwind$aria_gcm_tls_cipher 00000000000b9270     OpensslLib:e_aria.obj
 0005:00000290       $unwind$CRYPTO_ctr128_encrypt 00000000000b9270     OpensslLib:ctr128.obj
 0005:00000290       $unwind$CRYPTO_gcm128_aad  00000000000b9270     OpensslLib:gcm128.obj
 0005:00000290       $unwind$rsa_pss_param_print 00000000000b9270     OpensslLib:rsa_ameth.obj
 0005:00000290       $unwind$rsa_get_public_exp 00000000000b9270     OpensslLib:rsa_crpt.obj
 0005:00000290       $unwind$SipHash_Update     00000000000b9270     OpensslLib:siphash.obj
 0005:00000290       $unwind$X509_chain_check_suiteb 00000000000b9270     OpensslLib:x509_cmp.obj
 0005:00000290       $unwind$check_auth_level   00000000000b9270     OpensslLib:x509_vfy.obj
 0005:00000290       $unwind$crl_akid_check     00000000000b9270     OpensslLib:x509_vfy.obj
 0005:00000290       $unwind$X509_VERIFY_PARAM_set1_policies 00000000000b9270     OpensslLib:x509_vpm.obj
 0005:00000290       $unwind$X509V3_get_d2i     00000000000b9270     OpensslLib:v3_lib.obj
 0005:00000290       $unwind$VariablePropertyGetFunction 00000000000b9270     VarCheckLib:VarCheckLib.obj
 0005:00000290       $unwind$GetBestPolicyMatch 00000000000b9270     VariablePolicyLibRuntimeDxe:VariablePolicyLib.obj
 0005:00000290       $unwind$FindVariableEx     00000000000b9270     VariableRuntimeDxe:VariableParsing.obj
 0005:00000290       $unwind$CheckSignatureListFormat 00000000000b9270     AuthVariableLib:AuthService.obj
 0005:000002ac       $unwind$VariableServiceGetNextVariableInternal 00000000000b928c     VariableRuntimeDxe:VariableParsing.obj
 0005:000002c8       $unwind$InitRealNonVolatileVariableStore 00000000000b92a8     VariableRuntimeDxe:VariableNonVolatile.obj
 0005:000002e0       $unwind$GetLbaAndOffsetByAddress 00000000000b92c0     VariableRuntimeDxe:Reclaim.obj
 0005:000002f0       $unwind$FtwVariableSpace   00000000000b92d0     VariableRuntimeDxe:Reclaim.obj
 0005:000002fc       $unwind$VariableExLibFindVariable 00000000000b92dc     VariableRuntimeDxe:VariableExLib.obj
 0005:0000030c       $unwind$OBJ_add_object     00000000000b92ec     OpensslLib:obj_dat.obj
 0005:0000030c       $unwind$rsa_priv_encode    00000000000b92ec     OpensslLib:rsa_ameth.obj
 0005:0000030c       $unwind$VariableExLibFindNextVariable 00000000000b92ec     VariableRuntimeDxe:VariableExLib.obj
 0005:0000031c       $unwind$VariableExLibUpdateVariable 00000000000b92fc     VariableRuntimeDxe:VariableExLib.obj
 0005:00000324       $unwind$nc_match           00000000000b9304     OpensslLib:v3_ncons.obj
 0005:00000324       $unwind$CompareGuid        00000000000b9304     BaseMemoryLibRepStr:MemLibGuid.obj
 0005:0000033c       $unwind$c2i_uint64_int     00000000000b931c     OpensslLib:a_int.obj
 0005:0000033c       $unwind$OBJ_NAME_get       00000000000b931c     OpensslLib:o_names.obj
 0005:0000033c       $unwind$equal_wildcard     00000000000b931c     OpensslLib:v3_utl.obj
 0005:0000033c       $unwind$StrCpyS            00000000000b931c     BaseLib:SafeString.obj
 0005:00000354       $unwind$DebugPrint         00000000000b9334     BaseDebugLibSerialPort:DebugLib.obj
 0005:0000035c       $unwind$DebugPrintMarker   00000000000b933c     BaseDebugLibSerialPort:DebugLib.obj
 0005:00000370       $unwind$DebugAssert        00000000000b9350     BaseDebugLibSerialPort:DebugLib.obj
 0005:00000378       $unwind$hash_init_with_dom 00000000000b9358     OpensslLib:eddsa.obj
 0005:00000378       $unwind$ossl_ecdsa_sign    00000000000b9358     OpensslLib:ecdsa_ossl.obj
 0005:00000378       $unwind$EfiCreateProtocolNotifyEvent 00000000000b9358     UefiLib:UefiLib.obj
 0005:00000380       $unwind$ASN1_item_dup      00000000000b9360     OpensslLib:a_dup.obj
 0005:00000380       $unwind$asn1_string_to_bn  00000000000b9360     OpensslLib:a_int.obj
 0005:00000380       $unwind$ASN1_TYPE_unpack_sequence 00000000000b9360     OpensslLib:a_type.obj
 0005:00000380       $unwind$ASN1_generate_v3   00000000000b9360     OpensslLib:asn1_gen.obj
 0005:00000380       $unwind$append_exp         00000000000b9360     OpensslLib:asn1_gen.obj
 0005:00000380       $unwind$ASN1_STRING_type_new 00000000000b9360     OpensslLib:asn1_lib.obj
 0005:00000380       $unwind$uint32_new         00000000000b9360     OpensslLib:x_int64.obj
 0005:00000380       $unwind$uint64_new         00000000000b9360     OpensslLib:x_int64.obj
 0005:00000380       $unwind$BN_CTX_get         00000000000b9360     OpensslLib:bn_ctx.obj
 0005:00000380       $unwind$BN_CTX_start       00000000000b9360     OpensslLib:bn_ctx.obj
 0005:00000380       $unwind$BN_lshift          00000000000b9360     OpensslLib:bn_shift.obj
 0005:00000380       $unwind$BN_rshift          00000000000b9360     OpensslLib:bn_shift.obj
 0005:00000380       $unwind$pkey_cmac_ctrl     00000000000b9360     OpensslLib:cm_pmeth.obj
 0005:00000380       $unwind$CMAC_CTX_new       00000000000b9360     OpensslLib:cmac.obj
 0005:00000380       $unwind$dh_param_decode    00000000000b9360     OpensslLib:dh_ameth.obj
 0005:00000380       $unwind$dh_pkey_public_check 00000000000b9360     OpensslLib:dh_ameth.obj
 0005:00000380       $unwind$dh_bn_mod_exp      00000000000b9360     OpensslLib:dh_key.obj
 0005:00000380       $unwind$pkey_dh_init       00000000000b9360     OpensslLib:dh_pmeth.obj
 0005:00000380       $unwind$curve448_scalar_add 00000000000b9360     OpensslLib:scalar.obj
 0005:00000380       $unwind$eckey_param_decode 00000000000b9360     OpensslLib:ec_ameth.obj
 0005:00000380       $unwind$old_ec_priv_decode 00000000000b9360     OpensslLib:ec_ameth.obj
 0005:00000380       $unwind$ECDSA_SIG_new      00000000000b9360     OpensslLib:ec_asn1.obj
 0005:00000380       $unwind$pkey_ec_init       00000000000b9360     OpensslLib:ec_pmeth.obj
 0005:00000380       $unwind$pkey_ec_verify     00000000000b9360     OpensslLib:ec_pmeth.obj
 0005:00000380       $unwind$ec_GFp_mont_field_decode 00000000000b9360     OpensslLib:ecp_mont.obj
 0005:00000380       $unwind$ec_GFp_mont_field_encode 00000000000b9360     OpensslLib:ecp_mont.obj
 0005:00000380       $unwind$ec_GFp_mont_field_mul 00000000000b9360     OpensslLib:ecp_mont.obj
 0005:00000380       $unwind$ec_GFp_mont_field_set_to_one 00000000000b9360     OpensslLib:ecp_mont.obj
 0005:00000380       $unwind$ec_GFp_mont_field_sqr 00000000000b9360     OpensslLib:ecp_mont.obj
 0005:00000380       $unwind$ec_GFp_simple_point_set_affine_coordinates 00000000000b9360     OpensslLib:ecp_smpl.obj
 0005:00000380       $unwind$pkey_ecd_digestsign25519 00000000000b9360     OpensslLib:ecx_meth.obj
 0005:00000380       $unwind$aes_cbc_cipher     00000000000b9360     OpensslLib:e_aes.obj
 0005:00000380       $unwind$EVP_PKEY_get0_EC_KEY 00000000000b9360     OpensslLib:p_lib.obj
 0005:00000380       $unwind$EVP_PKEY_new       00000000000b9360     OpensslLib:p_lib.obj
 0005:00000380       $unwind$EVP_PKEY_sign_init 00000000000b9360     OpensslLib:pmeth_fn.obj
 0005:00000380       $unwind$EVP_PKEY_verify_init 00000000000b9360     OpensslLib:pmeth_fn.obj
 0005:00000380       $unwind$EVP_PKEY_CTX_ctrl  00000000000b9360     OpensslLib:pmeth_lib.obj
 0005:00000380       $unwind$hmac_signctx       00000000000b9360     OpensslLib:hm_pmeth.obj
 0005:00000380       $unwind$pkey_hkdf_init     00000000000b9360     OpensslLib:hkdf.obj
 0005:00000380       $unwind$pkey_tls1_prf_init 00000000000b9360     OpensslLib:tls1_prf.obj
 0005:00000380       $unwind$PKCS7_ctrl         00000000000b9360     OpensslLib:pk7_lib.obj
 0005:00000380       $unwind$ctr_BCC_block      00000000000b9360     OpensslLib:drbg_ctr.obj
 0005:00000380       $unwind$rand_pool_add_begin 00000000000b9360     OpensslLib:rand_lib.obj
 0005:00000380       $unwind$old_rsa_priv_decode 00000000000b9360     OpensslLib:rsa_ameth.obj
 0005:00000380       $unwind$rsa_multip_info_new 00000000000b9360     OpensslLib:rsa_mp.obj
 0005:00000380       $unwind$RSA_padding_check_PKCS1_type_1 00000000000b9360     OpensslLib:rsa_pk1.obj
 0005:00000380       $unwind$setup_tbuf         00000000000b9360     OpensslLib:rsa_pmeth.obj
 0005:00000380       $unwind$pkey_siphash_init  00000000000b9360     OpensslLib:siphash_pmeth.obj
 0005:00000380       $unwind$pkey_sm2_decrypt   00000000000b9360     OpensslLib:sm2_pmeth.obj
 0005:00000380       $unwind$pkey_sm2_init      00000000000b9360     OpensslLib:sm2_pmeth.obj
 0005:00000380       $unwind$X509_STORE_new     00000000000b9360     OpensslLib:x509_lu.obj
 0005:00000380       $unwind$x509_name_ex_print 00000000000b9360     OpensslLib:x_name.obj
 0005:00000380       $unwind$X509_PUBKEY_get0   00000000000b9360     OpensslLib:x_pubkey.obj
 0005:00000380       $unwind$MmioRead32         00000000000b9360     BaseIoLibIntrinsicSev:IoLib.obj
 0005:00000380       $unwind$TdIoRead32         00000000000b9360     BaseIoLibIntrinsicSev:IoLibInternalTdx.obj
 0005:00000380       $unwind$TdIoWrite32        00000000000b9360     BaseIoLibIntrinsicSev:IoLibInternalTdx.obj
 0005:00000380       $unwind$TdIoWrite8         00000000000b9360     BaseIoLibIntrinsicSev:IoLibInternalTdx.obj
 0005:00000380       $unwind$EfiCreateEventReadyToBootEx 00000000000b9360     UefiLib:UefiNotTiano.obj
 0005:00000388       $unwind$RandGetBytes       00000000000b9368     OpensslLib:rand_pool.obj
 0005:00000388       $unwind$RegisterVariablePolicy 00000000000b9368     VariablePolicyLibRuntimeDxe:VariablePolicyLib.obj
 0005:00000398       $unwind$v2i_ASN1_BIT_STRING 00000000000b9378     OpensslLib:v3_bitst.obj
 0005:00000398       $unwind$ValidateSetVariable 00000000000b9378     VariablePolicyLibRuntimeDxe:VariablePolicyLib.obj
 0005:000003b4       $unwind$ASN1_item_verify   00000000000b9394     OpensslLib:a_verify.obj
 0005:000003b4       $unwind$ASN1_bn_print      00000000000b9394     OpensslLib:t_pkey.obj
 0005:000003b4       $unwind$aes_cfb1_cipher    00000000000b9394     OpensslLib:e_aes.obj
 0005:000003b4       $unwind$aria_128_ofb_cipher 00000000000b9394     OpensslLib:e_aria.obj
 0005:000003b4       $unwind$aria_192_ofb_cipher 00000000000b9394     OpensslLib:e_aria.obj
 0005:000003b4       $unwind$aria_256_ofb_cipher 00000000000b9394     OpensslLib:e_aria.obj
 0005:000003b4       $unwind$sm4_ofb_cipher     00000000000b9394     OpensslLib:e_sm4.obj
 0005:000003b4       $unwind$tls1_prf_alg       00000000000b9394     OpensslLib:tls1_prf.obj
 0005:000003b4       $unwind$int_rsa_verify     00000000000b9394     OpensslLib:rsa_sign.obj
 0005:000003b4       $unwind$policy_cache_set_mapping 00000000000b9394     OpensslLib:pcy_map.obj
 0005:000003b4       $unwind$policy_section     00000000000b9394     OpensslLib:v3_cpols.obj
 0005:000003b4       $unwind$r2i_certpol        00000000000b9394     OpensslLib:v3_cpols.obj
 0005:000003b4       $unwind$v2i_idp            00000000000b9394     OpensslLib:v3_crld.obj
 0005:000003b4       $unwind$v2i_POLICY_MAPPINGS 00000000000b9394     OpensslLib:v3_pmaps.obj
 0005:000003b4       $unwind$v2i_TLS_FEATURE    00000000000b9394     OpensslLib:v3_tlsf.obj
 0005:000003b4       $unwind$VarCheckLibSetVariableCheck 00000000000b9394     VarCheckLib:VarCheckLib.obj
 0005:000003d0       $unwind$AuthVariableLibInitialize 00000000000b93b0     AuthVariableLib:AuthVariableLib.obj
 0005:000003e8       $unwind$qsort              00000000000b93c8     RuntimeCryptLib:CrtWrapper.obj
 0005:000003e8       $unwind$ASN1_STRING_set    00000000000b93c8     OpensslLib:asn1_lib.obj
 0005:000003e8       $unwind$ASN1_item_pack     00000000000b93c8     OpensslLib:asn_pack.obj
 0005:000003e8       $unwind$bn_secure_c2i      00000000000b93c8     OpensslLib:x_bignum.obj
 0005:000003e8       $unwind$mem_write          00000000000b93c8     OpensslLib:bss_mem.obj
 0005:000003e8       $unwind$witness            00000000000b93c8     OpensslLib:bn_prime.obj
 0005:000003e8       $unwind$CONF_parse_list    00000000000b93c8     OpensslLib:conf_mod.obj
 0005:000003e8       $unwind$ec_asn1_group2fieldid 00000000000b93c8     OpensslLib:ec_asn1.obj
 0005:000003e8       $unwind$EC_GROUP_new_curve_GFp 00000000000b93c8     OpensslLib:ec_cvt.obj
 0005:000003e8       $unwind$ec_key_simple_check_key 00000000000b93c8     OpensslLib:ec_key.obj
 0005:000003e8       $unwind$EC_GROUP_set_generator 00000000000b93c8     OpensslLib:ec_lib.obj
 0005:000003e8       $unwind$pkey_ec_keygen     00000000000b93c8     OpensslLib:ec_pmeth.obj
 0005:000003e8       $unwind$ecx_key_print      00000000000b93c8     OpensslLib:ecx_meth.obj
 0005:000003e8       $unwind$EVP_CipherInit_ex  00000000000b93c8     OpensslLib:evp_enc.obj
 0005:000003e8       $unwind$PKCS7_get0_signers 00000000000b93c8     OpensslLib:pk7_smime.obj
 0005:000003e8       $unwind$RSA_padding_add_PKCS1_type_2 00000000000b93c8     OpensslLib:rsa_pk1.obj
 0005:000003e8       $unwind$RSA_padding_add_SSLv23 00000000000b93c8     OpensslLib:rsa_ssl.obj
 0005:000003e8       $unwind$ec_field_size      00000000000b93c8     OpensslLib:sm2_crypt.obj
 0005:000003e8       $unwind$check_id           00000000000b93c8     OpensslLib:x509_vfy.obj
 0005:000003e8       $unwind$level_add_node     00000000000b93c8     OpensslLib:pcy_node.obj
 0005:000003e8       $unwind$copy_issuer        00000000000b93c8     OpensslLib:v3_alt.obj
 0005:000003e8       $unwind$v2i_GENERAL_NAME_ex 00000000000b93c8     OpensslLib:v3_alt.obj
 0005:000003e8       $unwind$NAME_CONSTRAINTS_check 00000000000b93c8     OpensslLib:v3_ncons.obj
 0005:000003e8       $unwind$do_i2r_name_constraints 00000000000b93c8     OpensslLib:v3_ncons.obj
 0005:000003e8       $unwind$AuthVariableLibProcessVariable 00000000000b93c8     AuthVariableLib:AuthVariableLib.obj
 0005:00000400       $unwind$AuthServiceInternalFindVariable 00000000000b93e0     AuthVariableLib:AuthService.obj
 0005:00000414       $unwind$add_pniels_to_pt   00000000000b93f4     OpensslLib:curve448.obj
 0005:00000414       $unwind$pniels_to_pt       00000000000b93f4     OpensslLib:curve448.obj
 0005:00000414       $unwind$gf_serialize       00000000000b93f4     OpensslLib:f_generic.obj
 0005:00000414       $unwind$AuthServiceInternalUpdateVariable 00000000000b93f4     AuthVariableLib:AuthService.obj
 0005:00000428       $unwind$AuthServiceInternalUpdateVariableWithTimeStamp 00000000000b9408     AuthVariableLib:AuthService.obj
 0005:0000043c       $unwind$UpdatePlatformMode 00000000000b941c     AuthVariableLib:AuthService.obj
 0005:0000044c       $unwind$ProcessVarWithPk   00000000000b942c     AuthVariableLib:AuthService.obj
 0005:00000468       $unwind$PKCS7_signatureVerify 00000000000b9448     OpensslLib:pk7_doit.obj
 0005:00000468       $unwind$ProcessVariable    00000000000b9448     AuthVariableLib:AuthService.obj
 0005:00000484       $unwind$FilterSignatureList 00000000000b9464     AuthVariableLib:AuthService.obj
 0005:0000049c       $unwind$CalculatePrivAuthVarSignChainSHA256Digest 00000000000b947c     AuthVariableLib:AuthService.obj
 0005:000004b4       $unwind$FindCertsFromDb    00000000000b9494     AuthVariableLib:AuthService.obj
 0005:000004cc       $unwind$GetCertsFromDb     00000000000b94ac     AuthVariableLib:AuthService.obj
 0005:000004e0       $unwind$DeleteCertsFromDb  00000000000b94c0     AuthVariableLib:AuthService.obj
 0005:000004f8       $unwind$CleanCertsFromDb   00000000000b94d8     AuthVariableLib:AuthService.obj
 0005:0000050c       $unwind$VerifyTimeBasedPayload 00000000000b94ec     AuthVariableLib:AuthService.obj
 0005:00000524       $unwind$table_select       00000000000b9504     OpensslLib:curve25519.obj
 0005:00000524       $unwind$VerifyTimeBasedPayloadAndUpdate 00000000000b9504     AuthVariableLib:AuthService.obj
 0005:00000544       $unwind$cert_crl           00000000000b9524     OpensslLib:x509_vfy.obj
 0005:00000544       $unwind$check_leaf_suiteb  00000000000b9524     OpensslLib:x509_vfy.obj
 0005:00000544       $unwind$check_sig_alg_match 00000000000b9524     OpensslLib:v3_purp.obj
 0005:00000544       $unwind$GetVariableFlashNvStorageInfo 00000000000b9524     BaseVariableFlashInfoLib:BaseVariableFlashInfoLib.obj
 0005:00000554       $unwind$RegisterBasicVariablePolicy 00000000000b9534     VariablePolicyHelperLib:VariablePolicyHelperLib.obj
 0005:00000560       $unwind$WrapPkcs7Data      00000000000b9540     RuntimeCryptLib:CryptPkcs7VerifyCommon.obj
 0005:00000560       $unwind$bn_mul_normal      00000000000b9540     OpensslLib:bn_mul.obj
 0005:00000560       $unwind$BN_hex2bn          00000000000b9540     OpensslLib:bn_print.obj
 0005:00000560       $unwind$ec_GFp_simple_get_Jprojective_coordinates_GFp 00000000000b9540     OpensslLib:ecp_smpl.obj
 0005:00000560       $unwind$ec_GFp_simple_set_Jprojective_coordinates_GFp 00000000000b9540     OpensslLib:ecp_smpl.obj
 0005:00000560       $unwind$CRYPTO_cfb128_encrypt 00000000000b9540     OpensslLib:cfb128.obj
 0005:00000560       $unwind$CRYPTO_gcm128_finish 00000000000b9540     OpensslLib:gcm128.obj
 0005:00000560       $unwind$CRYPTO_ofb128_encrypt 00000000000b9540     OpensslLib:ofb128.obj
 0005:00000560       $unwind$OBJ_bsearch_ex_    00000000000b9540     OpensslLib:obj_dat.obj
 0005:00000560       $unwind$add_attribute      00000000000b9540     OpensslLib:pk7_doit.obj
 0005:00000560       $unwind$SHA512_Final       00000000000b9540     OpensslLib:sha512.obj
 0005:00000560       $unwind$tree_evaluate      00000000000b9540     OpensslLib:pcy_tree.obj
 0005:00000560       $unwind$set_reasons        00000000000b9540     OpensslLib:v3_crld.obj
 0005:00000560       $unwind$nc_email           00000000000b9540     OpensslLib:v3_ncons.obj
 0005:00000560       $unwind$valid_star         00000000000b9540     OpensslLib:v3_utl.obj
 0005:00000560       $unwind$GetUefiDefinedVarCheckFunction 00000000000b9540     VarCheckUefiLib:VarCheckUefiLibNullClass.obj
 0005:0000057c       $unwind$SetVariableCheckHandlerUefiDefined 00000000000b955c     VarCheckUefiLib:VarCheckUefiLibNullClass.obj
 0005:00000590       $unwind$i2d_X509_NAME      00000000000b9570     OpensslLib:x_name.obj
 0005:00000590       $unwind$TdIoRead8          00000000000b9570     BaseIoLibIntrinsicSev:IoLibInternalTdx.obj
 0005:00000590       $unwind$BasePrintLibSPrint 00000000000b9570     BasePrintLib:PrintLibInternal.obj
 0005:00000598       $unwind$AsciiSPrint        00000000000b9578     BasePrintLib:PrintLib.obj
 0005:000005a0       $unwind$rsa_pss_decode     00000000000b9580     OpensslLib:rsa_ameth.obj
 0005:000005a0       $unwind$BasePrintLibValueToString 00000000000b9580     BasePrintLib:PrintLibInternal.obj
 0005:000005ac       $unwind$BasePrintLibSPrintMarker 00000000000b958c     BasePrintLib:PrintLibInternal.obj
 0005:000005c8       $unwind$InternalX509GetNIDName 00000000000b95a8     RuntimeCryptLib:CryptX509.obj
 0005:000005e0       $unwind$RsaGetPublicKeyFromX509 00000000000b95c0     RuntimeCryptLib:CryptX509.obj
 0005:000005f4       $unwind$X509PopCertificate 00000000000b95d4     RuntimeCryptLib:CryptPkcs7VerifyCommon.obj
 0005:0000060c       $unwind$Pkcs7GetSigners    00000000000b95ec     RuntimeCryptLib:CryptPkcs7VerifyCommon.obj
 0005:00000624       $unwind$print_distpoint    00000000000b9604     OpensslLib:v3_crld.obj
 0005:00000624       $unwind$GetTdInfo          00000000000b9604     TdxLib:TdInfo.obj
 0005:0000062c       $unwind$sha256_block_data_order 00000000000b960c     OpensslLib:sha256.obj
 0005:00000644       $unwind$time               00000000000b9624     RuntimeCryptLib:TimerWrapper.obj
 0005:00000644       $unwind$ASN1_item_digest   00000000000b9624     OpensslLib:a_digest.obj
 0005:00000644       $unwind$asn1_template_new  00000000000b9624     OpensslLib:tasn_new.obj
 0005:00000644       $unwind$asn1_do_adb        00000000000b9624     OpensslLib:tasn_utl.obj
 0005:00000644       $unwind$asn1_do_lock       00000000000b9624     OpensslLib:tasn_utl.obj
 0005:00000644       $unwind$BIO_new_mem_buf    00000000000b9624     OpensslLib:bss_mem.obj
 0005:00000644       $unwind$BN_BLINDING_new    00000000000b9624     OpensslLib:bn_blind.obj
 0005:00000644       $unwind$BN_POOL_get        00000000000b9624     OpensslLib:bn_ctx.obj
 0005:00000644       $unwind$BN_div             00000000000b9624     OpensslLib:bn_div.obj
 0005:00000644       $unwind$BN_nnmod           00000000000b9624     OpensslLib:bn_mod.obj
 0005:00000644       $unwind$pkey_dh_keygen     00000000000b9624     OpensslLib:dh_pmeth.obj
 0005:00000644       $unwind$EC_GROUP_get_ecpkparameters 00000000000b9624     OpensslLib:ec_asn1.obj
 0005:00000644       $unwind$EC_KEY_new_method  00000000000b9624     OpensslLib:ec_kmeth.obj
 0005:00000644       $unwind$EC_GROUP_new       00000000000b9624     OpensslLib:ec_lib.obj
 0005:00000644       $unwind$EC_POINT_new       00000000000b9624     OpensslLib:ec_lib.obj
 0005:00000644       $unwind$EC_POINTs_make_affine 00000000000b9624     OpensslLib:ec_lib.obj
 0005:00000644       $unwind$pkey_ec_ctrl       00000000000b9624     OpensslLib:ec_pmeth.obj
 0005:00000644       $unwind$pkey_ec_derive     00000000000b9624     OpensslLib:ec_pmeth.obj
 0005:00000644       $unwind$ecd_item_verify    00000000000b9624     OpensslLib:ecx_meth.obj
 0005:00000644       $unwind$enc_new            00000000000b9624     OpensslLib:bio_enc.obj
 0005:00000644       $unwind$EVP_DigestInit_ex  00000000000b9624     OpensslLib:digest.obj
 0005:00000644       $unwind$aes_init_key       00000000000b9624     OpensslLib:e_aes.obj
 0005:00000644       $unwind$aes_xts_cipher     00000000000b9624     OpensslLib:e_aes.obj
 0005:00000644       $unwind$EVP_CIPHER_CTX_copy 00000000000b9624     OpensslLib:evp_enc.obj
 0005:00000644       $unwind$EVP_DecryptFinal_ex 00000000000b9624     OpensslLib:evp_enc.obj
 0005:00000644       $unwind$EVP_CIPHER_param_to_asn1 00000000000b9624     OpensslLib:evp_lib.obj
 0005:00000644       $unwind$EVP_PKEY_copy_parameters 00000000000b9624     OpensslLib:p_lib.obj
 0005:00000644       $unwind$EVP_PKEY_CTX_dup   00000000000b9624     OpensslLib:pmeth_lib.obj
 0005:00000644       $unwind$pkey_hmac_init     00000000000b9624     OpensslLib:hm_pmeth.obj
 0005:00000644       $unwind$CRYPTO_memdup      00000000000b9624     OpensslLib:o_str.obj
 0005:00000644       $unwind$OPENSSL_buf2hexstr 00000000000b9624     OpensslLib:o_str.obj
 0005:00000644       $unwind$OBJ_dup            00000000000b9624     OpensslLib:obj_lib.obj
 0005:00000644       $unwind$drbg_setup         00000000000b9624     OpensslLib:drbg_lib.obj
 0005:00000644       $unwind$rand_drbg_new      00000000000b9624     OpensslLib:drbg_lib.obj
 0005:00000644       $unwind$RAND_bytes         00000000000b9624     OpensslLib:rand_lib.obj
 0005:00000644       $unwind$rand_pool_add      00000000000b9624     OpensslLib:rand_lib.obj
 0005:00000644       $unwind$rand_pool_bytes_needed 00000000000b9624     OpensslLib:rand_lib.obj
 0005:00000644       $unwind$rsa_item_verify    00000000000b9624     OpensslLib:rsa_ameth.obj
 0005:00000644       $unwind$pkey_siphash_ctrl  00000000000b9624     OpensslLib:siphash_pmeth.obj
 0005:00000644       $unwind$OPENSSL_sk_dup     00000000000b9624     OpensslLib:stack.obj
 0005:00000644       $unwind$sk_reserve         00000000000b9624     OpensslLib:stack.obj
 0005:00000644       $unwind$X509_verify_cert   00000000000b9624     OpensslLib:x509_vfy.obj
 0005:00000644       $unwind$x509_name_ex_new   00000000000b9624     OpensslLib:x_name.obj
 0005:00000644       $unwind$i2s_ASN1_IA5STRING 00000000000b9624     OpensslLib:v3_ia5.obj
 0005:00000644       $unwind$s2i_ASN1_IA5STRING 00000000000b9624     OpensslLib:v3_ia5.obj
 0005:00000644       $unwind$bignum_to_string   00000000000b9624     OpensslLib:v3_utl.obj
 0005:00000644       $unwind$i2s_ASN1_INTEGER   00000000000b9624     OpensslLib:v3_utl.obj
 0005:00000650       $unwind$find_issuer        00000000000b9630     OpensslLib:x509_vfy.obj
 0005:00000668       $unwind$rsa_multip_calc_product 00000000000b9648     OpensslLib:rsa_mp.obj
 0005:00000668       $unwind$check_chain_extensions 00000000000b9648     OpensslLib:x509_vfy.obj
 0005:00000680       $unwind$EC_GROUP_new_from_ecparameters 00000000000b9660     OpensslLib:ec_asn1.obj
 0005:00000680       $unwind$ec_asn1_group2curve 00000000000b9660     OpensslLib:ec_asn1.obj
 0005:00000680       $unwind$ec_GFp_simple_group_check_discriminant 00000000000b9660     OpensslLib:ecp_smpl.obj
 0005:00000680       $unwind$enc_write          00000000000b9660     OpensslLib:bio_enc.obj
 0005:00000680       $unwind$rand_drbg_restart  00000000000b9660     OpensslLib:drbg_lib.obj
 0005:00000680       $unwind$check_name_constraints 00000000000b9660     OpensslLib:x509_vfy.obj
 0005:0000069c       $unwind$CRYPTO_gcm128_decrypt 00000000000b967c     OpensslLib:gcm128.obj
 0005:0000069c       $unwind$CRYPTO_gcm128_encrypt 00000000000b967c     OpensslLib:gcm128.obj
 0005:0000069c       $unwind$CRYPTO_gcm128_setiv 00000000000b967c     OpensslLib:gcm128.obj
 0005:0000069c       $unwind$check_dane_pkeys   00000000000b967c     OpensslLib:x509_vfy.obj
 0005:0000069c       $unwind$check_trust        00000000000b967c     OpensslLib:x509_vfy.obj
 0005:0000069c       $unwind$tree_calculate_authority_set 00000000000b967c     OpensslLib:pcy_tree.obj
 0005:000006b8       $unwind$check_cert         00000000000b9698     OpensslLib:x509_vfy.obj
 0005:000006cc       $unwind$get_crl_sk         00000000000b96ac     OpensslLib:x509_vfy.obj
 0005:000006e4       $unwind$check_crl_path     00000000000b96c4     OpensslLib:x509_vfy.obj
 0005:000006f4       $unwind$bn_mod_sub_fixed_top 00000000000b96d4     OpensslLib:bn_mod.obj
 0005:000006f4       $unwind$idp_check_dp       00000000000b96d4     OpensslLib:x509_vfy.obj
 0005:0000070c       $unwind$crl_crldp_check    00000000000b96ec     OpensslLib:x509_vfy.obj
 0005:00000724       $unwind$c2i_ibuf           00000000000b9704     OpensslLib:a_int.obj
 0005:00000724       $unwind$BIO_new            00000000000b9704     OpensslLib:bio_lib.obj
 0005:00000724       $unwind$bn_expand2         00000000000b9704     OpensslLib:bn_lib.obj
 0005:00000724       $unwind$BN_mod_sqr         00000000000b9704     OpensslLib:bn_mod.obj
 0005:00000724       $unwind$BN_bn2hex          00000000000b9704     OpensslLib:bn_print.obj
 0005:00000724       $unwind$BUF_MEM_grow       00000000000b9704     OpensslLib:buffer.obj
 0005:00000724       $unwind$BUF_MEM_grow_clean 00000000000b9704     OpensslLib:buffer.obj
 0005:00000724       $unwind$DH_new             00000000000b9704     OpensslLib:dh_lib.obj
 0005:00000724       $unwind$d2i_ECParameters   00000000000b9704     OpensslLib:ec_asn1.obj
 0005:00000724       $unwind$EC_KEY_copy        00000000000b9704     OpensslLib:ec_key.obj
 0005:00000724       $unwind$EC_KEY_oct2key     00000000000b9704     OpensslLib:ec_key.obj
 0005:00000724       $unwind$ec_key_simple_oct2priv 00000000000b9704     OpensslLib:ec_key.obj
 0005:00000724       $unwind$EC_GROUP_copy      00000000000b9704     OpensslLib:ec_lib.obj
 0005:00000724       $unwind$EC_GROUP_set_seed  00000000000b9704     OpensslLib:ec_lib.obj
 0005:00000724       $unwind$EC_POINT_set_affine_coordinates 00000000000b9704     OpensslLib:ec_lib.obj
 0005:00000724       $unwind$pkey_ec_ctrl_str   00000000000b9704     OpensslLib:ec_pmeth.obj
 0005:00000724       $unwind$pkey_ec_paramgen   00000000000b9704     OpensslLib:ec_pmeth.obj
 0005:00000724       $unwind$ecx_ctrl           00000000000b9704     OpensslLib:ecx_meth.obj
 0005:00000724       $unwind$EVP_DigestFinalXOF 00000000000b9704     OpensslLib:digest.obj
 0005:00000724       $unwind$EVP_MD_CTX_copy_ex 00000000000b9704     OpensslLib:digest.obj
 0005:00000724       $unwind$aes_ccm_init_key   00000000000b9704     OpensslLib:e_aes.obj
 0005:00000724       $unwind$EVP_PKEY_assign    00000000000b9704     OpensslLib:p_lib.obj
 0005:00000724       $unwind$EVP_PKEY_CTX_md    00000000000b9704     OpensslLib:pmeth_lib.obj
 0005:00000724       $unwind$OPENSSL_init_crypto 00000000000b9704     OpensslLib:init.obj
 0005:00000724       $unwind$pkey_hkdf_ctrl_str 00000000000b9704     OpensslLib:hkdf.obj
 0005:00000724       $unwind$pkey_tls1_prf_ctrl_str 00000000000b9704     OpensslLib:tls1_prf.obj
 0005:00000724       $unwind$OPENSSL_hexstr2buf 00000000000b9704     OpensslLib:o_str.obj
 0005:00000724       $unwind$PKCS7_bio_add_digest 00000000000b9704     OpensslLib:pk7_doit.obj
 0005:00000724       $unwind$PKCS7_find_digest  00000000000b9704     OpensslLib:pk7_doit.obj
 0005:00000724       $unwind$rsa_param_decode   00000000000b9704     OpensslLib:rsa_ameth.obj
 0005:00000724       $unwind$pkey_sm2_copy      00000000000b9704     OpensslLib:sm2_pmeth.obj
 0005:00000724       $unwind$pkey_sm2_ctrl_str  00000000000b9704     OpensslLib:sm2_pmeth.obj
 0005:00000724       $unwind$pkey_sm2_encrypt   00000000000b9704     OpensslLib:sm2_pmeth.obj
 0005:00000724       $unwind$check_policy       00000000000b9704     OpensslLib:x509_vfy.obj
 0005:00000724       $unwind$X509_NAME_ENTRY_create_by_OBJ 00000000000b9704     OpensslLib:x509name.obj
 0005:00000724       $unwind$x509_pubkey_decode 00000000000b9704     OpensslLib:x_pubkey.obj
 0005:00000724       $unwind$i2s_ASN1_ENUMERATED_TABLE 00000000000b9704     OpensslLib:v3_enum.obj
 0005:00000724       $unwind$i2r_NAME_CONSTRAINTS 00000000000b9704     OpensslLib:v3_ncons.obj
 0005:00000724       $unwind$i2r_pci            00000000000b9704     OpensslLib:v3_pci.obj
 0005:00000734       $unwind$X509_cmp_time      00000000000b9714     OpensslLib:x509_vfy.obj
 0005:00000744       $unwind$bn_to_asn1_string  00000000000b9724     OpensslLib:a_int.obj
 0005:00000744       $unwind$BN_BLINDING_convert_ex 00000000000b9724     OpensslLib:bn_blind.obj
 0005:00000744       $unwind$BN_BLINDING_invert_ex 00000000000b9724     OpensslLib:bn_blind.obj
 0005:00000744       $unwind$BN_BLINDING_update 00000000000b9724     OpensslLib:bn_blind.obj
 0005:00000744       $unwind$BN_STACK_push      00000000000b9724     OpensslLib:bn_ctx.obj
 0005:00000744       $unwind$BN_mod_inverse     00000000000b9724     OpensslLib:bn_gcd.obj
 0005:00000744       $unwind$BN_mod_lshift_quick 00000000000b9724     OpensslLib:bn_mod.obj
 0005:00000744       $unwind$bnrand_range       00000000000b9724     OpensslLib:bn_rand.obj
 0005:00000744       $unwind$pkey_cmac_ctrl_str 00000000000b9724     OpensslLib:cm_pmeth.obj
 0005:00000744       $unwind$module_add         00000000000b9724     OpensslLib:conf_mod.obj
 0005:00000744       $unwind$i2o_ECPublicKey    00000000000b9724     OpensslLib:ec_asn1.obj
 0005:00000744       $unwind$EC_GROUP_check     00000000000b9724     OpensslLib:ec_check.obj
 0005:00000744       $unwind$ec_key_simple_priv2oct 00000000000b9724     OpensslLib:ec_key.obj
 0005:00000744       $unwind$EC_POINT_get_affine_coordinates 00000000000b9724     OpensslLib:ec_lib.obj
 0005:00000744       $unwind$ecx_pub_encode     00000000000b9724     OpensslLib:ecx_meth.obj
 0005:00000744       $unwind$aria_ccm_init_key  00000000000b9724     OpensslLib:e_aria.obj
 0005:00000744       $unwind$aria_gcm_init_key  00000000000b9724     OpensslLib:e_aria.obj
 0005:00000744       $unwind$EVP_EncryptFinal_ex 00000000000b9724     OpensslLib:evp_enc.obj
 0005:00000744       $unwind$EVP_CIPHER_get_asn1_iv 00000000000b9724     OpensslLib:evp_lib.obj
 0005:00000744       $unwind$EVP_PKEY_sign      00000000000b9724     OpensslLib:pmeth_fn.obj
 0005:00000744       $unwind$CRYPTO_set_ex_data 00000000000b9724     OpensslLib:ex_data.obj
 0005:00000744       $unwind$OBJ_create         00000000000b9724     OpensslLib:obj_dat.obj
 0005:00000744       $unwind$d2i_ocsp_nonce     00000000000b9724     OpensslLib:v3_ocsp.obj
 0005:00000744       $unwind$RAND_DRBG_set      00000000000b9724     OpensslLib:drbg_lib.obj
 0005:00000744       $unwind$drbg_bytes         00000000000b9724     OpensslLib:drbg_lib.obj
 0005:00000744       $unwind$rand_pool_grow     00000000000b9724     OpensslLib:rand_lib.obj
 0005:00000744       $unwind$pkey_sm2_ctrl      00000000000b9724     OpensslLib:sm2_pmeth.obj
 0005:00000744       $unwind$X509_STORE_CTX_init 00000000000b9724     OpensslLib:x509_vfy.obj
 0005:00000744       $unwind$X509_get_pubkey_parameters 00000000000b9724     OpensslLib:x509_vfy.obj
 0005:00000744       $unwind$policy_data_new    00000000000b9724     OpensslLib:pcy_data.obj
 0005:00000744       $unwind$gnames_from_sectname 00000000000b9724     OpensslLib:v3_crld.obj
 0005:00000744       $unwind$equal_email        00000000000b9724     OpensslLib:v3_utl.obj
 0005:00000758       $unwind$dane_match         00000000000b9738     OpensslLib:x509_vfy.obj
 0005:00000774       $unwind$build_chain        00000000000b9754     OpensslLib:x509_vfy.obj
 0005:0000078c       $unwind$x509_cb            00000000000b976c     OpensslLib:x_x509.obj
 0005:0000079c       $unwind$ECDH_compute_key   00000000000b977c     OpensslLib:ec_kmeth.obj
 0005:0000079c       $unwind$pkey_set_type      00000000000b977c     OpensslLib:p_lib.obj
 0005:0000079c       $unwind$internal_find      00000000000b977c     OpensslLib:stack.obj
 0005:000007a8       $unwind$OPENSSL_sk_pop_free 00000000000b9788     OpensslLib:stack.obj
 0005:000007bc       $unwind$ASN1_STRING_clear_free 00000000000b979c     OpensslLib:asn1_lib.obj
 0005:000007bc       $unwind$asn1_ex_i2c        00000000000b979c     OpensslLib:tasn_enc.obj
 0005:000007bc       $unwind$BN_BLINDING_free   00000000000b979c     OpensslLib:bn_blind.obj
 0005:000007bc       $unwind$BN_clear_free      00000000000b979c     OpensslLib:bn_lib.obj
 0005:000007bc       $unwind$BN_MONT_CTX_free   00000000000b979c     OpensslLib:bn_mont.obj
 0005:000007bc       $unwind$EC_GROUP_free      00000000000b979c     OpensslLib:ec_lib.obj
 0005:000007bc       $unwind$EC_POINT_clear_free 00000000000b979c     OpensslLib:ec_lib.obj
 0005:000007bc       $unwind$EC_POINT_free      00000000000b979c     OpensslLib:ec_lib.obj
 0005:000007bc       $unwind$EVP_PKEY_free      00000000000b979c     OpensslLib:p_lib.obj
 0005:000007bc       $unwind$EVP_PKEY_CTX_free  00000000000b979c     OpensslLib:pmeth_lib.obj
 0005:000007bc       $unwind$RAND_DRBG_free     00000000000b979c     OpensslLib:drbg_lib.obj
 0005:000007bc       $unwind$rand_drbg_cleanup_nonce 00000000000b979c     OpensslLib:rand_lib.obj
 0005:000007bc       $unwind$OPENSSL_sk_sort    00000000000b979c     OpensslLib:stack.obj
 0005:000007bc       $unwind$X509_OBJECT_free   00000000000b979c     OpensslLib:x509_lu.obj
 0005:000007bc       $unwind$X509_VERIFY_PARAM_free 00000000000b979c     OpensslLib:x509_vpm.obj
 0005:000007bc       $unwind$policy_data_free   00000000000b979c     OpensslLib:pcy_data.obj
 0005:000007bc       $unwind$i2v_BASIC_CONSTRAINTS 00000000000b979c     OpensslLib:v3_bcons.obj
 0005:000007bc       $unwind$i2v_POLICY_CONSTRAINTS 00000000000b979c     OpensslLib:v3_pcons.obj
 0005:000007c4       $unwind$ctrl               00000000000b97a4     OpensslLib:m_sha1.obj
 0005:000007d4       $unwind$BIO_free_all       00000000000b97b4     OpensslLib:bio_lib.obj
 0005:000007d4       $unwind$BN_free            00000000000b97b4     OpensslLib:bn_lib.obj
 0005:000007d4       $unwind$BUF_MEM_free       00000000000b97b4     OpensslLib:buffer.obj
 0005:000007d4       $unwind$EC_ec_pre_comp_free 00000000000b97b4     OpensslLib:ec_mult.obj
 0005:000007d4       $unwind$ERR_STATE_free     00000000000b97b4     OpensslLib:err.obj
 0005:000007d4       $unwind$HMAC_CTX_free      00000000000b97b4     OpensslLib:hmac.obj
 0005:000007d4       $unwind$rand_pool_free     00000000000b97b4     OpensslLib:rand_lib.obj
 0005:000007d4       $unwind$x509_name_ex_free  00000000000b97b4     OpensslLib:x_name.obj
 0005:000007d4       $unwind$i2v_ASN1_BIT_STRING 00000000000b97b4     OpensslLib:v3_bitst.obj
 0005:000007e0       $unwind$x509_name_ex_d2i   00000000000b97c0     OpensslLib:x_name.obj
 0005:000007fc       $unwind$x509_name_encode   00000000000b97dc     OpensslLib:x_name.obj
 0005:00000814       $unwind$x509_name_canon    00000000000b97f4     OpensslLib:x_name.obj
 0005:0000082c       $unwind$asn1_string_canon  00000000000b980c     OpensslLib:x_name.obj
 0005:0000083c       $unwind$BN_BLINDING_create_param 00000000000b981c     OpensslLib:bn_blind.obj
 0005:0000083c       $unwind$pkey_dh_derive     00000000000b981c     OpensslLib:dh_pmeth.obj
 0005:0000083c       $unwind$aes_wrap_cipher    00000000000b981c     OpensslLib:e_aes.obj
 0005:0000083c       $unwind$RAND_DRBG_reseed   00000000000b981c     OpensslLib:drbg_lib.obj
 0005:0000083c       $unwind$i2d_name_canon     00000000000b981c     OpensslLib:x_name.obj
 0005:0000083c       $unwind$do_check_string    00000000000b981c     OpensslLib:v3_utl.obj
 0005:00000850       $unwind$X509_NAME_print    00000000000b9830     OpensslLib:x_name.obj
 0005:00000868       $unwind$X509v3_get_ext_by_OBJ 00000000000b9848     OpensslLib:x509_v3.obj
 0005:00000868       $unwind$X509_NAME_get_index_by_OBJ 00000000000b9848     OpensslLib:x509name.obj
 0005:0000087c       $unwind$CRYPTO_128_wrap_pad 00000000000b985c     OpensslLib:wrap128.obj
 0005:0000087c       $unwind$RAND_DRBG_generate 00000000000b985c     OpensslLib:drbg_lib.obj
 0005:0000087c       $unwind$X509_NAME_add_entry 00000000000b985c     OpensslLib:x509name.obj
 0005:00000898       $unwind$X509_find_by_issuer_and_serial 00000000000b9878     OpensslLib:x509_cmp.obj
 0005:000008b4       $unwind$CRYPTO_ccm128_aad  00000000000b9894     OpensslLib:ccm128.obj
 0005:000008b4       $unwind$X509_STORE_free    00000000000b9894     OpensslLib:x509_lu.obj
 0005:000008cc       $unwind$ASN1_BIT_STRING_set_bit 00000000000b98ac     OpensslLib:a_bitstr.obj
 0005:000008cc       $unwind$BN_usub            00000000000b98ac     OpensslLib:bn_add.obj
 0005:000008cc       $unwind$BN_mod_mul_reciprocal 00000000000b98ac     OpensslLib:bn_recp.obj
 0005:000008cc       $unwind$DH_check_pub_key   00000000000b98ac     OpensslLib:dh_check.obj
 0005:000008cc       $unwind$ec_field_inverse_mod_ord 00000000000b98ac     OpensslLib:ec_lib.obj
 0005:000008cc       $unwind$ec_guess_cofactor  00000000000b98ac     OpensslLib:ec_lib.obj
 0005:000008cc       $unwind$ec_GFp_mont_field_inv 00000000000b98ac     OpensslLib:ecp_mont.obj
 0005:000008cc       $unwind$ec_GFp_nist_field_mul 00000000000b98ac     OpensslLib:ecp_nist.obj
 0005:000008cc       $unwind$ec_GFp_nist_group_set_curve 00000000000b98ac     OpensslLib:ecp_nist.obj
 0005:000008cc       $unwind$ec_GFp_simple_field_inv 00000000000b98ac     OpensslLib:ecp_smpl.obj
 0005:000008cc       $unwind$ec_GFp_simple_make_affine 00000000000b98ac     OpensslLib:ecp_smpl.obj
 0005:000008cc       $unwind$X509_STORE_CTX_get_by_subject 00000000000b98ac     OpensslLib:x509_lu.obj
 0005:000008cc       $unwind$v2i_issuer_alt     00000000000b98ac     OpensslLib:v3_alt.obj
 0005:000008cc       $unwind$v2i_subject_alt    00000000000b98ac     OpensslLib:v3_alt.obj
 0005:000008cc       $unwind$x509v3_add_len_value 00000000000b98ac     OpensslLib:v3_utl.obj
 0005:000008e8       $unwind$ED25519_sign       00000000000b98c8     OpensslLib:curve25519.obj
 0005:000008e8       $unwind$x509_object_idx_cnt 00000000000b98c8     OpensslLib:x509_lu.obj
 0005:00000904       $unwind$X509_STORE_CTX_get1_certs 00000000000b98e4     OpensslLib:x509_lu.obj
 0005:00000920       $unwind$X509_STORE_CTX_get1_crls 00000000000b9900     OpensslLib:x509_lu.obj
 0005:0000093c       $unwind$X509_OBJECT_retrieve_match 00000000000b991c     OpensslLib:x509_lu.obj
 0005:00000954       $unwind$X509_STORE_CTX_get1_issuer 00000000000b9934     OpensslLib:x509_lu.obj
 0005:00000970       $unwind$ASN1_get_object    00000000000b9950     OpensslLib:asn1_lib.obj
 0005:00000970       $unwind$asn1_item_embed_new 00000000000b9950     OpensslLib:tasn_new.obj
 0005:00000970       $unwind$DH_check           00000000000b9950     OpensslLib:dh_check.obj
 0005:00000970       $unwind$pkey_dh_paramgen   00000000000b9950     OpensslLib:dh_pmeth.obj
 0005:00000970       $unwind$ec_key_simple_generate_key 00000000000b9950     OpensslLib:ec_key.obj
 0005:00000970       $unwind$EC_POINT_point2buf 00000000000b9950     OpensslLib:ec_oct.obj
 0005:00000970       $unwind$ec_GFp_nist_field_sqr 00000000000b9950     OpensslLib:ecp_nist.obj
 0005:00000970       $unwind$ec_GFp_simple_blind_coordinates 00000000000b9950     OpensslLib:ecp_smpl.obj
 0005:00000970       $unwind$aes_xts_init_key   00000000000b9950     OpensslLib:e_aes.obj
 0005:00000970       $unwind$i2r_ocsp_serviceloc 00000000000b9950     OpensslLib:v3_ocsp.obj
 0005:00000970       $unwind$rand_pool_new      00000000000b9950     OpensslLib:rand_lib.obj
 0005:00000970       $unwind$RSA_setup_blinding 00000000000b9950     OpensslLib:rsa_crpt.obj
 0005:00000970       $unwind$pkey_rsa_ctrl      00000000000b9950     OpensslLib:rsa_pmeth.obj
 0005:00000970       $unwind$pkey_rsa_keygen    00000000000b9950     OpensslLib:rsa_pmeth.obj
 0005:00000970       $unwind$sk_OPENSSL_STRING_deep_copy 00000000000b9950     OpensslLib:x509_vpm.obj
 0005:00000970       $unwind$copy_email         00000000000b9950     OpensslLib:v3_alt.obj
 0005:00000970       $unwind$do_dirname         00000000000b9950     OpensslLib:v3_alt.obj
 0005:00000970       $unwind$v2i_GENERAL_NAMES  00000000000b9950     OpensslLib:v3_alt.obj
 0005:00000970       $unwind$sxnet_i2r          00000000000b9950     OpensslLib:v3_sxnet.obj
 0005:00000988       $unwind$i2c_ibuf           00000000000b9968     OpensslLib:a_int.obj
 0005:00000988       $unwind$ASN1_put_object    00000000000b9968     OpensslLib:asn1_lib.obj
 0005:00000988       $unwind$make_kn            00000000000b9968     OpensslLib:cmac.obj
 0005:00000988       $unwind$gf_mulw_unsigned   00000000000b9968     OpensslLib:f_impl.obj
 0005:00000988       $unwind$sc_subx            00000000000b9968     OpensslLib:scalar.obj
 0005:00000988       $unwind$gcm_gmult_4bit     00000000000b9968     OpensslLib:gcm128.obj
 0005:00000988       $unwind$julian_to_date     00000000000b9968     OpensslLib:o_time.obj
 0005:00000988       $unwind$SipHash_Final      00000000000b9968     OpensslLib:siphash.obj
 0005:00000998       $unwind$do_esc_char        00000000000b9978     OpensslLib:a_strex.obj
 0005:000009a0       $unwind$do_buf             00000000000b9980     OpensslLib:a_strex.obj
 0005:000009b8       $unwind$do_hex_dump        00000000000b9998     OpensslLib:a_strex.obj
 0005:000009cc       $unwind$do_dump            00000000000b99ac     OpensslLib:a_strex.obj
 0005:000009dc       $unwind$do_print_ex        00000000000b99bc     OpensslLib:a_strex.obj
 0005:000009f4       $unwind$do_indent          00000000000b99d4     OpensslLib:a_strex.obj
 0005:00000a04       $unwind$do_name_ex         00000000000b99e4     OpensslLib:a_strex.obj
 0005:00000a20       $unwind$ASN1_STRING_to_UTF8 00000000000b9a00     OpensslLib:a_strex.obj
 0005:00000a20       $unwind$ASN1_item_d2i      00000000000b9a00     OpensslLib:tasn_dec.obj
 0005:00000a28       $unwind$bio_call_callback  00000000000b9a08     OpensslLib:bio_lib.obj
 0005:00000a28       $unwind$aes_cfb8_cipher    00000000000b9a08     OpensslLib:e_aes.obj
 0005:00000a28       $unwind$X509V3_get_value_bool 00000000000b9a08     OpensslLib:v3_utl.obj
 0005:00000a38       $unwind$BIO_ctrl           00000000000b9a18     OpensslLib:bio_lib.obj
 0005:00000a38       $unwind$bio_read_intern    00000000000b9a18     OpensslLib:bio_lib.obj
 0005:00000a38       $unwind$bio_write_intern   00000000000b9a18     OpensslLib:bio_lib.obj
 0005:00000a38       $unwind$ossl_ecdsa_verify  00000000000b9a18     OpensslLib:ecdsa_ossl.obj
 0005:00000a38       $unwind$rand_drbg_get_nonce 00000000000b9a18     OpensslLib:rand_lib.obj
 0005:00000a4c       $unwind$BIO_puts           00000000000b9a2c     OpensslLib:bio_lib.obj
 0005:00000a5c       $unwind$BIO_callback_ctrl  00000000000b9a3c     OpensslLib:bio_lib.obj
 0005:00000a64       $unwind$BN_div_recp        00000000000b9a44     OpensslLib:bn_recp.obj
 0005:00000a64       $unwind$PKCS7_verify       00000000000b9a44     OpensslLib:pk7_smime.obj
 0005:00000a7c       $unwind$uint32_i2c         00000000000b9a5c     OpensslLib:x_int64.obj
 0005:00000a7c       $unwind$X509_verify        00000000000b9a5c     OpensslLib:x_all.obj
 0005:00000a8c       $unwind$OBJ_nid2ln         00000000000b9a6c     OpensslLib:obj_dat.obj
 0005:00000a8c       $unwind$OBJ_nid2obj        00000000000b9a6c     OpensslLib:obj_dat.obj
 0005:00000a8c       $unwind$OBJ_nid2sn         00000000000b9a6c     OpensslLib:obj_dat.obj
 0005:00000a94       $unwind$OBJ_obj2nid        00000000000b9a74     OpensslLib:obj_dat.obj
 0005:00000a9c       $unwind$CRYPTO_ccm128_decrypt_ccm64 00000000000b9a7c     OpensslLib:ccm128.obj
 0005:00000a9c       $unwind$CRYPTO_ccm128_encrypt_ccm64 00000000000b9a7c     OpensslLib:ccm128.obj
 0005:00000a9c       $unwind$OBJ_obj2txt        00000000000b9a7c     OpensslLib:obj_dat.obj
 0005:00000ab4       $unwind$OBJ_ln2nid         00000000000b9a94     OpensslLib:obj_dat.obj
 0005:00000ab4       $unwind$OBJ_sn2nid         00000000000b9a94     OpensslLib:obj_dat.obj
 0005:00000abc       $unwind$aria_encrypt       00000000000b9a9c     OpensslLib:aria.obj
 0005:00000abc       $unwind$bn2binpad          00000000000b9a9c     OpensslLib:bn_lib.obj
 0005:00000abc       $unwind$aria_128_cfb1_cipher 00000000000b9a9c     OpensslLib:e_aria.obj
 0005:00000abc       $unwind$aria_128_cfb8_cipher 00000000000b9a9c     OpensslLib:e_aria.obj
 0005:00000abc       $unwind$aria_192_cfb1_cipher 00000000000b9a9c     OpensslLib:e_aria.obj
 0005:00000abc       $unwind$aria_192_cfb8_cipher 00000000000b9a9c     OpensslLib:e_aria.obj
 0005:00000abc       $unwind$aria_256_cfb1_cipher 00000000000b9a9c     OpensslLib:e_aria.obj
 0005:00000abc       $unwind$aria_256_cfb8_cipher 00000000000b9a9c     OpensslLib:e_aria.obj
 0005:00000abc       $unwind$pkey_rsa_encrypt   00000000000b9a9c     OpensslLib:rsa_pmeth.obj
 0005:00000abc       $unwind$RSA_sign           00000000000b9a9c     OpensslLib:rsa_sign.obj
 0005:00000abc       $unwind$a2i_GENERAL_NAME   00000000000b9a9c     OpensslLib:v3_alt.obj
 0005:00000abc       $unwind$v2i_EXTENDED_KEY_USAGE 00000000000b9a9c     OpensslLib:v3_extku.obj
 0005:00000ad4       $unwind$BN_consttime_swap  00000000000b9ab4     OpensslLib:bn_lib.obj
 0005:00000ae0       $unwind$RSA_new_method     00000000000b9ac0     OpensslLib:rsa_lib.obj
 0005:00000aec       $unwind$DH_free            00000000000b9acc     OpensslLib:dh_lib.obj
 0005:00000aec       $unwind$EC_KEY_free        00000000000b9acc     OpensslLib:ec_key.obj
 0005:00000aec       $unwind$RSA_free           00000000000b9acc     OpensslLib:rsa_lib.obj
 0005:00000af4       $unwind$encode_pkcs1       00000000000b9ad4     OpensslLib:rsa_sign.obj
 0005:00000b08       $unwind$determine_days     00000000000b9ae8     OpensslLib:a_time.obj
 0005:00000b08       $unwind$BN_rshift1         00000000000b9ae8     OpensslLib:bn_shift.obj
 0005:00000b1c       $unwind$asn1_time_to_tm    00000000000b9afc     OpensslLib:a_time.obj
 0005:00000b34       $unwind$asn1_time_from_tm  00000000000b9b14     OpensslLib:a_time.obj
 0005:00000b4c       $unwind$ASN1_TIME_adj      00000000000b9b2c     OpensslLib:a_time.obj
 0005:00000b54       $unwind$ASN1_TIME_diff     00000000000b9b34     OpensslLib:a_time.obj
 0005:00000b68       $unwind$ASN1_TIME_print    00000000000b9b48     OpensslLib:a_time.obj
 0005:00000b80       $unwind$s2i_ASN1_INTEGER   00000000000b9b60     OpensslLib:v3_utl.obj
 0005:00000b90       $unwind$bn_print           00000000000b9b70     OpensslLib:x_bignum.obj
 0005:00000b90       $unwind$X509V3_parse_list  00000000000b9b70     OpensslLib:v3_utl.obj
 0005:00000ba8       $unwind$wildcard_match     00000000000b9b88     OpensslLib:v3_utl.obj
 0005:00000bc4       $unwind$BN_is_prime_fasttest_ex 00000000000b9ba4     OpensslLib:bn_prime.obj
 0005:00000bc4       $unwind$BN_mod_sqrt        00000000000b9ba4     OpensslLib:bn_sqrt.obj
 0005:00000bc4       $unwind$do_x509_check      00000000000b9ba4     OpensslLib:v3_utl.obj
 0005:00000bdc       $unwind$a2i_IPADDRESS_NC   00000000000b9bbc     OpensslLib:v3_utl.obj
 0005:00000bf0       $unwind$ipv4_from_asc      00000000000b9bd0     OpensslLib:v3_utl.obj
 0005:00000bf8       $unwind$ipv6_from_asc      00000000000b9bd8     OpensslLib:v3_utl.obj
 0005:00000c08       $unwind$ERR_get_state      00000000000b9be8     OpensslLib:err.obj
 0005:00000c1c       $unwind$ERR_add_error_data 00000000000b9bfc     OpensslLib:err.obj
 0005:00000c30       $unwind$ECDSA_size         00000000000b9c10     OpensslLib:ec_asn1.obj
 0005:00000c30       $unwind$EC_GROUP_new_by_curve_name 00000000000b9c10     OpensslLib:ec_curve.obj
 0005:00000c30       $unwind$X509_TRUST_get_by_id 00000000000b9c10     OpensslLib:x509_trs.obj
 0005:00000c30       $unwind$X509_PURPOSE_get_by_id 00000000000b9c10     OpensslLib:v3_purp.obj
 0005:00000c38       $unwind$x509v3_cache_extensions 00000000000b9c18     OpensslLib:v3_purp.obj
 0005:00000c50       $unwind$crl_cb             00000000000b9c30     OpensslLib:x_crl.obj
 0005:00000c68       $unwind$def_crl_lookup     00000000000b9c48     OpensslLib:x_crl.obj
 0005:00000c80       $unwind$X509_VERIFY_PARAM_lookup 00000000000b9c60     OpensslLib:x509_vpm.obj
 0005:00000c8c       $unwind$RSA_check_key_ex   00000000000b9c6c     OpensslLib:rsa_chk.obj
 0005:00000c8c       $unwind$tree_init          00000000000b9c6c     OpensslLib:pcy_tree.obj
 0005:00000ca4       $unwind$rsa_ossl_public_encrypt 00000000000b9c84     OpensslLib:rsa_ossl.obj
 0005:00000ca4       $unwind$RSA_padding_add_PKCS1_PSS_mgf1 00000000000b9c84     OpensslLib:rsa_pss.obj
 0005:00000ca4       $unwind$tree_link_nodes    00000000000b9c84     OpensslLib:pcy_tree.obj
 0005:00000cbc       $unwind$CRYPTO_ccm128_decrypt 00000000000b9c9c     OpensslLib:ccm128.obj
 0005:00000cbc       $unwind$tree_link_any      00000000000b9c9c     OpensslLib:pcy_tree.obj
 0005:00000cd4       $unwind$c2i_ASN1_OBJECT    00000000000b9cb4     OpensslLib:a_object.obj
 0005:00000cd4       $unwind$BN_nist_mod_256    00000000000b9cb4     OpensslLib:bn_nist.obj
 0005:00000cd4       $unwind$ec_GFp_simple_dbl  00000000000b9cb4     OpensslLib:ecp_smpl.obj
 0005:00000cd4       $unwind$tree_calculate_user_set 00000000000b9cb4     OpensslLib:pcy_tree.obj
 0005:00000cf0       $unwind$X509_policy_tree_free 00000000000b9cd0     OpensslLib:pcy_tree.obj
 0005:00000d00       $unwind$X509_policy_check  00000000000b9ce0     OpensslLib:pcy_tree.obj
 0005:00000d14       $unwind$get_and_lock       00000000000b9cf4     OpensslLib:ex_data.obj
 0005:00000d1c       $unwind$CRYPTO_new_ex_data 00000000000b9cfc     OpensslLib:ex_data.obj
 0005:00000d34       $unwind$CRYPTO_dup_ex_data 00000000000b9d14     OpensslLib:ex_data.obj
 0005:00000d50       $unwind$CRYPTO_free_ex_data 00000000000b9d30     OpensslLib:ex_data.obj
 0005:00000d50       $unwind$i2v_AUTHORITY_INFO_ACCESS 00000000000b9d30     OpensslLib:v3_info.obj
 0005:00000d6c       $unwind$v2i_NAME_CONSTRAINTS 00000000000b9d4c     OpensslLib:v3_ncons.obj
 0005:00000d84       $unwind$NAME_CONSTRAINTS_check_CN 00000000000b9d64     OpensslLib:v3_ncons.obj
 0005:00000d9c       $unwind$c2i_ASN1_INTEGER   00000000000b9d7c     OpensslLib:a_int.obj
 0005:00000db0       $unwind$asn1_string_get_int64 00000000000b9d90     OpensslLib:a_int.obj
 0005:00000db0       $unwind$ec_pkey_ctrl       00000000000b9d90     OpensslLib:ec_ameth.obj
 0005:00000dc0       $unwind$stbl_module_init   00000000000b9da0     OpensslLib:asn_mstbl.obj
 0005:00000dc0       $unwind$ASN1_item_ex_d2i   00000000000b9da0     OpensslLib:tasn_dec.obj
 0005:00000dc0       $unwind$ctr_BCC_blocks     00000000000b9da0     OpensslLib:drbg_ctr.obj
 0005:00000dd0       $unwind$asn1_item_embed_d2i 00000000000b9db0     OpensslLib:tasn_dec.obj
 0005:00000de8       $unwind$asn1_template_ex_d2i 00000000000b9dc8     OpensslLib:tasn_dec.obj
 0005:00000e00       $unwind$asn1_template_noexp_d2i 00000000000b9de0     OpensslLib:tasn_dec.obj
 0005:00000e18       $unwind$asn1_d2i_ex_primitive 00000000000b9df8     OpensslLib:tasn_dec.obj
 0005:00000e38       $unwind$asn1_ex_c2i        00000000000b9e18     OpensslLib:tasn_dec.obj
 0005:00000e38       $unwind$evp_EncryptDecryptUpdate 00000000000b9e18     OpensslLib:evp_enc.obj
 0005:00000e54       $unwind$asn1_find_end      00000000000b9e34     OpensslLib:tasn_dec.obj
 0005:00000e64       $unwind$asn1_collect       00000000000b9e44     OpensslLib:tasn_dec.obj
 0005:00000e7c       $unwind$asn1_check_tlen    00000000000b9e5c     OpensslLib:tasn_dec.obj
 0005:00000e7c       $unwind$sha1_block_data_order 00000000000b9e5c     OpensslLib:sha1dgst.obj
 0005:00000e98       $unwind$set_dist_point_name 00000000000b9e78     OpensslLib:v3_crld.obj
 0005:00000eb0       $unwind$c2i_ASN1_BIT_STRING 00000000000b9e90     OpensslLib:a_bitstr.obj
 0005:00000eb0       $unwind$v2i_crld           00000000000b9e90     OpensslLib:v3_crld.obj
 0005:00000ecc       $unwind$DIST_POINT_set_dpname 00000000000b9eac     OpensslLib:v3_crld.obj
 0005:00000ee0       $unwind$asn1_primitive_new 00000000000b9ec0     OpensslLib:tasn_new.obj
 0005:00000ef4       $unwind$ec_GFp_mont_group_set_curve 00000000000b9ed4     OpensslLib:ecp_mont.obj
 0005:00000ef4       $unwind$policy_cache_create 00000000000b9ed4     OpensslLib:pcy_cache.obj
 0005:00000f10       $unwind$policy_cache_new   00000000000b9ef0     OpensslLib:pcy_cache.obj
 0005:00000f24       $unwind$asn1_item_embed_free 00000000000b9f04     OpensslLib:tasn_fre.obj
 0005:00000f3c       $unwind$asn1_item_flags_i2d 00000000000b9f1c     OpensslLib:tasn_enc.obj
 0005:00000f50       $unwind$ASN1_item_ex_i2d   00000000000b9f30     OpensslLib:tasn_enc.obj
 0005:00000f6c       $unwind$asn1_template_ex_i2d 00000000000b9f4c     OpensslLib:tasn_enc.obj
 0005:00000f88       $unwind$asn1_set_seq_out   00000000000b9f68     OpensslLib:tasn_enc.obj
 0005:00000f88       $unwind$BN_generate_prime_ex 00000000000b9f68     OpensslLib:bn_prime.obj
 0005:00000f88       $unwind$rsa_ossl_private_encrypt 00000000000b9f68     OpensslLib:rsa_ossl.obj
 0005:00000fa0       $unwind$asn1_i2d_ex_primitive 00000000000b9f80     OpensslLib:tasn_enc.obj
 0005:00000fb8       $unwind$sha512_block_data_order 00000000000b9f98     OpensslLib:sha512.obj
 0005:00000fd0       $unwind$EVP_PKEY_asn1_find 00000000000b9fb0     OpensslLib:ameth_lib.obj
 0005:00000fdc       $unwind$CMAC_CTX_free      00000000000b9fbc     OpensslLib:cmac.obj
 0005:00000fdc       $unwind$EC_GROUP_clear_free 00000000000b9fbc     OpensslLib:ec_lib.obj
 0005:00000fe8       $unwind$CMAC_Init          00000000000b9fc8     OpensslLib:cmac.obj
 0005:00001000       $unwind$ossl_init_get_thread_local 00000000000b9fe0     OpensslLib:init.obj
 0005:00001008       $unwind$OBJ_find_sigid_by_algs 00000000000b9fe8     OpensslLib:obj_xref.obj
 0005:00001010       $unwind$int_ctx_new        00000000000b9ff0     OpensslLib:pmeth_lib.obj
 0005:00001024       $unwind$X509_NAME_oneline  00000000000ba004     OpensslLib:x509_obj.obj
 0005:00001040       $unwind$a2d_ASN1_OBJECT    00000000000ba020     OpensslLib:a_object.obj
 0005:00001058       $unwind$i2a_ASN1_OBJECT    00000000000ba038     OpensslLib:a_object.obj
 0005:0000106c       $unwind$d2i_ASN1_OBJECT    00000000000ba04c     OpensslLib:a_object.obj
 0005:00001074       $unwind$ASN1_STRING_set_by_NID 00000000000ba054     OpensslLib:a_strnid.obj
 0005:00001074       $unwind$aes_cfb_cipher     00000000000ba054     OpensslLib:e_aes.obj
 0005:00001074       $unwind$aes_ofb_cipher     00000000000ba054     OpensslLib:e_aes.obj
 0005:00001074       $unwind$aria_ctr_cipher    00000000000ba054     OpensslLib:e_aria.obj
 0005:00001074       $unwind$sm4_ctr_cipher     00000000000ba054     OpensslLib:e_sm4.obj
 0005:00001080       $unwind$ASN1_STRING_TABLE_get 00000000000ba060     OpensslLib:a_strnid.obj
 0005:00001088       $unwind$ASN1_STRING_print  00000000000ba068     OpensslLib:a_print.obj
 0005:0000109c       $unwind$md5_block_data_order 00000000000ba07c     OpensslLib:md5_dgst.obj
 0005:000010b4       $unwind$EC_GROUP_cmp       00000000000ba094     OpensslLib:ec_lib.obj
 0005:000010cc       $unwind$EC_POINT_mul       00000000000ba0ac     OpensslLib:ec_lib.obj
 0005:000010e4       $unwind$UTF8_getc          00000000000ba0c4     OpensslLib:a_utf8.obj
 0005:000010e4       $unwind$bn_add_words       00000000000ba0c4     OpensslLib:bn_asm.obj
 0005:000010e4       $unwind$MOD_EXP_CTIME_COPY_TO_PREBUF 00000000000ba0c4     OpensslLib:bn_exp.obj
 0005:000010e4       $unwind$cmov               00000000000ba0c4     OpensslLib:curve25519.obj
 0005:000010e4       $unwind$OPENSSL_LH_strhash 00000000000ba0c4     OpensslLib:lhash.obj
 0005:000010e4       $unwind$ctr_XOR            00000000000ba0c4     OpensslLib:drbg_ctr.obj
 0005:000010ec       $unwind$ASN1_mbstring_ncopy 00000000000ba0cc     OpensslLib:a_mbstr.obj
 0005:00001104       $unwind$traverse_string    00000000000ba0e4     OpensslLib:a_mbstr.obj
 0005:00001104       $unwind$md_read            00000000000ba0e4     OpensslLib:bio_md.obj
 0005:00001118       $unwind$uint32_c2i         00000000000ba0f8     OpensslLib:x_int64.obj
 0005:0000112c       $unwind$pkcs7_encode_rinfo 00000000000ba10c     OpensslLib:pk7_doit.obj
 0005:00001148       $unwind$PKCS7_dataInit     00000000000ba128     OpensslLib:pk7_doit.obj
 0005:00001164       $unwind$do_pkcs7_signed_attrib 00000000000ba144     OpensslLib:pk7_doit.obj
 0005:00001178       $unwind$ec_curve_nid_from_params 00000000000ba158     OpensslLib:ec_curve.obj
 0005:00001178       $unwind$PKCS7_dataFinal    00000000000ba158     OpensslLib:pk7_doit.obj
 0005:00001190       $unwind$PKCS7_SIGNER_INFO_sign 00000000000ba170     OpensslLib:pk7_doit.obj
 0005:000011a4       $unwind$OPENSSL_LH_insert  00000000000ba184     OpensslLib:lhash.obj
 0005:000011b8       $unwind$EC_GROUP_get_ecparameters 00000000000ba198     OpensslLib:ec_asn1.obj
 0005:000011c8       $unwind$d2i_ECPKParameters 00000000000ba1a8     OpensslLib:ec_asn1.obj
 0005:000011c8       $unwind$d2i_ECPrivateKey   00000000000ba1a8     OpensslLib:ec_asn1.obj
 0005:000011d8       $unwind$i2d_ECPrivateKey   00000000000ba1b8     OpensslLib:ec_asn1.obj
 0005:000011f0       $unwind$i2d_ECParameters   00000000000ba1d0     OpensslLib:ec_asn1.obj
 0005:00001200       $unwind$ASN1_item_i2d_bio  00000000000ba1e0     OpensslLib:a_i2d_fp.obj
 0005:00001210       $unwind$BN_dec2bn          00000000000ba1f0     OpensslLib:bn_print.obj
 0005:00001228       $unwind$BN_mod_mul         00000000000ba208     OpensslLib:bn_mod.obj
 0005:00001228       $unwind$bn_mul_mont_fixed_top 00000000000ba208     OpensslLib:bn_mont.obj
 0005:00001240       $unwind$bn_from_montgomery_word 00000000000ba220     OpensslLib:bn_mont.obj
 0005:00001258       $unwind$BN_MONT_CTX_set    00000000000ba238     OpensslLib:bn_mont.obj
 0005:00001274       $unwind$rsa_ossl_private_decrypt 00000000000ba254     OpensslLib:rsa_ossl.obj
 0005:0000128c       $unwind$rsa_ossl_public_decrypt 00000000000ba26c     OpensslLib:rsa_ossl.obj
 0005:000012a4       $unwind$rsa_ossl_mod_exp   00000000000ba284     OpensslLib:rsa_ossl.obj
 0005:000012c0       $unwind$OPENSSL_gmtime_adj 00000000000ba2a0     OpensslLib:o_time.obj
 0005:000012c8       $unwind$OPENSSL_gmtime_diff 00000000000ba2a8     OpensslLib:o_time.obj
 0005:000012d8       $unwind$bn_sub_words       00000000000ba2b8     OpensslLib:bn_asm.obj
 0005:000012d8       $unwind$curve448_scalar_halve 00000000000ba2b8     OpensslLib:scalar.obj
 0005:000012d8       $unwind$julian_adj         00000000000ba2b8     OpensslLib:o_time.obj
 0005:000012e4       $unwind$v2i_AUTHORITY_INFO_ACCESS 00000000000ba2c4     OpensslLib:v3_info.obj
 0005:00001300       $unwind$X509V3_EXT_get_nid 00000000000ba2e0     OpensslLib:v3_lib.obj
 0005:0000130c       $unwind$dh_priv_encode     00000000000ba2ec     OpensslLib:dh_ameth.obj
 0005:0000130c       $unwind$aria_128_cfb128_cipher 00000000000ba2ec     OpensslLib:e_aria.obj
 0005:0000130c       $unwind$aria_192_cfb128_cipher 00000000000ba2ec     OpensslLib:e_aria.obj
 0005:0000130c       $unwind$aria_256_cfb128_cipher 00000000000ba2ec     OpensslLib:e_aria.obj
 0005:0000130c       $unwind$sm4_cfb128_cipher  00000000000ba2ec     OpensslLib:e_sm4.obj
 0005:0000130c       $unwind$v2i_BASIC_CONSTRAINTS 00000000000ba2ec     OpensslLib:v3_bcons.obj
 0005:0000130c       $unwind$v2i_POLICY_CONSTRAINTS 00000000000ba2ec     OpensslLib:v3_pcons.obj
 0005:00001320       $unwind$ASN1_TYPE_set      00000000000ba300     OpensslLib:a_type.obj
 0005:0000132c       $unwind$i2v_GENERAL_NAME   00000000000ba30c     OpensslLib:v3_alt.obj
 0005:0000133c       $unwind$BN_CTX_free        00000000000ba31c     OpensslLib:bn_ctx.obj
 0005:0000134c       $unwind$ec_group_new_from_data 00000000000ba32c     OpensslLib:ec_curve.obj
 0005:00001364       $unwind$bn_compute_wNAF    00000000000ba344     OpensslLib:bn_intern.obj
 0005:0000137c       $unwind$bnrand             00000000000ba35c     OpensslLib:bn_rand.obj
 0005:00001398       $unwind$BN_generate_dsa_nonce 00000000000ba378     OpensslLib:bn_rand.obj
 0005:000013b8       $unwind$notice_section     00000000000ba398     OpensslLib:v3_cpols.obj
 0005:000013d0       $unwind$BN_gcd             00000000000ba3b0     OpensslLib:bn_gcd.obj
 0005:000013d0       $unwind$ec_GFp_simple_oct2point 00000000000ba3b0     OpensslLib:ecp_oct.obj
 0005:000013d0       $unwind$ec_GFp_simple_ladder_pre 00000000000ba3b0     OpensslLib:ecp_smpl.obj
 0005:000013d0       $unwind$CRYPTO_ctr128_encrypt_ctr32 00000000000ba3b0     OpensslLib:ctr128.obj
 0005:000013d0       $unwind$print_qualifiers   00000000000ba3b0     OpensslLib:v3_cpols.obj
 0005:000013e8       $unwind$BN_nist_mod_192    00000000000ba3c8     OpensslLib:bn_nist.obj
 0005:000013e8       $unwind$generate_key       00000000000ba3c8     OpensslLib:dh_key.obj
 0005:000013e8       $unwind$aes_ccm_cipher     00000000000ba3c8     OpensslLib:e_aes.obj
 0005:000013e8       $unwind$aes_ccm_tls_cipher 00000000000ba3c8     OpensslLib:e_aes.obj
 0005:000013e8       $unwind$aria_ccm_cipher    00000000000ba3c8     OpensslLib:e_aria.obj
 0005:000013e8       $unwind$aria_ccm_tls_cipher 00000000000ba3c8     OpensslLib:e_aria.obj
 0005:000013e8       $unwind$drbg_ctr_instantiate 00000000000ba3c8     OpensslLib:drbg_ctr.obj
 0005:000013e8       $unwind$RAND_DRBG_bytes    00000000000ba3c8     OpensslLib:drbg_lib.obj
 0005:00001404       $unwind$compute_key        00000000000ba3e4     OpensslLib:dh_key.obj
 0005:0000141c       $unwind$ecx_key_op         00000000000ba3fc     OpensslLib:ecx_meth.obj
 0005:0000143c       $unwind$ecx_priv_decode    00000000000ba41c     OpensslLib:ecx_meth.obj
 0005:0000144c       $unwind$ecx_priv_encode    00000000000ba42c     OpensslLib:ecx_meth.obj
 0005:0000145c       $unwind$pkey_ecx_derive25519 00000000000ba43c     OpensslLib:ecx_meth.obj
 0005:0000145c       $unwind$pkey_ecx_derive448 00000000000ba43c     OpensslLib:ecx_meth.obj
 0005:0000145c       $unwind$rsa_pkey_ctrl      00000000000ba43c     OpensslLib:rsa_ameth.obj
 0005:00001468       $unwind$dh_pub_decode      00000000000ba448     OpensslLib:dh_ameth.obj
 0005:00001468       $unwind$eckey_pub_encode   00000000000ba448     OpensslLib:ec_ameth.obj
 0005:00001468       $unwind$rsa_pub_encode     00000000000ba448     OpensslLib:rsa_ameth.obj
 0005:00001478       $unwind$eckey_priv_decode  00000000000ba458     OpensslLib:ec_ameth.obj
 0005:00001478       $unwind$eckey_pub_decode   00000000000ba458     OpensslLib:ec_ameth.obj
 0005:00001490       $unwind$eckey_priv_encode  00000000000ba470     OpensslLib:ec_ameth.obj
 0005:000014a4       $unwind$do_EC_KEY_print    00000000000ba484     OpensslLib:ec_ameth.obj
 0005:000014c0       $unwind$FO                 00000000000ba4a0     OpensslLib:aria.obj
 0005:000014c0       $unwind$rsa_priv_decode    00000000000ba4a0     OpensslLib:rsa_ameth.obj
 0005:000014c0       $unwind$rsa_pub_decode     00000000000ba4a0     OpensslLib:rsa_ameth.obj
 0005:000014d0       $unwind$ec_GFp_simple_point2oct 00000000000ba4b0     OpensslLib:ecp_oct.obj
 0005:000014d0       $unwind$ec_GFp_simple_set_compressed_coordinates 00000000000ba4b0     OpensslLib:ecp_oct.obj
 0005:000014d0       $unwind$pkey_rsa_print     00000000000ba4b0     OpensslLib:rsa_ameth.obj
 0005:000014ec       $unwind$md_write           00000000000ba4cc     OpensslLib:bio_md.obj
 0005:000014ec       $unwind$rsa_sig_print      00000000000ba4cc     OpensslLib:rsa_ameth.obj
 0005:00001500       $unwind$rsa_md_to_mgf1     00000000000ba4e0     OpensslLib:rsa_ameth.obj
 0005:00001510       $unwind$rsa_ctx_to_pss_string 00000000000ba4f0     OpensslLib:rsa_ameth.obj
 0005:00001520       $unwind$rsa_pss_to_ctx     00000000000ba500     OpensslLib:rsa_ameth.obj
 0005:00001538       $unwind$enc_ctrl           00000000000ba518     OpensslLib:bio_enc.obj
 0005:00001538       $unwind$rsa_pss_get_param  00000000000ba518     OpensslLib:rsa_ameth.obj
 0005:00001550       $unwind$rsa_item_sign      00000000000ba530     OpensslLib:rsa_ameth.obj
 0005:00001560       $unwind$rsa_sig_info_set   00000000000ba540     OpensslLib:rsa_ameth.obj
 0005:00001570       $unwind$i2d_dhp            00000000000ba550     OpensslLib:dh_ameth.obj
 0005:00001578       $unwind$dh_pub_encode      00000000000ba558     OpensslLib:dh_ameth.obj
 0005:0000158c       $unwind$dh_priv_decode     00000000000ba56c     OpensslLib:dh_ameth.obj
 0005:000015a0       $unwind$do_dh_print        00000000000ba580     OpensslLib:dh_ameth.obj
 0005:000015b8       $unwind$dh_pkey_param_check 00000000000ba598     OpensslLib:dh_ameth.obj
 0005:000015b8       $unwind$pkey_sm2_sign      00000000000ba598     OpensslLib:sm2_pmeth.obj
 0005:000015cc       $unwind$RAND_DRBG_instantiate 00000000000ba5ac     OpensslLib:drbg_lib.obj
 0005:000015e0       $unwind$drbg_add           00000000000ba5c0     OpensslLib:drbg_lib.obj
 0005:000015f0       $unwind$RAND_DRBG_get0_private 00000000000ba5d0     OpensslLib:drbg_lib.obj
 0005:00001600       $unwind$rand_drbg_get_entropy 00000000000ba5e0     OpensslLib:rand_lib.obj
 0005:00001614       $unwind$pkey_dh_ctrl_str   00000000000ba5f4     OpensslLib:dh_pmeth.obj
 0005:00001628       $unwind$pkey_rsa_sign      00000000000ba608     OpensslLib:rsa_pmeth.obj
 0005:00001628       $unwind$SXNET_add_id_INTEGER 00000000000ba608     OpensslLib:v3_sxnet.obj
 0005:00001640       $unwind$pkey_ec_sign       00000000000ba620     OpensslLib:ec_pmeth.obj
 0005:00001640       $unwind$pkey_rsa_verifyrecover 00000000000ba620     OpensslLib:rsa_pmeth.obj
 0005:00001654       $unwind$pkey_rsa_verify    00000000000ba634     OpensslLib:rsa_pmeth.obj
 0005:00001668       $unwind$pkey_rsa_decrypt   00000000000ba648     OpensslLib:rsa_pmeth.obj
 0005:0000167c       $unwind$pkey_rsa_ctrl_str  00000000000ba65c     OpensslLib:rsa_pmeth.obj
 0005:00001694       $unwind$pkey_pss_init      00000000000ba674     OpensslLib:rsa_pmeth.obj
 0005:000016a4       $unwind$tls1_prf_P_hash    00000000000ba684     OpensslLib:tls1_prf.obj
 0005:000016c0       $unwind$pkey_hkdf_derive   00000000000ba6a0     OpensslLib:hkdf.obj
 0005:000016d8       $unwind$HKDF_Extract       00000000000ba6b8     OpensslLib:hkdf.obj
 0005:000016f0       $unwind$HKDF_Expand        00000000000ba6d0     OpensslLib:hkdf.obj
 0005:00001708       $unwind$pkey_sm2_verify    00000000000ba6e8     OpensslLib:sm2_pmeth.obj
 0005:0000171c       $unwind$pkey_sm2_digest_custom 00000000000ba6fc     OpensslLib:sm2_pmeth.obj
 0005:00001734       $unwind$pkey_ec_kdf_derive 00000000000ba714     OpensslLib:ec_pmeth.obj
 0005:00001734       $unwind$drbg_ctr_generate  00000000000ba714     OpensslLib:drbg_ctr.obj
 0005:0000174c       $unwind$BIO_dump_indent_cb 00000000000ba72c     OpensslLib:b_dump.obj
 0005:00001768       $unwind$ec_scalar_mul_ladder 00000000000ba748     OpensslLib:ec_mult.obj
 0005:00001768       $unwind$ec_GFp_simple_ladder_post 00000000000ba748     OpensslLib:ecp_smpl.obj
 0005:00001768       $unwind$ec_GFp_simple_points_make_affine 00000000000ba748     OpensslLib:ecp_smpl.obj
 0005:00001780       $unwind$ec_wNAF_mul        00000000000ba760     OpensslLib:ec_mult.obj
 0005:0000179c       $unwind$BN_mod_exp_recp    00000000000ba77c     OpensslLib:bn_exp.obj
 0005:000017b8       $unwind$BN_mod_exp_mont    00000000000ba798     OpensslLib:bn_exp.obj
 0005:000017d8       $unwind$MOD_EXP_CTIME_COPY_FROM_PREBUF 00000000000ba7b8     OpensslLib:bn_exp.obj
 0005:000017f0       $unwind$BN_mod_exp_mont_consttime 00000000000ba7d0     OpensslLib:bn_exp.obj
 0005:000017f0       $unwind$bn_mod_inverse_no_branch 00000000000ba7d0     OpensslLib:bn_gcd.obj
 0005:00001808       $unwind$BN_mod_exp_mont_word 00000000000ba7e8     OpensslLib:bn_exp.obj
 0005:00001808       $unwind$ec_GFp_simple_ladder_step 00000000000ba7e8     OpensslLib:ecp_smpl.obj
 0005:00001820       $unwind$bn_mul_fixed_top   00000000000ba800     OpensslLib:bn_mul.obj
 0005:0000183c       $unwind$enc_read           00000000000ba81c     OpensslLib:bio_enc.obj
 0005:0000183c       $unwind$v2i_AUTHORITY_KEYID 00000000000ba81c     OpensslLib:v3_akey.obj
 0005:00001854       $unwind$do_sigver_init     00000000000ba834     OpensslLib:m_sigver.obj
 0005:00001868       $unwind$EVP_DigestSignFinal 00000000000ba848     OpensslLib:m_sigver.obj
 0005:00001868       $unwind$EVP_DigestVerifyFinal 00000000000ba848     OpensslLib:m_sigver.obj
 0005:00001868       $unwind$EVP_VerifyFinal    00000000000ba848     OpensslLib:p_verify.obj
 0005:00001880       $unwind$EVP_SignFinal      00000000000ba860     OpensslLib:p_sign.obj
 0005:00001894       $unwind$ASN1_buf_print     00000000000ba874     OpensslLib:t_pkey.obj
 0005:00001894       $unwind$X509at_get_attr_by_OBJ 00000000000ba874     OpensslLib:x509_att.obj
 0005:000018a8       $unwind$bn_mul_add_words   00000000000ba888     OpensslLib:bn_asm.obj
 0005:000018a8       $unwind$gf_deserialize     00000000000ba888     OpensslLib:f_generic.obj
 0005:000018bc       $unwind$bn_mul_words       00000000000ba89c     OpensslLib:bn_asm.obj
 0005:000018d4       $unwind$int_bn_mod_inverse 00000000000ba8b4     OpensslLib:bn_gcd.obj
 0005:000018d4       $unwind$ossl_ecdsa_sign_sig 00000000000ba8b4     OpensslLib:ecdsa_ossl.obj
 0005:000018ec       $unwind$bn_sqr_fixed_top   00000000000ba8cc     OpensslLib:bn_sqr.obj
 0005:0000190c       $unwind$bn_sqr_normal      00000000000ba8ec     OpensslLib:bn_sqr.obj
 0005:00001924       $unwind$RSA_padding_check_PKCS1_type_2 00000000000ba904     OpensslLib:rsa_pk1.obj
 0005:00001940       $unwind$RSA_padding_check_SSLv23 00000000000ba920     OpensslLib:rsa_ssl.obj
 0005:0000195c       $unwind$bn_mod_add_fixed_top 00000000000ba93c     OpensslLib:bn_mod.obj
 0005:00001978       $unwind$RSA_padding_add_PKCS1_OAEP_mgf1 00000000000ba958     OpensslLib:rsa_oaep.obj
 0005:00001990       $unwind$RSA_padding_check_PKCS1_OAEP_mgf1 00000000000ba970     OpensslLib:rsa_oaep.obj
 0005:000019ac       $unwind$PKCS1_MGF1         00000000000ba98c     OpensslLib:rsa_oaep.obj
 0005:000019c4       $unwind$i2v_EXTENDED_KEY_USAGE 00000000000ba9a4     OpensslLib:v3_extku.obj
 0005:000019d4       $unwind$i2r_ocsp_crlid     00000000000ba9b4     OpensslLib:v3_ocsp.obj
 0005:000019e8       $unwind$i2v_AUTHORITY_KEYID 00000000000ba9c8     OpensslLib:v3_akey.obj
 0005:000019f8       $unwind$i2r_NAMING_AUTHORITY 00000000000ba9d8     OpensslLib:v3_admis.obj
 0005:00001a14       $unwind$i2r_ADMISSION_SYNTAX 00000000000ba9f4     OpensslLib:v3_admis.obj
 0005:00001a34       $unwind$s2i_skey_id        00000000000baa14     OpensslLib:v3_skey.obj
 0005:00001a44       $unwind$i2v_POLICY_MAPPINGS 00000000000baa24     OpensslLib:v3_pmaps.obj
 0005:00001a5c       $unwind$process_pci_value  00000000000baa3c     OpensslLib:v3_pci.obj
 0005:00001a78       $unwind$r2i_pci            00000000000baa58     OpensslLib:v3_pci.obj
 0005:00001a90       $unwind$i2v_TLS_FEATURE    00000000000baa70     OpensslLib:v3_tlsf.obj
 0005:00001aa4       $unwind$generate_v3        00000000000baa84     OpensslLib:asn1_gen.obj
 0005:00001ac4       $unwind$asn1_cb            00000000000baaa4     OpensslLib:asn1_gen.obj
 0005:00001adc       $unwind$asn1_str2type      00000000000baabc     OpensslLib:asn1_gen.obj
 0005:00001af0       $unwind$ecdsa_sign_setup   00000000000baad0     OpensslLib:ecdsa_ossl.obj
 0005:00001b08       $unwind$ossl_ecdsa_verify_sig 00000000000baae8     OpensslLib:ecdsa_ossl.obj
 0005:00001b20       $unwind$ecdh_simple_compute_key 00000000000bab00     OpensslLib:ecdh_ossl.obj
 0005:00001b38       $unwind$c448_ed448_sign    00000000000bab18     OpensslLib:eddsa.obj
 0005:00001b58       $unwind$c448_ed448_verify  00000000000bab38     OpensslLib:eddsa.obj
 0005:00001b78       $unwind$ED448_public_from_private 00000000000bab58     OpensslLib:eddsa.obj
 0005:00001b94       $unwind$fe_frombytes       00000000000bab74     OpensslLib:curve25519.obj
 0005:00001bac       $unwind$fe_tobytes         00000000000bab8c     OpensslLib:curve25519.obj
 0005:00001bc8       $unwind$fe_mul             00000000000baba8     OpensslLib:curve25519.obj
 0005:00001be0       $unwind$fe_sq              00000000000babc0     OpensslLib:curve25519.obj
 0005:00001be0       $unwind$fe_sq2             00000000000babc0     OpensslLib:curve25519.obj
 0005:00001bf8       $unwind$fe_invert          00000000000babd8     OpensslLib:curve25519.obj
 0005:00001c14       $unwind$fe_pow22523        00000000000babf4     OpensslLib:curve25519.obj
 0005:00001c30       $unwind$ge_p3_tobytes      00000000000bac10     OpensslLib:curve25519.obj
 0005:00001c40       $unwind$ge_frombytes_vartime 00000000000bac20     OpensslLib:curve25519.obj
 0005:00001c5c       $unwind$ge_p3_dbl          00000000000bac3c     OpensslLib:curve25519.obj
 0005:00001c70       $unwind$ge_add             00000000000bac50     OpensslLib:curve25519.obj
 0005:00001c70       $unwind$ge_madd            00000000000bac50     OpensslLib:curve25519.obj
 0005:00001c8c       $unwind$ge_scalarmult_base 00000000000bac6c     OpensslLib:curve25519.obj
 0005:00001ca8       $unwind$x25519_scalar_mult_generic 00000000000bac88     OpensslLib:curve25519.obj
 0005:00001cc4       $unwind$slide              00000000000baca4     OpensslLib:curve25519.obj
 0005:00001cdc       $unwind$ge_double_scalarmult_vartime 00000000000bacbc     OpensslLib:curve25519.obj
 0005:00001cfc       $unwind$x25519_sc_reduce   00000000000bacdc     OpensslLib:curve25519.obj
 0005:00001d14       $unwind$sc_muladd          00000000000bacf4     OpensslLib:curve25519.obj
 0005:00001d2c       $unwind$ED25519_verify     00000000000bad0c     OpensslLib:curve25519.obj
 0005:00001d4c       $unwind$X25519_public_from_private 00000000000bad2c     OpensslLib:curve25519.obj
 0005:00001d5c       $unwind$gf_cond_neg        00000000000bad3c     OpensslLib:curve448.obj
 0005:00001d5c       $unwind$gf_sqrn            00000000000bad3c     OpensslLib:f_generic.obj
 0005:00001d68       $unwind$gf_invert          00000000000bad48     OpensslLib:curve448.obj
 0005:00001d7c       $unwind$point_double_internal 00000000000bad5c     OpensslLib:curve448.obj
 0005:00001d9c       $unwind$add_niels_to_pt    00000000000bad7c     OpensslLib:curve448.obj
 0005:00001d9c       $unwind$sub_niels_from_pt  00000000000bad7c     OpensslLib:curve448.obj
 0005:00001dbc       $unwind$curve448_precomputed_scalarmul 00000000000bad9c     OpensslLib:curve448.obj
 0005:00001dd8       $unwind$curve448_point_mul_by_ratio_and_encode_like_eddsa 00000000000badb8     OpensslLib:curve448.obj
 0005:00001dec       $unwind$curve448_point_decode_like_eddsa_and_mul_by_ratio 00000000000badcc     OpensslLib:curve448.obj
 0005:00001e0c       $unwind$x448_int           00000000000badec     OpensslLib:curve448.obj
 0005:00001e2c       $unwind$recode_wnaf        00000000000bae0c     OpensslLib:curve448.obj
 0005:00001e48       $unwind$curve448_base_double_scalarmul_non_secret 00000000000bae28     OpensslLib:curve448.obj
 0005:00001e68       $unwind$X448_public_from_private 00000000000bae48     OpensslLib:curve448.obj
 0005:00001e80       $unwind$ECPKParameters_print 00000000000bae60     OpensslLib:eck_prn.obj
 0005:00001e98       $unwind$print_bin          00000000000bae78     OpensslLib:eck_prn.obj
 0005:00001eb4       $unwind$X509_signature_dump 00000000000bae94     OpensslLib:t_x509.obj
 0005:00001ed0       $unwind$i2a_ASN1_INTEGER   00000000000baeb0     OpensslLib:f_int.obj
 0005:00001ee4       $unwind$HMAC_Init_ex       00000000000baec4     OpensslLib:hmac.obj
 0005:00001f04       $unwind$HMAC_Final         00000000000baee4     OpensslLib:hmac.obj
 0005:00001f14       $unwind$aes_gcm_ctrl       00000000000baef4     OpensslLib:e_aes.obj
 0005:00001f14       $unwind$aria_gcm_ctrl      00000000000baef4     OpensslLib:e_aria.obj
 0005:00001f2c       $unwind$ctr_df             00000000000baf0c     OpensslLib:drbg_ctr.obj
 0005:00001f44       $unwind$ctr_update         00000000000baf24     OpensslLib:drbg_ctr.obj
 0005:00001f64       $unwind$drbg_ctr_init      00000000000baf44     OpensslLib:drbg_ctr.obj
 0005:00001f7c       $unwind$ctrl               00000000000baf5c     OpensslLib:m_md5_sha1.obj
 0005:00001f94       $unwind$dh_builtin_genparams 00000000000baf74     OpensslLib:dh_gen.obj
 0005:00001fb0       $unwind$RSA_sign_ASN1_OCTET_STRING 00000000000baf90     OpensslLib:rsa_saos.obj
 0005:00001fc8       $unwind$rsa_builtin_keygen 00000000000bafa8     OpensslLib:rsa_gen.obj
 0005:00001fe4       $unwind$RSA_verify_PKCS1_PSS_mgf1 00000000000bafc4     OpensslLib:rsa_pss.obj
 0005:00002000       $unwind$sm2_compute_z_digest 00000000000bafe0     OpensslLib:sm2_sign.obj
 0005:0000201c       $unwind$sm2_sig_gen        00000000000baffc     OpensslLib:sm2_sign.obj
 0005:00002034       $unwind$sm2_sig_verify     00000000000bb014     OpensslLib:sm2_sign.obj
 0005:0000204c       $unwind$sm2_sign           00000000000bb02c     OpensslLib:sm2_sign.obj
 0005:00002060       $unwind$sm2_encrypt        00000000000bb040     OpensslLib:sm2_crypt.obj
 0005:0000207c       $unwind$sm2_decrypt        00000000000bb05c     OpensslLib:sm2_crypt.obj
 0005:00002094       $unwind$ecdh_KDF_X9_63     00000000000bb074     OpensslLib:ecdh_kdf.obj
 0005:000020ac       $unwind$BN_nist_mod_224    00000000000bb08c     OpensslLib:bn_nist.obj
 0005:000020c8       $unwind$BN_nist_mod_384    00000000000bb0a8     OpensslLib:bn_nist.obj
 0005:000020e0       $unwind$BN_nist_mod_521    00000000000bb0c0     OpensslLib:bn_nist.obj
 0005:000020fc       $unwind$i2a_ASN1_STRING    00000000000bb0dc     OpensslLib:f_string.obj
 0005:00002110       $unwind$probable_prime_dh  00000000000bb0f0     OpensslLib:bn_prime.obj
 0005:00002128       $unwind$sc_montmul         00000000000bb108     OpensslLib:scalar.obj
 0005:00002140       $unwind$curve448_scalar_decode_long 00000000000bb120     OpensslLib:scalar.obj
 0005:0000215c       $unwind$gf_eq              00000000000bb13c     OpensslLib:f_generic.obj
 0005:00002164       $unwind$gf_isr             00000000000bb144     OpensslLib:f_generic.obj
 0005:00002178       $unwind$gf_mul             00000000000bb158     OpensslLib:f_impl.obj
 0005:00002190       $unwind$SM4_set_key        00000000000bb170     OpensslLib:sm4.obj
 0005:000021a0       $unwind$CRYPTO_cbc128_encrypt 00000000000bb180     OpensslLib:cbc128.obj
 0005:000021b8       $unwind$CRYPTO_cbc128_decrypt 00000000000bb198     OpensslLib:cbc128.obj
 0005:000021d0       $unwind$CRYPTO_cfb128_1_encrypt 00000000000bb1b0     OpensslLib:cfb128.obj
 0005:000021e8       $unwind$CRYPTO_cfb128_8_encrypt 00000000000bb1c8     OpensslLib:cfb128.obj
 0005:00002204       $unwind$CRYPTO_ccm128_encrypt 00000000000bb1e4     OpensslLib:ccm128.obj
 0005:0000221c       $unwind$rotnr              00000000000bb1fc     OpensslLib:aria.obj
 0005:00002228       $unwind$aria_set_encrypt_key 00000000000bb208     OpensslLib:aria.obj
 0005:0000224c       $unwind$aria_set_decrypt_key 00000000000bb22c     OpensslLib:aria.obj
 0005:00002264       $unwind$CRYPTO_xts128_encrypt 00000000000bb244     OpensslLib:xts128.obj
 0005:00002280       $unwind$AES_set_encrypt_key 00000000000bb260     OpensslLib:aes_core.obj
 0005:0000229c       $unwind$AES_decrypt        00000000000bb27c     OpensslLib:aes_core.obj
 0005:0000229c       $unwind$AES_encrypt        00000000000bb27c     OpensslLib:aes_core.obj
 0005:000022b8       $unwind$CRYPTO_128_wrap    00000000000bb298     OpensslLib:wrap128.obj
 0005:000022d4       $unwind$crypto_128_unwrap_raw 00000000000bb2b4     OpensslLib:wrap128.obj
 0005:000022ec       $unwind$CRYPTO_128_unwrap_pad 00000000000bb2cc     OpensslLib:wrap128.obj
 0005:00002304       $unwind$alg_module_init    00000000000bb2e4     OpensslLib:evp_cnf.obj
 0005:00002318       $unwind$do_tcreate         00000000000bb2f8     OpensslLib:asn_mstbl.obj
 0005:00002330       $unwind$ssl_module_init    00000000000bb310     OpensslLib:conf_ssl.obj
 0005:00002348       $unwind$oid_module_init    00000000000bb328     OpensslLib:asn_moid.obj
 0005:00002348       $unwind$ec_GFp_simple_is_on_curve 00000000000bb328     OpensslLib:ecp_smpl.obj
 0005:00002348       $unwind$ec_GFp_simple_point_get_affine_coordinates 00000000000bb328     OpensslLib:ecp_smpl.obj
 0005:00002364       $unwind$Round              00000000000bb344     OpensslLib:keccak1600.obj
 0005:0000237c       $unwind$KeccakF1600        00000000000bb35c     OpensslLib:keccak1600.obj
 0005:0000238c       $unwind$SHA3_squeeze       00000000000bb36c     OpensslLib:keccak1600.obj
 0005:000023a0       $unwind$sm3_block_data_order 00000000000bb380     OpensslLib:sm3.obj
 0005:000023b8       $unwind$ec_GFp_simple_add  00000000000bb398     OpensslLib:ecp_smpl.obj
 0005:000023d0       $unwind$ec_GFp_simple_cmp  00000000000bb3b0     OpensslLib:ecp_smpl.obj
 0005:000023ec       $unwind$QuickSortWorker    00000000000bb3cc     RuntimeCryptLib:CrtWrapper.obj
