 UsbMassStorageDxe

 Timestamp is 62c3c2e3 (Tue Jul  5 12:49:39 2022)

 Preferred load address is 0000000000000000

 Start         Length     Name                   Class
 0001:00000000 000001b8H .text                   CODE
 0001:000001b8 000040aaH .text$mn                CODE
 0002:00000000 000018e0H .rdata                  DATA
 0002:000018e0 00000020H .rdata$voltmd           DATA
 0002:00001900 00000158H .rdata$zzzdbg           DATA
 0003:00000000 000001c0H .data                   DATA
 0003:000001c0 0000002aH .bss                    DATA
 0004:00000000 00000258H .pdata                  DATA
 0005:00000000 000002b8H .xdata                  DATA

  Address         Publics by Value              Rva+Base               Lib:Object

 0000:00000000       __x64_code_ranges_to_entry_points_count 0000000000000000     <absolute>
 0000:00000000       __guard_iat_table          0000000000000000     <absolute>
 0000:00000000       __guard_iat_count          0000000000000000     <absolute>
 0000:00000000       __guard_longjmp_count      0000000000000000     <absolute>
 0000:00000000       __dynamic_value_reloc_table 0000000000000000     <absolute>
 0000:00000000       __hybrid_auxiliary_iat     0000000000000000     <absolute>
 0000:00000000       __guard_longjmp_table      0000000000000000     <absolute>
 0000:00000000       __x64_code_ranges_to_entry_points 0000000000000000     <absolute>
 0000:00000000       __hybrid_auxiliary_iat_copy 0000000000000000     <absolute>
 0000:00000000       __guard_fids_count         0000000000000000     <absolute>
 0000:00000000       __arm64x_redirection_metadata 0000000000000000     <absolute>
 0000:00000000       __hybrid_code_map_count    0000000000000000     <absolute>
 0000:00000000       __arm64x_extra_rfe_table   0000000000000000     <absolute>
 0000:00000000       __AbsoluteZero             0000000000000000     <absolute>
 0000:00000000       __guard_check_icall_a64n_fptr 0000000000000000     <absolute>
 0000:00000000       __hybrid_code_map          0000000000000000     <absolute>
 0000:00000000       __arm64x_extra_rfe_table_size 0000000000000000     <absolute>
 0000:00000000       __guard_fids_table         0000000000000000     <absolute>
 0000:00000000       __guard_flags              0000000000000000     <absolute>
 0000:00000000       __guard_eh_cont_count      0000000000000000     <absolute>
 0000:00000000       __arm64x_native_entrypoint 0000000000000000     <absolute>
 0000:00000000       __arm64x_redirection_metadata_count 0000000000000000     <absolute>
 0000:00000000       __enclave_config           0000000000000000     <absolute>
 0000:00000000       __guard_eh_cont_table      0000000000000000     <absolute>
 0001:00000000       InternalMemCopyMem         00000000000002c0     BaseMemoryLibRepStr:CopyMem.obj
 0001:00000040       InternalMemSetMem          0000000000000300     BaseMemoryLibRepStr:SetMem.obj
 0001:00000060       InternalMemZeroMem         0000000000000320     BaseMemoryLibRepStr:ZeroMem.obj
 0001:00000080       InternalMemSetMem64        0000000000000340     BaseMemoryLibRepStr:SetMem64.obj
 0001:000000a0       InternalMemSetMem32        0000000000000360     BaseMemoryLibRepStr:SetMem32.obj
 0001:000000c0       CpuPause                   0000000000000380     BaseLib:CpuPause.obj
 0001:000000d0       TdVmCall                   0000000000000390     BaseLib:TdVmcall.obj
 0001:00000160       TdCall                     0000000000000420     BaseLib:TdCall.obj
 0001:000001b8       _ModuleEntryPoint          0000000000000478 f   UefiDriverEntryPoint:DriverEntryPoint.obj
 0001:000001d4       ProcessLibraryConstructorList 0000000000000494 f   UsbMassStorageDxe:AutoGen.obj
 0001:00000368       ProcessModuleEntryPointList 0000000000000628 f   UsbMassStorageDxe:AutoGen.obj
 0001:00000440       UsbMassReset               0000000000000700 f   UsbMassStorageDxe:UsbMassImpl.obj
 0001:000004c8       UsbMassReadBlocks          0000000000000788 f   UsbMassStorageDxe:UsbMassImpl.obj
 0001:0000063c       UsbMassWriteBlocks         00000000000008fc f   UsbMassStorageDxe:UsbMassImpl.obj
 0001:000007b0       UsbMassFlushBlocks         0000000000000a70 f   UsbMassStorageDxe:UsbMassImpl.obj
 0001:000007b4       UsbMassInitMedia           0000000000000a74 f   UsbMassStorageDxe:UsbMassImpl.obj
 0001:000008f8       UsbMassInitMultiLun        0000000000000bb8 f   UsbMassStorageDxe:UsbMassImpl.obj
 0001:00000c24       UsbMassInitNonLun          0000000000000ee4 f   UsbMassStorageDxe:UsbMassImpl.obj
 0001:00000e10       USBMassDriverBindingSupported 00000000000010d0 f   UsbMassStorageDxe:UsbMassImpl.obj
 0001:00000ee8       USBMassDriverBindingStart  00000000000011a8 f   UsbMassStorageDxe:UsbMassImpl.obj
 0001:00001188       USBMassDriverBindingStop   0000000000001448 f   UsbMassStorageDxe:UsbMassImpl.obj
 0001:000014c8       UsbCbiInit                 0000000000001788 f   UsbMassStorageDxe:UsbMassCbi.obj
 0001:0000163c       UsbCbiSendCommand          00000000000018fc f   UsbMassStorageDxe:UsbMassCbi.obj
 0001:000016e4       UsbCbiDataTransfer         00000000000019a4 f   UsbMassStorageDxe:UsbMassCbi.obj
 0001:000017fc       UsbCbiGetStatus            0000000000001abc f   UsbMassStorageDxe:UsbMassCbi.obj
 0001:00001888       UsbCbiExecCommand          0000000000001b48 f   UsbMassStorageDxe:UsbMassCbi.obj
 0001:000019c0       UsbCbiResetDevice          0000000000001c80 f   UsbMassStorageDxe:UsbMassCbi.obj
 0001:00001a88       UsbCbiCleanUp              0000000000001d48 f   UsbMassStorageDxe:UsbMassCbi.obj
 0001:00001a88       UsbBotCleanUp              0000000000001d48 f   UsbMassStorageDxe:UsbMassBot.obj
 0001:00001a98       UsbDiskInfoInquiry         0000000000001d58 f   UsbMassStorageDxe:UsbMassDiskInfo.obj
 0001:00001b24       UsbDiskInfoSenseData       0000000000001de4 f   UsbMassStorageDxe:UsbMassDiskInfo.obj
 0001:00001b24       UsbDiskInfoIdentify        0000000000001de4 f   UsbMassStorageDxe:UsbMassDiskInfo.obj
 0001:00001b30       UsbMassStorageGetControllerName 0000000000001df0 f   UsbMassStorageDxe:ComponentName.obj
 0001:00001b30       UsbDiskInfoWhichIde        0000000000001df0 f   UsbMassStorageDxe:UsbMassDiskInfo.obj
 0001:00001b3c       UsbMassStorageGetDriverName 0000000000001dfc f   UsbMassStorageDxe:ComponentName.obj
 0001:00001c3c       UsbBotInit                 0000000000001efc f   UsbMassStorageDxe:UsbMassBot.obj
 0001:00001d8c       UsbBotDataTransfer         000000000000204c f   UsbMassStorageDxe:UsbMassBot.obj
 0001:00001e88       UsbBotGetStatus            0000000000002148 f   UsbMassStorageDxe:UsbMassBot.obj
 0001:00001f5c       UsbBotExecCommand          000000000000221c f   UsbMassStorageDxe:UsbMassBot.obj
 0001:000020d8       UsbBotResetDevice          0000000000002398 f   UsbMassStorageDxe:UsbMassBot.obj
 0001:0000219c       UsbBotGetMaxLun            000000000000245c f   UsbMassStorageDxe:UsbMassBot.obj
 0001:0000221c       UsbBootRequestSense        00000000000024dc f   UsbMassStorageDxe:UsbMassBoot.obj
 0001:00002404       UsbBootExecCmdWithRetry    00000000000026c4 f   UsbMassStorageDxe:UsbMassBoot.obj
 0001:000025c8       UsbBootReadCapacity16      0000000000002888 f   UsbMassStorageDxe:UsbMassBoot.obj
 0001:000026fc       UsbBootReadCapacity        00000000000029bc f   UsbMassStorageDxe:UsbMassBoot.obj
 0001:000027e4       UsbBootDetectMedia         0000000000002aa4 f   UsbMassStorageDxe:UsbMassBoot.obj
 0001:00002a18       UsbBootReadWriteBlocks     0000000000002cd8 f   UsbMassStorageDxe:UsbMassBoot.obj
 0001:00002b8c       UsbBootReadWriteBlocks16   0000000000002e4c f   UsbMassStorageDxe:UsbMassBoot.obj
 0001:00002d38       UsbClearEndpointStall      0000000000002ff8 f   UsbMassStorageDxe:UsbMassBoot.obj
 0001:00002d84       CopyMem                    0000000000003044 f   BaseMemoryLibRepStr:CopyMemWrapper.obj
 0001:00002e20       ZeroMem                    00000000000030e0 f   BaseMemoryLibRepStr:ZeroMemWrapper.obj
 0001:00002e90       DebugPrint                 0000000000003150 f   BaseDebugLibSerialPort:DebugLib.obj
 0001:00002eb4       DebugPrintMarker           0000000000003174 f   BaseDebugLibSerialPort:DebugLib.obj
 0001:00002f64       DebugAssert                0000000000003224 f   BaseDebugLibSerialPort:DebugLib.obj
 0001:00002fdc       InternalAllocatePool       000000000000329c f   UefiMemoryAllocationLib:MemoryAllocationLib.obj
 0001:0000300c       FreePool                   00000000000032cc f   UefiMemoryAllocationLib:MemoryAllocationLib.obj
 0001:00003050       IsLanguageSupported        0000000000003310 f   UefiLib:UefiLib.obj
 0001:000030d8       AsciiStrLen                0000000000003398 f   BaseLib:String.obj
 0001:00003144       AsciiStrnCmp               0000000000003404 f   BaseLib:String.obj
 0001:00003210       StrnLenS                   00000000000034d0 f   BaseLib:SafeString.obj
 0001:00003268       AsciiSPrint                0000000000003528 f   BasePrintLib:PrintLib.obj
 0001:00003294       BasePrintLibFillBuffer     0000000000003554 f   BasePrintLib:PrintLibInternal.obj
 0001:000032c8       BasePrintLibValueToString  0000000000003588 f   BasePrintLib:PrintLibInternal.obj
 0001:00003334       BasePrintLibSPrintMarker   00000000000035f4 f   BasePrintLib:PrintLibInternal.obj
 0001:00004240       BasePrintLibSPrint         0000000000004500 f   BasePrintLib:PrintLibInternal.obj
 0002:00000000       ??_C@_0CB@DMEJJJHA@?6ASSERT_EFI_ERROR?5?$CIStatus?5?$DN?5?$CFr?$CJ@ 0000000000004540     UefiDriverEntryPoint:DriverEntryPoint.obj
 0002:00000028       ??_C@_0CH@BBNBJKHK@?$CB?$CI?$CI?$CIINTN?$CJ?$CIRETURN_STATUS?$CJ?$CIStatus@ 0000000000004568     UefiDriverEntryPoint:DriverEntryPoint.obj
 0002:00000050       ??_C@_0BC@FOJPMLOP@UsbMassStorageDxe@ 0000000000004590     UsbMassStorageDxe:AutoGen.obj
 0002:00000070       ??_C@_0HH@DIBHHJIH@d?3?2myedk2?2edk2?2Build?2OvmfX64?2DE@ 00000000000045b0     UsbMassStorageDxe:AutoGen.obj
 0002:000000e8       ??_C@_0BF@NDBIKIKC@CR?5has?5Bad?5Signature@ 0000000000004628     UsbMassStorageDxe:UsbMassImpl.obj
 0002:00000100       ??_C@_0EE@FNFKNDCO@d?3?2myedk2?2edk2?2MdeModulePkg?2Bus@ 0000000000004640     UsbMassStorageDxe:UsbMassImpl.obj
 0002:00000148       ??_C@_0DE@NBMONNGG@UsbMassReadBlocks?3?5UsbBootReadB@ 0000000000004688     UsbMassStorageDxe:UsbMassImpl.obj
 0002:00000180       ??_C@_0DG@GICHMCOP@UsbMassWriteBlocks?3?5UsbBootWrit@ 00000000000046c0     UsbMassStorageDxe:UsbMassImpl.obj
 0002:000001b8       ??_C@_0CJ@BNHFPCDG@UsbMassInitMedia?3?5UsbBootGetPar@ 00000000000046f8     UsbMassStorageDxe:UsbMassImpl.obj
 0002:000001e8       ??_C@_0L@DIFIICPJ@MaxLun?5?$DO?50@ 0000000000004728     UsbMassStorageDxe:UsbMassImpl.obj
 0002:000001f8       ??_C@_0DL@HKKMMFOD@UsbMassInitMultiLun?3?5Start?5to?5i@ 0000000000004738     UsbMassStorageDxe:UsbMassImpl.obj
 0002:00000238       ??_C@_0BI@HFJBGALM@UsbMass?5?$CB?$DN?5?$CI?$CIvoid?5?$CK?$CJ?50?$CJ@ 0000000000004778     UsbMassStorageDxe:UsbMassImpl.obj
 0002:00000250       ??_C@_0CM@MGHPEPJN@UsbMassInitMultiLun?3?5UsbMassIni@ 0000000000004790     UsbMassStorageDxe:UsbMassImpl.obj
 0002:00000280       ??_C@_0EF@DHNLKLLE@UsbMassInitMultiLun?3?5failed?5to?5@ 00000000000047c0     UsbMassStorageDxe:UsbMassImpl.obj
 0002:000002c8       ??_C@_0DN@NDHKNMBD@UsbMassInitMultiLun?3?5InstallMul@ 0000000000004808     UsbMassStorageDxe:UsbMassImpl.obj
 0002:00000308       ??_C@_0DG@PFCIKIIO@UsbMassInitMultiLun?3?5OpenUsbIoP@ 0000000000004848     UsbMassStorageDxe:UsbMassImpl.obj
 0002:00000340       ??_C@_0DN@HALBAPL@UsbMassInitMultiLun?3?5Success?5to@ 0000000000004880     UsbMassStorageDxe:UsbMassImpl.obj
 0002:00000380       ??_C@_0DF@BLBCAFPF@UsbMassInitNonLun?3?5OpenUsbIoPro@ 00000000000048c0     UsbMassStorageDxe:UsbMassImpl.obj
 0002:000003b8       ??_C@_0CK@CMFOKOLF@UsbMassInitNonLun?3?5UsbMassInitM@ 00000000000048f8     UsbMassStorageDxe:UsbMassImpl.obj
 0002:000003e8       ??_C@_0DG@KCJEHGJN@USBMassDriverBindingStart?3?5UsbM@ 0000000000004928     UsbMassStorageDxe:UsbMassImpl.obj
 0002:00000420       ??_C@_0DD@JNBLBEBE@USBMassDriverBindingStart?3?5UsbM@ 0000000000004960     UsbMassStorageDxe:UsbMassImpl.obj
 0002:00000460       ??_C@_0EC@IPHGBDDL@USBMassDriverBindingStart?3?5Open@ 00000000000049a0     UsbMassStorageDxe:UsbMassImpl.obj
 0002:000004a8       ??_C@_0DN@NIPPNLKD@USBMassDriverBindingStart?3?5Open@ 00000000000049e8     UsbMassStorageDxe:UsbMassImpl.obj
 0002:000004f0       ??_C@_0EE@BGMPFHPO@USBMassDriverBindingStart?3?5UsbM@ 0000000000004a30     UsbMassStorageDxe:UsbMassImpl.obj
 0002:00000538       ??_C@_0CH@DNHIGOAP@Success?5to?5stop?5multi?9lun?5root?5@ 0000000000004a78     UsbMassStorageDxe:UsbMassImpl.obj
 0002:00000560       ??_C@_0CL@BFAKFEDI@Success?5to?5stop?5non?9multi?9lun?5r@ 0000000000004aa0     UsbMassStorageDxe:UsbMassImpl.obj
 0002:00000590       ??_C@_0EA@FCEGPKCL@Fail?5to?5stop?5No?4?$CFd?5multi?9lun?5ch@ 0000000000004ad0     UsbMassStorageDxe:UsbMassImpl.obj
 0002:000005d0       ??_C@_0FE@MBLAIOFC@Fail?5to?5stop?5No?4?$CFd?5multi?9lun?5ch@ 0000000000004b10     UsbMassStorageDxe:UsbMassImpl.obj
 0002:00000628       ??_C@_0DD@PHJMPALO@Success?5to?5stop?5all?5?$CFd?5multi?9lu@ 0000000000004b68     UsbMassStorageDxe:UsbMassImpl.obj
 0002:00000660       mUsbMassTransport          0000000000004ba0     UsbMassStorageDxe:UsbMassImpl.obj
 0002:00000678       ??_C@_0BH@LHPNAOPP@UsbCbi?5?$CB?$DN?5?$CI?$CIvoid?5?$CK?$CJ?50?$CJ@ 0000000000004bb8     UsbMassStorageDxe:UsbMassCbi.obj
 0002:00000690       ??_C@_0ED@NOGANIFM@d?3?2myedk2?2edk2?2MdeModulePkg?2Bus@ 0000000000004bd0     UsbMassStorageDxe:UsbMassCbi.obj
 0002:000006d8       ??_C@_0CL@DJAPBABE@UsbCbiExecCommand?3?5UsbCbiSendCo@ 0000000000004c18     UsbMassStorageDxe:UsbMassCbi.obj
 0002:00000708       ??_C@_0CM@MIIDJLIF@UsbCbiExecCommand?3?5UsbCbiDataTr@ 0000000000004c48     UsbMassStorageDxe:UsbMassCbi.obj
 0002:00000738       ??_C@_0CJ@IFBOBKLL@UsbCbiExecCommand?3?5UsbCbiGetSta@ 0000000000004c78     UsbMassStorageDxe:UsbMassCbi.obj
 0002:00000770       ??_C@_0EI@JACAEENB@d?3?2myedk2?2edk2?2MdeModulePkg?2Bus@ 0000000000004cb0     UsbMassStorageDxe:UsbMassDiskInfo.obj
 0002:000007b8       ??_C@_03LKLGDMJI@eng@      0000000000004cf8     UsbMassStorageDxe:ComponentName.obj
 0002:000007bc       ??_C@_02LFNMGJAP@en@       0000000000004cfc     UsbMassStorageDxe:ComponentName.obj
 0002:000007c0       ??_C@_06DALJLGPG@eng?$DLen@ 0000000000004d00     UsbMassStorageDxe:ComponentName.obj
 0002:000007c8       ??_C@_1DA@EPHOEJAM@?$AAU?$AAs?$AAb?$AA?5?$AAM?$AAa?$AAs?$AAs?$AA?5?$AAS?$AAt?$AAo?$AAr?$AAa?$AAg@ 0000000000004d08     UsbMassStorageDxe:ComponentName.obj
 0002:000007f8       ??_C@_0BH@DILJDGHF@UsbBot?5?$CB?$DN?5?$CI?$CIvoid?5?$CK?$CJ?50?$CJ@ 0000000000004d38     UsbMassStorageDxe:UsbMassBot.obj
 0002:00000810       ??_C@_0ED@EPNPEAAK@d?3?2myedk2?2edk2?2MdeModulePkg?2Bus@ 0000000000004d50     UsbMassStorageDxe:UsbMassBot.obj
 0002:00000858       ??_C@_0BP@PPLBEAAN@?$CICmdLen?5?$DO?50?$CJ?5?$CG?$CG?5?$CICmdLen?5?$DM?$DN?516?$CJ@ 0000000000004d98     UsbMassStorageDxe:UsbMassBot.obj
 0002:00000878       ??_C@_0BK@EJHBICEP@UsbBotDataTransfer?3?5?$CI?$CFr?$CJ?6@ 0000000000004db8     UsbMassStorageDxe:UsbMassBot.obj
 0002:00000898       ??_C@_0CC@NGFHIDAD@UsbBotDataTransfer?3?5DataIn?5Stal@ 0000000000004dd8     UsbMassStorageDxe:UsbMassBot.obj
 0002:000008c0       ??_C@_0CL@PJEFNBMA@UsbBotExecCommand?3?5UsbBotSendCo@ 0000000000004e00     UsbMassStorageDxe:UsbMassBot.obj
 0002:000008f0       ??_C@_0CJ@CHPECBCL@UsbBotExecCommand?3?5UsbBotGetSta@ 0000000000004e30     UsbMassStorageDxe:UsbMassBot.obj
 0002:00000920       ??_C@_0CK@MFLGMEDP@UsbBootRequestSense?3?5?$CI?$CFr?$CJ?5CmdRe@ 0000000000004e60     UsbMassStorageDxe:UsbMassBoot.obj
 0002:00000950       ??_C@_0ED@FIBALEDD@UsbBootRequestSense?3?5?$CI?$CFr?$CJ?5with?5@ 0000000000004e90     UsbMassStorageDxe:UsbMassBoot.obj
 0002:00000998       ??_C@_0CF@HJOODCPK@UsbBootExecCmd?3?5?$CFr?5to?5Exec?50x?$CFx@ 0000000000004ed8     UsbMassStorageDxe:UsbMassBoot.obj
 0002:000009c0       ??_C@_0DD@GODOPCGP@UsbBootExecCmd?3?5?$CFr?5to?5Exec?50x?$CFx@ 0000000000004f00     UsbMassStorageDxe:UsbMassBoot.obj
 0002:000009f8       ??_C@_0CH@EAKPOAJL@UsbBootGetParams?3?5UsbBootInquir@ 0000000000004f38     UsbMassStorageDxe:UsbMassBoot.obj
 0002:00000a20       ??_C@_0DM@GKNHHEIL@UsbBootGetParams?3?5Found?5an?5unsu@ 0000000000004f60     UsbMassStorageDxe:UsbMassBoot.obj
 0002:00000a60       ??_C@_0CN@EPBMLKKC@UsbBootDetectMedia?3?5UsbBootIsUn@ 0000000000004fa0     UsbMassStorageDxe:UsbMassBoot.obj
 0002:00000a90       ??_C@_0CO@NFFJHNA@UsbBootDetectMedia?3?5UsbBootRead@ 0000000000004fd0     UsbMassStorageDxe:UsbMassBoot.obj
 0002:00000ac0       ??_C@_0BJ@CLDGILHH@EfiGetCurrentTpl?5?$CI?$CJ?5?$DN?$DN?58@ 0000000000005000     UsbMassStorageDxe:UsbMassBoot.obj
 0002:00000ae0       ??_C@_0EE@GFIIFJPM@d?3?2myedk2?2edk2?2MdeModulePkg?2Bus@ 0000000000005020     UsbMassStorageDxe:UsbMassBoot.obj
 0002:00000b28       ??_C@_1M@GNJKCMMA@?$AAW?$AAr?$AAi?$AAt?$AAe@ 0000000000005068     UsbMassStorageDxe:UsbMassBoot.obj
 0002:00000b38       ??_C@_19EOHDNDII@?$AAR?$AAe?$AAa?$AAd@ 0000000000005078     UsbMassStorageDxe:UsbMassBoot.obj
 0002:00000b48       ??_C@_0CK@INPEJJEI@UsbBoot?$CFsBlocks?3?5LBA?5?$CI0x?$CFlx?$CJ?0?5B@ 0000000000005088     UsbMassStorageDxe:UsbMassBoot.obj
 0002:00000b78       ??_C@_0CM@CDOPCPJO@UsbBoot?$CFsBlocks16?3?5LBA?5?$CI0x?$CFlx?$CJ?0@ 00000000000050b8     UsbMassStorageDxe:UsbMassBoot.obj
 0002:00000bb0       ??_C@_0ED@MKGCMJG@?$CILength?5?9?51?$CJ?5?$DM?$DN?5?$CI0xFFFFFFFFFFFF@ 00000000000050f0     BaseMemoryLibRepStr:CopyMemWrapper.obj
 0002:00000c00       ??_C@_0ED@JAIIHABO@d?3?2myedk2?2edk2?2MdePkg?2Library?2B@ 0000000000005140     BaseMemoryLibRepStr:CopyMemWrapper.obj
 0002:00000c48       ??_C@_0DO@MAOBOFEG@?$CILength?5?9?51?$CJ?5?$DM?$DN?5?$CI0xFFFFFFFFFFFF@ 0000000000005188     BaseMemoryLibRepStr:CopyMemWrapper.obj
 0002:00000c88       ??_C@_0DI@DAGDPLPG@?$CILength?5?9?51?$CJ?5?$DM?$DN?5?$CI0xFFFFFFFFFFFF@ 00000000000051c8     BaseMemoryLibRepStr:SetMemWrapper.obj
 0002:00000cc0       ??_C@_0EC@NJPJFNGD@d?3?2myedk2?2edk2?2MdePkg?2Library?2B@ 0000000000005200     BaseMemoryLibRepStr:SetMemWrapper.obj
 0002:00000d08       ??_C@_0BH@IACGKAP@Buffer?5?$CB?$DN?5?$CI?$CIvoid?5?$CK?$CJ?50?$CJ@ 0000000000005248     BaseMemoryLibRepStr:ZeroMemWrapper.obj
 0002:00000d20       ??_C@_0ED@CECKBBNJ@d?3?2myedk2?2edk2?2MdePkg?2Library?2B@ 0000000000005260     BaseMemoryLibRepStr:ZeroMemWrapper.obj
 0002:00000d68       ??_C@_0DG@EEENIGGL@Length?5?$DM?$DN?5?$CI0xFFFFFFFFFFFFFFFFUL@ 00000000000052a8     BaseMemoryLibRepStr:ZeroMemWrapper.obj
 0002:00000da0       ??_C@_0DC@DDBICJIK@d?3?2myedk2?2edk2?2MdePkg?2Library?2B@ 00000000000052e0     BaseLib:Unaligned.obj
 0002:00000dd8       ??_C@_0BH@LKMBFCBF@Format?5?$CB?$DN?5?$CI?$CIvoid?5?$CK?$CJ?50?$CJ@ 0000000000005318     BaseDebugLibSerialPort:DebugLib.obj
 0002:00000df0       ??_C@_0EA@MCEJFCHO@d?3?2myedk2?2edk2?2MdePkg?2Library?2B@ 0000000000005330     BaseDebugLibSerialPort:DebugLib.obj
 0002:00000e30       ??_C@_0BI@NOCKJDBJ@ASSERT?5?$FL?$CFa?$FN?5?$CFa?$CI?$CFd?$CJ?3?5?$CFa?6@ 0000000000005370     BaseDebugLibSerialPort:DebugLib.obj
 0002:00000e48       ??_C@_0BN@COECPDCC@gImageHandle?5?$CB?$DN?5?$CI?$CIvoid?5?$CK?$CJ?50?$CJ@ 0000000000005388     UefiBootServicesTableLib:UefiBootServicesTableLib.obj
 0002:00000e70       ??_C@_0FC@HJEJKBBP@d?3?2myedk2?2edk2?2MdePkg?2Library?2U@ 00000000000053b0     UefiBootServicesTableLib:UefiBootServicesTableLib.obj
 0002:00000ec8       ??_C@_0BE@DGNHAHIL@gST?5?$CB?$DN?5?$CI?$CIvoid?5?$CK?$CJ?50?$CJ@ 0000000000005408     UefiBootServicesTableLib:UefiBootServicesTableLib.obj
 0002:00000ee0       ??_C@_0BE@BDFJLGLN@gBS?5?$CB?$DN?5?$CI?$CIvoid?5?$CK?$CJ?50?$CJ@ 0000000000005420     UefiBootServicesTableLib:UefiBootServicesTableLib.obj
 0002:00000f00       ??_C@_0EM@BLKCBDHP@d?3?2myedk2?2edk2?2MdePkg?2Library?2U@ 0000000000005440     UefiMemoryAllocationLib:MemoryAllocationLib.obj
 0002:00000f50       ??_C@_0BE@OBDFIHND@gRT?5?$CB?$DN?5?$CI?$CIvoid?5?$CK?$CJ?50?$CJ@ 0000000000005490     UefiRuntimeServicesTableLib:UefiRuntimeServicesTableLib.obj
 0002:00000f70       ??_C@_0FI@ELFALICJ@d?3?2myedk2?2edk2?2MdePkg?2Library?2U@ 00000000000054b0     UefiRuntimeServicesTableLib:UefiRuntimeServicesTableLib.obj
 0002:00000fd0       ??_C@_0FG@PKIHNGDJ@d?3?2myedk2?2edk2?2MdePkg?2Library?2U@ 0000000000005510     UefiDevicePathLibDevicePathProtocol:UefiDevicePathLib.obj
 0002:00001028       ??_C@_0DC@CNNBPJA@mDevicePathLibDevicePathUtiliti@ 0000000000005568     UefiDevicePathLibDevicePathProtocol:UefiDevicePathLib.obj
 0002:00001060       ??_C@_0DI@BANHGNLM@d?3?2myedk2?2edk2?2MdePkg?2Library?2U@ 00000000000055a0     UefiLib:UefiDriverModel.obj
 0002:00001098       ??_C@_0BH@MAAHKCPC@String?5?$CB?$DN?5?$CI?$CIvoid?5?$CK?$CJ?50?$CJ@ 00000000000055d8     BaseLib:String.obj
 0002:000010b0       ??_C@_0CP@DJBLNMJI@d?3?2myedk2?2edk2?2MdePkg?2Library?2B@ 00000000000055f0     BaseLib:String.obj
 0002:000010e0       ??_C@_0CC@GFNLNIOC@?$CI?$CIUINTN?$CJString?5?$CG?50x00000001?$CJ?5?$DN?$DN@ 0000000000005620     BaseLib:String.obj
 0002:00001108       ??_C@_0DI@MDIKFADO@Length?5?$DM?5_gPcd_FixedAtBuild_Pcd@ 0000000000005648     BaseLib:String.obj
 0002:00001140       ??_C@_0BL@IKFBNFIL@AsciiStrSize?5?$CIFirstString?$CJ@ 0000000000005680     BaseLib:String.obj
 0002:00001160       ??_C@_0BM@EDNOKLLE@AsciiStrSize?5?$CISecondString?$CJ@ 00000000000056a0     BaseLib:String.obj
 0002:00001180       ??_C@_0DJ@JJHGIFMP@Length?5?$DM?$DN?5_gPcd_FixedAtBuild_Pc@ 00000000000056c0     BaseLib:String.obj
 0002:000011c0       ??_C@_0DD@OKIGPFG@d?3?2myedk2?2edk2?2MdePkg?2Library?2B@ 0000000000005700     BaseLib:SafeString.obj
 0002:000011f8       ??_C@_0BJ@CNKJJNE@?$CIBuffer?5?$CB?$DN?5?$CI?$CIvoid?5?$CK?$CJ?50?$CJ?$CJ@ 0000000000005738     BaseLib:SafeString.obj
 0002:00001218       ??_C@_0N@KGHEHMDL@Divisor?5?$CB?$DN?50@ 0000000000005758     BaseLib:DivU64x32.obj
 0002:00001228       ??_C@_0DO@DLJLNPNA@d?3?2myedk2?2edk2?2MdePkg?2Library?2B@ 0000000000005768     BasePrintLib:PrintLibInternal.obj
 0002:00001270       ??_C@_0EB@HDGIDCIO@?$CIBufferSize?5?$DM?$DN?5?$CI_gPcd_FixedAtBu@ 00000000000057b0     BasePrintLib:PrintLibInternal.obj
 0002:000012b8       ??_C@_0BJ@PPAKKDJG@?$CIFormat?5?$CB?$DN?5?$CI?$CIvoid?5?$CK?$CJ?50?$CJ?$CJ@ 00000000000057f8     BasePrintLib:PrintLibInternal.obj
 0002:000012e0       ??_C@_0ED@LPDDCECB@?$CIBufferSize?5?$DM?$DN?5?$CI_gPcd_FixedAtBu@ 0000000000005820     BasePrintLib:PrintLibInternal.obj
 0002:00001330       ??_C@_0IM@BFJJFLGB@?$CIStrnLenS?5?$CI?$CICHAR16?5?$CK?$CJFormat?0?5?$CI_@ 0000000000005870     BasePrintLib:PrintLibInternal.obj
 0002:000013c0       ??_C@_0ID@PLGJGION@?$CIAsciiStrnLenS?5?$CIFormat?0?5?$CI_gPcd_@ 0000000000005900     BasePrintLib:PrintLibInternal.obj
 0002:00001448       ??_C@_0O@MLOLIMFM@?$DMnull?5string?$DO@ 0000000000005988     BasePrintLib:PrintLibInternal.obj
 0002:00001458       ??_C@_0M@BJJDNPHK@?$DMnull?5guid?$DO@ 0000000000005998     BasePrintLib:PrintLibInternal.obj
 0002:00001468       ??_C@_0DB@PMLHLBMO@?$CF08x?9?$CF04x?9?$CF04x?9?$CF02x?$CF02x?9?$CF02x?$CF02@ 00000000000059a8     BasePrintLib:PrintLibInternal.obj
 0002:000014a0       ??_C@_0M@LHGBCIKM@?$DMnull?5time?$DO@ 00000000000059e0     BasePrintLib:PrintLibInternal.obj
 0002:000014b0       ??_C@_0BK@FCPKCIDD@?$CF02d?1?$CF02d?1?$CF04d?5?5?$CF02d?3?$CF02d@ 00000000000059f0     BasePrintLib:PrintLibInternal.obj
 0002:000014cc       ??_C@_04JIMNDDED@?$CF08X@  0000000000005a0c     BasePrintLib:PrintLibInternal.obj
 0002:000014d4       ??_C@_02PCIJFNDE@?$AN?6@   0000000000005a14     BasePrintLib:PrintLibInternal.obj
 0002:000014d8       ??_C@_01LIIJDEN@?$AN@      0000000000005a18     BasePrintLib:PrintLibInternal.obj
 0002:000014e0       mWarningString             0000000000005a20     BasePrintLib:PrintLibInternal.obj
 0002:00001580       mErrorString               0000000000005ac0     BasePrintLib:PrintLibInternal.obj
 0002:00001840       mHexStr                    0000000000005d80     BasePrintLib:PrintLibInternal.obj
 0002:00001850       ??_C@_0DL@JEBMKBEC@d?3?2myedk2?2edk2?2MdePkg?2Library?2B@ 0000000000005d90     BaseLib:DivU64x32Remainder.obj
 0002:000018e0       __volatile_metadata        0000000000005e20     <linker-defined>
 0003:00000000       gEfiDiskInfoProtocolGuid   0000000000005fa0     UsbMassStorageDxe:AutoGen.obj
 0003:00000010       gEfiComponentName2ProtocolGuid 0000000000005fb0     UsbMassStorageDxe:AutoGen.obj
 0003:00000020       gEfiDevicePathProtocolGuid 0000000000005fc0     UsbMassStorageDxe:AutoGen.obj
 0003:00000030       gEfiUsbIoProtocolGuid      0000000000005fd0     UsbMassStorageDxe:AutoGen.obj
 0003:00000040       gEfiDevicePathUtilitiesProtocolGuid 0000000000005fe0     UsbMassStorageDxe:AutoGen.obj
 0003:00000050       gEfiDriverBindingProtocolGuid 0000000000005ff0     UsbMassStorageDxe:AutoGen.obj
 0003:00000060       gEfiComponentNameProtocolGuid 0000000000006000     UsbMassStorageDxe:AutoGen.obj
 0003:00000070       gEfiBlockIoProtocolGuid    0000000000006010     UsbMassStorageDxe:AutoGen.obj
 0003:00000080       gUSBMassDriverBinding      0000000000006020     UsbMassStorageDxe:UsbMassImpl.obj
 0003:000000b0       mUsbCbi0Transport          0000000000006050     UsbMassStorageDxe:UsbMassCbi.obj
 0003:000000e0       mUsbCbi1Transport          0000000000006080     UsbMassStorageDxe:UsbMassCbi.obj
 0003:00000110       gUsbDiskInfoProtocolTemplate 00000000000060b0     UsbMassStorageDxe:UsbMassDiskInfo.obj
 0003:00000140       gUsbMassStorageComponentName2 00000000000060e0     UsbMassStorageDxe:ComponentName.obj
 0003:00000158       gUsbMassStorageComponentName 00000000000060f8     UsbMassStorageDxe:ComponentName.obj
 0003:00000170       mUsbMassStorageDriverNameTable 0000000000006110     UsbMassStorageDxe:ComponentName.obj
 0003:00000190       mUsbBotTransport           0000000000006130     UsbMassStorageDxe:UsbMassBot.obj
 0003:000001c0       gST                        0000000000006160     UefiBootServicesTableLib:UefiBootServicesTableLib.obj
 0003:000001c8       gBS                        0000000000006168     UefiBootServicesTableLib:UefiBootServicesTableLib.obj
 0003:000001d0       gImageHandle               0000000000006170     UefiBootServicesTableLib:UefiBootServicesTableLib.obj
 0003:000001d8       gRT                        0000000000006178     UefiRuntimeServicesTableLib:UefiRuntimeServicesTableLib.obj
 0003:000001e0       mDevicePathLibDevicePathUtilities 0000000000006180     UefiDevicePathLibDevicePathProtocol:UefiDevicePathLib.obj
 0003:000001e8       gParity                    0000000000006188     PcAtSerialPortLib:SerialPortLib.obj
 0003:000001e9       gBreakSet                  0000000000006189     PcAtSerialPortLib:SerialPortLib.obj

 entry point at        0001:000001b8

 Static symbols

 0001:0000001a       InternalMemCopyMem.0       00000000000002da     BaseMemoryLibRepStr:CopyMem.obj
 0001:0000002a       @CopyBackward              00000000000002ea     BaseMemoryLibRepStr:CopyMem.obj
 0001:00000033       @CopyBytes                 00000000000002f3     BaseMemoryLibRepStr:CopyMem.obj
 0001:0000012e       TdVmCall.no_return_data    00000000000003ee     BaseLib:TdVmcall.obj
 0001:000001ab       TdCall.exit                000000000000046b     BaseLib:TdCall.obj
 0005:00000000       $unwind$StrnLenS           0000000000006400     BaseLib:SafeString.obj
 0005:00000000       $unwind$_ModuleEntryPoint  0000000000006400     UefiDriverEntryPoint:DriverEntryPoint.obj
 0005:00000008       $unwind$ProcessLibraryConstructorList 0000000000006408     UsbMassStorageDxe:AutoGen.obj
 0005:00000008       $unwind$AsciiStrLen        0000000000006408     BaseLib:String.obj
 0005:00000008       $unwind$ZeroMem            0000000000006408     BaseMemoryLibRepStr:ZeroMemWrapper.obj
 0005:00000014       $unwind$ProcessModuleEntryPointList 0000000000006414     UsbMassStorageDxe:AutoGen.obj
 0005:00000020       $unwind$UsbMassReset       0000000000006420     UsbMassStorageDxe:UsbMassImpl.obj
 0005:00000020       $unwind$AsciiStrnCmp       0000000000006420     BaseLib:String.obj
 0005:00000020       $unwind$BasePrintLibValueToString 0000000000006420     BasePrintLib:PrintLibInternal.obj
 0005:00000020       $unwind$IsLanguageSupported 0000000000006420     UefiLib:UefiLib.obj
 0005:00000030       $unwind$UsbMassReadBlocks  0000000000006430     UsbMassStorageDxe:UsbMassImpl.obj
 0005:00000030       $unwind$UsbMassWriteBlocks 0000000000006430     UsbMassStorageDxe:UsbMassImpl.obj
 0005:0000004c       $unwind$UsbMassInitMedia   000000000000644c     UsbMassStorageDxe:UsbMassImpl.obj
 0005:00000060       $unwind$UsbMassInitMultiLun 0000000000006460     UsbMassStorageDxe:UsbMassImpl.obj
 0005:00000074       $unwind$UsbMassInitNonLun  0000000000006474     UsbMassStorageDxe:UsbMassImpl.obj
 0005:00000088       $unwind$USBMassDriverBindingSupported 0000000000006488     UsbMassStorageDxe:UsbMassImpl.obj
 0005:0000009c       $unwind$USBMassDriverBindingStart 000000000000649c     UsbMassStorageDxe:UsbMassImpl.obj
 0005:000000b4       $unwind$USBMassDriverBindingStop 00000000000064b4     UsbMassStorageDxe:UsbMassImpl.obj
 0005:000000d0       $unwind$UsbCbiInit         00000000000064d0     UsbMassStorageDxe:UsbMassCbi.obj
 0005:000000e4       $unwind$UsbCbiSendCommand  00000000000064e4     UsbMassStorageDxe:UsbMassCbi.obj
 0005:000000f8       $unwind$UsbCbiDataTransfer 00000000000064f8     UsbMassStorageDxe:UsbMassCbi.obj
 0005:00000114       $unwind$UsbCbiGetStatus    0000000000006514     UsbMassStorageDxe:UsbMassCbi.obj
 0005:00000128       $unwind$UsbCbiExecCommand  0000000000006528     UsbMassStorageDxe:UsbMassCbi.obj
 0005:00000140       $unwind$UsbCbiResetDevice  0000000000006540     UsbMassStorageDxe:UsbMassCbi.obj
 0005:0000014c       $unwind$UsbBotCleanUp      000000000000654c     UsbMassStorageDxe:UsbMassBot.obj
 0005:0000014c       $unwind$UsbCbiCleanUp      000000000000654c     UsbMassStorageDxe:UsbMassCbi.obj
 0005:0000014c       $unwind$FreePool           000000000000654c     UefiMemoryAllocationLib:MemoryAllocationLib.obj
 0005:0000014c       $unwind$InternalAllocatePool 000000000000654c     UefiMemoryAllocationLib:MemoryAllocationLib.obj
 0005:00000154       $unwind$UsbDiskInfoInquiry 0000000000006554     UsbMassStorageDxe:UsbMassDiskInfo.obj
 0005:00000154       $unwind$CopyMem            0000000000006554     BaseMemoryLibRepStr:CopyMemWrapper.obj
 0005:00000168       $unwind$UsbMassStorageGetDriverName 0000000000006568     UsbMassStorageDxe:ComponentName.obj
 0005:00000180       $unwind$UsbBotInit         0000000000006580     UsbMassStorageDxe:UsbMassBot.obj
 0005:00000194       $unwind$UsbBotDataTransfer 0000000000006594     UsbMassStorageDxe:UsbMassBot.obj
 0005:000001a4       $unwind$UsbBotGetStatus    00000000000065a4     UsbMassStorageDxe:UsbMassBot.obj
 0005:000001b8       $unwind$UsbBotExecCommand  00000000000065b8     UsbMassStorageDxe:UsbMassBot.obj
 0005:000001d0       $unwind$UsbBotResetDevice  00000000000065d0     UsbMassStorageDxe:UsbMassBot.obj
 0005:000001e0       $unwind$UsbBotGetMaxLun    00000000000065e0     UsbMassStorageDxe:UsbMassBot.obj
 0005:000001ec       $unwind$UsbBootRequestSense 00000000000065ec     UsbMassStorageDxe:UsbMassBoot.obj
 0005:00000200       $unwind$UsbBootExecCmdWithRetry 0000000000006600     UsbMassStorageDxe:UsbMassBoot.obj
 0005:0000021c       $unwind$UsbBootReadCapacity16 000000000000661c     UsbMassStorageDxe:UsbMassBoot.obj
 0005:00000228       $unwind$UsbBootReadCapacity 0000000000006628     UsbMassStorageDxe:UsbMassBoot.obj
 0005:00000230       $unwind$UsbBootDetectMedia 0000000000006630     UsbMassStorageDxe:UsbMassBoot.obj
 0005:00000248       $unwind$UsbBootReadWriteBlocks 0000000000006648     UsbMassStorageDxe:UsbMassBoot.obj
 0005:00000248       $unwind$UsbBootReadWriteBlocks16 0000000000006648     UsbMassStorageDxe:UsbMassBoot.obj
 0005:00000260       $unwind$UsbClearEndpointStall 0000000000006660     UsbMassStorageDxe:UsbMassBoot.obj
 0005:00000268       $unwind$DebugPrint         0000000000006668     BaseDebugLibSerialPort:DebugLib.obj
 0005:00000270       $unwind$DebugPrintMarker   0000000000006670     BaseDebugLibSerialPort:DebugLib.obj
 0005:00000284       $unwind$DebugAssert        0000000000006684     BaseDebugLibSerialPort:DebugLib.obj
 0005:0000028c       $unwind$AsciiSPrint        000000000000668c     BasePrintLib:PrintLib.obj
 0005:00000294       $unwind$BasePrintLibSPrintMarker 0000000000006694     BasePrintLib:PrintLibInternal.obj
 0005:000002b0       $unwind$BasePrintLibSPrint 00000000000066b0     BasePrintLib:PrintLibInternal.obj
