 Fat

 Timestamp is 62c3c29d (Tue Jul  5 12:48:29 2022)

 Preferred load address is 0000000000000000

 Start         Length     Name                   Class
 0001:00000000 000001d8H .text                   CODE
 0001:000001d8 000085f6H .text$mn                CODE
 0002:00000000 00001d30H .rdata                  DATA
 0002:00001d30 00000020H .rdata$voltmd           DATA
 0002:00001d50 0000012cH .rdata$zzzdbg           DATA
 0003:00000000 00000238H .data                   DATA
 0003:00000238 00000032H .bss                    DATA
 0004:00000000 00000660H .pdata                  DATA
 0005:00000000 00000500H .xdata                  DATA

  Address         Publics by Value              Rva+Base               Lib:Object

 0000:00000000       __arm64x_redirection_metadata 0000000000000000     <absolute>
 0000:00000000       __x64_code_ranges_to_entry_points_count 0000000000000000     <absolute>
 0000:00000000       __guard_iat_count          0000000000000000     <absolute>
 0000:00000000       __guard_longjmp_count      0000000000000000     <absolute>
 0000:00000000       __dynamic_value_reloc_table 0000000000000000     <absolute>
 0000:00000000       __hybrid_auxiliary_iat     0000000000000000     <absolute>
 0000:00000000       __hybrid_auxiliary_iat_copy 0000000000000000     <absolute>
 0000:00000000       __guard_iat_table          0000000000000000     <absolute>
 0000:00000000       __AbsoluteZero             0000000000000000     <absolute>
 0000:00000000       __guard_longjmp_table      0000000000000000     <absolute>
 0000:00000000       __x64_code_ranges_to_entry_points 0000000000000000     <absolute>
 0000:00000000       __hybrid_code_map_count    0000000000000000     <absolute>
 0000:00000000       __guard_fids_count         0000000000000000     <absolute>
 0000:00000000       __guard_check_icall_a64n_fptr 0000000000000000     <absolute>
 0000:00000000       __arm64x_extra_rfe_table   0000000000000000     <absolute>
 0000:00000000       __guard_fids_table         0000000000000000     <absolute>
 0000:00000000       __hybrid_code_map          0000000000000000     <absolute>
 0000:00000000       __arm64x_extra_rfe_table_size 0000000000000000     <absolute>
 0000:00000000       __arm64x_redirection_metadata_count 0000000000000000     <absolute>
 0000:00000000       __arm64x_native_entrypoint 0000000000000000     <absolute>
 0000:00000000       __enclave_config           0000000000000000     <absolute>
 0000:00000000       __guard_flags              0000000000000000     <absolute>
 0000:00000000       __guard_eh_cont_count      0000000000000000     <absolute>
 0000:00000000       __guard_eh_cont_table      0000000000000000     <absolute>
 0001:00000000       InternalMemZeroMem         00000000000002c0     BaseMemoryLibRepStr:ZeroMem.obj
 0001:00000020       InternalMemCopyMem         00000000000002e0     BaseMemoryLibRepStr:CopyMem.obj
 0001:00000060       InternalMemCompareMem      0000000000000320     BaseMemoryLibRepStr:CompareMem.obj
 0001:00000080       InternalMemSetMem          0000000000000340     BaseMemoryLibRepStr:SetMem.obj
 0001:000000a0       InternalMemSetMem64        0000000000000360     BaseMemoryLibRepStr:SetMem64.obj
 0001:000000c0       InternalMemSetMem32        0000000000000380     BaseMemoryLibRepStr:SetMem32.obj
 0001:000000e0       CpuPause                   00000000000003a0     BaseLib:CpuPause.obj
 0001:000000f0       TdVmCall                   00000000000003b0     BaseLib:TdVmcall.obj
 0001:00000180       TdCall                     0000000000000440     BaseLib:TdCall.obj
 0001:000001d8       _DriverUnloadHandler       0000000000000498 f   UefiDriverEntryPoint:DriverEntryPoint.obj
 0001:000001e0       _ModuleEntryPoint          00000000000004a0 f   UefiDriverEntryPoint:DriverEntryPoint.obj
 0001:0000025c       ProcessLibraryConstructorList 000000000000051c f   Fat:AutoGen.obj
 0001:000003fc       ProcessModuleEntryPointList 00000000000006bc f   Fat:AutoGen.obj
 0001:000004d4       FatUnload                  0000000000000794 f   Fat:Fat.obj
 0001:00000678       FatDriverBindingSupported  0000000000000938 f   Fat:Fat.obj
 0001:00000710       FatDriverBindingStart      00000000000009d0 f   Fat:Fat.obj
 0001:000008f4       FatDriverBindingStop       0000000000000bb4 f   Fat:Fat.obj
 0001:00000a48       FatComponentNameGetDriverName 0000000000000d08 f   Fat:ComponentName.obj
 0001:00000a7c       FatComponentNameGetControllerName 0000000000000d3c f   Fat:ComponentName.obj
 0001:00000ae8       FatCreateTask              0000000000000da8 f   Fat:Misc.obj
 0001:00000b84       FatDestroyTask             0000000000000e44 f   Fat:Misc.obj
 0001:00000c20       FatWaitNonblockingTask     0000000000000ee0 f   Fat:Misc.obj
 0001:00000c64       FatDestroySubtask          0000000000000f24 f   Fat:Misc.obj
 0001:00000ca4       FatQueueTask               0000000000000f64 f   Fat:Misc.obj
 0001:00000ea0       FatOnAccessComplete        0000000000001160 f   Fat:Misc.obj
 0001:00000fac       FatDiskIo                  000000000000126c f   Fat:Misc.obj
 0001:0000112c       FatAcquireLockOrFail       00000000000013ec f   Fat:Misc.obj
 0001:00001198       FatFreeVolume              0000000000001458 f   Fat:Misc.obj
 0001:00001220       FatEfiTimeToFatTime        00000000000014e0 f   Fat:Misc.obj
 0001:000012ec       FatGetCurrentFatTime       00000000000015ac f   Fat:Misc.obj
 0001:00001338       FatIsValidTime             00000000000015f8 f   Fat:Misc.obj
 0001:000013dc       FatAllocateVolume          000000000000169c f   Fat:Init.obj
 0001:00001550       FatAbandonVolume           0000000000001810 f   Fat:Init.obj
 0001:000016d0       FatOpenDevice              0000000000001990 f   Fat:Init.obj
 0001:00001a60       InitializeUnicodeCollationSupportWorker 0000000000001d20 f   Fat:UnicodeCollation.obj
 0001:00001ba0       FatStriCmp                 0000000000001e60 f   Fat:UnicodeCollation.obj
 0001:00001c48       FatStrUpr                  0000000000001f08 f   Fat:UnicodeCollation.obj
 0001:00001cb8       FatStrLwr                  0000000000001f78 f   Fat:UnicodeCollation.obj
 0001:00001d28       FatStrToFat                0000000000001fe8 f   Fat:UnicodeCollation.obj
 0001:000020cc       FatAccessCache             000000000000238c f   Fat:DiskCache.obj
 0001:000022a0       FatVolumeFlushCache        0000000000002560 f   Fat:DiskCache.obj
 0001:0000234c       FatInitializeDiskCache     000000000000260c f   Fat:DiskCache.obj
 0001:000024cc       FatRequestODir             000000000000278c f   Fat:DirectoryCache.obj
 0001:000025a8       FatOpenVolume              0000000000002868 f   Fat:OpenVolume.obj
 0001:00002658       FatFlushEx                 0000000000002918 f   Fat:Flush.obj
 0001:0000279c       FatFlush                   0000000000002a5c f   Fat:Flush.obj
 0001:000027a4       FatClose                   0000000000002a64 f   Fat:Flush.obj
 0001:0000282c       FatIFileClose              0000000000002aec f   Fat:Flush.obj
 0001:000028b4       FatOFileFlush              0000000000002b74 f   Fat:Flush.obj
 0001:00002b34       FatCleanupVolume           0000000000002df4 f   Fat:Flush.obj
 0001:00002c44       FatSetVolumeError          0000000000002f04 f   Fat:Flush.obj
 0001:00002cb8       FatGetPosition             0000000000002f78 f   Fat:ReadWrite.obj
 0001:00002d40       FatSetPosition             0000000000003000 f   Fat:ReadWrite.obj
 0001:00002df0       FatIFileReadDir            00000000000030b0 f   Fat:ReadWrite.obj
 0001:00002ea0       FatIFileAccess             0000000000003160 f   Fat:ReadWrite.obj
 0001:000030f4       FatRead                    00000000000033b4 f   Fat:ReadWrite.obj
 0001:00003114       FatReadEx                  00000000000033d4 f   Fat:ReadWrite.obj
 0001:00003134       FatWrite                   00000000000033f4 f   Fat:ReadWrite.obj
 0001:00003154       FatWriteEx                 0000000000003414 f   Fat:ReadWrite.obj
 0001:00003174       FatAccessOFile             0000000000003434 f   Fat:ReadWrite.obj
 0001:000033a4       FatWriteZeroPool           0000000000003664 f   Fat:ReadWrite.obj
 0001:0000345c       FatAllocateIFile           000000000000371c f   Fat:Open.obj
 0001:00003550       FatOFileOpen               0000000000003810 f   Fat:Open.obj
 0001:000037a8       FatOpenEx                  0000000000003a68 f   Fat:Open.obj
 0001:00003938       FatOpen                    0000000000003bf8 f   Fat:Open.obj
 0001:00003958       FatGetVolumeInfo           0000000000003c18 f   Fat:Info.obj
 0001:00003a30       FatSetFileInfo             0000000000003cf0 f   Fat:Info.obj
 0001:00003de4       FatSetOrGetInfo            00000000000040a4 f   Fat:Info.obj
 0001:00004054       FatGetInfo                 0000000000004314 f   Fat:Info.obj
 0001:00004074       FatSetInfo                 0000000000004334 f   Fat:Info.obj
 0001:0000409c       FatDelete                  000000000000435c f   Fat:Delete.obj
 0001:000042a4       FatStoreDirEnt             0000000000004564 f   Fat:DirectoryManage.obj
 0001:0000441c       FatUpdateDirEntClusterSizeInfo 00000000000046dc f   Fat:DirectoryManage.obj
 0001:000047f0       FatGetDirEntInfo           0000000000004ab0 f   Fat:DirectoryManage.obj
 0001:00004b18       FatResetODirCursor         0000000000004dd8 f   Fat:DirectoryManage.obj
 0001:00004b54       FatGetNextDirEnt           0000000000004e14 f   Fat:DirectoryManage.obj
 0001:00004f7c       FatGetVolumeEntry          000000000000523c f   Fat:DirectoryManage.obj
 0001:00004fe4       FatSetVolumeEntry          00000000000052a4 f   Fat:DirectoryManage.obj
 0001:0000509c       FatCreateDirEnt            000000000000535c f   Fat:DirectoryManage.obj
 0001:000051dc       FatRemoveDirEnt            000000000000549c f   Fat:DirectoryManage.obj
 0001:00005264       FatOpenDirEnt              0000000000005524 f   Fat:DirectoryManage.obj
 0001:0000541c       FatLocateOFile             00000000000056dc f   Fat:DirectoryManage.obj
 0001:00005924       FatShrinkEof               0000000000005be4 f   Fat:FileSpace.obj
 0001:00005a78       FatGrowEof                 0000000000005d38 f   Fat:FileSpace.obj
 0001:00005cb0       FatPhysicalDirSize         0000000000005f70 f   Fat:FileSpace.obj
 0001:00005d3c       FatComputeFreeInfo         0000000000005ffc f   Fat:FileSpace.obj
 0001:00005dc0       FatCheckIs8Dot3Name        0000000000006080 f   Fat:FileName.obj
 0001:00005ef0       FatNameToStr               00000000000061b0 f   Fat:FileName.obj
 0001:00005fcc       FatCreate8Dot3Name         000000000000628c f   Fat:FileName.obj
 0001:000061ac       FatSetCaseFlag             000000000000646c f   Fat:FileName.obj
 0001:00006420       FatLongNameHashSearch      00000000000066e0 f   Fat:Hash.obj
 0001:00006474       FatShortNameHashSearch     0000000000006734 f   Fat:Hash.obj
 0001:000064e8       InternalBaseLibIsListValid 00000000000067a8 f   BaseLib:LinkedList.obj
 0001:00006554       InsertHeadList             0000000000006814 f   BaseLib:LinkedList.obj
 0001:000065a4       InsertTailList             0000000000006864 f   BaseLib:LinkedList.obj
 0001:000065f8       IsListEmpty                00000000000068b8 f   BaseLib:LinkedList.obj
 0001:00006630       IsNull                     00000000000068f0 f   BaseLib:LinkedList.obj
 0001:00006674       RemoveEntryList            0000000000006934 f   BaseLib:LinkedList.obj
 0001:000066bc       LShiftU64                  000000000000697c f   BaseLib:LShiftU64.obj
 0001:00006700       StrLen                     00000000000069c0 f   BaseLib:String.obj
 0001:00006788       StrCmp                     0000000000006a48 f   BaseLib:String.obj
 0001:00006830       AsciiStrLen                0000000000006af0 f   BaseLib:String.obj
 0001:0000689c       AsciiStrnCmp               0000000000006b5c f   BaseLib:String.obj
 0001:00006968       RShiftU64                  0000000000006c28 f   BaseLib:RShiftU64.obj
 0001:000069ac       StrnLenS                   0000000000006c6c f   BaseLib:SafeString.obj
 0001:00006a14       StrCpyS                    0000000000006cd4 f   BaseLib:SafeString.obj
 0001:00006ba4       StrCatS                    0000000000006e64 f   BaseLib:SafeString.obj
 0001:00006d54       ZeroMem                    0000000000007014 f   BaseMemoryLibRepStr:ZeroMemWrapper.obj
 0001:00006dc4       CopyMem                    0000000000007084 f   BaseMemoryLibRepStr:CopyMemWrapper.obj
 0001:00006e60       CompareMem                 0000000000007120 f   BaseMemoryLibRepStr:CompareMemWrapper.obj
 0001:00006f30       CompareGuid                00000000000071f0 f   BaseMemoryLibRepStr:MemLibGuid.obj
 0001:00006ff4       SetMem                     00000000000072b4 f   BaseMemoryLibRepStr:SetMemWrapper.obj
 0001:00007058       DebugPrint                 0000000000007318 f   BaseDebugLibSerialPort:DebugLib.obj
 0001:0000707c       DebugPrintMarker           000000000000733c f   BaseDebugLibSerialPort:DebugLib.obj
 0001:0000712c       DebugAssert                00000000000073ec f   BaseDebugLibSerialPort:DebugLib.obj
 0001:000071a4       InternalAllocatePool       0000000000007464 f   UefiMemoryAllocationLib:MemoryAllocationLib.obj
 0001:000071d4       AllocateZeroPool           0000000000007494 f   UefiMemoryAllocationLib:MemoryAllocationLib.obj
 0001:000071fc       InternalAllocateCopyPool   00000000000074bc f   UefiMemoryAllocationLib:MemoryAllocationLib.obj
 0001:00007274       FreePool                   0000000000007534 f   UefiMemoryAllocationLib:MemoryAllocationLib.obj
 0001:000072b8       EfiAcquireLock             0000000000007578 f   UefiLib:UefiLib.obj
 0001:0000731c       EfiReleaseLock             00000000000075dc f   UefiLib:UefiLib.obj
 0001:0000737c       EfiTestManagedDevice       000000000000763c f   UefiLib:UefiLib.obj
 0001:00007414       IsLanguageSupported        00000000000076d4 f   UefiLib:UefiLib.obj
 0001:0000749c       LookupUnicodeString2       000000000000775c f   UefiLib:UefiLib.obj
 0001:00007590       GetEfiGlobalVariable2      0000000000007850 f   UefiLib:UefiLib.obj
 0001:00007690       GetBestLanguage            0000000000007950 f   UefiLib:UefiLib.obj
 0001:000077c8       AsciiSPrint                0000000000007a88 f   BasePrintLib:PrintLib.obj
 0001:000077f4       BasePrintLibFillBuffer     0000000000007ab4 f   BasePrintLib:PrintLibInternal.obj
 0001:00007828       BasePrintLibValueToString  0000000000007ae8 f   BasePrintLib:PrintLibInternal.obj
 0001:00007894       BasePrintLibSPrintMarker   0000000000007b54 f   BasePrintLib:PrintLibInternal.obj
 0001:000087ac       BasePrintLibSPrint         0000000000008a6c f   BasePrintLib:PrintLibInternal.obj
 0002:00000000       ??_C@_0CB@DMEJJJHA@?6ASSERT_EFI_ERROR?5?$CIStatus?5?$DN?5?$CFr?$CJ@ 0000000000008aa0     UefiDriverEntryPoint:DriverEntryPoint.obj
 0002:00000028       ??_C@_0CH@BBNBJKHK@?$CB?$CI?$CI?$CIINTN?$CJ?$CIRETURN_STATUS?$CJ?$CIStatus@ 0000000000008ac8     UefiDriverEntryPoint:DriverEntryPoint.obj
 0002:00000050       ??_C@_0EG@HIPMDNNL@d?3?2myedk2?2edk2?2MdePkg?2Library?2U@ 0000000000008af0     UefiDriverEntryPoint:DriverEntryPoint.obj
 0002:00000098       ??_C@_03GCICDKOH@Fat@      0000000000008b38     Fat:AutoGen.obj
 0002:000000a0       ??_C@_0FI@OGLMEDBJ@d?3?2myedk2?2edk2?2Build?2OvmfX64?2DE@ 0000000000008b40     Fat:AutoGen.obj
 0002:000000f8       _gPcd_FixedAtBuild_PcdUefiVariableDefaultPlatformLang 0000000000008b98     Fat:AutoGen.obj
 0002:00000100       _gPcd_FixedAtBuild_PcdUefiVariableDefaultLang 0000000000008ba0     Fat:AutoGen.obj
 0002:00000108       ??_C@_0CL@ELCAMCA@d?3?2myedk2?2edk2?2FatPkg?2EnhancedF@ 0000000000008ba8     Fat:Fat.obj
 0002:00000138       ??_C@_0BF@NDBIKIKC@CR?5has?5Bad?5Signature@ 0000000000008bd8     Fat:Fat.obj
 0002:00000150       ??_C@_03LKLGDMJI@eng@      0000000000008bf0     Fat:ComponentName.obj
 0002:00000154       ??_C@_02LFNMGJAP@en@       0000000000008bf4     Fat:ComponentName.obj
 0002:00000158       ??_C@_06DALJLGPG@eng?$DLen@ 0000000000008bf8     Fat:ComponentName.obj
 0002:00000160       ??_C@_1CO@HMNJNNLH@?$AAF?$AAA?$AAT?$AA?5?$AAF?$AAi?$AAl?$AAe?$AA?5?$AAS?$AAy?$AAs?$AAt?$AAe?$AAm@ 0000000000008c00     Fat:ComponentName.obj
 0002:00000190       ??_C@_1CA@NFKDMACF@?$AAF?$AAA?$AAT?$AA?5?$AAF?$AAi?$AAl?$AAe?$AA?5?$AAS?$AAy?$AAs?$AAt?$AAe?$AAm@ 0000000000008c30     Fat:ComponentName.obj
 0002:000001b0       ??_C@_0CM@DIPCDOFE@d?3?2myedk2?2edk2?2FatPkg?2EnhancedF@ 0000000000008c50     Fat:Misc.obj
 0002:000001e0       ??_C@_0CH@BLGOOHNK@EfiGetCurrentTpl?5?$CI?$CJ?5?$DN?$DN?5FatTaskL@ 0000000000008c80     Fat:Misc.obj
 0002:00000210       ??_C@_0EJ@JLLKJFHB@Task?9?$DOSignature?5?$DN?$DN?5?$CI?$CI?$CI?8f?8?$CJ?5?$HM?5?$CI?8@ 0000000000008cb0     Fat:Misc.obj
 0002:00000260       ??_C@_0EM@HBNAPHGL@Subtask?9?$DOSignature?5?$DN?$DN?5?$CI?$CI?$CI?8f?8?$CJ?5?$HM@ 0000000000008d00     Fat:Misc.obj
 0002:000002b0       ??_C@_0BF@NHFDNFBH@FatDiskIo?3?5error?5?$CFr?6@ 0000000000008d50     Fat:Misc.obj
 0002:000002c8       mMonthDays                 0000000000008d68     Fat:Misc.obj
 0002:000002d8       ??_C@_0CA@MEKKGLDJ@Installed?5Fat?5filesystem?5on?5?$CFp?6@ 0000000000008d78     Fat:Init.obj
 0002:000002f8       ??_C@_0CL@DGBOMBHF@FatOpenDevice?3?5read?5of?5part_lba@ 0000000000008d98     Fat:Init.obj
 0002:00000328       ??_C@_0BI@BCGMNHIB@FatType?5?$CB?$DN?5FatUndefined@ 0000000000008dc8     Fat:Init.obj
 0002:00000340       ??_C@_0CM@DGCGMKPK@d?3?2myedk2?2edk2?2FatPkg?2EnhancedF@ 0000000000008de0     Fat:Init.obj
 0002:0000036c       ??_C@_00CNPNBAHC@@         0000000000008e0c     Fat:UnicodeCollation.obj
 0002:00000370       ??_C@_1BK@GGGENMOA@?$AAP?$AAl?$AAa?$AAt?$AAf?$AAo?$AAr?$AAm?$AAL?$AAa?$AAn?$AAg@ 0000000000008e10     Fat:UnicodeCollation.obj
 0002:00000390       ??_C@_19BALNHBBC@?$AAL?$AAa?$AAn?$AAg@ 0000000000008e30     Fat:UnicodeCollation.obj
 0002:000003a0       ??_C@_0BC@LIMPIMPH@StrSize?5?$CIS1?$CJ?5?$CB?$DN?50@ 0000000000008e40     Fat:UnicodeCollation.obj
 0002:000003b8       ??_C@_0DI@HNMIJOMN@d?3?2myedk2?2edk2?2FatPkg?2EnhancedF@ 0000000000008e58     Fat:UnicodeCollation.obj
 0002:000003f0       ??_C@_0BC@DGEAILBE@StrSize?5?$CIS2?$CJ?5?$CB?$DN?50@ 0000000000008e90     Fat:UnicodeCollation.obj
 0002:00000408       ??_C@_0CL@FAPDEIP@mUnicodeCollationInterface?5?$CB?$DN?5?$CI@ 0000000000008ea8     Fat:UnicodeCollation.obj
 0002:00000438       ??_C@_0BG@KBNOLIGE@StrSize?5?$CIString?$CJ?5?$CB?$DN?50@ 0000000000008ed8     Fat:UnicodeCollation.obj
 0002:00000450       ??_C@_0BE@FFHIJPBJ@Fat?5?$CB?$DN?5?$CI?$CIvoid?5?$CK?$CJ?50?$CJ@ 0000000000008ef0     Fat:UnicodeCollation.obj
 0002:00000468       ??_C@_0BH@MAAHKCPC@String?5?$CB?$DN?5?$CI?$CIvoid?5?$CK?$CJ?50?$CJ@ 0000000000008f08     Fat:UnicodeCollation.obj
 0002:00000480       ??_C@_0BM@LPHAAFGH@?$CI?$CIUINTN?$CJString?5?$CG?50x01?$CJ?5?$DN?$DN?50@ 0000000000008f20     Fat:UnicodeCollation.obj
 0002:000004a0       ??_C@_0CL@CDKDPNAC@FatDiskIo?3?5Cache?5Page?5OutBound?5@ 0000000000008f40     Fat:DiskCache.obj
 0002:000004d0       ??_C@_0CE@FPKPHIJC@Volume?9?$DOCacheBuffer?5?$CB?$DN?5?$CI?$CIvoid?5?$CK@ 0000000000008f70     Fat:DiskCache.obj
 0002:000004f8       ??_C@_0DB@NBGBNENB@d?3?2myedk2?2edk2?2FatPkg?2EnhancedF@ 0000000000008f98     Fat:DiskCache.obj
 0002:00000530       ??_C@_0BL@JDACPMOF@CacheDataType?5?$DN?$DN?5CacheData@ 0000000000008fd0     Fat:DiskCache.obj
 0002:00000550       ??_C@_0DG@GCPKPBBI@d?3?2myedk2?2edk2?2FatPkg?2EnhancedF@ 0000000000008ff0     Fat:DirectoryCache.obj
 0002:00000588       ??_C@_0BO@FGACLDFI@DirEnt?9?$DOOFile?5?$DN?$DN?5?$CI?$CIvoid?5?$CK?$CJ?50?$CJ@ 0000000000009028     Fat:DirectoryCache.obj
 0002:000005a8       ??_C@_0DC@NHDNOIDO@d?3?2myedk2?2edk2?2FatPkg?2EnhancedF@ 0000000000009048     Fat:OpenVolume.obj
 0002:000005e0       ??_C@_0CN@FNDIABKL@d?3?2myedk2?2edk2?2FatPkg?2EnhancedF@ 0000000000009080     Fat:Flush.obj
 0002:00000610       ??_C@_0BG@NHNIBEOI@?$CGFatFsLock?5not?5locked@ 00000000000090b0     Fat:Flush.obj
 0002:00000628       ??_C@_0DB@GOPAHAGJ@d?3?2myedk2?2edk2?2FatPkg?2EnhancedF@ 00000000000090c8     Fat:ReadWrite.obj
 0002:00000660       ??_C@_0BD@HBMAIGKB@IoMode?5?$DN?$DN?5ReadData@ 0000000000009100     Fat:ReadWrite.obj
 0002:00000678       ??_C@_0BM@PAOMAEIJ@Position?5?$DM?$DN?5OFile?9?$DOFileSize@ 0000000000009118     Fat:ReadWrite.obj
 0002:00000698       ??_C@_0CM@JGHOMGNB@d?3?2myedk2?2edk2?2FatPkg?2EnhancedF@ 0000000000009138     Fat:Open.obj
 0002:000006c8       ??_C@_0BH@OBBOMLAL@DirEnt?5?$CB?$DN?5?$CI?$CIvoid?5?$CK?$CJ?50?$CJ@ 0000000000009168     Fat:Open.obj
 0002:000006e0       ??_C@_0BG@FCLHKHOM@FSOpen?3?5Open?5?8?$CFS?8?5?$CFr?6@ 0000000000009180     Fat:Open.obj
 0002:000006f8       ??_C@_0BO@OCFJBJJ@OFile?9?$DOParent?5?$CB?$DN?5?$CI?$CIvoid?5?$CK?$CJ?50?$CJ@ 0000000000009198     Fat:Info.obj
 0002:00000718       ??_C@_0CM@DDGOINLF@d?3?2myedk2?2edk2?2FatPkg?2EnhancedF@ 00000000000091b8     Fat:Info.obj
 0002:00000748       ??_C@_0CO@IILOMKBP@d?3?2myedk2?2edk2?2FatPkg?2EnhancedF@ 00000000000091e8     Fat:Delete.obj
 0002:00000778       ??_C@_0DH@JNFDCDJG@d?3?2myedk2?2edk2?2FatPkg?2EnhancedF@ 0000000000009218     Fat:DirectoryManage.obj
 0002:000007b0       ??_C@_13JOFGPIOO@?$AA?4@   0000000000009250     Fat:DirectoryManage.obj
 0002:000007b4       ??_C@_15DDHGOCBH@?$AA?4?$AA?4@ 0000000000009254     Fat:DirectoryManage.obj
 0002:000007c0       ??_C@_0BM@PCBCCOMN@OFile?9?$DOODir?5?$DN?$DN?5?$CI?$CIvoid?5?$CK?$CJ?50?$CJ@ 0000000000009260     Fat:DirectoryManage.obj
 0002:000007e0       ??_C@_0BF@GOEONEEM@ODir?5?$CB?$DN?5?$CI?$CIvoid?5?$CK?$CJ?50?$CJ@ 0000000000009280     Fat:DirectoryManage.obj
 0002:000007f8       ??_C@_0BA@JOMIKDBI@?$CBODir?9?$DOEndOfDir@ 0000000000009298     Fat:DirectoryManage.obj
 0002:00000808       ??_C@_0BG@HGDFJMCI@OFile?5?$CB?$DN?5?$CI?$CIvoid?5?$CK?$CJ?50?$CJ@ 00000000000092a8     Fat:DirectoryManage.obj
 0002:00000820       ??_C@_0CK@MGLHGANA@FSOpen?3?5Created?5new?5directory?5e@ 00000000000092c0     Fat:DirectoryManage.obj
 0002:00000850       ??_C@_0CF@DFAEHOPP@FatShrinkEof?3?5cluster?5chain?5cor@ 00000000000092f0     Fat:FileSpace.obj
 0002:00000878       ??_C@_0DB@KEDHHNPC@d?3?2myedk2?2edk2?2FatPkg?2EnhancedF@ 0000000000009318     Fat:FileSpace.obj
 0002:000008b0       ??_C@_0CD@PDLKPEEL@FatGrowEof?3?5cluster?5chain?5corru@ 0000000000009350     Fat:FileSpace.obj
 0002:000008d8       ??_C@_0DJ@NKCDIFLJ@FatGrowEof?3?5cluster?5chain?5size?5@ 0000000000009378     Fat:FileSpace.obj
 0002:00000918       ??_C@_0CJ@CLJDAFAF@FatOFilePosition?3?5cluster?5chain@ 00000000000093b8     Fat:FileSpace.obj
 0002:00000948       ??_C@_0CD@JJJIGFI@FATDirSize?3?5cluster?5chain?5corru@ 00000000000093e8     Fat:FileSpace.obj
 0002:00000970       ??_C@_0BH@PAPENKKD@Parent?9?$DOODir?9?$DOEndOfDir@ 0000000000009410     Fat:FileName.obj
 0002:00000988       ??_C@_0DA@CFACGCAA@d?3?2myedk2?2edk2?2FatPkg?2EnhancedF@ 0000000000009428     Fat:FileName.obj
 0002:000009b8       ??_C@_0CD@GKEMBKIB@DirEnt?9?$DOFileString?5?$CB?$DN?5?$CI?$CIvoid?5?$CK?$CJ@ 0000000000009458     Fat:FileName.obj
 0002:000009e0       ??_C@_0DD@LBEIKFAB@StrSize?5?$CIDirEnt?9?$DOFileString?$CJ?5?$DM?$DN@ 0000000000009480     Fat:FileName.obj
 0002:00000a18       ??_C@_0BF@NJNGJMPC@List?5?$CB?$DN?5?$CI?$CIvoid?5?$CK?$CJ?50?$CJ@ 00000000000094b8     BaseLib:LinkedList.obj
 0002:00000a30       ??_C@_0DD@DMMJEGIP@d?3?2myedk2?2edk2?2MdePkg?2Library?2B@ 00000000000094d0     BaseLib:LinkedList.obj
 0002:00000a68       ??_C@_0CC@KDLPLAED@List?9?$DOForwardLink?5?$CB?$DN?5?$CI?$CIvoid?5?$CK?$CJ?5@ 0000000000009508     BaseLib:LinkedList.obj
 0002:00000a90       ??_C@_0BP@IJJCCMAK@List?9?$DOBackLink?5?$CB?$DN?5?$CI?$CIvoid?5?$CK?$CJ?50?$CJ@ 0000000000009530     BaseLib:LinkedList.obj
 0002:00000ab0       ??_C@_0BJ@NJABNCDK@ListHead?5?$CB?$DN?5?$CI?$CIvoid?5?$CK?$CJ?50?$CJ@ 0000000000009550     BaseLib:LinkedList.obj
 0002:00000ad0       ??_C@_0CG@LGIALJFK@InternalBaseLibIsListValid?5?$CILis@ 0000000000009570     BaseLib:LinkedList.obj
 0002:00000af8       ??_C@_0CC@JLDICICM@InternalBaseLibIsListValid?5?$CILis@ 0000000000009598     BaseLib:LinkedList.obj
 0002:00000b20       ??_C@_0BF@NMBJJECB@?$CBIsListEmpty?5?$CIEntry?$CJ@ 00000000000095c0     BaseLib:LinkedList.obj
 0002:00000b38       ??_C@_0L@MEMPDLHB@Count?5?$DM?564@ 00000000000095d8     BaseLib:LShiftU64.obj
 0002:00000b48       ??_C@_0DC@KCMAEPFB@d?3?2myedk2?2edk2?2MdePkg?2Library?2B@ 00000000000095e8     BaseLib:LShiftU64.obj
 0002:00000b80       ??_C@_0CP@DJBLNMJI@d?3?2myedk2?2edk2?2MdePkg?2Library?2B@ 0000000000009620     BaseLib:String.obj
 0002:00000bb0       ??_C@_0CC@GFNLNIOC@?$CI?$CIUINTN?$CJString?5?$CG?50x00000001?$CJ?5?$DN?$DN@ 0000000000009650     BaseLib:String.obj
 0002:00000bd8       ??_C@_0DK@EOJCOAME@Length?5?$DM?5_gPcd_FixedAtBuild_Pcd@ 0000000000009678     BaseLib:String.obj
 0002:00000c18       ??_C@_0BL@JAAMOCAJ@StrSize?5?$CIFirstString?$CJ?5?$CB?$DN?50@ 00000000000096b8     BaseLib:String.obj
 0002:00000c38       ??_C@_0BM@DALBOILC@StrSize?5?$CISecondString?$CJ?5?$CB?$DN?50@ 00000000000096d8     BaseLib:String.obj
 0002:00000c58       ??_C@_0DI@MDIKFADO@Length?5?$DM?5_gPcd_FixedAtBuild_Pcd@ 00000000000096f8     BaseLib:String.obj
 0002:00000c90       ??_C@_0BL@IKFBNFIL@AsciiStrSize?5?$CIFirstString?$CJ@ 0000000000009730     BaseLib:String.obj
 0002:00000cb0       ??_C@_0BM@EDNOKLLE@AsciiStrSize?5?$CISecondString?$CJ@ 0000000000009750     BaseLib:String.obj
 0002:00000cd0       ??_C@_0DJ@JJHGIFMP@Length?5?$DM?$DN?5_gPcd_FixedAtBuild_Pc@ 0000000000009770     BaseLib:String.obj
 0002:00000d10       ??_C@_0DC@EHOJHBLD@d?3?2myedk2?2edk2?2MdePkg?2Library?2B@ 00000000000097b0     BaseLib:RShiftU64.obj
 0002:00000d48       ??_C@_0DD@OKIGPFG@d?3?2myedk2?2edk2?2MdePkg?2Library?2B@ 00000000000097e8     BaseLib:SafeString.obj
 0002:00000d80       ??_C@_0CH@LALFPBMC@?$CI?$CIUINTN?$CJDestination?5?$CG?50x0000000@ 0000000000009820     BaseLib:SafeString.obj
 0002:00000da8       ??_C@_0CC@HEBCMBPF@?$CI?$CIUINTN?$CJSource?5?$CG?50x00000001?$CJ?5?$DN?$DN@ 0000000000009848     BaseLib:SafeString.obj
 0002:00000dd0       ??_C@_0BO@ECNIOIHG@?$CIDestination?5?$CB?$DN?5?$CI?$CIvoid?5?$CK?$CJ?50?$CJ?$CJ@ 0000000000009870     BaseLib:SafeString.obj
 0002:00000df0       ??_C@_07KBGDFDAM@StrCpyS@  0000000000009890     BaseLib:SafeString.obj
 0002:00000e00       ??_C@_0EA@PDPDJJNN@?$CFa?$CI?$CFd?$CJ?5?$CFa?3?5SAFE_STRING_CONSTRAI@ 00000000000098a0     BaseLib:SafeString.obj
 0002:00000e40       ??_C@_0BJ@EAEEJIP@?$CISource?5?$CB?$DN?5?$CI?$CIvoid?5?$CK?$CJ?50?$CJ?$CJ@ 00000000000098e0     BaseLib:SafeString.obj
 0002:00000e60       ??_C@_0EA@BBALOHPI@?$CIDestMax?5?$DM?$DN?5?$CI_gPcd_FixedAtBuild@ 0000000000009900     BaseLib:SafeString.obj
 0002:00000ea0       ??_C@_0BG@EEGIIOKH@?$CIDestMax?5?$DO?5SourceLen?$CJ@ 0000000000009940     BaseLib:SafeString.obj
 0002:00000ec0       ??_C@_0FH@PPBLBDBJ@InternalSafeStringNoStrOverlap?5@ 0000000000009960     BaseLib:SafeString.obj
 0002:00000f18       ??_C@_08INOAHJON@StrnCpyS@ 00000000000099b8     BaseLib:SafeString.obj
 0002:00000f28       ??_C@_07EBBOPAKF@StrCatS@  00000000000099c8     BaseLib:SafeString.obj
 0002:00000f30       ??_C@_0P@BHOOOJPD@?$CICopyLen?5?$CB?$DN?50?$CJ@ 00000000000099d0     BaseLib:SafeString.obj
 0002:00000f40       ??_C@_0BG@BPGICNPK@?$CICopyLen?5?$DO?5SourceLen?$CJ@ 00000000000099e0     BaseLib:SafeString.obj
 0002:00000f58       ??_C@_0BJ@CNKJJNE@?$CIBuffer?5?$CB?$DN?5?$CI?$CIvoid?5?$CK?$CJ?50?$CJ?$CJ@ 00000000000099f8     BaseLib:SafeString.obj
 0002:00000f78       ??_C@_0N@KGHEHMDL@Divisor?5?$CB?$DN?50@ 0000000000009a18     BaseLib:DivU64x32.obj
 0002:00000f88       ??_C@_0BH@IACGKAP@Buffer?5?$CB?$DN?5?$CI?$CIvoid?5?$CK?$CJ?50?$CJ@ 0000000000009a28     BaseMemoryLibRepStr:ZeroMemWrapper.obj
 0002:00000fa0       ??_C@_0ED@CECKBBNJ@d?3?2myedk2?2edk2?2MdePkg?2Library?2B@ 0000000000009a40     BaseMemoryLibRepStr:ZeroMemWrapper.obj
 0002:00000fe8       ??_C@_0DG@EEENIGGL@Length?5?$DM?$DN?5?$CI0xFFFFFFFFFFFFFFFFUL@ 0000000000009a88     BaseMemoryLibRepStr:ZeroMemWrapper.obj
 0002:00001020       ??_C@_0ED@MKGCMJG@?$CILength?5?9?51?$CJ?5?$DM?$DN?5?$CI0xFFFFFFFFFFFF@ 0000000000009ac0     BaseMemoryLibRepStr:CopyMemWrapper.obj
 0002:00001070       ??_C@_0ED@JAIIHABO@d?3?2myedk2?2edk2?2MdePkg?2Library?2B@ 0000000000009b10     BaseMemoryLibRepStr:CopyMemWrapper.obj
 0002:000010b8       ??_C@_0DO@MAOBOFEG@?$CILength?5?9?51?$CJ?5?$DM?$DN?5?$CI0xFFFFFFFFFFFF@ 0000000000009b58     BaseMemoryLibRepStr:CopyMemWrapper.obj
 0002:000010f8       ??_C@_0CC@JOEHDGKB@DestinationBuffer?5?$CB?$DN?5?$CI?$CIvoid?5?$CK?$CJ?5@ 0000000000009b98     BaseMemoryLibRepStr:CompareMemWrapper.obj
 0002:00001120       ??_C@_0EG@FCOMBDPM@d?3?2myedk2?2edk2?2MdePkg?2Library?2B@ 0000000000009bc0     BaseMemoryLibRepStr:CompareMemWrapper.obj
 0002:00001168       ??_C@_0BN@MDMCNBCC@SourceBuffer?5?$CB?$DN?5?$CI?$CIvoid?5?$CK?$CJ?50?$CJ@ 0000000000009c08     BaseMemoryLibRepStr:CompareMemWrapper.obj
 0002:00001188       ??_C@_0DI@DAGDPLPG@?$CILength?5?9?51?$CJ?5?$DM?$DN?5?$CI0xFFFFFFFFFFFF@ 0000000000009c28     BaseMemoryLibRepStr:SetMemWrapper.obj
 0002:000011c0       ??_C@_0EC@NJPJFNGD@d?3?2myedk2?2edk2?2MdePkg?2Library?2B@ 0000000000009c60     BaseMemoryLibRepStr:SetMemWrapper.obj
 0002:00001208       ??_C@_0BH@LKMBFCBF@Format?5?$CB?$DN?5?$CI?$CIvoid?5?$CK?$CJ?50?$CJ@ 0000000000009ca8     BaseDebugLibSerialPort:DebugLib.obj
 0002:00001220       ??_C@_0EA@MCEJFCHO@d?3?2myedk2?2edk2?2MdePkg?2Library?2B@ 0000000000009cc0     BaseDebugLibSerialPort:DebugLib.obj
 0002:00001260       ??_C@_0BI@NOCKJDBJ@ASSERT?5?$FL?$CFa?$FN?5?$CFa?$CI?$CFd?$CJ?3?5?$CFa?6@ 0000000000009d00     BaseDebugLibSerialPort:DebugLib.obj
 0002:00001278       ??_C@_0BN@COECPDCC@gImageHandle?5?$CB?$DN?5?$CI?$CIvoid?5?$CK?$CJ?50?$CJ@ 0000000000009d18     UefiBootServicesTableLib:UefiBootServicesTableLib.obj
 0002:000012a0       ??_C@_0FC@HJEJKBBP@d?3?2myedk2?2edk2?2MdePkg?2Library?2U@ 0000000000009d40     UefiBootServicesTableLib:UefiBootServicesTableLib.obj
 0002:000012f8       ??_C@_0BE@DGNHAHIL@gST?5?$CB?$DN?5?$CI?$CIvoid?5?$CK?$CJ?50?$CJ@ 0000000000009d98     UefiBootServicesTableLib:UefiBootServicesTableLib.obj
 0002:00001310       ??_C@_0BE@BDFJLGLN@gBS?5?$CB?$DN?5?$CI?$CIvoid?5?$CK?$CJ?50?$CJ@ 0000000000009db0     UefiBootServicesTableLib:UefiBootServicesTableLib.obj
 0002:00001330       ??_C@_0EM@BLKCBDHP@d?3?2myedk2?2edk2?2MdePkg?2Library?2U@ 0000000000009dd0     UefiMemoryAllocationLib:MemoryAllocationLib.obj
 0002:00001380       ??_C@_0DO@GEEICOOO@AllocationSize?5?$DM?$DN?5?$CI0xFFFFFFFFFF@ 0000000000009e20     UefiMemoryAllocationLib:MemoryAllocationLib.obj
 0002:000013c0       ??_C@_0FG@PKIHNGDJ@d?3?2myedk2?2edk2?2MdePkg?2Library?2U@ 0000000000009e60     UefiDevicePathLibDevicePathProtocol:UefiDevicePathLib.obj
 0002:00001418       ??_C@_0DC@CNNBPJA@mDevicePathLibDevicePathUtiliti@ 0000000000009eb8     UefiDevicePathLibDevicePathProtocol:UefiDevicePathLib.obj
 0002:00001450       ??_C@_0BE@OBDFIHND@gRT?5?$CB?$DN?5?$CI?$CIvoid?5?$CK?$CJ?50?$CJ@ 0000000000009ef0     UefiRuntimeServicesTableLib:UefiRuntimeServicesTableLib.obj
 0002:00001470       ??_C@_0FI@ELFALICJ@d?3?2myedk2?2edk2?2MdePkg?2Library?2U@ 0000000000009f10     UefiRuntimeServicesTableLib:UefiRuntimeServicesTableLib.obj
 0002:000014c8       ??_C@_0DA@MHLDPJPP@d?3?2myedk2?2edk2?2MdePkg?2Library?2U@ 0000000000009f68     UefiLib:UefiLib.obj
 0002:000014f8       ??_C@_0BF@JGGLMCFN@Lock?5?$CB?$DN?5?$CI?$CIvoid?5?$CK?$CJ?50?$CJ@ 0000000000009f98     UefiLib:UefiLib.obj
 0002:00001510       ??_C@_0BO@IJOPPPFL@Lock?9?$DOLock?5?$DN?$DN?5EfiLockReleased@ 0000000000009fb0     UefiLib:UefiLib.obj
 0002:00001530       ??_C@_0CD@PGOFFOAH@Lock?9?$DOLock?5?$CB?$DN?5EfiLockUninitiali@ 0000000000009fd0     UefiLib:UefiLib.obj
 0002:00001558       ??_C@_0BO@FHNOFLFJ@Lock?9?$DOLock?5?$DN?$DN?5EfiLockAcquired@ 0000000000009ff8     UefiLib:UefiLib.obj
 0002:00001580       ??_C@_0EG@GOBFPEEP@Name?5?$CB?$DN?5?$CI?$CIvoid?5?$CK?$CJ?50?$CJ?5?$CG?$CG?5Guid?5?$CB?$DN@ 000000000000a020     UefiLib:UefiLib.obj
 0002:000015c8       ??_C@_0BH@FMEOEIBC@?$CKValue?5?$CB?$DN?5?$CI?$CIvoid?5?$CK?$CJ?50?$CJ@ 000000000000a068     UefiLib:UefiLib.obj
 0002:000015e0       ??_C@_0CD@OLFKAJF@SupportedLanguages?5?$CB?$DN?5?$CI?$CIvoid?5?$CK?$CJ@ 000000000000a080     UefiLib:UefiLib.obj
 0002:00001608       ??_C@_0DI@BANHGNLM@d?3?2myedk2?2edk2?2MdePkg?2Library?2U@ 000000000000a0a8     UefiLib:UefiDriverModel.obj
 0002:00001640       ??_C@_0DC@DDBICJIK@d?3?2myedk2?2edk2?2MdePkg?2Library?2B@ 000000000000a0e0     BaseLib:Unaligned.obj
 0002:00001678       ??_C@_0DO@DLJLNPNA@d?3?2myedk2?2edk2?2MdePkg?2Library?2B@ 000000000000a118     BasePrintLib:PrintLibInternal.obj
 0002:000016c0       ??_C@_0EB@HDGIDCIO@?$CIBufferSize?5?$DM?$DN?5?$CI_gPcd_FixedAtBu@ 000000000000a160     BasePrintLib:PrintLibInternal.obj
 0002:00001708       ??_C@_0BJ@PPAKKDJG@?$CIFormat?5?$CB?$DN?5?$CI?$CIvoid?5?$CK?$CJ?50?$CJ?$CJ@ 000000000000a1a8     BasePrintLib:PrintLibInternal.obj
 0002:00001730       ??_C@_0ED@LPDDCECB@?$CIBufferSize?5?$DM?$DN?5?$CI_gPcd_FixedAtBu@ 000000000000a1d0     BasePrintLib:PrintLibInternal.obj
 0002:00001780       ??_C@_0IM@BFJJFLGB@?$CIStrnLenS?5?$CI?$CICHAR16?5?$CK?$CJFormat?0?5?$CI_@ 000000000000a220     BasePrintLib:PrintLibInternal.obj
 0002:00001810       ??_C@_0ID@PLGJGION@?$CIAsciiStrnLenS?5?$CIFormat?0?5?$CI_gPcd_@ 000000000000a2b0     BasePrintLib:PrintLibInternal.obj
 0002:00001898       ??_C@_0O@MLOLIMFM@?$DMnull?5string?$DO@ 000000000000a338     BasePrintLib:PrintLibInternal.obj
 0002:000018a8       ??_C@_0M@BJJDNPHK@?$DMnull?5guid?$DO@ 000000000000a348     BasePrintLib:PrintLibInternal.obj
 0002:000018b8       ??_C@_0DB@PMLHLBMO@?$CF08x?9?$CF04x?9?$CF04x?9?$CF02x?$CF02x?9?$CF02x?$CF02@ 000000000000a358     BasePrintLib:PrintLibInternal.obj
 0002:000018f0       ??_C@_0M@LHGBCIKM@?$DMnull?5time?$DO@ 000000000000a390     BasePrintLib:PrintLibInternal.obj
 0002:00001900       ??_C@_0BK@FCPKCIDD@?$CF02d?1?$CF02d?1?$CF04d?5?5?$CF02d?3?$CF02d@ 000000000000a3a0     BasePrintLib:PrintLibInternal.obj
 0002:0000191c       ??_C@_04JIMNDDED@?$CF08X@  000000000000a3bc     BasePrintLib:PrintLibInternal.obj
 0002:00001924       ??_C@_02PCIJFNDE@?$AN?6@   000000000000a3c4     BasePrintLib:PrintLibInternal.obj
 0002:00001928       ??_C@_01LIIJDEN@?$AN@      000000000000a3c8     BasePrintLib:PrintLibInternal.obj
 0002:00001930       mWarningString             000000000000a3d0     BasePrintLib:PrintLibInternal.obj
 0002:000019d0       mErrorString               000000000000a470     BasePrintLib:PrintLibInternal.obj
 0002:00001c90       mHexStr                    000000000000a730     BasePrintLib:PrintLibInternal.obj
 0002:00001ca0       ??_C@_0DL@JEBMKBEC@d?3?2myedk2?2edk2?2MdePkg?2Library?2B@ 000000000000a740     BaseLib:DivU64x32Remainder.obj
 0002:00001d30       __volatile_metadata        000000000000a7d0     <linker-defined>
 0003:00000000       gEfiLoadedImageProtocolGuid 000000000000a920     Fat:AutoGen.obj
 0003:00000010       gEfiGlobalVariableGuid     000000000000a930     Fat:AutoGen.obj
 0003:00000020       gEfiUnicodeCollation2ProtocolGuid 000000000000a940     Fat:AutoGen.obj
 0003:00000030       gEfiComponentName2ProtocolGuid 000000000000a950     Fat:AutoGen.obj
 0003:00000040       gEfiFileSystemInfoGuid     000000000000a960     Fat:AutoGen.obj
 0003:00000050       gEfiDiskIoProtocolGuid     000000000000a970     Fat:AutoGen.obj
 0003:00000060       gEfiFileInfoGuid           000000000000a980     Fat:AutoGen.obj
 0003:00000070       gEfiDevicePathUtilitiesProtocolGuid 000000000000a990     Fat:AutoGen.obj
 0003:00000080       gEfiSimpleFileSystemProtocolGuid 000000000000a9a0     Fat:AutoGen.obj
 0003:00000090       gEfiUnicodeCollationProtocolGuid 000000000000a9b0     Fat:AutoGen.obj
 0003:000000a0       gEfiFileSystemVolumeLabelInfoIdGuid 000000000000a9c0     Fat:AutoGen.obj
 0003:000000b0       gEfiDiskIo2ProtocolGuid    000000000000a9d0     Fat:AutoGen.obj
 0003:000000c0       gEfiDriverBindingProtocolGuid 000000000000a9e0     Fat:AutoGen.obj
 0003:000000d0       gEfiComponentNameProtocolGuid 000000000000a9f0     Fat:AutoGen.obj
 0003:000000e0       gEfiBlockIoProtocolGuid    000000000000aa00     Fat:AutoGen.obj
 0003:000000f0       gFatDriverBinding          000000000000aa10     Fat:Fat.obj
 0003:00000120       gFatComponentName2         000000000000aa40     Fat:ComponentName.obj
 0003:00000138       gFatComponentName          000000000000aa58     Fat:ComponentName.obj
 0003:00000150       mFatControllerNameTable    000000000000aa70     Fat:ComponentName.obj
 0003:00000170       mFatDriverNameTable        000000000000aa90     Fat:ComponentName.obj
 0003:00000190       FatFsLock                  000000000000aab0     Fat:Data.obj
 0003:000001a8       FatTaskLock                000000000000aac8     Fat:Data.obj
 0003:000001c0       FatFileInterface           000000000000aae0     Fat:Data.obj
 0003:00000238       mUnicodeCollationInterface 000000000000ab58     Fat:UnicodeCollation.obj
 0003:00000240       gST                        000000000000ab60     UefiBootServicesTableLib:UefiBootServicesTableLib.obj
 0003:00000248       gBS                        000000000000ab68     UefiBootServicesTableLib:UefiBootServicesTableLib.obj
 0003:00000250       gImageHandle               000000000000ab70     UefiBootServicesTableLib:UefiBootServicesTableLib.obj
 0003:00000258       mDevicePathLibDevicePathUtilities 000000000000ab78     UefiDevicePathLibDevicePathProtocol:UefiDevicePathLib.obj
 0003:00000260       gRT                        000000000000ab80     UefiRuntimeServicesTableLib:UefiRuntimeServicesTableLib.obj
 0003:00000268       gParity                    000000000000ab88     PcAtSerialPortLib:SerialPortLib.obj
 0003:00000269       gBreakSet                  000000000000ab89     PcAtSerialPortLib:SerialPortLib.obj

 entry point at        0001:000001e0

 Static symbols

 0001:0000003a       InternalMemCopyMem.0       00000000000002fa     BaseMemoryLibRepStr:CopyMem.obj
 0001:0000004a       @CopyBackward              000000000000030a     BaseMemoryLibRepStr:CopyMem.obj
 0001:00000053       @CopyBytes                 0000000000000313     BaseMemoryLibRepStr:CopyMem.obj
 0001:0000014e       TdVmCall.no_return_data    000000000000040e     BaseLib:TdVmcall.obj
 0001:000001cb       TdCall.exit                000000000000048b     BaseLib:TdCall.obj
 0001:00001dd4       FatFlushDataCacheRange     0000000000002094 f   Fat:DiskCache.obj
 0001:00001eb0       FatExchangeCachePage       0000000000002170 f   Fat:DiskCache.obj
 0001:00001fc0       FatAccessUnalignedCachePage 0000000000002280 f   Fat:DiskCache.obj
 0001:00002428       FatFreeODir                00000000000026e8 f   Fat:DirectoryCache.obj
 0001:00002958       FatCheckVolumeRef          0000000000002c18 f   Fat:Flush.obj
 0001:00004244       FatAccessEntry             0000000000004504 f   Fat:DirectoryManage.obj
 0001:00004474       FatLoadLongNameEntry       0000000000004734 f   Fat:DirectoryManage.obj
 0001:00004628       FatAddDirEnt               00000000000048e8 f   Fat:DirectoryManage.obj
 0001:000046b0       FatLoadNextDirEnt          0000000000004970 f   Fat:DirectoryManage.obj
 0001:00004a14       FatSearchODir              0000000000004cd4 f   Fat:DirectoryManage.obj
 0001:00004c18       FatSetEntryCount           0000000000004ed8 f   Fat:DirectoryManage.obj
 0001:00004d00       FatSeekVolumeId            0000000000004fc0 f   Fat:DirectoryManage.obj
 0001:00004d78       FatFirstFitInsertDirEnt    0000000000005038 f   Fat:DirectoryManage.obj
 0001:00004e6c       FatNewEntryPos             000000000000512c f   Fat:DirectoryManage.obj
 0001:000056a0       FatLoadFatEntry            0000000000005960 f   Fat:FileSpace.obj
 0001:00005724       FatGetFatEntry             00000000000059e4 f   Fat:FileSpace.obj
 0001:000057cc       FatSetFatEntry             0000000000005a8c f   Fat:FileSpace.obj
 0001:00006124       FatCheckNameCase           00000000000063e4 f   Fat:FileName.obj
 0001:00006280       FatHashLongName            0000000000006540 f   Fat:Hash.obj
 0005:00000000       $unwind$FatResetODirCursor 000000000000b200     Fat:DirectoryManage.obj
 0005:00000000       $unwind$FatUpdateDirEntClusterSizeInfo 000000000000b200     Fat:DirectoryManage.obj
 0005:00000000       $unwind$FatAcquireLockOrFail 000000000000b200     Fat:Misc.obj
 0005:00000000       $unwind$FatStrLwr          000000000000b200     Fat:UnicodeCollation.obj
 0005:00000000       $unwind$FatStrUpr          000000000000b200     Fat:UnicodeCollation.obj
 0005:00000000       $unwind$InternalBaseLibIsListValid 000000000000b200     BaseLib:LinkedList.obj
 0005:00000000       $unwind$IsListEmpty        000000000000b200     BaseLib:LinkedList.obj
 0005:00000000       $unwind$RemoveEntryList    000000000000b200     BaseLib:LinkedList.obj
 0005:00000000       $unwind$_ModuleEntryPoint  000000000000b200     UefiDriverEntryPoint:DriverEntryPoint.obj
 0005:00000000       $unwind$EfiAcquireLock     000000000000b200     UefiLib:UefiLib.obj
 0005:00000000       $unwind$EfiReleaseLock     000000000000b200     UefiLib:UefiLib.obj
 0005:00000000       $unwind$AllocateZeroPool   000000000000b200     UefiMemoryAllocationLib:MemoryAllocationLib.obj
 0005:00000008       $unwind$ProcessLibraryConstructorList 000000000000b208     Fat:AutoGen.obj
 0005:00000008       $unwind$FatFreeODir        000000000000b208     Fat:DirectoryCache.obj
 0005:00000008       $unwind$FatPhysicalDirSize 000000000000b208     Fat:FileSpace.obj
 0005:00000008       $unwind$FatClose           000000000000b208     Fat:Flush.obj
 0005:00000008       $unwind$FatIFileClose      000000000000b208     Fat:Flush.obj
 0005:00000008       $unwind$FatSetVolumeError  000000000000b208     Fat:Flush.obj
 0005:00000008       $unwind$FatCreateTask      000000000000b208     Fat:Misc.obj
 0005:00000008       $unwind$FatDestroyTask     000000000000b208     Fat:Misc.obj
 0005:00000008       $unwind$FatOnAccessComplete 000000000000b208     Fat:Misc.obj
 0005:00000008       $unwind$FatSetPosition     000000000000b208     Fat:ReadWrite.obj
 0005:00000008       $unwind$FatStrToFat        000000000000b208     Fat:UnicodeCollation.obj
 0005:00000008       $unwind$AsciiStrnCmp       000000000000b208     BaseLib:String.obj
 0005:00000008       $unwind$StrCmp             000000000000b208     BaseLib:String.obj
 0005:00000008       $unwind$StrLen             000000000000b208     BaseLib:String.obj
 0005:00000008       $unwind$SetMem             000000000000b208     BaseMemoryLibRepStr:SetMemWrapper.obj
 0005:00000008       $unwind$BasePrintLibValueToString 000000000000b208     BasePrintLib:PrintLibInternal.obj
 0005:00000008       $unwind$IsLanguageSupported 000000000000b208     UefiLib:UefiLib.obj
 0005:00000018       $unwind$ProcessModuleEntryPointList 000000000000b218     Fat:AutoGen.obj
 0005:00000024       $unwind$FatUnload          000000000000b224     Fat:Fat.obj
 0005:00000034       $unwind$FatDriverBindingSupported 000000000000b234     Fat:Fat.obj
 0005:00000040       $unwind$FatDriverBindingStart 000000000000b240     Fat:Fat.obj
 0005:00000054       $unwind$FatDriverBindingStop 000000000000b254     Fat:Fat.obj
 0005:00000068       $unwind$FatComponentNameGetDriverName 000000000000b268     Fat:ComponentName.obj
 0005:00000068       $unwind$FatGetInfo         000000000000b268     Fat:Info.obj
 0005:00000068       $unwind$FatOpen            000000000000b268     Fat:Open.obj
 0005:00000068       $unwind$FatRead            000000000000b268     Fat:ReadWrite.obj
 0005:00000068       $unwind$FatReadEx          000000000000b268     Fat:ReadWrite.obj
 0005:00000068       $unwind$FatWrite           000000000000b268     Fat:ReadWrite.obj
 0005:00000068       $unwind$FatWriteEx         000000000000b268     Fat:ReadWrite.obj
 0005:00000070       $unwind$FatComponentNameGetControllerName 000000000000b270     Fat:ComponentName.obj
 0005:0000007c       $unwind$FatInitializeDiskCache 000000000000b27c     Fat:DiskCache.obj
 0005:0000007c       $unwind$FatComputeFreeInfo 000000000000b27c     Fat:FileSpace.obj
 0005:0000007c       $unwind$FatGetFatEntry     000000000000b27c     Fat:FileSpace.obj
 0005:0000007c       $unwind$FatLongNameHashSearch 000000000000b27c     Fat:Hash.obj
 0005:0000007c       $unwind$FatDestroySubtask  000000000000b27c     Fat:Misc.obj
 0005:0000007c       $unwind$FatFreeVolume      000000000000b27c     Fat:Misc.obj
 0005:0000007c       $unwind$FatWaitNonblockingTask 000000000000b27c     Fat:Misc.obj
 0005:0000007c       $unwind$FatOpenVolume      000000000000b27c     Fat:OpenVolume.obj
 0005:0000007c       $unwind$FatGetPosition     000000000000b27c     Fat:ReadWrite.obj
 0005:0000007c       $unwind$FatStriCmp         000000000000b27c     Fat:UnicodeCollation.obj
 0005:0000007c       $unwind$LShiftU64          000000000000b27c     BaseLib:LShiftU64.obj
 0005:0000007c       $unwind$InsertHeadList     000000000000b27c     BaseLib:LinkedList.obj
 0005:0000007c       $unwind$InsertTailList     000000000000b27c     BaseLib:LinkedList.obj
 0005:0000007c       $unwind$IsNull             000000000000b27c     BaseLib:LinkedList.obj
 0005:0000007c       $unwind$RShiftU64          000000000000b27c     BaseLib:RShiftU64.obj
 0005:0000007c       $unwind$StrnLenS           000000000000b27c     BaseLib:SafeString.obj
 0005:0000007c       $unwind$AsciiStrLen        000000000000b27c     BaseLib:String.obj
 0005:0000007c       $unwind$ZeroMem            000000000000b27c     BaseMemoryLibRepStr:ZeroMemWrapper.obj
 0005:0000007c       $unwind$InternalAllocateCopyPool 000000000000b27c     UefiMemoryAllocationLib:MemoryAllocationLib.obj
 0005:00000088       $unwind$FatVolumeFlushCache 000000000000b288     Fat:DiskCache.obj
 0005:00000088       $unwind$FatQueueTask       000000000000b288     Fat:Misc.obj
 0005:000000a4       $unwind$FatDiskIo          000000000000b2a4     Fat:Misc.obj
 0005:000000c0       $unwind$FatAccessEntry     000000000000b2c0     Fat:DirectoryManage.obj
 0005:000000c0       $unwind$FatLoadFatEntry    000000000000b2c0     Fat:FileSpace.obj
 0005:000000c0       $unwind$FatGetCurrentFatTime 000000000000b2c0     Fat:Misc.obj
 0005:000000c8       $unwind$FatRequestODir     000000000000b2c8     Fat:DirectoryCache.obj
 0005:000000c8       $unwind$FatCreateDirEnt    000000000000b2c8     Fat:DirectoryManage.obj
 0005:000000c8       $unwind$FatCheckIs8Dot3Name 000000000000b2c8     Fat:FileName.obj
 0005:000000c8       $unwind$FatCheckVolumeRef  000000000000b2c8     Fat:Flush.obj
 0005:000000c8       $unwind$FatAllocateVolume  000000000000b2c8     Fat:Init.obj
 0005:000000e0       $unwind$FatAbandonVolume   000000000000b2e0     Fat:Init.obj
 0005:000000f4       $unwind$FatOpenDevice      000000000000b2f4     Fat:Init.obj
 0005:00000110       $unwind$InitializeUnicodeCollationSupportWorker 000000000000b310     Fat:UnicodeCollation.obj
 0005:00000128       $unwind$FatFlushDataCacheRange 000000000000b328     Fat:DiskCache.obj
 0005:00000144       $unwind$FatExchangeCachePage 000000000000b344     Fat:DiskCache.obj
 0005:00000160       $unwind$FatAccessUnalignedCachePage 000000000000b360     Fat:DiskCache.obj
 0005:0000017c       $unwind$FatAccessCache     000000000000b37c     Fat:DiskCache.obj
 0005:00000194       $unwind$FatFlushEx         000000000000b394     Fat:Flush.obj
 0005:000001ac       $unwind$FatOFileFlush      000000000000b3ac     Fat:Flush.obj
 0005:000001bc       $unwind$FatSetFatEntry     000000000000b3bc     Fat:FileSpace.obj
 0005:000001bc       $unwind$FatCleanupVolume   000000000000b3bc     Fat:Flush.obj
 0005:000001cc       $unwind$FatIFileReadDir    000000000000b3cc     Fat:ReadWrite.obj
 0005:000001e4       $unwind$FatIFileAccess     000000000000b3e4     Fat:ReadWrite.obj
 0005:000001fc       $unwind$FatAccessOFile     000000000000b3fc     Fat:ReadWrite.obj
 0005:00000214       $unwind$FatSearchODir      000000000000b414     Fat:DirectoryManage.obj
 0005:00000214       $unwind$FatWriteZeroPool   000000000000b414     Fat:ReadWrite.obj
 0005:0000022c       $unwind$FatOpenDirEnt      000000000000b42c     Fat:DirectoryManage.obj
 0005:0000022c       $unwind$FatRemoveDirEnt    000000000000b42c     Fat:DirectoryManage.obj
 0005:0000022c       $unwind$FatSeekVolumeId    000000000000b42c     Fat:DirectoryManage.obj
 0005:0000022c       $unwind$FatSetEntryCount   000000000000b42c     Fat:DirectoryManage.obj
 0005:0000022c       $unwind$FatNameToStr       000000000000b42c     Fat:FileName.obj
 0005:0000022c       $unwind$FatAllocateIFile   000000000000b42c     Fat:Open.obj
 0005:0000022c       $unwind$CompareMem         000000000000b42c     BaseMemoryLibRepStr:CompareMemWrapper.obj
 0005:0000022c       $unwind$CopyMem            000000000000b42c     BaseMemoryLibRepStr:CopyMemWrapper.obj
 0005:00000240       $unwind$FatOFileOpen       000000000000b440     Fat:Open.obj
 0005:0000025c       $unwind$FatOpenEx          000000000000b45c     Fat:Open.obj
 0005:00000274       $unwind$FatGetVolumeInfo   000000000000b474     Fat:Info.obj
 0005:00000290       $unwind$FatSetFileInfo     000000000000b490     Fat:Info.obj
 0005:000002b0       $unwind$FatSetOrGetInfo    000000000000b4b0     Fat:Info.obj
 0005:000002cc       $unwind$FatSetInfo         000000000000b4cc     Fat:Info.obj
 0005:000002d4       $unwind$FatDelete          000000000000b4d4     Fat:Delete.obj
 0005:000002ec       $unwind$FatStoreDirEnt     000000000000b4ec     Fat:DirectoryManage.obj
 0005:0000030c       $unwind$FatLoadLongNameEntry 000000000000b50c     Fat:DirectoryManage.obj
 0005:0000032c       $unwind$FatAddDirEnt       000000000000b52c     Fat:DirectoryManage.obj
 0005:0000032c       $unwind$FatShortNameHashSearch 000000000000b52c     Fat:Hash.obj
 0005:00000338       $unwind$FatLoadNextDirEnt  000000000000b538     Fat:DirectoryManage.obj
 0005:00000338       $unwind$FatSetCaseFlag     000000000000b538     Fat:FileName.obj
 0005:00000338       $unwind$StrCpyS            000000000000b538     BaseLib:SafeString.obj
 0005:00000350       $unwind$FatGetDirEntInfo   000000000000b550     Fat:DirectoryManage.obj
 0005:00000368       $unwind$FatGetNextDirEnt   000000000000b568     Fat:DirectoryManage.obj
 0005:00000368       $unwind$FatNewEntryPos     000000000000b568     Fat:DirectoryManage.obj
 0005:0000037c       $unwind$FatFirstFitInsertDirEnt 000000000000b57c     Fat:DirectoryManage.obj
 0005:00000398       $unwind$FatGetVolumeEntry  000000000000b598     Fat:DirectoryManage.obj
 0005:000003a8       $unwind$FatSetVolumeEntry  000000000000b5a8     Fat:DirectoryManage.obj
 0005:000003b4       $unwind$FatLocateOFile     000000000000b5b4     Fat:DirectoryManage.obj
 0005:000003d4       $unwind$FatGrowEof         000000000000b5d4     Fat:FileSpace.obj
 0005:000003d4       $unwind$FatShrinkEof       000000000000b5d4     Fat:FileSpace.obj
 0005:000003f0       $unwind$FatCreate8Dot3Name 000000000000b5f0     Fat:FileName.obj
 0005:00000408       $unwind$FatCheckNameCase   000000000000b608     Fat:FileName.obj
 0005:00000418       $unwind$FatHashLongName    000000000000b618     Fat:Hash.obj
 0005:00000430       $unwind$StrCatS            000000000000b630     BaseLib:SafeString.obj
 0005:00000448       $unwind$CompareGuid        000000000000b648     BaseMemoryLibRepStr:MemLibGuid.obj
 0005:00000460       $unwind$DebugPrint         000000000000b660     BaseDebugLibSerialPort:DebugLib.obj
 0005:00000468       $unwind$DebugPrintMarker   000000000000b668     BaseDebugLibSerialPort:DebugLib.obj
 0005:0000047c       $unwind$DebugAssert        000000000000b67c     BaseDebugLibSerialPort:DebugLib.obj
 0005:00000484       $unwind$FreePool           000000000000b684     UefiMemoryAllocationLib:MemoryAllocationLib.obj
 0005:00000484       $unwind$InternalAllocatePool 000000000000b684     UefiMemoryAllocationLib:MemoryAllocationLib.obj
 0005:0000048c       $unwind$EfiTestManagedDevice 000000000000b68c     UefiLib:UefiLib.obj
 0005:00000498       $unwind$LookupUnicodeString2 000000000000b698     UefiLib:UefiLib.obj
 0005:000004b0       $unwind$GetEfiGlobalVariable2 000000000000b6b0     UefiLib:UefiLib.obj
 0005:000004c0       $unwind$GetBestLanguage    000000000000b6c0     UefiLib:UefiLib.obj
 0005:000004d4       $unwind$AsciiSPrint        000000000000b6d4     BasePrintLib:PrintLib.obj
 0005:000004dc       $unwind$BasePrintLibSPrintMarker 000000000000b6dc     BasePrintLib:PrintLibInternal.obj
 0005:000004f8       $unwind$BasePrintLibSPrint 000000000000b6f8     BasePrintLib:PrintLibInternal.obj
