 LinuxInitrdDynamicShellCommand

 Timestamp is 62c3c259 (Tue Jul  5 12:47:21 2022)

 Preferred load address is 0000000000000000

 Start         Length     Name                   Class
 0001:00000000 000001d8H .text                   CODE
 0001:000001d8 000055f8H .text$mn                CODE
 0002:00000000 000018e0H .rdata                  DATA
 0002:000018e0 00000020H .rdata$voltmd           DATA
 0002:00001900 0000019cH .rdata$zzzdbg           DATA
 0003:00000000 00000160H .data                   DATA
 0003:00000160 00000100H .bss                    DATA
 0004:00000000 0000033cH .pdata                  DATA
 0005:00000000 00000250H .xdata                  DATA
 0006:00000000 00000060H .rsrc$01                DATA
 0006:00000060 00000a98H .rsrc$02                DATA

  Address         Publics by Value              Rva+Base               Lib:Object

 0000:00000000       __x64_code_ranges_to_entry_points_count 0000000000000000     <absolute>
 0000:00000000       __guard_iat_table          0000000000000000     <absolute>
 0000:00000000       __guard_iat_count          0000000000000000     <absolute>
 0000:00000000       __guard_longjmp_table      0000000000000000     <absolute>
 0000:00000000       __guard_longjmp_count      0000000000000000     <absolute>
 0000:00000000       __x64_code_ranges_to_entry_points 0000000000000000     <absolute>
 0000:00000000       __dynamic_value_reloc_table 0000000000000000     <absolute>
 0000:00000000       __guard_fids_count         0000000000000000     <absolute>
 0000:00000000       __hybrid_code_map_count    0000000000000000     <absolute>
 0000:00000000       __hybrid_auxiliary_iat     0000000000000000     <absolute>
 0000:00000000       __hybrid_auxiliary_iat_copy 0000000000000000     <absolute>
 0000:00000000       __arm64x_extra_rfe_table   0000000000000000     <absolute>
 0000:00000000       __arm64x_redirection_metadata 0000000000000000     <absolute>
 0000:00000000       __hybrid_code_map          0000000000000000     <absolute>
 0000:00000000       __arm64x_extra_rfe_table_size 0000000000000000     <absolute>
 0000:00000000       __AbsoluteZero             0000000000000000     <absolute>
 0000:00000000       __guard_check_icall_a64n_fptr 0000000000000000     <absolute>
 0000:00000000       __guard_fids_table         0000000000000000     <absolute>
 0000:00000000       __arm64x_native_entrypoint 0000000000000000     <absolute>
 0000:00000000       __guard_flags              0000000000000000     <absolute>
 0000:00000000       __guard_eh_cont_count      0000000000000000     <absolute>
 0000:00000000       __arm64x_redirection_metadata_count 0000000000000000     <absolute>
 0000:00000000       __enclave_config           0000000000000000     <absolute>
 0000:00000000       __guard_eh_cont_table      0000000000000000     <absolute>
 0001:00000000       InternalMemSetMem          00000000000002e0     BaseMemoryLibRepStr:SetMem.obj
 0001:00000020       InternalMemCopyMem         0000000000000300     BaseMemoryLibRepStr:CopyMem.obj
 0001:00000060       InternalMemZeroMem         0000000000000340     BaseMemoryLibRepStr:ZeroMem.obj
 0001:00000080       InternalMemCompareMem      0000000000000360     BaseMemoryLibRepStr:CompareMem.obj
 0001:000000a0       InternalMemSetMem64        0000000000000380     BaseMemoryLibRepStr:SetMem64.obj
 0001:000000c0       InternalMemSetMem32        00000000000003a0     BaseMemoryLibRepStr:SetMem32.obj
 0001:000000e0       CpuPause                   00000000000003c0     BaseLib:CpuPause.obj
 0001:000000f0       TdVmCall                   00000000000003d0     BaseLib:TdVmcall.obj
 0001:00000180       TdCall                     0000000000000460     BaseLib:TdCall.obj
 0001:000001d8       _DriverUnloadHandler       00000000000004b8 f   UefiDriverEntryPoint:DriverEntryPoint.obj
 0001:00000298       _ModuleEntryPoint          0000000000000578 f   UefiDriverEntryPoint:DriverEntryPoint.obj
 0001:00000330       ProcessLibraryConstructorList 0000000000000610 f   LinuxInitrdDynamicShellCommand:AutoGen.obj
 0001:00000608       ProcessLibraryDestructorList 00000000000008e8 f   LinuxInitrdDynamicShellCommand:AutoGen.obj
 0001:00000648       ProcessModuleEntryPointList 0000000000000928 f   LinuxInitrdDynamicShellCommand:AutoGen.obj
 0001:00000e20       LinuxInitrdCommandHandler  0000000000001100 f   LinuxInitrdDynamicShellCommand:LinuxInitrdDynamicShellCommand.obj
 0001:00000e48       DebugPrint                 0000000000001128 f   BaseDebugLibSerialPort:DebugLib.obj
 0001:00000e6c       DebugPrintMarker           000000000000114c f   BaseDebugLibSerialPort:DebugLib.obj
 0001:00000f1c       DebugAssert                00000000000011fc f   BaseDebugLibSerialPort:DebugLib.obj
 0001:00000f94       InternalAllocatePool       0000000000001274 f   UefiMemoryAllocationLib:MemoryAllocationLib.obj
 0001:00000fc4       AllocateZeroPool           00000000000012a4 f   UefiMemoryAllocationLib:MemoryAllocationLib.obj
 0001:00000fec       InternalAllocateCopyPool   00000000000012cc f   UefiMemoryAllocationLib:MemoryAllocationLib.obj
 0001:00001064       InternalReallocatePool     0000000000001344 f   UefiMemoryAllocationLib:MemoryAllocationLib.obj
 0001:000010e0       FreePool                   00000000000013c0 f   UefiMemoryAllocationLib:MemoryAllocationLib.obj
 0001:00001124       IsDevicePathValid          0000000000001404 f   UefiDevicePathLibDevicePathProtocol:UefiDevicePathLib.obj
 0001:00001260       NextDevicePathNode         0000000000001540 f   UefiDevicePathLibDevicePathProtocol:UefiDevicePathLib.obj
 0001:000012d0       GetBestLanguage            00000000000015b0 f   UefiLib:UefiLib.obj
 0001:00001408       EfiOpenFileByDevicePath    00000000000016e8 f   UefiLib:UefiLib.obj
 0001:0000167c       HiiGetStringEx             000000000000195c f   UefiHiiLib:HiiString.obj
 0001:000018a0       HiiGetSupportedLanguages   0000000000001b80 f   UefiHiiLib:HiiLanguage.obj
 0001:00001944       ShellFindSE2               0000000000001c24 f   UefiShellLib:UefiShellLib.obj
 0001:00001ae4       ShellLibConstructorWorker  0000000000001dc4 f   UefiShellLib:UefiShellLib.obj
 0001:00001d8c       ShellLibDestructor         000000000000206c f   UefiShellLib:UefiShellLib.obj
 0001:00001ea0       ShellOpenFileByName        0000000000002180 f   UefiShellLib:UefiShellLib.obj
 0001:00002188       ShellFindFilePath          0000000000002468 f   UefiShellLib:UefiShellLib.obj
 0001:00002490       InternalIsOnCheckList      0000000000002770 f   UefiShellLib:UefiShellLib.obj
 0001:000025dc       InternalCommandLineParse   00000000000028bc f   UefiShellLib:UefiShellLib.obj
 0001:00002c9c       ShellCommandLineGetFlag    0000000000002f7c f   UefiShellLib:UefiShellLib.obj
 0001:00002d94       ShellCommandLineGetCount   0000000000003074 f   UefiShellLib:UefiShellLib.obj
 0001:00002df8       ShellCopySearchAndReplace  00000000000030d8 f   UefiShellLib:UefiShellLib.obj
 0001:00002fa8       InternalPrintTo            0000000000003288 f   UefiShellLib:UefiShellLib.obj
 0001:00003044       InternalShellPrintWorker   0000000000003324 f   UefiShellLib:UefiShellLib.obj
 0001:000033ec       ShellPrintHiiEx            00000000000036cc f   UefiShellLib:UefiShellLib.obj
 0001:00003444       StrnCatGrow                0000000000003724 f   UefiShellLib:UefiShellLib.obj
 0001:0000352c       CopyMem                    000000000000380c f   BaseMemoryLibRepStr:CopyMemWrapper.obj
 0001:000035c8       ZeroMem                    00000000000038a8 f   BaseMemoryLibRepStr:ZeroMemWrapper.obj
 0001:00003638       CompareGuid                0000000000003918 f   BaseMemoryLibRepStr:MemLibGuid.obj
 0001:000036c0       StrLen                     00000000000039a0 f   BaseLib:String.obj
 0001:00003748       StrCmp                     0000000000003a28 f   BaseLib:String.obj
 0001:000037f0       StrnCmp                    0000000000003ad0 f   BaseLib:String.obj
 0001:000038d8       StrStr                     0000000000003bb8 f   BaseLib:String.obj
 0001:000039a0       AsciiStrLen                0000000000003c80 f   BaseLib:String.obj
 0001:00003a0c       AsciiStrnCmp               0000000000003cec f   BaseLib:String.obj
 0001:00003ad8       StrnLenS                   0000000000003db8 f   BaseLib:SafeString.obj
 0001:00003b40       StrCpyS                    0000000000003e20 f   BaseLib:SafeString.obj
 0001:00003ce4       StrCatS                    0000000000003fc4 f   BaseLib:SafeString.obj
 0001:00003ecc       StrnCatS                   00000000000041ac f   BaseLib:SafeString.obj
 0001:000040f0       InternalBaseLibIsListValid 00000000000043d0 f   BaseLib:LinkedList.obj
 0001:0000415c       InitializeListHead         000000000000443c f   BaseLib:LinkedList.obj
 0001:00004194       InsertHeadList             0000000000004474 f   BaseLib:LinkedList.obj
 0001:000041e4       GetFirstNode               00000000000044c4 f   BaseLib:LinkedList.obj
 0001:00004218       GetNextNode                00000000000044f8 f   BaseLib:LinkedList.obj
 0001:0000424c       IsListEmpty                000000000000452c f   BaseLib:LinkedList.obj
 0001:00004284       IsNull                     0000000000004564 f   BaseLib:LinkedList.obj
 0001:000042c8       RemoveEntryList            00000000000045a8 f   BaseLib:LinkedList.obj
 0001:00004310       PathRemoveLastItem         00000000000045f0 f   BaseLib:FilePaths.obj
 0001:00004368       PathCleanUpDirectories     0000000000004648 f   BaseLib:FilePaths.obj
 0001:000044dc       UnicodeVSPrint             00000000000047bc f   BasePrintLib:PrintLib.obj
 0001:00004570       AsciiSPrint                0000000000004850 f   BasePrintLib:PrintLib.obj
 0001:0000459c       BasePrintLibFillBuffer     000000000000487c f   BasePrintLib:PrintLibInternal.obj
 0001:000045d0       BasePrintLibValueToString  00000000000048b0 f   BasePrintLib:PrintLibInternal.obj
 0001:0000463c       BasePrintLibSPrintMarker   000000000000491c f   BasePrintLib:PrintLibInternal.obj
 0001:00005554       BasePrintLibSPrint         0000000000005834 f   BasePrintLib:PrintLibInternal.obj
 0001:00005578       StringNoCaseCompare        0000000000005858 f   UefiSortLib:UefiSortLib.obj
 0001:00005600       FileHandleGetInfo          00000000000058e0 f   UefiFileHandleLib:UefiFileHandleLib.obj
 0001:00005684       FileHandleSetInfo          0000000000005964 f   UefiFileHandleLib:UefiFileHandleLib.obj
 0001:000056ac       FileHandleRead             000000000000598c f   UefiFileHandleLib:UefiFileHandleLib.obj
 0001:000056c0       FileHandleWrite            00000000000059a0 f   UefiFileHandleLib:UefiFileHandleLib.obj
 0001:000056d4       FileHandleClose            00000000000059b4 f   UefiFileHandleLib:UefiFileHandleLib.obj
 0001:000056e8       FileHandleDelete           00000000000059c8 f   UefiFileHandleLib:UefiFileHandleLib.obj
 0001:000056fc       FileHandleSetPosition      00000000000059dc f   UefiFileHandleLib:UefiFileHandleLib.obj
 0001:00005710       FileHandleGetPosition      00000000000059f0 f   UefiFileHandleLib:UefiFileHandleLib.obj
 0001:0000572c       FileHandleFlush            0000000000005a0c f   UefiFileHandleLib:UefiFileHandleLib.obj
 0001:00005740       FileHandleIsDirectory      0000000000005a20 f   UefiFileHandleLib:UefiFileHandleLib.obj
 0001:00005784       FileHandleGetSize          0000000000005a64 f   UefiFileHandleLib:UefiFileHandleLib.obj
 0002:00000000       ??_C@_0CB@DMEJJJHA@?6ASSERT_EFI_ERROR?5?$CIStatus?5?$DN?5?$CFr?$CJ@ 0000000000005ac0     UefiDriverEntryPoint:DriverEntryPoint.obj
 0002:00000028       ??_C@_0CH@BBNBJKHK@?$CB?$CI?$CI?$CIINTN?$CJ?$CIRETURN_STATUS?$CJ?$CIStatus@ 0000000000005ae8     UefiDriverEntryPoint:DriverEntryPoint.obj
 0002:00000050       ??_C@_0EG@HIPMDNNL@d?3?2myedk2?2edk2?2MdePkg?2Library?2U@ 0000000000005b10     UefiDriverEntryPoint:DriverEntryPoint.obj
 0002:00000098       ??_C@_0BP@FHOFOEKJ@LinuxInitrdDynamicShellCommand@ 0000000000005b58     LinuxInitrdDynamicShellCommand:AutoGen.obj
 0002:000000c0       ??_C@_0IE@JOCBAFGO@d?3?2myedk2?2edk2?2Build?2OvmfX64?2DE@ 0000000000005b80     LinuxInitrdDynamicShellCommand:AutoGen.obj
 0002:00000144       ??_C@_15KJOOBIBK@?$AA?9?$AAu@ 0000000000005c04     LinuxInitrdDynamicShellCommand:LinuxInitrdDynamicShellCommand.obj
 0002:00000150       ??_C@_0BI@KOKBFJMC@mInitrdFileAddress?5?$CB?$DN?50@ 0000000000005c10     LinuxInitrdDynamicShellCommand:LinuxInitrdDynamicShellCommand.obj
 0002:00000170       ??_C@_0FH@LPPDDLLM@d?3?2myedk2?2edk2?2OvmfPkg?2LinuxIni@ 0000000000005c30     LinuxInitrdDynamicShellCommand:LinuxInitrdDynamicShellCommand.obj
 0002:000001c8       ??_C@_0BA@GBDDFPME@CacheInitrdFile@ 0000000000005c88     LinuxInitrdDynamicShellCommand:LinuxInitrdDynamicShellCommand.obj
 0002:000001d8       ??_C@_0DB@GCLHCGNP@?$CFa?3?5failed?5to?5read?5initrd?5file?5@ 0000000000005c98     LinuxInitrdDynamicShellCommand:LinuxInitrdDynamicShellCommand.obj
 0002:00000210       ??_C@_1O@DKOKDFAJ@?$AAi?$AAn?$AAi?$AAt?$AAr?$AAd@ 0000000000005cd0     LinuxInitrdDynamicShellCommand:LinuxInitrdDynamicShellCommand.obj
 0002:00000220       ??_C@_0BC@FEDIJHFF@?$CI?$CIBOOLEAN?$CJ?$CI0?$DN?$DN1?$CJ?$CJ@ 0000000000005ce0     LinuxInitrdDynamicShellCommand:LinuxInitrdDynamicShellCommand.obj
 0002:00000238       ??_C@_0BG@PLJGDMH@Param?5?$CB?$DN?5?$CI?$CIvoid?5?$CK?$CJ?50?$CJ@ 0000000000005cf8     LinuxInitrdDynamicShellCommand:LinuxInitrdDynamicShellCommand.obj
 0002:00000290       ??_C@_0BH@LKMBFCBF@Format?5?$CB?$DN?5?$CI?$CIvoid?5?$CK?$CJ?50?$CJ@ 0000000000005d50     BaseDebugLibSerialPort:DebugLib.obj
 0002:000002b0       ??_C@_0EA@MCEJFCHO@d?3?2myedk2?2edk2?2MdePkg?2Library?2B@ 0000000000005d70     BaseDebugLibSerialPort:DebugLib.obj
 0002:000002f0       ??_C@_0BI@NOCKJDBJ@ASSERT?5?$FL?$CFa?$FN?5?$CFa?$CI?$CFd?$CJ?3?5?$CFa?6@ 0000000000005db0     BaseDebugLibSerialPort:DebugLib.obj
 0002:00000308       ??_C@_0BH@IACGKAP@Buffer?5?$CB?$DN?5?$CI?$CIvoid?5?$CK?$CJ?50?$CJ@ 0000000000005dc8     BaseDebugLibSerialPort:DebugLib.obj
 0002:00000320       ??_C@_0BN@COECPDCC@gImageHandle?5?$CB?$DN?5?$CI?$CIvoid?5?$CK?$CJ?50?$CJ@ 0000000000005de0     UefiBootServicesTableLib:UefiBootServicesTableLib.obj
 0002:00000340       ??_C@_0FC@HJEJKBBP@d?3?2myedk2?2edk2?2MdePkg?2Library?2U@ 0000000000005e00     UefiBootServicesTableLib:UefiBootServicesTableLib.obj
 0002:00000398       ??_C@_0BE@DGNHAHIL@gST?5?$CB?$DN?5?$CI?$CIvoid?5?$CK?$CJ?50?$CJ@ 0000000000005e58     UefiBootServicesTableLib:UefiBootServicesTableLib.obj
 0002:000003b0       ??_C@_0BE@BDFJLGLN@gBS?5?$CB?$DN?5?$CI?$CIvoid?5?$CK?$CJ?50?$CJ@ 0000000000005e70     UefiBootServicesTableLib:UefiBootServicesTableLib.obj
 0002:000003d0       ??_C@_0EM@BLKCBDHP@d?3?2myedk2?2edk2?2MdePkg?2Library?2U@ 0000000000005e90     UefiMemoryAllocationLib:MemoryAllocationLib.obj
 0002:00000420       ??_C@_0DO@GEEICOOO@AllocationSize?5?$DM?$DN?5?$CI0xFFFFFFFFFF@ 0000000000005ee0     UefiMemoryAllocationLib:MemoryAllocationLib.obj
 0002:00000460       ??_C@_0BE@OBDFIHND@gRT?5?$CB?$DN?5?$CI?$CIvoid?5?$CK?$CJ?50?$CJ@ 0000000000005f20     UefiRuntimeServicesTableLib:UefiRuntimeServicesTableLib.obj
 0002:00000480       ??_C@_0FI@ELFALICJ@d?3?2myedk2?2edk2?2MdePkg?2Library?2U@ 0000000000005f40     UefiRuntimeServicesTableLib:UefiRuntimeServicesTableLib.obj
 0002:000004e0       ??_C@_0FG@PKIHNGDJ@d?3?2myedk2?2edk2?2MdePkg?2Library?2U@ 0000000000005fa0     UefiDevicePathLibDevicePathProtocol:UefiDevicePathLib.obj
 0002:00000538       ??_C@_0DC@CNNBPJA@mDevicePathLibDevicePathUtiliti@ 0000000000005ff8     UefiDevicePathLibDevicePathProtocol:UefiDevicePathLib.obj
 0002:00000570       ??_C@_0BL@JFODOCGB@DevicePath?5?$CB?$DN?5?$CI?$CIvoid?5?$CK?$CJ?50?$CJ@ 0000000000006030     UefiDevicePathLibDevicePathProtocol:UefiDevicePathLib.obj
 0002:00000590       ??_C@_0BF@CBLMFKOC@Node?5?$CB?$DN?5?$CI?$CIvoid?5?$CK?$CJ?50?$CJ@ 0000000000006050     UefiDevicePathLibDevicePathProtocol:UefiDevicePathLib.obj
 0002:000005a8       ??_C@_0DA@MHLDPJPP@d?3?2myedk2?2edk2?2MdePkg?2Library?2U@ 0000000000006068     UefiLib:UefiLib.obj
 0002:000005d8       ??_C@_0BF@OGAHIMFI@Name?5?$CB?$DN?5?$CI?$CIvoid?5?$CK?$CJ?50?$CJ@ 0000000000006098     UefiLib:UefiLib.obj
 0002:000005f0       ??_C@_0BH@FMEOEIBC@?$CKValue?5?$CB?$DN?5?$CI?$CIvoid?5?$CK?$CJ?50?$CJ@ 00000000000060b0     UefiLib:UefiLib.obj
 0002:00000608       ??_C@_0CD@OLFKAJF@SupportedLanguages?5?$CB?$DN?5?$CI?$CIvoid?5?$CK?$CJ@ 00000000000060c8     UefiLib:UefiLib.obj
 0002:00000630       ??_C@_0CG@CADOKAGM@?$CI?$CI?$CIINTN?$CJ?$CIRETURN_STATUS?$CJ?$CIStatus?$CJ@ 00000000000060f0     UefiLib:UefiLib.obj
 0002:00000660       ??_C@_0EM@HCNNEKLO@d?3?2myedk2?2edk2?2MdeModulePkg?2Lib@ 0000000000006120     UefiHiiServicesLib:UefiHiiServicesLib.obj
 0002:000006b0       ??_C@_0BK@KLJHMMPJ@HiiHandle?5?$CB?$DN?5?$CI?$CIvoid?5?$CK?$CJ?50?$CJ@ 0000000000006170     UefiHiiLib:HiiString.obj
 0002:000006d0       ??_C@_0DL@OPGNHLEM@d?3?2myedk2?2edk2?2MdeModulePkg?2Lib@ 0000000000006190     UefiHiiLib:HiiString.obj
 0002:00000710       ??_C@_0BH@MAAHKCPC@String?5?$CB?$DN?5?$CI?$CIvoid?5?$CK?$CJ?50?$CJ@ 00000000000061d0     UefiHiiLib:HiiString.obj
 0002:00000728       ??_C@_0O@EMMLPDMJ@StringId?5?$CB?$DN?50@ 00000000000061e8     UefiHiiLib:HiiString.obj
 0002:00000738       ??_C@_1BK@GGGENMOA@?$AAP?$AAl?$AAa?$AAt?$AAf?$AAo?$AAr?$AAm?$AAL?$AAa?$AAn?$AAg@ 00000000000061f8     UefiHiiLib:HiiString.obj
 0002:00000752       ??_C@_00CNPNBAHC@@         0000000000006212     UefiHiiLib:HiiString.obj
 0002:00000758       ??_C@_0DI@DMKLBJJP@d?3?2myedk2?2edk2?2MdeModulePkg?2Lib@ 0000000000006218     UefiHiiLib:HiiLib.obj
 0002:00000790       ??_C@_0DN@IHOHIDGF@d?3?2myedk2?2edk2?2MdeModulePkg?2Lib@ 0000000000006250     UefiHiiLib:HiiLanguage.obj
 0002:000007d0       ??_C@_0DM@COKINION@d?3?2myedk2?2edk2?2ShellPkg?2Library@ 0000000000006290     UefiShellLib:UefiShellLib.obj
 0002:00000810       ??_C@_17GGNKNKOD@?$AAc?$AAw?$AAd@ 00000000000062d0     UefiShellLib:UefiShellLib.obj
 0002:00000818       ??_C@_13FPGAJAPJ@?$AA?2@   00000000000062d8     UefiShellLib:UefiShellLib.obj
 0002:00000820       ??_C@_0BB@FIMNCDND@Status?3?50x?$CF08x?$AN?6@ 00000000000062e0     UefiShellLib:UefiShellLib.obj
 0002:00000838       ??_C@_0BJ@BLIKFMIM@FileName?5?$CB?$DN?5?$CI?$CIvoid?5?$CK?$CJ?50?$CJ@ 00000000000062f8     UefiShellLib:UefiShellLib.obj
 0002:00000858       ??_C@_17CLELIOII@?$AAN?$AAU?$AAL@ 0000000000006318     UefiShellLib:UefiShellLib.obj
 0002:00000860       ??_C@_19CIJIHAKK@?$AAN?$AAU?$AAL?$AAL@ 0000000000006320     UefiShellLib:UefiShellLib.obj
 0002:00000870       ??_C@_0BJ@LGIAPEFG@FileInfo?5?$CB?$DN?5?$CI?$CIvoid?5?$CK?$CJ?50?$CJ@ 0000000000006330     UefiShellLib:UefiShellLib.obj
 0002:00000890       ??_C@_0CG@HOBDBICG@mEfiShellEnvironment2?5?$CB?$DN?5?$CI?$CIvoid@ 0000000000006350     UefiShellLib:UefiShellLib.obj
 0002:000008b8       ??_C@_0BJ@NJABNCDK@ListHead?5?$CB?$DN?5?$CI?$CIvoid?5?$CK?$CJ?50?$CJ@ 0000000000006378     UefiShellLib:UefiShellLib.obj
 0002:000008d8       ??_C@_19JIFMCCAP@?$AAp?$AAa?$AAt?$AAh@ 0000000000006398     UefiShellLib:UefiShellLib.obj
 0002:000008e4       ??_C@_13PJJBFPED@?$AA?$DL@ 00000000000063a4     UefiShellLib:UefiShellLib.obj
 0002:000008e8       ??_C@_0BF@DFKBEABN@Type?5?$CB?$DN?5?$CI?$CIvoid?5?$CK?$CJ?50?$CJ@ 00000000000063a8     UefiShellLib:UefiShellLib.obj
 0002:00000900       ??_C@_15FNEHKAED@?$AA?9?$AA?$DP@ 00000000000063c0     UefiShellLib:UefiShellLib.obj
 0002:00000908       ??_C@_15GECAHHDM@?$AA?9?$AAb@ 00000000000063c8     UefiShellLib:UefiShellLib.obj
 0002:00000910       ??_C@_0BF@FMENHPJH@Argv?5?$CB?$DN?5?$CI?$CIvoid?5?$CK?$CJ?50?$CJ@ 00000000000063d0     UefiShellLib:UefiShellLib.obj
 0002:00000928       ??_C@_0BC@DHCAIFAM@GetItemValue?5?$DN?$DN?50@ 00000000000063e8     UefiShellLib:UefiShellLib.obj
 0002:0000093c       ??_C@_13HOIJIPNN@?$AA?5@   00000000000063fc     UefiShellLib:UefiShellLib.obj
 0002:00000940       ??_C@_0CD@OLNJGJNE@mEfiShellInterface?5?$CB?$DN?5?$CI?$CIvoid?5?$CK?$CJ@ 0000000000006400     UefiShellLib:UefiShellLib.obj
 0002:00000968       ??_C@_17HOBPHCP@?$AA?$CF?$AA?$CF?$AAN@ 0000000000006428     UefiShellLib:UefiShellLib.obj
 0002:00000970       ??_C@_15GCJHOFNH@?$AA?$CF?$AAN@ 0000000000006430     UefiShellLib:UefiShellLib.obj
 0002:00000978       ??_C@_17NAOAHACO@?$AA?$CF?$AA?$CF?$AAE@ 0000000000006438     UefiShellLib:UefiShellLib.obj
 0002:00000980       ??_C@_15LFJGGCNG@?$AA?$CF?$AAE@ 0000000000006440     UefiShellLib:UefiShellLib.obj
 0002:00000988       ??_C@_17CCIKKIPD@?$AA?$CF?$AA?$CF?$AAH@ 0000000000006448     UefiShellLib:UefiShellLib.obj
 0002:00000990       ??_C@_15EHPMLKAL@?$AA?$CF?$AAH@ 0000000000006450     UefiShellLib:UefiShellLib.obj
 0002:00000998       ??_C@_17ENDHEIJH@?$AA?$CF?$AA?$CF?$AAB@ 0000000000006458     UefiShellLib:UefiShellLib.obj
 0002:000009a0       ??_C@_15CIEBFKGP@?$AA?$CF?$AAB@ 0000000000006460     UefiShellLib:UefiShellLib.obj
 0002:000009a8       ??_C@_17JCEMIIFP@?$AA?$CF?$AA?$CF?$AAV@ 0000000000006468     UefiShellLib:UefiShellLib.obj
 0002:000009b0       ??_C@_15PHDKJKKH@?$AA?$CF?$AAV@ 0000000000006470     UefiShellLib:UefiShellLib.obj
 0002:000009b8       ??_C@_13EJFHHPOP@?$AA?$CF@ 0000000000006478     UefiShellLib:UefiShellLib.obj
 0002:000009c0       ??_C@_0BM@NLNKOJGD@Destination?5?$CB?$DN?5?$CI?$CIvoid?5?$CK?$CJ?50?$CJ@ 0000000000006480     UefiShellLib:UefiShellLib.obj
 0002:000009e0       ??_C@_0BB@PMNGACIB@CurrentSize?5?$CB?$DN?50@ 00000000000064a0     UefiShellLib:UefiShellLib.obj
 0002:000009f8       ??_C@_0CF@PEEFMLCB@DestinationStartSize?5?$DM?$DN?5?$CKCurren@ 00000000000064b8     UefiShellLib:UefiShellLib.obj
 0002:00000a20       ??_C@_0ED@MKGCMJG@?$CILength?5?9?51?$CJ?5?$DM?$DN?5?$CI0xFFFFFFFFFFFF@ 00000000000064e0     BaseMemoryLibRepStr:CopyMemWrapper.obj
 0002:00000a70       ??_C@_0ED@JAIIHABO@d?3?2myedk2?2edk2?2MdePkg?2Library?2B@ 0000000000006530     BaseMemoryLibRepStr:CopyMemWrapper.obj
 0002:00000ab8       ??_C@_0DO@MAOBOFEG@?$CILength?5?9?51?$CJ?5?$DM?$DN?5?$CI0xFFFFFFFFFFFF@ 0000000000006578     BaseMemoryLibRepStr:CopyMemWrapper.obj
 0002:00000b00       ??_C@_0ED@CECKBBNJ@d?3?2myedk2?2edk2?2MdePkg?2Library?2B@ 00000000000065c0     BaseMemoryLibRepStr:ZeroMemWrapper.obj
 0002:00000b48       ??_C@_0DG@EEENIGGL@Length?5?$DM?$DN?5?$CI0xFFFFFFFFFFFFFFFFUL@ 0000000000006608     BaseMemoryLibRepStr:ZeroMemWrapper.obj
 0002:00000b80       ??_C@_0CP@DJBLNMJI@d?3?2myedk2?2edk2?2MdePkg?2Library?2B@ 0000000000006640     BaseLib:String.obj
 0002:00000bb0       ??_C@_0CC@GFNLNIOC@?$CI?$CIUINTN?$CJString?5?$CG?50x00000001?$CJ?5?$DN?$DN@ 0000000000006670     BaseLib:String.obj
 0002:00000bd8       ??_C@_0DK@EOJCOAME@Length?5?$DM?5_gPcd_FixedAtBuild_Pcd@ 0000000000006698     BaseLib:String.obj
 0002:00000c18       ??_C@_0BL@JAAMOCAJ@StrSize?5?$CIFirstString?$CJ?5?$CB?$DN?50@ 00000000000066d8     BaseLib:String.obj
 0002:00000c38       ??_C@_0BM@DALBOILC@StrSize?5?$CISecondString?$CJ?5?$CB?$DN?50@ 00000000000066f8     BaseLib:String.obj
 0002:00000c58       ??_C@_0DL@LFIMEMJP@Length?5?$DM?$DN?5_gPcd_FixedAtBuild_Pc@ 0000000000006718     BaseLib:String.obj
 0002:00000c98       ??_C@_0BG@KBNOLIGE@StrSize?5?$CIString?$CJ?5?$CB?$DN?50@ 0000000000006758     BaseLib:String.obj
 0002:00000cb0       ??_C@_0BM@NNBLOHJD@StrSize?5?$CISearchString?$CJ?5?$CB?$DN?50@ 0000000000006770     BaseLib:String.obj
 0002:00000cd0       ??_C@_0DI@MDIKFADO@Length?5?$DM?5_gPcd_FixedAtBuild_Pcd@ 0000000000006790     BaseLib:String.obj
 0002:00000d08       ??_C@_0BL@IKFBNFIL@AsciiStrSize?5?$CIFirstString?$CJ@ 00000000000067c8     BaseLib:String.obj
 0002:00000d28       ??_C@_0BM@EDNOKLLE@AsciiStrSize?5?$CISecondString?$CJ@ 00000000000067e8     BaseLib:String.obj
 0002:00000d48       ??_C@_0DJ@JJHGIFMP@Length?5?$DM?$DN?5_gPcd_FixedAtBuild_Pc@ 0000000000006808     BaseLib:String.obj
 0002:00000d88       ??_C@_0DC@DDBICJIK@d?3?2myedk2?2edk2?2MdePkg?2Library?2B@ 0000000000006848     BaseLib:Unaligned.obj
 0002:00000dc0       ??_C@_0DD@OKIGPFG@d?3?2myedk2?2edk2?2MdePkg?2Library?2B@ 0000000000006880     BaseLib:SafeString.obj
 0002:00000df8       ??_C@_0CH@LALFPBMC@?$CI?$CIUINTN?$CJDestination?5?$CG?50x0000000@ 00000000000068b8     BaseLib:SafeString.obj
 0002:00000e20       ??_C@_0CC@HEBCMBPF@?$CI?$CIUINTN?$CJSource?5?$CG?50x00000001?$CJ?5?$DN?$DN@ 00000000000068e0     BaseLib:SafeString.obj
 0002:00000e48       ??_C@_0BO@ECNIOIHG@?$CIDestination?5?$CB?$DN?5?$CI?$CIvoid?5?$CK?$CJ?50?$CJ?$CJ@ 0000000000006908     BaseLib:SafeString.obj
 0002:00000e68       ??_C@_07KBGDFDAM@StrCpyS@  0000000000006928     BaseLib:SafeString.obj
 0002:00000e70       ??_C@_0EA@PDPDJJNN@?$CFa?$CI?$CFd?$CJ?5?$CFa?3?5SAFE_STRING_CONSTRAI@ 0000000000006930     BaseLib:SafeString.obj
 0002:00000eb0       ??_C@_0BJ@EAEEJIP@?$CISource?5?$CB?$DN?5?$CI?$CIvoid?5?$CK?$CJ?50?$CJ?$CJ@ 0000000000006970     BaseLib:SafeString.obj
 0002:00000ed0       ??_C@_0EA@BBALOHPI@?$CIDestMax?5?$DM?$DN?5?$CI_gPcd_FixedAtBuild@ 0000000000006990     BaseLib:SafeString.obj
 0002:00000f10       ??_C@_0P@PMIMLIHM@?$CIDestMax?5?$CB?$DN?50?$CJ@ 00000000000069d0     BaseLib:SafeString.obj
 0002:00000f20       ??_C@_0BG@EEGIIOKH@?$CIDestMax?5?$DO?5SourceLen?$CJ@ 00000000000069e0     BaseLib:SafeString.obj
 0002:00000f40       ??_C@_0FH@PPBLBDBJ@InternalSafeStringNoStrOverlap?5@ 0000000000006a00     BaseLib:SafeString.obj
 0002:00000f98       ??_C@_0DP@PBOJGJC@?$CILength?5?$DM?$DN?5?$CI_gPcd_FixedAtBuild_@ 0000000000006a58     BaseLib:SafeString.obj
 0002:00000fd8       ??_C@_07EBBOPAKF@StrCatS@  0000000000006a98     BaseLib:SafeString.obj
 0002:00000fe0       ??_C@_0P@BHOOOJPD@?$CICopyLen?5?$CB?$DN?50?$CJ@ 0000000000006aa0     BaseLib:SafeString.obj
 0002:00000ff0       ??_C@_0BG@BPGICNPK@?$CICopyLen?5?$DO?5SourceLen?$CJ@ 0000000000006ab0     BaseLib:SafeString.obj
 0002:00001008       ??_C@_08GNJNNKEE@StrnCatS@ 0000000000006ac8     BaseLib:SafeString.obj
 0002:00001018       ??_C@_0BJ@CNKJJNE@?$CIBuffer?5?$CB?$DN?5?$CI?$CIvoid?5?$CK?$CJ?50?$CJ?$CJ@ 0000000000006ad8     BaseLib:SafeString.obj
 0002:00001038       ??_C@_0BF@NJNGJMPC@List?5?$CB?$DN?5?$CI?$CIvoid?5?$CK?$CJ?50?$CJ@ 0000000000006af8     BaseLib:LinkedList.obj
 0002:00001050       ??_C@_0DD@DMMJEGIP@d?3?2myedk2?2edk2?2MdePkg?2Library?2B@ 0000000000006b10     BaseLib:LinkedList.obj
 0002:00001088       ??_C@_0CC@KDLPLAED@List?9?$DOForwardLink?5?$CB?$DN?5?$CI?$CIvoid?5?$CK?$CJ?5@ 0000000000006b48     BaseLib:LinkedList.obj
 0002:000010b0       ??_C@_0BP@IJJCCMAK@List?9?$DOBackLink?5?$CB?$DN?5?$CI?$CIvoid?5?$CK?$CJ?50?$CJ@ 0000000000006b70     BaseLib:LinkedList.obj
 0002:000010d0       ??_C@_0CG@LGIALJFK@InternalBaseLibIsListValid?5?$CILis@ 0000000000006b90     BaseLib:LinkedList.obj
 0002:000010f8       ??_C@_0CC@JLDICICM@InternalBaseLibIsListValid?5?$CILis@ 0000000000006bb8     BaseLib:LinkedList.obj
 0002:00001120       ??_C@_0BF@NMBJJECB@?$CBIsListEmpty?5?$CIEntry?$CJ@ 0000000000006be0     BaseLib:LinkedList.obj
 0002:00001138       ??_C@_0N@KGHEHMDL@Divisor?5?$CB?$DN?50@ 0000000000006bf8     BaseLib:DivU64x32.obj
 0002:00001148       ??_C@_15LEKKCGMK@?$AA?2?$AA?2@ 0000000000006c08     BaseLib:FilePaths.obj
 0002:00001150       ??_C@_17CECJBCED@?$AA?2?$AA?4?$AA?2@ 0000000000006c10     BaseLib:FilePaths.obj
 0002:00001158       ??_C@_15HFJMEONN@?$AA?2?$AA?4@ 0000000000006c18     BaseLib:FilePaths.obj
 0002:00001160       ??_C@_17OFBPHKFE@?$AA?2?$AA?4?$AA?4@ 0000000000006c20     BaseLib:FilePaths.obj
 0002:00001168       ??_C@_0CI@BGLNHBLM@?$CI?$CI?$CIUINTN?$CJ?5?$CIStartOfBuffer?$CJ?$CJ?5?$CG?50x@ 0000000000006c28     BasePrintLib:PrintLib.obj
 0002:00001190       ??_C@_0DG@INKIDCMN@d?3?2myedk2?2edk2?2MdePkg?2Library?2B@ 0000000000006c50     BasePrintLib:PrintLib.obj
 0002:000011c8       ??_C@_0CH@KJLBGOBB@?$CI?$CI?$CIUINTN?$CJ?5?$CIFormatString?$CJ?$CJ?5?$CG?50x0@ 0000000000006c88     BasePrintLib:PrintLib.obj
 0002:000011f0       ??_C@_0DO@DLJLNPNA@d?3?2myedk2?2edk2?2MdePkg?2Library?2B@ 0000000000006cb0     BasePrintLib:PrintLibInternal.obj
 0002:00001230       ??_C@_0EB@HDGIDCIO@?$CIBufferSize?5?$DM?$DN?5?$CI_gPcd_FixedAtBu@ 0000000000006cf0     BasePrintLib:PrintLibInternal.obj
 0002:00001278       ??_C@_0BJ@PPAKKDJG@?$CIFormat?5?$CB?$DN?5?$CI?$CIvoid?5?$CK?$CJ?50?$CJ?$CJ@ 0000000000006d38     BasePrintLib:PrintLibInternal.obj
 0002:000012a0       ??_C@_0ED@LPDDCECB@?$CIBufferSize?5?$DM?$DN?5?$CI_gPcd_FixedAtBu@ 0000000000006d60     BasePrintLib:PrintLibInternal.obj
 0002:000012f0       ??_C@_0IM@BFJJFLGB@?$CIStrnLenS?5?$CI?$CICHAR16?5?$CK?$CJFormat?0?5?$CI_@ 0000000000006db0     BasePrintLib:PrintLibInternal.obj
 0002:00001380       ??_C@_0ID@PLGJGION@?$CIAsciiStrnLenS?5?$CIFormat?0?5?$CI_gPcd_@ 0000000000006e40     BasePrintLib:PrintLibInternal.obj
 0002:00001408       ??_C@_0O@MLOLIMFM@?$DMnull?5string?$DO@ 0000000000006ec8     BasePrintLib:PrintLibInternal.obj
 0002:00001418       ??_C@_0M@BJJDNPHK@?$DMnull?5guid?$DO@ 0000000000006ed8     BasePrintLib:PrintLibInternal.obj
 0002:00001428       ??_C@_0DB@PMLHLBMO@?$CF08x?9?$CF04x?9?$CF04x?9?$CF02x?$CF02x?9?$CF02x?$CF02@ 0000000000006ee8     BasePrintLib:PrintLibInternal.obj
 0002:00001460       ??_C@_0M@LHGBCIKM@?$DMnull?5time?$DO@ 0000000000006f20     BasePrintLib:PrintLibInternal.obj
 0002:00001470       ??_C@_0BK@FCPKCIDD@?$CF02d?1?$CF02d?1?$CF04d?5?5?$CF02d?3?$CF02d@ 0000000000006f30     BasePrintLib:PrintLibInternal.obj
 0002:0000148c       ??_C@_04JIMNDDED@?$CF08X@  0000000000006f4c     BasePrintLib:PrintLibInternal.obj
 0002:00001494       ??_C@_02PCIJFNDE@?$AN?6@   0000000000006f54     BasePrintLib:PrintLibInternal.obj
 0002:00001498       ??_C@_01LIIJDEN@?$AN@      0000000000006f58     BasePrintLib:PrintLibInternal.obj
 0002:000014a0       mWarningString             0000000000006f60     BasePrintLib:PrintLibInternal.obj
 0002:00001540       mErrorString               0000000000007000     BasePrintLib:PrintLibInternal.obj
 0002:00001800       mHexStr                    00000000000072c0     BasePrintLib:PrintLibInternal.obj
 0002:00001810       ??_C@_0DO@BKKOCECE@d?3?2myedk2?2edk2?2MdeModulePkg?2Lib@ 00000000000072d0     UefiSortLib:UefiSortLib.obj
 0002:00001850       ??_C@_0DL@JEBMKBEC@d?3?2myedk2?2edk2?2MdePkg?2Library?2B@ 0000000000007310     BaseLib:DivU64x32Remainder.obj
 0002:000018e0       __volatile_metadata        00000000000073a0     <linker-defined>
 0003:00000000       gEfiLoadedImageProtocolGuid 0000000000007560     LinuxInitrdDynamicShellCommand:AutoGen.obj
 0003:00000010       gEfiGlobalVariableGuid     0000000000007570     LinuxInitrdDynamicShellCommand:AutoGen.obj
 0003:00000020       gEfiUnicodeCollation2ProtocolGuid 0000000000007580     LinuxInitrdDynamicShellCommand:AutoGen.obj
 0003:00000030       gEfiHiiPackageListProtocolGuid 0000000000007590     LinuxInitrdDynamicShellCommand:AutoGen.obj
 0003:00000040       gEfiShellDynamicCommandProtocolGuid 00000000000075a0     LinuxInitrdDynamicShellCommand:AutoGen.obj
 0003:00000050       gEfiShellEnvironment2ExtGuid 00000000000075b0     LinuxInitrdDynamicShellCommand:AutoGen.obj
 0003:00000060       gEfiFileInfoGuid           00000000000075c0     LinuxInitrdDynamicShellCommand:AutoGen.obj
 0003:00000070       gEfiDevicePathProtocolGuid 00000000000075d0     LinuxInitrdDynamicShellCommand:AutoGen.obj
 0003:00000080       gEfiHiiConfigRoutingProtocolGuid 00000000000075e0     LinuxInitrdDynamicShellCommand:AutoGen.obj
 0003:00000090       gEfiHiiImageProtocolGuid   00000000000075f0     LinuxInitrdDynamicShellCommand:AutoGen.obj
 0003:000000a0       gEfiDevicePathUtilitiesProtocolGuid 0000000000007600     LinuxInitrdDynamicShellCommand:AutoGen.obj
 0003:000000b0       gEfiShellParametersProtocolGuid 0000000000007610     LinuxInitrdDynamicShellCommand:AutoGen.obj
 0003:000000c0       gEfiHiiDatabaseProtocolGuid 0000000000007620     LinuxInitrdDynamicShellCommand:AutoGen.obj
 0003:000000d0       gEfiSimpleFileSystemProtocolGuid 0000000000007630     LinuxInitrdDynamicShellCommand:AutoGen.obj
 0003:000000e0       gEfiHiiStringProtocolGuid  0000000000007640     LinuxInitrdDynamicShellCommand:AutoGen.obj
 0003:000000f0       gEfiShellEnvironment2Guid  0000000000007650     LinuxInitrdDynamicShellCommand:AutoGen.obj
 0003:00000100       gEfiShellProtocolGuid      0000000000007660     LinuxInitrdDynamicShellCommand:AutoGen.obj
 0003:00000110       gEfiShellInterfaceGuid     0000000000007670     LinuxInitrdDynamicShellCommand:AutoGen.obj
 0003:00000120       gEfiHiiFontProtocolGuid    0000000000007680     LinuxInitrdDynamicShellCommand:AutoGen.obj
 0003:00000130       gEfiLoadFile2ProtocolGuid  0000000000007690     LinuxInitrdDynamicShellCommand:AutoGen.obj
 0003:00000160       gST                        00000000000076c0     UefiBootServicesTableLib:UefiBootServicesTableLib.obj
 0003:00000168       gBS                        00000000000076c8     UefiBootServicesTableLib:UefiBootServicesTableLib.obj
 0003:00000170       gImageHandle               00000000000076d0     UefiBootServicesTableLib:UefiBootServicesTableLib.obj
 0003:00000178       gRT                        00000000000076d8     UefiRuntimeServicesTableLib:UefiRuntimeServicesTableLib.obj
 0003:00000180       mDevicePathLibDevicePathUtilities 00000000000076e0     UefiDevicePathLibDevicePathProtocol:UefiDevicePathLib.obj
 0003:00000188       gHiiDatabase               00000000000076e8     UefiHiiServicesLib:UefiHiiServicesLib.obj
 0003:00000190       gHiiString                 00000000000076f0     UefiHiiServicesLib:UefiHiiServicesLib.obj
 0003:00000198       gHiiFont                   00000000000076f8     UefiHiiServicesLib:UefiHiiServicesLib.obj
 0003:000001a0       gHiiConfigRouting          0000000000007700     UefiHiiServicesLib:UefiHiiServicesLib.obj
 0003:000001a8       gHiiImage                  0000000000007708     UefiHiiServicesLib:UefiHiiServicesLib.obj
 0003:000001b0       gParity                    0000000000007710     PcAtSerialPortLib:SerialPortLib.obj
 0003:000001b1       gBreakSet                  0000000000007711     PcAtSerialPortLib:SerialPortLib.obj
 0003:000001e0       FileFunctionMap            0000000000007740     <common>
 0003:00000230       mEfiShellEnvironment2      0000000000007790     <common>
 0003:00000238       mEfiShellInterface         0000000000007798     <common>
 0003:00000240       mUnicodeCollationProtocol  00000000000077a0     <common>
 0003:00000248       mEfiShellEnvironment2Handle 00000000000077a8     <common>
 0003:00000250       gEfiShellParametersProtocol 00000000000077b0     <common>
 0003:00000258       gEfiShellProtocol          00000000000077b8     <common>

 entry point at        0001:00000298

 Static symbols

 0001:0000003a       InternalMemCopyMem.0       000000000000031a     BaseMemoryLibRepStr:CopyMem.obj
 0001:0000004a       @CopyBackward              000000000000032a     BaseMemoryLibRepStr:CopyMem.obj
 0001:00000053       @CopyBytes                 0000000000000333     BaseMemoryLibRepStr:CopyMem.obj
 0001:0000014e       TdVmCall.no_return_data    000000000000042e     BaseLib:TdVmcall.obj
 0001:000001cb       TdCall.exit                00000000000004ab     BaseLib:TdCall.obj
 0001:00000770       InitrdLoadFile2            0000000000000a50 f   LinuxInitrdDynamicShellCommand:LinuxInitrdDynamicShellCommand.obj
 0001:0000085c       UninstallLoadFile2Protocol 0000000000000b3c f   LinuxInitrdDynamicShellCommand:LinuxInitrdDynamicShellCommand.obj
 0001:000008c4       FreeInitrdFile             0000000000000ba4 f   LinuxInitrdDynamicShellCommand:LinuxInitrdDynamicShellCommand.obj
 0001:00000908       CacheInitrdFile            0000000000000be8 f   LinuxInitrdDynamicShellCommand:LinuxInitrdDynamicShellCommand.obj
 0001:00000aa4       RunInitrd                  0000000000000d84 f   LinuxInitrdDynamicShellCommand:LinuxInitrdDynamicShellCommand.obj
 0001:00000e34       LinuxInitrdGetHelp         0000000000001114 f   LinuxInitrdDynamicShellCommand:LinuxInitrdDynamicShellCommand.obj
 0002:00000250       mInitrdLoadFile2           0000000000005d10     LinuxInitrdDynamicShellCommand:LinuxInitrdDynamicShellCommand.obj
 0002:00000258       mInitrdDevicePath          0000000000005d18     LinuxInitrdDynamicShellCommand:LinuxInitrdDynamicShellCommand.obj
 0002:00000270       ParamList                  0000000000005d30     LinuxInitrdDynamicShellCommand:LinuxInitrdDynamicShellCommand.obj
 0003:00000140       mLinuxInitrdDynamicCommand 00000000000076a0     LinuxInitrdDynamicShellCommand:LinuxInitrdDynamicShellCommand.obj
 0003:000001b8       mUnicodeCollation          0000000000007718     UefiSortLib:UefiSortLib.obj
 0003:000001c0       mInitrdFileAddress         0000000000007720     LinuxInitrdDynamicShellCommand:LinuxInitrdDynamicShellCommand.obj
 0003:000001c8       mInitrdLoadFile2Handle     0000000000007728     LinuxInitrdDynamicShellCommand:LinuxInitrdDynamicShellCommand.obj
 0003:000001d0       mInitrdFileSize            0000000000007730     LinuxInitrdDynamicShellCommand:LinuxInitrdDynamicShellCommand.obj
 0003:000001d8       mLinuxInitrdShellCommandHiiHandle 0000000000007738     LinuxInitrdDynamicShellCommand:LinuxInitrdDynamicShellCommand.obj
 0005:00000000       $unwind$HiiGetSupportedLanguages 0000000000007b00     UefiHiiLib:HiiLanguage.obj
 0005:00000000       $unwind$StringNoCaseCompare 0000000000007b00     UefiSortLib:UefiSortLib.obj
 0005:00000000       $unwind$InsertHeadList     0000000000007b00     BaseLib:LinkedList.obj
 0005:00000000       $unwind$IsNull             0000000000007b00     BaseLib:LinkedList.obj
 0005:00000000       $unwind$StrnLenS           0000000000007b00     BaseLib:SafeString.obj
 0005:00000000       $unwind$AsciiStrLen        0000000000007b00     BaseLib:String.obj
 0005:00000000       $unwind$ZeroMem            0000000000007b00     BaseMemoryLibRepStr:ZeroMemWrapper.obj
 0005:00000000       $unwind$NextDevicePathNode 0000000000007b00     UefiDevicePathLibDevicePathProtocol:UefiDevicePathLib.obj
 0005:00000000       $unwind$_DriverUnloadHandler 0000000000007b00     UefiDriverEntryPoint:DriverEntryPoint.obj
 0005:00000000       $unwind$_ModuleEntryPoint  0000000000007b00     UefiDriverEntryPoint:DriverEntryPoint.obj
 0005:00000000       $unwind$InternalAllocateCopyPool 0000000000007b00     UefiMemoryAllocationLib:MemoryAllocationLib.obj
 0005:00000000       $unwind$InitrdLoadFile2    0000000000007b00     LinuxInitrdDynamicShellCommand:LinuxInitrdDynamicShellCommand.obj
 0005:00000000       $unwind$ShellLibDestructor 0000000000007b00     UefiShellLib:UefiShellLib.obj
 0005:0000000c       $unwind$ProcessLibraryConstructorList 0000000000007b0c     LinuxInitrdDynamicShellCommand:AutoGen.obj
 0005:00000020       $unwind$FreePool           0000000000007b20     UefiMemoryAllocationLib:MemoryAllocationLib.obj
 0005:00000020       $unwind$InternalAllocatePool 0000000000007b20     UefiMemoryAllocationLib:MemoryAllocationLib.obj
 0005:00000020       $unwind$ProcessLibraryDestructorList 0000000000007b20     LinuxInitrdDynamicShellCommand:AutoGen.obj
 0005:00000020       $unwind$FreeInitrdFile     0000000000007b20     LinuxInitrdDynamicShellCommand:LinuxInitrdDynamicShellCommand.obj
 0005:00000028       $unwind$ProcessModuleEntryPointList 0000000000007b28     LinuxInitrdDynamicShellCommand:AutoGen.obj
 0005:00000030       $unwind$UninstallLoadFile2Protocol 0000000000007b30     LinuxInitrdDynamicShellCommand:LinuxInitrdDynamicShellCommand.obj
 0005:00000038       $unwind$CacheInitrdFile    0000000000007b38     LinuxInitrdDynamicShellCommand:LinuxInitrdDynamicShellCommand.obj
 0005:00000038       $unwind$ShellLibConstructorWorker 0000000000007b38     UefiShellLib:UefiShellLib.obj
 0005:00000044       $unwind$RunInitrd          0000000000007b44     LinuxInitrdDynamicShellCommand:LinuxInitrdDynamicShellCommand.obj
 0005:00000054       $unwind$DebugPrint         0000000000007b54     BaseDebugLibSerialPort:DebugLib.obj
 0005:0000005c       $unwind$DebugPrintMarker   0000000000007b5c     BaseDebugLibSerialPort:DebugLib.obj
 0005:00000070       $unwind$DebugAssert        0000000000007b70     BaseDebugLibSerialPort:DebugLib.obj
 0005:00000078       $unwind$GetFirstNode       0000000000007b78     BaseLib:LinkedList.obj
 0005:00000078       $unwind$GetNextNode        0000000000007b78     BaseLib:LinkedList.obj
 0005:00000078       $unwind$InitializeListHead 0000000000007b78     BaseLib:LinkedList.obj
 0005:00000078       $unwind$InternalBaseLibIsListValid 0000000000007b78     BaseLib:LinkedList.obj
 0005:00000078       $unwind$IsListEmpty        0000000000007b78     BaseLib:LinkedList.obj
 0005:00000078       $unwind$RemoveEntryList    0000000000007b78     BaseLib:LinkedList.obj
 0005:00000078       $unwind$FileHandleGetSize  0000000000007b78     UefiFileHandleLib:UefiFileHandleLib.obj
 0005:00000078       $unwind$FileHandleIsDirectory 0000000000007b78     UefiFileHandleLib:UefiFileHandleLib.obj
 0005:00000078       $unwind$AllocateZeroPool   0000000000007b78     UefiMemoryAllocationLib:MemoryAllocationLib.obj
 0005:00000078       $unwind$InternalPrintTo    0000000000007b78     UefiShellLib:UefiShellLib.obj
 0005:00000080       $unwind$StrnCmp            0000000000007b80     BaseLib:String.obj
 0005:00000080       $unwind$CopyMem            0000000000007b80     BaseMemoryLibRepStr:CopyMemWrapper.obj
 0005:00000080       $unwind$CompareGuid        0000000000007b80     BaseMemoryLibRepStr:MemLibGuid.obj
 0005:00000080       $unwind$InternalReallocatePool 0000000000007b80     UefiMemoryAllocationLib:MemoryAllocationLib.obj
 0005:00000094       $unwind$PathCleanUpDirectories 0000000000007b94     BaseLib:FilePaths.obj
 0005:00000094       $unwind$IsDevicePathValid  0000000000007b94     UefiDevicePathLibDevicePathProtocol:UefiDevicePathLib.obj
 0005:00000094       $unwind$StrnCatGrow        0000000000007b94     UefiShellLib:UefiShellLib.obj
 0005:000000ac       $unwind$GetBestLanguage    0000000000007bac     UefiLib:UefiLib.obj
 0005:000000c0       $unwind$EfiOpenFileByDevicePath 0000000000007bc0     UefiLib:UefiLib.obj
 0005:000000dc       $unwind$HiiGetStringEx     0000000000007bdc     UefiHiiLib:HiiString.obj
 0005:000000f8       $unwind$ShellFindSE2       0000000000007bf8     UefiShellLib:UefiShellLib.obj
 0005:0000010c       $unwind$ShellOpenFileByName 0000000000007c0c     UefiShellLib:UefiShellLib.obj
 0005:00000124       $unwind$ShellFindFilePath  0000000000007c24     UefiShellLib:UefiShellLib.obj
 0005:0000013c       $unwind$InternalIsOnCheckList 0000000000007c3c     UefiShellLib:UefiShellLib.obj
 0005:0000014c       $unwind$InternalCommandLineParse 0000000000007c4c     UefiShellLib:UefiShellLib.obj
 0005:00000164       $unwind$ShellCommandLineGetFlag 0000000000007c64     UefiShellLib:UefiShellLib.obj
 0005:00000178       $unwind$AsciiStrnCmp       0000000000007c78     BaseLib:String.obj
 0005:00000178       $unwind$StrCmp             0000000000007c78     BaseLib:String.obj
 0005:00000178       $unwind$StrLen             0000000000007c78     BaseLib:String.obj
 0005:00000178       $unwind$StrStr             0000000000007c78     BaseLib:String.obj
 0005:00000178       $unwind$BasePrintLibValueToString 0000000000007c78     BasePrintLib:PrintLibInternal.obj
 0005:00000178       $unwind$ShellCommandLineGetCount 0000000000007c78     UefiShellLib:UefiShellLib.obj
 0005:00000188       $unwind$ShellCopySearchAndReplace 0000000000007c88     UefiShellLib:UefiShellLib.obj
 0005:000001a4       $unwind$StrnCatS           0000000000007ca4     BaseLib:SafeString.obj
 0005:000001a4       $unwind$InternalShellPrintWorker 0000000000007ca4     UefiShellLib:UefiShellLib.obj
 0005:000001c0       $unwind$ShellPrintHiiEx    0000000000007cc0     UefiShellLib:UefiShellLib.obj
 0005:000001d0       $unwind$StrCpyS            0000000000007cd0     BaseLib:SafeString.obj
 0005:000001e8       $unwind$StrCatS            0000000000007ce8     BaseLib:SafeString.obj
 0005:00000204       $unwind$UnicodeVSPrint     0000000000007d04     BasePrintLib:PrintLib.obj
 0005:00000218       $unwind$AsciiSPrint        0000000000007d18     BasePrintLib:PrintLib.obj
 0005:00000220       $unwind$BasePrintLibSPrintMarker 0000000000007d20     BasePrintLib:PrintLibInternal.obj
 0005:0000023c       $unwind$BasePrintLibSPrint 0000000000007d3c     BasePrintLib:PrintLibInternal.obj
 0005:00000244       $unwind$FileHandleGetInfo  0000000000007d44     UefiFileHandleLib:UefiFileHandleLib.obj
 0006:00000060       $R000000                   0000000000007dc0     LinuxInitrdDynamicShellCommandhii.lib
