 CpuMpPei

 Timestamp is 62c3c25b (Tue Jul  5 12:47:23 2022)

 Preferred load address is 0000000000000000

 Start         Length     Name                   Class
 0001:00000000 00001dc4H .text                   CODE
 0001:00001dc4 00006491H .text$mn                CODE
 0002:00000000 0000201cH .rdata                  DATA
 0002:0000201c 00000080H .rdata$voltmd           DATA
 0002:0000209c 00000150H .rdata$zzzdbg           DATA
 0003:00000000 00000240H .data                   DATA
 0003:00000240 00000002H .bss                    DATA
 0004:00000000 00000468H .pdata                  DATA
 0005:00000000 000002d4H .xdata                  DATA

  Address         Publics by Value              Rva+Base               Lib:Object

 0000:00000000       __x64_code_ranges_to_entry_points_count 0000000000000000     <absolute>
 0000:00000000       __guard_iat_table          0000000000000000     <absolute>
 0000:00000000       __guard_longjmp_table      0000000000000000     <absolute>
 0000:00000000       __guard_iat_count          0000000000000000     <absolute>
 0000:00000000       __x64_code_ranges_to_entry_points 0000000000000000     <absolute>
 0000:00000000       __guard_longjmp_count      0000000000000000     <absolute>
 0000:00000000       __dynamic_value_reloc_table 0000000000000000     <absolute>
 0000:00000000       __hybrid_auxiliary_iat     0000000000000000     <absolute>
 0000:00000000       __guard_fids_count         0000000000000000     <absolute>
 0000:00000000       __hybrid_auxiliary_iat_copy 0000000000000000     <absolute>
 0000:00000000       __arm64x_redirection_metadata 0000000000000000     <absolute>
 0000:00000000       __arm64x_extra_rfe_table   0000000000000000     <absolute>
 0000:00000000       __AbsoluteZero             0000000000000000     <absolute>
 0000:00000000       __hybrid_code_map          0000000000000000     <absolute>
 0000:00000000       __arm64x_extra_rfe_table_size 0000000000000000     <absolute>
 0000:00000000       __guard_check_icall_a64n_fptr 0000000000000000     <absolute>
 0000:00000000       __guard_fids_table         0000000000000000     <absolute>
 0000:00000000       __guard_flags              0000000000000000     <absolute>
 0000:00000000       __guard_eh_cont_count      0000000000000000     <absolute>
 0000:00000000       __arm64x_redirection_metadata_count 0000000000000000     <absolute>
 0000:00000000       __enclave_config           0000000000000000     <absolute>
 0000:00000000       __hybrid_code_map_count    0000000000000000     <absolute>
 0000:00000000       __guard_eh_cont_table      0000000000000000     <absolute>
 0000:00000000       __arm64x_native_entrypoint 0000000000000000     <absolute>
 0000:00000000       __ImageBase                0000000000000000     <linker-defined>
 0001:00000000       CpuFlushTlb                00000000000002c0     BaseCpuLib:CpuFlushTlb.obj
 0001:00000010       InternalMemCopyMem         00000000000002d0     BaseMemoryLibRepStr:CopyMem.obj
 0001:00000050       InternalMemZeroMem         0000000000000310     BaseMemoryLibRepStr:ZeroMem.obj
 0001:00000070       AsmReadCr0                 0000000000000330     BaseLib:ReadCr0.obj
 0001:00000080       AsmReadCr3                 0000000000000340     BaseLib:ReadCr3.obj
 0001:00000090       AsmWriteCr0                0000000000000350     BaseLib:WriteCr0.obj
 0001:000000a0       AsmCpuid                   0000000000000360     BaseLib:CpuId.obj
 0001:000000d0       AsmWriteCr4                0000000000000390     BaseLib:WriteCr4.obj
 0001:000000e0       AsmWriteCr3                00000000000003a0     BaseLib:WriteCr3.obj
 0001:000000f0       AsmReadCr4                 00000000000003b0     BaseLib:ReadCr4.obj
 0001:00000100       AsmCpuidEx                 00000000000003c0     BaseLib:CpuIdEx.obj
 0001:00000130       TdVmCall                   00000000000003f0     BaseLib:TdVmcall.obj
 0001:000001c0       InternalX86ReadGdtr        0000000000000480     BaseLib:ReadGdtr.obj
 0001:000001d0       InternalX86ReadIdtr        0000000000000490     BaseLib:ReadIdtr.obj
 0001:000001e0       EnableInterrupts           00000000000004a0     BaseLib:EnableInterrupts.obj
 0001:000001f0       DisableInterrupts          00000000000004b0     BaseLib:DisableInterrupts.obj
 0001:00000200       AsmReadEflags              00000000000004c0     BaseLib:ReadEflags.obj
 0001:00001141       CommonInterruptEntry       0000000000001401     PeiCpuExceptionHandlerLib:Xcode5ExceptionHandlerAsm.obj
 0001:00001377       AsmGetTemplateAddressMap   0000000000001637     PeiCpuExceptionHandlerLib:Xcode5ExceptionHandlerAsm.obj
 0001:00001bb5       AsmVectorNumFixup          0000000000001e75     PeiCpuExceptionHandlerLib:Xcode5ExceptionHandlerAsm.obj
 0001:00001bc0       TdVmCallCpuid              0000000000001e80     VmgExitLib:TdVmcallCpuid.obj
 0001:00001c50       InternalMemSetMem          0000000000001f10     BaseMemoryLibRepStr:SetMem.obj
 0001:00001c70       InternalMemSetMem64        0000000000001f30     BaseMemoryLibRepStr:SetMem64.obj
 0001:00001c90       InternalMemSetMem32        0000000000001f50     BaseMemoryLibRepStr:SetMem32.obj
 0001:00001cb0       CpuPause                   0000000000001f70     BaseLib:CpuPause.obj
 0001:00001cc0       AsmWriteTr                 0000000000001f80     BaseLib:WriteTr.obj
 0001:00001cd0       AsmReadCs                  0000000000001f90     BaseLib:ReadCs.obj
 0001:00001ce0       TdCall                     0000000000001fa0     BaseLib:TdCall.obj
 0001:00001d40       AsmXGetBv                  0000000000002000     BaseLib:XGetBv.obj
 0001:00001d50       AsmVmgExit                 0000000000002010     BaseLib:VmgExit.obj
 0001:00001d60       InternalX86WriteGdtr       0000000000002020     BaseLib:WriteGdtr.obj
 0001:00001d70       InternalX86WriteIdtr       0000000000002030     BaseLib:WriteIdtr.obj
 0001:00001d80       AsmPvalidate               0000000000002040     BaseLib:Pvalidate.obj
 0001:00001da0       AsmWbinvd                  0000000000002060     BaseLib:Wbinvd.obj
 0001:00001db0       AsmFlushCacheLine          0000000000002070     BaseLib:FlushCacheLine.obj
 0001:00001dc0       AsmInvd                    0000000000002080     BaseLib:Invd.obj
 0001:00001dc4       _ModuleEntryPoint          0000000000002084 f   PeimEntryPoint:PeimEntryPoint.obj
 0001:00001f74       PeiGetNumberOfProcessors   0000000000002234 f   CpuMpPei:CpuMpPei.obj
 0001:00001f98       PeiGetProcessorInfo        0000000000002258 f   CpuMpPei:CpuMpPei.obj
 0001:00001fcc       EdkiiPeiStartupAllAPs      000000000000228c f   CpuMpPei:CpuMp2Pei.obj
 0001:00001fcc       PeiStartupAllAPs           000000000000228c f   CpuMpPei:CpuMpPei.obj
 0001:00001fd8       PeiStartupThisAP           0000000000002298 f   CpuMpPei:CpuMpPei.obj
 0001:00001fd8       EdkiiPeiStartupThisAP      0000000000002298 f   CpuMpPei:CpuMp2Pei.obj
 0001:00001fe4       EdkiiPeiEnableDisableAP    00000000000022a4 f   CpuMpPei:CpuMp2Pei.obj
 0001:00001fe4       EdkiiPeiSwitchBSP          00000000000022a4 f   CpuMpPei:CpuMp2Pei.obj
 0001:00001fe4       PeiSwitchBSP               00000000000022a4 f   CpuMpPei:CpuMpPei.obj
 0001:00001fe4       PeiEnableDisableAP         00000000000022a4 f   CpuMpPei:CpuMpPei.obj
 0001:00001ff0       PeiWhoAmI                  00000000000022b0 f   CpuMpPei:CpuMpPei.obj
 0001:00002008       SecPlatformInformation2    00000000000022c8 f   CpuMpPei:CpuBist.obj
 0001:00002070       GetBistInfoFromPpi         0000000000002330 f   CpuMpPei:CpuBist.obj
 0001:0000213c       CollectBistDataFromPpi     00000000000023fc f   CpuMpPei:CpuBist.obj
 0001:000023b8       GetPageTableEntry          0000000000002678 f   CpuMpPei:CpuPaging.obj
 0001:00002494       SplitPage                  0000000000002754 f   CpuMpPei:CpuPaging.obj
 0001:0000264c       ConvertMemoryPageAttributes 000000000000290c f   CpuMpPei:CpuPaging.obj
 0001:00002768       CreatePageTable            0000000000002a28 f   CpuMpPei:CpuPaging.obj
 0001:00002958       MemoryDiscoveredPpiNotifyCallback 0000000000002c18 f   CpuMpPei:CpuPaging.obj
 0001:00002b84       EdkiiPeiGetNumberOfProcessors 0000000000002e44 f   CpuMpPei:CpuMp2Pei.obj
 0001:00002ba8       EdkiiPeiGetProcessorInfo   0000000000002e68 f   CpuMpPei:CpuMp2Pei.obj
 0001:00002bdc       EdkiiPeiWhoAmI             0000000000002e9c f   CpuMpPei:CpuMp2Pei.obj
 0001:00002bf4       EdkiiPeiStartupAllCPUs     0000000000002eb4 f   CpuMpPei:CpuMp2Pei.obj
 0001:00002c1c       GetPcdPpiPointer           0000000000002edc f   PeiPcdLib:PeiPcdLib.obj
 0001:00002c70       InternalAllocatePages      0000000000002f30 f   PeiMemoryAllocationLib:MemoryAllocationLib.obj
 0001:00002cb0       AllocatePool               0000000000002f70 f   PeiMemoryAllocationLib:MemoryAllocationLib.obj
 0001:00002cec       CopyMem                    0000000000002fac f   BaseMemoryLibRepStr:CopyMemWrapper.obj
 0001:00002d88       ZeroMem                    0000000000003048 f   BaseMemoryLibRepStr:ZeroMemWrapper.obj
 0001:00002df8       CopyGuid                   00000000000030b8 f   BaseMemoryLibRepStr:MemLibGuid.obj
 0001:00002e70       CompareGuid                0000000000003130 f   BaseMemoryLibRepStr:MemLibGuid.obj
 0001:00002f34       PeiServicesLocatePpi       00000000000031f4 f   PeiServicesLib:PeiServicesLib.obj
 0001:00002f7c       AccessMsrTdxCall           000000000000323c f   BaseXApicX2ApicLib:BaseXApicX2ApicLib.obj
 0001:00003098       LocalApicReadMsrReg64      0000000000003358 f   BaseXApicX2ApicLib:BaseXApicX2ApicLib.obj
 0001:00003104       LocalApicWriteMsrReg64     00000000000033c4 f   BaseXApicX2ApicLib:BaseXApicX2ApicLib.obj
 0001:00003178       LocalApicBaseAddressMsrSupported 0000000000003438 f   BaseXApicX2ApicLib:BaseXApicX2ApicLib.obj
 0001:000031b4       GetLocalApicBaseAddress    0000000000003474 f   BaseXApicX2ApicLib:BaseXApicX2ApicLib.obj
 0001:000031f0       ReadLocalApicReg           00000000000034b0 f   BaseXApicX2ApicLib:BaseXApicX2ApicLib.obj
 0001:00003248       WriteLocalApicReg          0000000000003508 f   BaseXApicX2ApicLib:BaseXApicX2ApicLib.obj
 0001:000032b0       GetApicMode                0000000000003570 f   BaseXApicX2ApicLib:BaseXApicX2ApicLib.obj
 0001:00003300       GetInitialApicId           00000000000035c0 f   BaseXApicX2ApicLib:BaseXApicX2ApicLib.obj
 0001:0000338c       GetApicId                  000000000000364c f   BaseXApicX2ApicLib:BaseXApicX2ApicLib.obj
 0001:000033c8       GetHobList                 0000000000003688 f   PeiHobLib:HobLib.obj
 0001:0000343c       GetNextHob                 00000000000036fc f   PeiHobLib:HobLib.obj
 0001:00003494       GetFirstGuidHob            0000000000003754 f   PeiHobLib:HobLib.obj
 0001:000034e4       InternalPeiCreateHob       00000000000037a4 f   PeiHobLib:HobLib.obj
 0001:00003548       RShiftU64                  0000000000003808 f   BaseLib:RShiftU64.obj
 0001:0000358c       SaveAndDisableInterrupts   000000000000384c f   BaseLib:Cpu.obj
 0001:000035b0       DebugPrint                 0000000000003870 f   BaseDebugLibSerialPort:DebugLib.obj
 0001:000035d4       DebugPrintMarker           0000000000003894 f   BaseDebugLibSerialPort:DebugLib.obj
 0001:00003684       DebugAssert                0000000000003944 f   BaseDebugLibSerialPort:DebugLib.obj
 0001:000036fc       InternalReportStatusCode   00000000000039bc f   PeiReportStatusCodeLib:ReportStatusCodeLib.obj
 0001:0000374c       CommonExceptionHandler     0000000000003a0c f   PeiCpuExceptionHandlerLib:PeiCpuException.obj
 0001:000037a0       InitializeCpuExceptionHandlers 0000000000003a60 f   PeiCpuExceptionHandlerLib:PeiCpuException.obj
 0001:00003980       DumpCpuContext             0000000000003c40 f   PeiCpuExceptionHandlerLib:ArchExceptionHandler.obj
 0001:00003c64       CommonExceptionHandlerWorker 0000000000003f24 f   PeiCpuExceptionHandlerLib:PeiDxeSmmCpuException.obj
 0001:00003f20       UpdateIdtTable             00000000000041e0 f   PeiCpuExceptionHandlerLib:PeiDxeSmmCpuException.obj
 0001:00004040       InternalPrintMessage       0000000000004300 f   PeiCpuExceptionHandlerLib:CpuExceptionCommon.obj
 0001:000040c0       DumpModuleImageInfo        0000000000004380 f   PeiCpuExceptionHandlerLib:CpuExceptionCommon.obj
 0001:000041f4       MpInitLibGetProcessorInfo  00000000000044b4 f   MpInitLibUp:MpInitLibUp.obj
 0001:00004270       GetPeiServicesTablePointer 0000000000004530 f   PeiServicesTablePointerLibIdt:PeiServicesTablePointer.obj
 0001:000042b0       MmioRead32                 0000000000004570 f   BaseIoLibIntrinsicSev:IoLib.obj
 0001:000042e0       MmioWrite32                00000000000045a0 f   BaseIoLibIntrinsicSev:IoLib.obj
 0001:0000431c       IoRead32                   00000000000045dc f   BaseIoLibIntrinsicSev:IoLibMsc.obj
 0001:00004350       IoWrite32                  0000000000004610 f   BaseIoLibIntrinsicSev:IoLibMsc.obj
 0001:000049cc       VmTdExitHandleVe           0000000000004c8c f   VmgExitLib:VmTdExitVeHandler.obj
 0001:00004cd8       VmgExitHandleVc            0000000000004f98 f   VmgExitLib:PeiDxeVmgExitVcHandler.obj
 0001:000065e8       InternalVmgExitHandleVc    00000000000068a8 f   VmgExitLib:VmgExitVcHandler.obj
 0001:00006898       VmgExit                    0000000000006b58 f   VmgExitLib:VmgExitLib.obj
 0001:00006984       SetMem                     0000000000006c44 f   BaseMemoryLibRepStr:SetMemWrapper.obj
 0001:000069e8       AsciiStrLen                0000000000006ca8 f   BaseLib:String.obj
 0001:00006a54       DivU64x32Remainder         0000000000006d14 f   BaseLib:DivU64x32Remainder.obj
 0001:00006ab4       StrnLenS                   0000000000006d74 f   BaseLib:SafeString.obj
 0001:00006b0c       AsciiSPrint                0000000000006dcc f   BasePrintLib:PrintLib.obj
 0001:00006b38       BasePrintLibFillBuffer     0000000000006df8 f   BasePrintLib:PrintLibInternal.obj
 0001:00006b6c       BasePrintLibValueToString  0000000000006e2c f   BasePrintLib:PrintLibInternal.obj
 0001:00006bbc       BasePrintLibSPrintMarker   0000000000006e7c f   BasePrintLib:PrintLibInternal.obj
 0001:00007ac8       BasePrintLibSPrint         0000000000007d88 f   BasePrintLib:PrintLibInternal.obj
 0001:00007aec       PciOr8                     0000000000007dac f   BasePciLibCf8:PciLib.obj
 0001:00007bbc       PciAndThenOr32             0000000000007e7c f   BasePciLibCf8:PciLib.obj
 0001:00007c88       AcquireSpinLockOrFail      0000000000007f48 f   BaseSynchronizationLib:SynchronizationMsc.obj
 0001:00007d08       ReleaseSpinLock            0000000000007fc8 f   BaseSynchronizationLib:SynchronizationMsc.obj
 0001:00007d78       PeCoffLoaderGetPdbPointer  0000000000008038 f   BasePeCoffGetEntryPointLib:PeCoffGetEntryPoint.obj
 0001:00007ec4       InternalMemEncryptSevGetAddressRangeState 0000000000008184 f   PeiMemEncryptSevLib:VirtualMemory.obj
 0001:00008084       PciCf8Read8                0000000000008344 f   BasePciCf8Lib:PciCf8Lib.obj
 0001:00008138       PciCf8Read16               00000000000083f8 f   BasePciCf8Lib:PciCf8Lib.obj
 0001:000081ac       PciCf8Read32               000000000000846c f   BasePciCf8Lib:PciCf8Lib.obj
 0002:00000000       ??_C@_08JHNDJFHF@CpuMpPei@ 0000000000008520     CpuMpPei:AutoGen.obj
 0002:00000010       ??_C@_0CE@IBFOBMLB@?6ASSERT_RETURN_ERROR?5?$CIStatus?5?$DN?5@ 0000000000008530     CpuMpPei:AutoGen.obj
 0002:00000038       ??_C@_0CH@BBNBJKHK@?$CB?$CI?$CI?$CIINTN?$CJ?$CIRETURN_STATUS?$CJ?$CIStatus@ 0000000000008558     CpuMpPei:AutoGen.obj
 0002:00000060       ??_C@_0HH@CFEJFLN@d?3?2myedk2?2edk2?2Build?2OvmfX64?2DE@ 0000000000008580     CpuMpPei:AutoGen.obj
 0002:000000d8       ??_C@_0CB@DMEJJJHA@?6ASSERT_EFI_ERROR?5?$CIStatus?5?$DN?5?$CFr?$CJ@ 00000000000085f8     CpuMpPei:CpuMpPei.obj
 0002:00000100       ??_C@_0CO@BAOACCO@d?3?2myedk2?2edk2?2UefiCpuPkg?2CpuMp@ 0000000000008620     CpuMpPei:CpuMpPei.obj
 0002:00000130       ??_C@_0CN@INJPPEDK@d?3?2myedk2?2edk2?2UefiCpuPkg?2CpuMp@ 0000000000008650     CpuMpPei:CpuBist.obj
 0002:00000160       ??_C@_0DJ@FLPEMKJJ@Does?5not?5find?5any?5stored?5CPU?5BI@ 0000000000008680     CpuMpPei:CpuBist.obj
 0002:000001a0       ??_C@_0BM@FIKPGIKI@CpuInstance?5?$CB?$DN?5?$CI?$CIvoid?5?$CK?$CJ?50?$CJ@ 00000000000086c0     CpuMpPei:CpuBist.obj
 0002:000001c0       ??_C@_0CC@FICFPHPB@?5?5APICID?5?9?50x?$CF08x?0?5BIST?5?9?50x?$CF08@ 00000000000086e0     CpuMpPei:CpuBist.obj
 0002:000001e8       ??_C@_0BL@NDENMKIP@SplitAttribute?5?$CB?$DN?5PageNone@ 0000000000008708     CpuMpPei:CpuPaging.obj
 0002:00000208       ??_C@_0CP@EJOBCBKJ@d?3?2myedk2?2edk2?2UefiCpuPkg?2CpuMp@ 0000000000008728     CpuMpPei:CpuPaging.obj
 0002:00000238       ??_C@_0BP@FMHKNECA@SplitAttribute?5?$DM?5PageAttribute@ 0000000000008758     CpuMpPei:CpuPaging.obj
 0002:00000258       ??_C@_0BN@CBMEEMOI@NewPageEntry?5?$CB?$DN?5?$CI?$CIvoid?5?$CK?$CJ?50?$CJ@ 0000000000008778     CpuMpPei:CpuPaging.obj
 0002:00000278       ??_C@_0L@PLNFFABB@Length?5?$DO?50@ 0000000000008798     CpuMpPei:CpuPaging.obj
 0002:00000288       ??_C@_0CG@KGPKJGDO@?$CIBaseAddress?5?$CG?5?$CI0x00001000?5?9?51?$CJ@ 00000000000087a8     CpuMpPei:CpuPaging.obj
 0002:000002b0       ??_C@_0CB@MBAHOLOC@?$CILength?5?$CG?5?$CI0x00001000?5?9?51?$CJ?$CJ?5?$DN?$DN?5@ 00000000000087d0     CpuMpPei:CpuPaging.obj
 0002:000002d8       ??_C@_0P@LAEMFMPK@PageTable?5?$CB?$DN?50@ 00000000000087f8     CpuMpPei:CpuPaging.obj
 0002:000002e8       ??_C@_0BC@FEDIJHFF@?$CI?$CIBOOLEAN?$CJ?$CI0?$DN?$DN1?$CJ?$CJ@ 0000000000008808     CpuMpPei:CpuPaging.obj
 0002:00000300       ??_C@_0DE@DEELMMNP@d?3?2myedk2?2edk2?2MdePkg?2Library?2P@ 0000000000008820     PeiPcdLib:PeiPcdLib.obj
 0002:00000338       ??_C@_0BH@IACGKAP@Buffer?5?$CB?$DN?5?$CI?$CIvoid?5?$CK?$CJ?50?$CJ@ 0000000000008858     PeiPcdLib:PeiPcdLib.obj
 0002:00000350       ??_C@_0ED@MKGCMJG@?$CILength?5?9?51?$CJ?5?$DM?$DN?5?$CI0xFFFFFFFFFFFF@ 0000000000008870     BaseMemoryLibRepStr:CopyMemWrapper.obj
 0002:000003a0       ??_C@_0ED@JAIIHABO@d?3?2myedk2?2edk2?2MdePkg?2Library?2B@ 00000000000088c0     BaseMemoryLibRepStr:CopyMemWrapper.obj
 0002:000003e8       ??_C@_0DO@MAOBOFEG@?$CILength?5?9?51?$CJ?5?$DM?$DN?5?$CI0xFFFFFFFFFFFF@ 0000000000008908     BaseMemoryLibRepStr:CopyMemWrapper.obj
 0002:00000430       ??_C@_0ED@CECKBBNJ@d?3?2myedk2?2edk2?2MdePkg?2Library?2B@ 0000000000008950     BaseMemoryLibRepStr:ZeroMemWrapper.obj
 0002:00000478       ??_C@_0DG@EEENIGGL@Length?5?$DM?$DN?5?$CI0xFFFFFFFFFFFFFFFFUL@ 0000000000008998     BaseMemoryLibRepStr:ZeroMemWrapper.obj
 0002:000004b0       ??_C@_0EK@BLOCLGHE@d?3?2myedk2?2edk2?2UefiCpuPkg?2Libra@ 00000000000089d0     BaseXApicX2ApicLib:BaseXApicX2ApicLib.obj
 0002:00000500       ??_C@_0BI@IFINGPEJ@?$CIMmioOffset?5?$CG?50xf?$CJ?5?$DN?$DN?50@ 0000000000008a20     BaseXApicX2ApicLib:BaseXApicX2ApicLib.obj
 0002:00000518       ??_C@_0BJ@MBLFAKBO@ApicBaseMsr?4Bits?4EN?5?$CB?$DN?50@ 0000000000008a38     BaseXApicX2ApicLib:BaseXApicX2ApicLib.obj
 0002:00000538       ??_C@_0DB@DOIAOAFA@d?3?2myedk2?2edk2?2MdePkg?2Library?2P@ 0000000000008a58     PeiHobLib:HobLib.obj
 0002:00000570       ??_C@_0BI@NCGMODPG@HobList?5?$CB?$DN?5?$CI?$CIvoid?5?$CK?$CJ?50?$CJ@ 0000000000008a90     PeiHobLib:HobLib.obj
 0002:00000588       ??_C@_0BJ@NOLLDKJB@HobStart?5?$CB?$DN?5?$CI?$CIvoid?5?$CK?$CJ?50?$CJ@ 0000000000008aa8     PeiHobLib:HobLib.obj
 0002:000005a8       ??_C@_0BE@PICCCCHF@Hob?5?$CB?$DN?5?$CI?$CIvoid?5?$CK?$CJ?50?$CJ@ 0000000000008ac8     PeiHobLib:HobLib.obj
 0002:000005c0       ??_C@_0CI@HNHCKIFE@Data?5?$CB?$DN?5?$CI?$CIvoid?5?$CK?$CJ?50?$CJ?5?$HM?$HM?5DataLen@ 0000000000008ae0     PeiHobLib:HobLib.obj
 0002:000005e8       ??_C@_0L@MEMPDLHB@Count?5?$DM?564@ 0000000000008b08     BaseLib:RShiftU64.obj
 0002:000005f8       ??_C@_0DC@EHOJHBLD@d?3?2myedk2?2edk2?2MdePkg?2Library?2B@ 0000000000008b18     BaseLib:RShiftU64.obj
 0002:00000630       ??_C@_0DC@DDBICJIK@d?3?2myedk2?2edk2?2MdePkg?2Library?2B@ 0000000000008b50     BaseLib:Unaligned.obj
 0002:00000668       ??_C@_0BH@LKMBFCBF@Format?5?$CB?$DN?5?$CI?$CIvoid?5?$CK?$CJ?50?$CJ@ 0000000000008b88     BaseDebugLibSerialPort:DebugLib.obj
 0002:00000680       ??_C@_0EA@MCEJFCHO@d?3?2myedk2?2edk2?2MdePkg?2Library?2B@ 0000000000008ba0     BaseDebugLibSerialPort:DebugLib.obj
 0002:000006c0       ??_C@_0BI@NOCKJDBJ@ASSERT?5?$FL?$CFa?$FN?5?$CFa?$CI?$CFd?$CJ?3?5?$CFa?6@ 0000000000008be0     BaseDebugLibSerialPort:DebugLib.obj
 0002:000006d8       ??_C@_0BI@HAGPDMHJ@AcpiTimerLibConstructor@ 0000000000008bf8     BaseAcpiTimerLib:BaseAcpiTimerLib.obj
 0002:000006f0       ??_C@_0CL@DGCOIACG@?$CFa?3?5Unknown?5Host?5Bridge?5Device?5@ 0000000000008c10     BaseAcpiTimerLib:BaseAcpiTimerLib.obj
 0002:00000720       ??_C@_0DP@HDPOIJEO@d?3?2myedk2?2edk2?2OvmfPkg?2Library?2@ 0000000000008c40     BaseAcpiTimerLib:BaseAcpiTimerLib.obj
 0002:00000760       ??_C@_0CF@FIKGGICH@Exception0StubHeader?5?$CB?$DN?5?$CI?$CIvoid?5@ 0000000000008c80     PeiCpuExceptionHandlerLib:PeiCpuException.obj
 0002:00000790       ??_C@_0EL@DDIDIBMD@d?3?2myedk2?2edk2?2UefiCpuPkg?2Libra@ 0000000000008cb0     PeiCpuExceptionHandlerLib:PeiCpuException.obj
 0002:000007e0       ??_C@_0CA@DJBILFHO@ReservedVectors?5?$CB?$DN?5?$CI?$CIvoid?5?$CK?$CJ?50?$CJ@ 0000000000008d00     PeiCpuExceptionHandlerLib:PeiCpuException.obj
 0002:00000800       ??_C@_0CF@DLDHKCJF@ExceptionHandlerData?5?$CB?$DN?5?$CI?$CIvoid?5@ 0000000000008d20     PeiCpuExceptionHandlerLib:PeiCpuException.obj
 0002:00000828       mDoFarReturnFlag           0000000000008d48     PeiCpuExceptionHandlerLib:PeiCpuException.obj
 0002:00000830       ??_C@_0DN@OILJOCCP@?$CB?$CB?$CB?$CB?5X64?5Exception?5Type?5?9?5?$CF02x?$CI@ 0000000000008d50     PeiCpuExceptionHandlerLib:ArchExceptionHandler.obj
 0002:00000870       ??_C@_0BH@GDPLHCJG@ExceptionData?5?9?5?$CF016lx@ 0000000000008d90     PeiCpuExceptionHandlerLib:ArchExceptionHandler.obj
 0002:00000888       ??_C@_0CO@BBEHDOI@?5?5I?3?$CFx?5R?3?$CFx?5U?3?$CFx?5W?3?$CFx?5P?3?$CFx?5PK?3?$CF@ 0000000000008da8     PeiCpuExceptionHandlerLib:ArchExceptionHandler.obj
 0002:000008b8       ??_C@_01EEMJAFIK@?6@       0000000000008dd8     PeiCpuExceptionHandlerLib:ArchExceptionHandler.obj
 0002:000008c0       ??_C@_0CO@OABPHBNC@RIP?5?5?9?5?$CF016lx?0?5CS?5?5?9?5?$CF016lx?0?5RF@ 0000000000008de0     PeiCpuExceptionHandlerLib:ArchExceptionHandler.obj
 0002:000008f0       ??_C@_0CL@EBCIBAPN@RAX?5?5?9?5?$CF016lx?0?5RCX?5?9?5?$CF016lx?0?5RD@ 0000000000008e10     PeiCpuExceptionHandlerLib:ArchExceptionHandler.obj
 0002:00000920       ??_C@_0CL@NEKHLEEE@RBX?5?5?9?5?$CF016lx?0?5RSP?5?9?5?$CF016lx?0?5RB@ 0000000000008e40     PeiCpuExceptionHandlerLib:ArchExceptionHandler.obj
 0002:00000950       ??_C@_0BN@KJEBEAEC@RSI?5?5?9?5?$CF016lx?0?5RDI?5?9?5?$CF016lx?6@ 0000000000008e70     PeiCpuExceptionHandlerLib:ArchExceptionHandler.obj
 0002:00000970       ??_C@_0CL@IAICEOHO@R8?5?5?5?9?5?$CF016lx?0?5R9?5?5?9?5?$CF016lx?0?5R1@ 0000000000008e90     PeiCpuExceptionHandlerLib:ArchExceptionHandler.obj
 0002:000009a0       ??_C@_0CL@JAMCECPD@R11?5?5?9?5?$CF016lx?0?5R12?5?9?5?$CF016lx?0?5R1@ 0000000000008ec0     PeiCpuExceptionHandlerLib:ArchExceptionHandler.obj
 0002:000009d0       ??_C@_0BN@PKAAKNBO@R14?5?5?9?5?$CF016lx?0?5R15?5?9?5?$CF016lx?6@ 0000000000008ef0     PeiCpuExceptionHandlerLib:ArchExceptionHandler.obj
 0002:000009f0       ??_C@_0CL@DLLIMCBJ@DS?5?5?5?9?5?$CF016lx?0?5ES?5?5?9?5?$CF016lx?0?5FS@ 0000000000008f10     PeiCpuExceptionHandlerLib:ArchExceptionHandler.obj
 0002:00000a20       ??_C@_0BN@EICEFBKL@GS?5?5?5?9?5?$CF016lx?0?5SS?5?5?9?5?$CF016lx?6@ 0000000000008f40     PeiCpuExceptionHandlerLib:ArchExceptionHandler.obj
 0002:00000a40       ??_C@_0CL@DIOBDFLD@CR0?5?5?9?5?$CF016lx?0?5CR2?5?9?5?$CF016lx?0?5CR@ 0000000000008f60     PeiCpuExceptionHandlerLib:ArchExceptionHandler.obj
 0002:00000a70       ??_C@_0BN@JAPKHAJM@CR4?5?5?9?5?$CF016lx?0?5CR8?5?9?5?$CF016lx?6@ 0000000000008f90     PeiCpuExceptionHandlerLib:ArchExceptionHandler.obj
 0002:00000a90       ??_C@_0CL@DONNALBH@DR0?5?5?9?5?$CF016lx?0?5DR1?5?9?5?$CF016lx?0?5DR@ 0000000000008fb0     PeiCpuExceptionHandlerLib:ArchExceptionHandler.obj
 0002:00000ac0       ??_C@_0CL@JNPELAID@DR3?5?5?9?5?$CF016lx?0?5DR6?5?9?5?$CF016lx?0?5DR@ 0000000000008fe0     PeiCpuExceptionHandlerLib:ArchExceptionHandler.obj
 0002:00000af0       ??_C@_0CF@MGIBIPBB@GDTR?5?9?5?$CF016lx?5?$CF016lx?0?5LDTR?5?9?5?$CF0@ 0000000000009010     PeiCpuExceptionHandlerLib:ArchExceptionHandler.obj
 0002:00000b18       ??_C@_0CF@DMFPLAJK@IDTR?5?9?5?$CF016lx?5?$CF016lx?0?5?5?5TR?5?9?5?$CF0@ 0000000000009038     PeiCpuExceptionHandlerLib:ArchExceptionHandler.obj
 0002:00000b40       ??_C@_0BH@PFOFIBPH@FXSAVE_STATE?5?9?5?$CF016lx?6@ 0000000000009060     PeiCpuExceptionHandlerLib:ArchExceptionHandler.obj
 0002:00000b58       ??_C@_0CK@KOLJIBMC@TemplateMap?4ExceptionStubHeader@ 0000000000009078     PeiCpuExceptionHandlerLib:PeiDxeSmmCpuException.obj
 0002:00000b90       ??_C@_0FB@PLPBHCPB@d?3?2myedk2?2edk2?2UefiCpuPkg?2Libra@ 00000000000090b0     PeiCpuExceptionHandlerLib:PeiDxeSmmCpuException.obj
 0002:00000be4       mErrorCodeFlag             0000000000009104     PeiCpuExceptionHandlerLib:CpuExceptionCommon.obj
 0002:00000be8       ??_C@_0BD@PANICNEP@?$CDDE?5?9?5Divide?5Error@ 0000000000009108     PeiCpuExceptionHandlerLib:CpuExceptionCommon.obj
 0002:00000c00       ??_C@_0M@BENGJJME@?$CDDB?5?9?5Debug@ 0000000000009120     PeiCpuExceptionHandlerLib:CpuExceptionCommon.obj
 0002:00000c10       ??_C@_0O@PELAMGDH@NMI?5Interrupt@ 0000000000009130     PeiCpuExceptionHandlerLib:CpuExceptionCommon.obj
 0002:00000c20       ??_C@_0BB@ONIBFOGK@?$CDBP?5?9?5Breakpoint@ 0000000000009140     PeiCpuExceptionHandlerLib:CpuExceptionCommon.obj
 0002:00000c38       ??_C@_0P@BBLCINEF@?$CDOF?5?9?5Overflow@ 0000000000009158     PeiCpuExceptionHandlerLib:CpuExceptionCommon.obj
 0002:00000c48       ??_C@_0BL@FGFNPPKN@?$CDBR?5?9?5BOUND?5Range?5Exceeded@ 0000000000009168     PeiCpuExceptionHandlerLib:CpuExceptionCommon.obj
 0002:00000c68       ??_C@_0BF@PAJDEHLF@?$CDUD?5?9?5Invalid?5Opcode@ 0000000000009188     PeiCpuExceptionHandlerLib:CpuExceptionCommon.obj
 0002:00000c80       ??_C@_0BL@HAMCGOMD@?$CDNM?5?9?5Device?5Not?5Available@ 00000000000091a0     PeiCpuExceptionHandlerLib:CpuExceptionCommon.obj
 0002:00000ca0       ??_C@_0BD@POLKFCFP@?$CDDF?5?9?5Double?5Fault@ 00000000000091c0     PeiCpuExceptionHandlerLib:CpuExceptionCommon.obj
 0002:00000cb8       ??_C@_0BM@LFJODCLN@Coprocessor?5Segment?5Overrun@ 00000000000091d8     PeiCpuExceptionHandlerLib:CpuExceptionCommon.obj
 0002:00000cd8       ??_C@_0BC@NJGFAHLO@?$CDTS?5?9?5Invalid?5TSS@ 00000000000091f8     PeiCpuExceptionHandlerLib:CpuExceptionCommon.obj
 0002:00000cf0       ??_C@_0BK@CJDBEANG@?$CDNP?5?9?5Segment?5Not?5Present@ 0000000000009210     PeiCpuExceptionHandlerLib:CpuExceptionCommon.obj
 0002:00000d10       ??_C@_0BI@DKNGHJJN@?$CDSS?5?9?5Stack?5Fault?5Fault@ 0000000000009230     PeiCpuExceptionHandlerLib:CpuExceptionCommon.obj
 0002:00000d28       ??_C@_0BJ@OPPOMNHK@?$CDGP?5?9?5General?5Protection@ 0000000000009248     PeiCpuExceptionHandlerLib:CpuExceptionCommon.obj
 0002:00000d48       ??_C@_0BB@CJKCEJGM@?$CDPF?5?9?5Page?9Fault@ 0000000000009268     PeiCpuExceptionHandlerLib:CpuExceptionCommon.obj
 0002:00000d60       ??_C@_08NKCLJDKG@Reserved@ 0000000000009280     PeiCpuExceptionHandlerLib:CpuExceptionCommon.obj
 0002:00000d70       ??_C@_0CD@DAPDALEP@?$CDMF?5?9?5x87?5FPU?5Floating?9Point?5Er@ 0000000000009290     PeiCpuExceptionHandlerLib:CpuExceptionCommon.obj
 0002:00000d98       ??_C@_0BG@JJECJFKO@?$CDAC?5?9?5Alignment?5Check@ 00000000000092b8     PeiCpuExceptionHandlerLib:CpuExceptionCommon.obj
 0002:00000db0       ??_C@_0BE@CIGFNHHH@?$CDMC?5?9?5Machine?9Check@ 00000000000092d0     PeiCpuExceptionHandlerLib:CpuExceptionCommon.obj
 0002:00000dc8       ??_C@_0BK@IKBNPED@?$CDXM?5?9?5SIMD?5floating?9point@ 00000000000092e8     PeiCpuExceptionHandlerLib:CpuExceptionCommon.obj
 0002:00000de8       ??_C@_0BF@MIEADEIE@?$CDVE?5?9?5Virtualization@ 0000000000009308     PeiCpuExceptionHandlerLib:CpuExceptionCommon.obj
 0002:00000e00       ??_C@_0BJ@POMBGBMH@?$CDCP?5?9?5Control?5Protection@ 0000000000009320     PeiCpuExceptionHandlerLib:CpuExceptionCommon.obj
 0002:00000e20       ??_C@_0BI@HOPEKCJH@?$CDVC?5?9?5VMM?5Communication@ 0000000000009340     PeiCpuExceptionHandlerLib:CpuExceptionCommon.obj
 0002:00000e38       ??_C@_0CJ@NIJFIMND@?$CB?$CB?$CB?$CB?5Can?8t?5find?5image?5informati@ 0000000000009358     PeiCpuExceptionHandlerLib:CpuExceptionCommon.obj
 0002:00000e68       ??_C@_0CD@FDHAHDMO@?$CB?$CB?$CB?$CB?5Find?5image?5based?5on?5IP?$CI0x?$CF@ 0000000000009388     PeiCpuExceptionHandlerLib:CpuExceptionCommon.obj
 0002:00000e8c       ??_C@_02ECNOPIAA@?$CFa@    00000000000093ac     PeiCpuExceptionHandlerLib:CpuExceptionCommon.obj
 0002:00000e90       ??_C@_09KCCBLILG@?$CINo?5PDB?$CJ?5@ 00000000000093b0     PeiCpuExceptionHandlerLib:CpuExceptionCommon.obj
 0002:00000ea0       ??_C@_0CM@GKFIOCPE@?5?$CIImageBase?$DN?$CF016lp?0?5EntryPoint?$DN@ 00000000000093c0     PeiCpuExceptionHandlerLib:CpuExceptionCommon.obj
 0002:00000ed0       mExceptionNameStr          00000000000093f0     PeiCpuExceptionHandlerLib:CpuExceptionCommon.obj
 0002:00000fc0       mExceptionReservedStr      00000000000094e0     PeiCpuExceptionHandlerLib:CpuExceptionCommon.obj
 0002:00000fd0       ??_C@_0DE@GEJHKKIP@Does?5not?5find?5any?5HOB?5stored?5CP@ 00000000000094f0     MpInitLibUp:MpInitLibUp.obj
 0002:00001008       ??_C@_0BM@DAJCEFAH@PeiServices?5?$CB?$DN?5?$CI?$CIvoid?5?$CK?$CJ?50?$CJ@ 0000000000009528     PeiServicesTablePointerLibIdt:PeiServicesTablePointer.obj
 0002:00001030       ??_C@_0FG@OJLFFLGI@d?3?2myedk2?2edk2?2MdePkg?2Library?2P@ 0000000000009550     PeiServicesTablePointerLibIdt:PeiServicesTablePointer.obj
 0002:00001088       ??_C@_0DJ@PLEMCDAL@d?3?2myedk2?2edk2?2MdePkg?2Library?2B@ 00000000000095a8     BaseIoLibIntrinsicSev:IoLib.obj
 0002:000010c8       ??_C@_0BD@OMMAJMCK@?$CIAddress?5?$CG?53?$CJ?5?$DN?$DN?50@ 00000000000095e8     BaseIoLibIntrinsicSev:IoLib.obj
 0002:000010e0       ??_C@_0DM@HGIGHENF@d?3?2myedk2?2edk2?2MdePkg?2Library?2B@ 0000000000009600     BaseIoLibIntrinsicSev:IoLibMsc.obj
 0002:00001120       ??_C@_0BA@HCECIDGN@?$CIPort?5?$CG?53?$CJ?5?$DN?$DN?50@ 0000000000009640     BaseIoLibIntrinsicSev:IoLibMsc.obj
 0002:00001130       ??_C@_0CA@INIPEKFI@TDX?3?5?$CDTD?$FLEPT?$FN?5instruction?5?$CI?$CFp?$CJ?3@ 0000000000009650     VmgExitLib:VmTdExitVeHandler.obj
 0002:00001150       ??_C@_05JNBEKFOE@?$CF02x?3@ 0000000000009670     VmgExitLib:VmTdExitVeHandler.obj
 0002:00001158       ??_C@_0M@JADJBBKG@Status?5?$DN?$DN?50@ 0000000000009678     VmgExitLib:VmTdExitVeHandler.obj
 0002:00001168       ??_C@_0DO@HMDHABLB@d?3?2myedk2?2edk2?2OvmfPkg?2Library?2@ 0000000000009688     VmgExitLib:VmTdExitVeHandler.obj
 0002:000011a8       ??_C@_0DH@CLLFIEPJ@?$CDVE?5happened?4?5TDGETVEINFO?5faile@ 00000000000096c8     VmgExitLib:VmTdExitVeHandler.obj
 0002:000011e0       ??_C@_0EC@HCHGOLKM@CPUID?5?$CDVE?5happened?0?5ExitReasion@ 0000000000009700     VmgExitLib:VmTdExitVeHandler.obj
 0002:00001230       ??_C@_0EL@EJGLLOEK@IO_Instruction?5?$CDVE?5happened?0?5Ex@ 0000000000009750     VmgExitLib:VmTdExitVeHandler.obj
 0002:00001280       ??_C@_0GE@POMGBPLO@RDMSR?5?$CDVE?5happened?0?5ExitReasion@ 00000000000097a0     VmgExitLib:VmTdExitVeHandler.obj
 0002:000012f0       ??_C@_0GE@ICDDODDA@WRMSR?5?$CDVE?5happened?0?5ExitReasion@ 0000000000009810     VmgExitLib:VmTdExitVeHandler.obj
 0002:00001360       ??_C@_0EB@LIHEBDAF@MMIO?5?$CDVE?5happened?0?5ExitReasion?5@ 0000000000009880     VmgExitLib:VmTdExitVeHandler.obj
 0002:000013b0       ??_C@_0EH@CMBBBEBM@Unsupported?5?$CDVE?5happened?0?5ExitR@ 00000000000098d0     VmgExitLib:VmTdExitVeHandler.obj
 0002:00001400       ??_C@_0FE@FHEKCDPF@?$CDVE?5Error?5?$CI0x?$CFllx?$CJ?5returned?5fro@ 0000000000009920     VmgExitLib:VmTdExitVeHandler.obj
 0002:00001458       ??_C@_0BL@KIAIPKNJ@Msr?4GhcbInfo?4Function?5?$DN?$DN?50@ 0000000000009978     VmgExitLib:PeiDxeVmgExitVcHandler.obj
 0002:00001480       ??_C@_0ED@PPEMHGEH@d?3?2myedk2?2edk2?2OvmfPkg?2Library?2@ 00000000000099a0     VmgExitLib:PeiDxeVmgExitVcHandler.obj
 0002:000014c8       ??_C@_0O@EHFDMHO@Msr?4Ghcb?5?$CB?$DN?50@ 00000000000099e8     VmgExitLib:PeiDxeVmgExitVcHandler.obj
 0002:000014d8       ??_C@_0BE@NGBOFDPN@Reg?5?$CB?$DN?5?$CI?$CIvoid?5?$CK?$CJ?50?$CJ@ 00000000000099f8     VmgExitLib:VmgExitVcHandler.obj
 0002:000014f0       ??_C@_0DN@JMDPNOEF@d?3?2myedk2?2edk2?2OvmfPkg?2Library?2@ 0000000000009a10     VmgExitLib:VmgExitVcHandler.obj
 0002:00001530       ??_C@_0CC@NFFCFAPI@MMIO?5using?5encrypted?5memory?3?5?$CFl@ 0000000000009a50     VmgExitLib:VmgExitVcHandler.obj
 0002:00001558       ??_C@_0BK@ENLBMHMC@Invalid?5MMIO?5opcode?5?$CI?$CFx?$CJ?6@ 0000000000009a78     VmgExitLib:VmgExitVcHandler.obj
 0002:00001580       ??_C@_0EN@HLCGLLBG@?$CIExitInfo?4Elements?4Lower32Bits?5@ 0000000000009aa0     VmgExitLib:VmgExitLib.obj
 0002:000015d0       ??_C@_0DH@NFMCOJEB@d?3?2myedk2?2edk2?2OvmfPkg?2Library?2@ 0000000000009af0     VmgExitLib:VmgExitLib.obj
 0002:00001608       ??_C@_0CA@KLMDHBCA@Ghcb?9?$DOSaveArea?4SwExitInfo2?5?$CB?$DN?50@ 0000000000009b28     VmgExitLib:VmgExitLib.obj
 0002:00001628       ??_C@_0DI@DAGDPLPG@?$CILength?5?9?51?$CJ?5?$DM?$DN?5?$CI0xFFFFFFFFFFFF@ 0000000000009b48     BaseMemoryLibRepStr:SetMemWrapper.obj
 0002:00001660       ??_C@_0EC@NJPJFNGD@d?3?2myedk2?2edk2?2MdePkg?2Library?2B@ 0000000000009b80     BaseMemoryLibRepStr:SetMemWrapper.obj
 0002:000016a8       ??_C@_0BH@MAAHKCPC@String?5?$CB?$DN?5?$CI?$CIvoid?5?$CK?$CJ?50?$CJ@ 0000000000009bc8     BaseLib:String.obj
 0002:000016c0       ??_C@_0CP@DJBLNMJI@d?3?2myedk2?2edk2?2MdePkg?2Library?2B@ 0000000000009be0     BaseLib:String.obj
 0002:000016f0       ??_C@_0CC@GFNLNIOC@?$CI?$CIUINTN?$CJString?5?$CG?50x00000001?$CJ?5?$DN?$DN@ 0000000000009c10     BaseLib:String.obj
 0002:00001718       ??_C@_0DI@MDIKFADO@Length?5?$DM?5_gPcd_FixedAtBuild_Pcd@ 0000000000009c38     BaseLib:String.obj
 0002:00001750       ??_C@_0N@KGHEHMDL@Divisor?5?$CB?$DN?50@ 0000000000009c70     BaseLib:DivU64x32.obj
 0002:00001760       ??_C@_0DL@JEBMKBEC@d?3?2myedk2?2edk2?2MdePkg?2Library?2B@ 0000000000009c80     BaseLib:DivU64x32Remainder.obj
 0002:000017a0       ??_C@_0DD@OKIGPFG@d?3?2myedk2?2edk2?2MdePkg?2Library?2B@ 0000000000009cc0     BaseLib:SafeString.obj
 0002:000017d8       ??_C@_0BJ@CNKJJNE@?$CIBuffer?5?$CB?$DN?5?$CI?$CIvoid?5?$CK?$CJ?50?$CJ?$CJ@ 0000000000009cf8     BaseLib:SafeString.obj
 0002:000017f8       ??_C@_0DO@DLJLNPNA@d?3?2myedk2?2edk2?2MdePkg?2Library?2B@ 0000000000009d18     BasePrintLib:PrintLibInternal.obj
 0002:00001840       ??_C@_0EB@HDGIDCIO@?$CIBufferSize?5?$DM?$DN?5?$CI_gPcd_FixedAtBu@ 0000000000009d60     BasePrintLib:PrintLibInternal.obj
 0002:00001888       ??_C@_0BJ@PPAKKDJG@?$CIFormat?5?$CB?$DN?5?$CI?$CIvoid?5?$CK?$CJ?50?$CJ?$CJ@ 0000000000009da8     BasePrintLib:PrintLibInternal.obj
 0002:000018b0       ??_C@_0ED@LPDDCECB@?$CIBufferSize?5?$DM?$DN?5?$CI_gPcd_FixedAtBu@ 0000000000009dd0     BasePrintLib:PrintLibInternal.obj
 0002:00001900       ??_C@_0IM@BFJJFLGB@?$CIStrnLenS?5?$CI?$CICHAR16?5?$CK?$CJFormat?0?5?$CI_@ 0000000000009e20     BasePrintLib:PrintLibInternal.obj
 0002:00001990       ??_C@_0ID@PLGJGION@?$CIAsciiStrnLenS?5?$CIFormat?0?5?$CI_gPcd_@ 0000000000009eb0     BasePrintLib:PrintLibInternal.obj
 0002:00001a18       ??_C@_0O@MLOLIMFM@?$DMnull?5string?$DO@ 0000000000009f38     BasePrintLib:PrintLibInternal.obj
 0002:00001a28       ??_C@_0M@BJJDNPHK@?$DMnull?5guid?$DO@ 0000000000009f48     BasePrintLib:PrintLibInternal.obj
 0002:00001a38       ??_C@_0DB@PMLHLBMO@?$CF08x?9?$CF04x?9?$CF04x?9?$CF02x?$CF02x?9?$CF02x?$CF02@ 0000000000009f58     BasePrintLib:PrintLibInternal.obj
 0002:00001a70       ??_C@_0M@LHGBCIKM@?$DMnull?5time?$DO@ 0000000000009f90     BasePrintLib:PrintLibInternal.obj
 0002:00001a80       ??_C@_0BK@FCPKCIDD@?$CF02d?1?$CF02d?1?$CF04d?5?5?$CF02d?3?$CF02d@ 0000000000009fa0     BasePrintLib:PrintLibInternal.obj
 0002:00001a9c       ??_C@_04JIMNDDED@?$CF08X@  0000000000009fbc     BasePrintLib:PrintLibInternal.obj
 0002:00001aa4       ??_C@_02PCIJFNDE@?$AN?6@   0000000000009fc4     BasePrintLib:PrintLibInternal.obj
 0002:00001aa8       ??_C@_01LIIJDEN@?$AN@      0000000000009fc8     BasePrintLib:PrintLibInternal.obj
 0002:00001ab0       mWarningString             0000000000009fd0     BasePrintLib:PrintLibInternal.obj
 0002:00001b50       mErrorString               000000000000a070     BasePrintLib:PrintLibInternal.obj
 0002:00001e10       mHexStr                    000000000000a330     BasePrintLib:PrintLibInternal.obj
 0002:00001e20       ??_C@_0BJ@FKJAAJLB@SpinLock?5?$CB?$DN?5?$CI?$CIvoid?5?$CK?$CJ?50?$CJ@ 000000000000a340     BaseSynchronizationLib:SynchronizationMsc.obj
 0002:00001e40       ??_C@_0EK@DDEAAHDL@d?3?2myedk2?2edk2?2MdePkg?2Library?2B@ 000000000000a360     BaseSynchronizationLib:SynchronizationMsc.obj
 0002:00001e90       ??_C@_0DF@GPAOIIHK@LockValue?5?$DN?$DN?5?$CI?$CIUINTN?$CJ?52?$CJ?5?$HM?$HM?5Loc@ 000000000000a3b0     BaseSynchronizationLib:SynchronizationMsc.obj
 0002:00001ec8       ??_C@_0BJ@OAAKNPEN@Pe32Data?5?$CB?$DN?5?$CI?$CIvoid?5?$CK?$CJ?50?$CJ@ 000000000000a3e8     BasePeCoffGetEntryPointLib:PeCoffGetEntryPoint.obj
 0002:00001ef0       ??_C@_0EP@ECBBBAMP@d?3?2myedk2?2edk2?2MdePkg?2Library?2B@ 000000000000a410     BasePeCoffGetEntryPointLib:PeCoffGetEntryPoint.obj
 0002:00001f40       ??_C@_0CG@KIJMJHBN@?$CI?$CIAddress?$CJ?5?$CG?5?$CI?$HO0xffff0ff?5?$HM?5?$CI0?$CJ?$CJ@ 000000000000a460     BasePciCf8Lib:PciCf8Lib.obj
 0002:00001f68       ??_C@_0DI@EGELJHOH@d?3?2myedk2?2edk2?2MdePkg?2Library?2B@ 000000000000a488     BasePciCf8Lib:PciCf8Lib.obj
 0002:00001fa0       ??_C@_0CG@EDKLCMBO@?$CI?$CIAddress?$CJ?5?$CG?5?$CI?$HO0xffff0ff?5?$HM?5?$CI3?$CJ?$CJ@ 000000000000a4c0     BasePciCf8Lib:PciCf8Lib.obj
 0002:0000201c       __volatile_metadata        000000000000a53c     <linker-defined>
 0003:00000000       gEfiSecPlatformInformation2PpiGuid 000000000000a720     CpuMpPei:AutoGen.obj
 0003:00000010       gEfiSecPlatformInformationPpiGuid 000000000000a730     CpuMpPei:AutoGen.obj
 0003:00000020       gEfiVectorHandoffInfoPpiGuid 000000000000a740     CpuMpPei:AutoGen.obj
 0003:00000030       gEfiPeiMpServicesPpiGuid   000000000000a750     CpuMpPei:AutoGen.obj
 0003:00000040       gEfiPeiMemoryDiscoveredPpiGuid 000000000000a760     CpuMpPei:AutoGen.obj
 0003:00000050       gEdkiiMigratedFvInfoGuid   000000000000a770     CpuMpPei:AutoGen.obj
 0003:00000060       gEdkiiPeiMpServices2PpiGuid 000000000000a780     CpuMpPei:AutoGen.obj
 0003:00000070       gEfiCallerIdGuid           000000000000a790     CpuMpPei:AutoGen.obj
 0003:00000080       gPcdPpiGuid                000000000000a7a0     CpuMpPei:AutoGen.obj
 0003:00000090       mMpServicesPpi             000000000000a7b0     CpuMpPei:CpuMpPei.obj
 0003:000000c8       mPeiCpuMpPpiList           000000000000a7e8     CpuMpPei:CpuMpPei.obj
 0003:000000f8       mPeiSecPlatformInformation2Ppi 000000000000a818     CpuMpPei:CpuBist.obj
 0003:00000110       mSecPlatformInformation2Ppi 000000000000a830     CpuMpPei:CpuBist.obj
 0003:00000118       mPostMemNotifyList         000000000000a838     CpuMpPei:CpuPaging.obj
 0003:00000130       mPageAttributeTable        000000000000a850     CpuMpPei:CpuPaging.obj
 0003:00000200       mMpServices2Ppi            000000000000a920     CpuMpPei:CpuMp2Pei.obj
 0003:00000240       gParity                    000000000000a960     PcAtSerialPortLib:SerialPortLib.obj
 0003:00000241       gBreakSet                  000000000000a961     PcAtSerialPortLib:SerialPortLib.obj

 entry point at        0001:00001dc4

 Static symbols

 0001:0000002a       InternalMemCopyMem.0       00000000000002ea     BaseMemoryLibRepStr:CopyMem.obj
 0001:0000003a       @CopyBackward              00000000000002fa     BaseMemoryLibRepStr:CopyMem.obj
 0001:00000043       @CopyBytes                 0000000000000303     BaseMemoryLibRepStr:CopyMem.obj
 0001:000000af       AsmCpuid.0                 000000000000036f     BaseLib:CpuId.obj
 0001:000000b4       AsmCpuid.1                 0000000000000374     BaseLib:CpuId.obj
 0001:000000bb       AsmCpuid.2                 000000000000037b     BaseLib:CpuId.obj
 0001:000000c4       AsmCpuid.3                 0000000000000384     BaseLib:CpuId.obj
 0001:00000115       AsmCpuidEx.0               00000000000003d5     BaseLib:CpuIdEx.obj
 0001:0000011c       AsmCpuidEx.1               00000000000003dc     BaseLib:CpuIdEx.obj
 0001:00000123       AsmCpuidEx.2               00000000000003e3     BaseLib:CpuIdEx.obj
 0001:0000012c       AsmCpuidEx.3               00000000000003ec     BaseLib:CpuIdEx.obj
 0001:0000018e       TdVmCall.no_return_data    000000000000044e     BaseLib:TdVmcall.obj
 0001:00000210       AsmIdtVectorBegin          00000000000004d0     PeiCpuExceptionHandlerLib:Xcode5ExceptionHandlerAsm.obj
 0001:00001110       AsmIdtVectorEnd            00000000000013d0     PeiCpuExceptionHandlerLib:Xcode5ExceptionHandlerAsm.obj
 0001:00001110       HookAfterStubHeaderBegin   00000000000013d0     PeiCpuExceptionHandlerLib:Xcode5ExceptionHandlerAsm.obj
 0001:00001111       @VectorNum                 00000000000013d1     PeiCpuExceptionHandlerLib:Xcode5ExceptionHandlerAsm.obj
 0001:0000111d       JmpAbsoluteAddress         00000000000013dd     PeiCpuExceptionHandlerLib:Xcode5ExceptionHandlerAsm.obj
 0001:0000111f       HookAfterStubHeaderEnd     00000000000013df     PeiCpuExceptionHandlerLib:Xcode5ExceptionHandlerAsm.obj
 0001:0000113b       HookAfterStubHeaderEnd.0   00000000000013fb     PeiCpuExceptionHandlerLib:Xcode5ExceptionHandlerAsm.obj
 0001:0000115c       NoErrorCode                000000000000141c     PeiCpuExceptionHandlerLib:Xcode5ExceptionHandlerAsm.obj
 0001:00001168       HasErrorCode               0000000000001428     PeiCpuExceptionHandlerLib:Xcode5ExceptionHandlerAsm.obj
 0001:00001236       VcDebugRegs                00000000000014f6     PeiCpuExceptionHandlerLib:Xcode5ExceptionHandlerAsm.obj
 0001:0000123f       DrFinish                   00000000000014ff     PeiCpuExceptionHandlerLib:Xcode5ExceptionHandlerAsm.obj
 0001:000012cb       CetDone                    000000000000158b     PeiCpuExceptionHandlerLib:Xcode5ExceptionHandlerAsm.obj
 0001:0000134b       ErrorCode                  000000000000160b     PeiCpuExceptionHandlerLib:Xcode5ExceptionHandlerAsm.obj
 0001:00001353       DoReturn                   0000000000001613     PeiCpuExceptionHandlerLib:Xcode5ExceptionHandlerAsm.obj
 0001:00001375       DoIret                     0000000000001635     PeiCpuExceptionHandlerLib:Xcode5ExceptionHandlerAsm.obj
 0001:00001c2a       TdVmCallCpuid.no_return_data 0000000000001eea     VmgExitLib:TdVmcallCpuid.obj
 0001:00001d2b       TdCall.exit                0000000000001feb     BaseLib:TdCall.obj
 0001:00001d9a       PvalidateExit              000000000000205a     BaseLib:Pvalidate.obj
 0001:00003070       $LN47                      0000000000003330     BaseXApicX2ApicLib:BaseXApicX2ApicLib.obj
 0001:00003078       $LN46                      0000000000003338     BaseXApicX2ApicLib:BaseXApicX2ApicLib.obj
 0001:00004390       IoExit                     0000000000004650 f   VmgExitLib:VmTdExitVeHandler.obj
 0001:00004530       TdxDecodeInstruction       00000000000047f0 f   VmgExitLib:VmTdExitVeHandler.obj
 0001:00004598       MmioExit                   0000000000004858 f   VmgExitLib:VmTdExitVeHandler.obj
 0001:00004e50       GetRegisterPointer         0000000000005110 f   VmgExitLib:VmgExitVcHandler.obj
 0001:00004f64       GetEffectiveMemoryAddress  0000000000005224 f   VmgExitLib:VmgExitVcHandler.obj
 0001:000050d0       DecodeModRm                0000000000005390 f   VmgExitLib:VmgExitVcHandler.obj
 0001:000051d4       UnsupportedExit            0000000000005494 f   VmgExitLib:VmgExitVcHandler.obj
 0001:00005204       ValidateMmioMemory         00000000000054c4 f   VmgExitLib:VmgExitVcHandler.obj
 0001:00005274       MmioExit                   0000000000005534 f   VmgExitLib:VmgExitVcHandler.obj
 0001:00005830       MwaitExit                  0000000000005af0 f   VmgExitLib:VmgExitVcHandler.obj
 0001:000058a8       MonitorExit                0000000000005b68 f   VmgExitLib:VmgExitVcHandler.obj
 0001:0000593c       WbinvdExit                 0000000000005bfc f   VmgExitLib:VmgExitVcHandler.obj
 0001:0000594c       RdtscpExit                 0000000000005c0c f   VmgExitLib:VmgExitVcHandler.obj
 0001:000059e8       VmmCallExit                0000000000005ca8 f   VmgExitLib:VmgExitVcHandler.obj
 0001:00005a9c       MsrExit                    0000000000005d5c f   VmgExitLib:VmgExitVcHandler.obj
 0001:00005ba4       IoioExit                   0000000000005e64 f   VmgExitLib:VmgExitVcHandler.obj
 0001:00005ec4       InvdExit                   0000000000006184 f   VmgExitLib:VmgExitVcHandler.obj
 0001:00005ed4       GetCpuidHyp                0000000000006194 f   VmgExitLib:VmgExitVcHandler.obj
 0001:00005fc8       GetCpuidFw                 0000000000006288 f   VmgExitLib:VmgExitVcHandler.obj
 0001:000062ac       CpuidExit                  000000000000656c f   VmgExitLib:VmgExitVcHandler.obj
 0001:000063e8       RdpmcExit                  00000000000066a8 f   VmgExitLib:VmgExitVcHandler.obj
 0001:00006484       RdtscExit                  0000000000006744 f   VmgExitLib:VmgExitVcHandler.obj
 0001:00006500       Dr7WriteExit               00000000000067c0 f   VmgExitLib:VmgExitVcHandler.obj
 0001:0000658c       Dr7ReadExit                000000000000684c f   VmgExitLib:VmgExitVcHandler.obj
 0005:00000000       $unwind$PciAndThenOr32     000000000000ae00     BasePciLibCf8:PciLib.obj
 0005:00000000       $unwind$PciOr8             000000000000ae00     BasePciLibCf8:PciLib.obj
 0005:00000000       $unwind$_ModuleEntryPoint  000000000000ae00     PeimEntryPoint:PeimEntryPoint.obj
 0005:00000018       $unwind$MmioWrite32        000000000000ae18     BaseIoLibIntrinsicSev:IoLib.obj
 0005:00000018       $unwind$IoWrite32          000000000000ae18     BaseIoLibIntrinsicSev:IoLibMsc.obj
 0005:00000018       $unwind$RShiftU64          000000000000ae18     BaseLib:RShiftU64.obj
 0005:00000018       $unwind$AsciiStrLen        000000000000ae18     BaseLib:String.obj
 0005:00000018       $unwind$ZeroMem            000000000000ae18     BaseMemoryLibRepStr:ZeroMemWrapper.obj
 0005:00000018       $unwind$GetFirstGuidHob    000000000000ae18     PeiHobLib:HobLib.obj
 0005:00000018       $unwind$GetNextHob         000000000000ae18     PeiHobLib:HobLib.obj
 0005:00000018       $unwind$DecodeModRm        000000000000ae18     VmgExitLib:VmgExitVcHandler.obj
 0005:00000018       $unwind$GetCpuidHyp        000000000000ae18     VmgExitLib:VmgExitVcHandler.obj
 0005:00000018       $unwind$MonitorExit        000000000000ae18     VmgExitLib:VmgExitVcHandler.obj
 0005:00000018       $unwind$MwaitExit          000000000000ae18     VmgExitLib:VmgExitVcHandler.obj
 0005:00000018       $unwind$SecPlatformInformation2 000000000000ae18     CpuMpPei:CpuBist.obj
 0005:00000018       $unwind$WriteLocalApicReg  000000000000ae18     BaseXApicX2ApicLib:BaseXApicX2ApicLib.obj
 0005:00000018       $unwind$DumpModuleImageInfo 000000000000ae18     PeiCpuExceptionHandlerLib:CpuExceptionCommon.obj
 0005:00000024       $unwind$PeiServicesLocatePpi 000000000000ae24     PeiServicesLib:PeiServicesLib.obj
 0005:00000024       $unwind$GetBistInfoFromPpi 000000000000ae24     CpuMpPei:CpuBist.obj
 0005:00000034       $unwind$CollectBistDataFromPpi 000000000000ae34     CpuMpPei:CpuBist.obj
 0005:00000050       $unwind$GetPageTableEntry  000000000000ae50     CpuMpPei:CpuPaging.obj
 0005:00000050       $unwind$UpdateIdtTable     000000000000ae50     PeiCpuExceptionHandlerLib:PeiDxeSmmCpuException.obj
 0005:0000006c       $unwind$SplitPage          000000000000ae6c     CpuMpPei:CpuPaging.obj
 0005:00000088       $unwind$ConvertMemoryPageAttributes 000000000000ae88     CpuMpPei:CpuPaging.obj
 0005:00000098       $unwind$CreatePageTable    000000000000ae98     CpuMpPei:CpuPaging.obj
 0005:000000b0       $unwind$MemoryDiscoveredPpiNotifyCallback 000000000000aeb0     CpuMpPei:CpuPaging.obj
 0005:000000c4       $unwind$MmioRead32         000000000000aec4     BaseIoLibIntrinsicSev:IoLib.obj
 0005:000000c4       $unwind$IoRead32           000000000000aec4     BaseIoLibIntrinsicSev:IoLibMsc.obj
 0005:000000c4       $unwind$SaveAndDisableInterrupts 000000000000aec4     BaseLib:Cpu.obj
 0005:000000c4       $unwind$StrnLenS           000000000000aec4     BaseLib:SafeString.obj
 0005:000000c4       $unwind$PeCoffLoaderGetPdbPointer 000000000000aec4     BasePeCoffGetEntryPointLib:PeCoffGetEntryPoint.obj
 0005:000000c4       $unwind$ReleaseSpinLock    000000000000aec4     BaseSynchronizationLib:SynchronizationMsc.obj
 0005:000000c4       $unwind$InternalPeiCreateHob 000000000000aec4     PeiHobLib:HobLib.obj
 0005:000000c4       $unwind$AllocatePool       000000000000aec4     PeiMemoryAllocationLib:MemoryAllocationLib.obj
 0005:000000c4       $unwind$InternalAllocatePages 000000000000aec4     PeiMemoryAllocationLib:MemoryAllocationLib.obj
 0005:000000c4       $unwind$GetRegisterPointer 000000000000aec4     VmgExitLib:VmgExitVcHandler.obj
 0005:000000c4       $unwind$EdkiiPeiStartupAllCPUs 000000000000aec4     CpuMpPei:CpuMp2Pei.obj
 0005:000000c4       $unwind$GetApicId          000000000000aec4     BaseXApicX2ApicLib:BaseXApicX2ApicLib.obj
 0005:000000c4       $unwind$GetApicMode        000000000000aec4     BaseXApicX2ApicLib:BaseXApicX2ApicLib.obj
 0005:000000c4       $unwind$ReadLocalApicReg   000000000000aec4     BaseXApicX2ApicLib:BaseXApicX2ApicLib.obj
 0005:000000c4       $unwind$MpInitLibGetProcessorInfo 000000000000aec4     MpInitLibUp:MpInitLibUp.obj
 0005:000000cc       $unwind$GetHobList         000000000000aecc     PeiHobLib:HobLib.obj
 0005:000000cc       $unwind$GetPcdPpiPointer   000000000000aecc     PeiPcdLib:PeiPcdLib.obj
 0005:000000cc       $unwind$UnsupportedExit    000000000000aecc     VmgExitLib:VmgExitVcHandler.obj
 0005:000000cc       $unwind$GetLocalApicBaseAddress 000000000000aecc     BaseXApicX2ApicLib:BaseXApicX2ApicLib.obj
 0005:000000d4       $unwind$CopyMem            000000000000aed4     BaseMemoryLibRepStr:CopyMemWrapper.obj
 0005:000000d4       $unwind$PciCf8Read16       000000000000aed4     BasePciCf8Lib:PciCf8Lib.obj
 0005:000000d4       $unwind$PciCf8Read32       000000000000aed4     BasePciCf8Lib:PciCf8Lib.obj
 0005:000000d4       $unwind$PciCf8Read8        000000000000aed4     BasePciCf8Lib:PciCf8Lib.obj
 0005:000000d4       $unwind$MsrExit            000000000000aed4     VmgExitLib:VmgExitVcHandler.obj
 0005:000000e8       $unwind$DivU64x32Remainder 000000000000aee8     BaseLib:DivU64x32Remainder.obj
 0005:000000e8       $unwind$CopyGuid           000000000000aee8     BaseMemoryLibRepStr:MemLibGuid.obj
 0005:000000e8       $unwind$SetMem             000000000000aee8     BaseMemoryLibRepStr:SetMemWrapper.obj
 0005:000000e8       $unwind$TdxDecodeInstruction 000000000000aee8     VmgExitLib:VmTdExitVeHandler.obj
 0005:000000e8       $unwind$Dr7ReadExit        000000000000aee8     VmgExitLib:VmgExitVcHandler.obj
 0005:000000e8       $unwind$Dr7WriteExit       000000000000aee8     VmgExitLib:VmgExitVcHandler.obj
 0005:000000e8       $unwind$RdpmcExit          000000000000aee8     VmgExitLib:VmgExitVcHandler.obj
 0005:000000e8       $unwind$RdtscExit          000000000000aee8     VmgExitLib:VmgExitVcHandler.obj
 0005:000000e8       $unwind$RdtscpExit         000000000000aee8     VmgExitLib:VmgExitVcHandler.obj
 0005:000000e8       $unwind$VmmCallExit        000000000000aee8     VmgExitLib:VmgExitVcHandler.obj
 0005:000000f8       $unwind$CompareGuid        000000000000aef8     BaseMemoryLibRepStr:MemLibGuid.obj
 0005:00000110       $unwind$AccessMsrTdxCall   000000000000af10     BaseXApicX2ApicLib:BaseXApicX2ApicLib.obj
 0005:0000011c       $unwind$InternalReportStatusCode 000000000000af1c     PeiReportStatusCodeLib:ReportStatusCodeLib.obj
 0005:0000011c       $unwind$GetPeiServicesTablePointer 000000000000af1c     PeiServicesTablePointerLibIdt:PeiServicesTablePointer.obj
 0005:0000011c       $unwind$LocalApicReadMsrReg64 000000000000af1c     BaseXApicX2ApicLib:BaseXApicX2ApicLib.obj
 0005:00000124       $unwind$LocalApicWriteMsrReg64 000000000000af24     BaseXApicX2ApicLib:BaseXApicX2ApicLib.obj
 0005:00000124       $unwind$CommonExceptionHandler 000000000000af24     PeiCpuExceptionHandlerLib:PeiCpuException.obj
 0005:00000130       $unwind$GetInitialApicId   000000000000af30     BaseXApicX2ApicLib:BaseXApicX2ApicLib.obj
 0005:00000130       $unwind$LocalApicBaseAddressMsrSupported 000000000000af30     BaseXApicX2ApicLib:BaseXApicX2ApicLib.obj
 0005:00000138       $unwind$DebugPrint         000000000000af38     BaseDebugLibSerialPort:DebugLib.obj
 0005:00000140       $unwind$DebugPrintMarker   000000000000af40     BaseDebugLibSerialPort:DebugLib.obj
 0005:00000154       $unwind$DebugAssert        000000000000af54     BaseDebugLibSerialPort:DebugLib.obj
 0005:0000015c       $unwind$InitializeCpuExceptionHandlers 000000000000af5c     PeiCpuExceptionHandlerLib:PeiCpuException.obj
 0005:0000016c       $unwind$DumpCpuContext     000000000000af6c     PeiCpuExceptionHandlerLib:ArchExceptionHandler.obj
 0005:0000017c       $unwind$CommonExceptionHandlerWorker 000000000000af7c     PeiCpuExceptionHandlerLib:PeiDxeSmmCpuException.obj
 0005:00000194       $unwind$InternalPrintMessage 000000000000af94     PeiCpuExceptionHandlerLib:CpuExceptionCommon.obj
 0005:0000019c       $unwind$IoExit             000000000000af9c     VmgExitLib:VmTdExitVeHandler.obj
 0005:0000019c       $unwind$IoioExit           000000000000af9c     VmgExitLib:VmgExitVcHandler.obj
 0005:000001b4       $unwind$MmioExit           000000000000afb4     VmgExitLib:VmTdExitVeHandler.obj
 0005:000001cc       $unwind$VmTdExitHandleVe   000000000000afcc     VmgExitLib:VmTdExitVeHandler.obj
 0005:000001e0       $unwind$VmgExitHandleVc    000000000000afe0     VmgExitLib:PeiDxeVmgExitVcHandler.obj
 0005:000001f4       $unwind$GetEffectiveMemoryAddress 000000000000aff4     VmgExitLib:VmgExitVcHandler.obj
 0005:00000208       $unwind$ValidateMmioMemory 000000000000b008     VmgExitLib:VmgExitVcHandler.obj
 0005:00000214       $unwind$MmioExit           000000000000b014     VmgExitLib:VmgExitVcHandler.obj
 0005:00000230       $unwind$GetCpuidFw         000000000000b030     VmgExitLib:VmgExitVcHandler.obj
 0005:0000024c       $unwind$CpuidExit          000000000000b04c     VmgExitLib:VmgExitVcHandler.obj
 0005:00000264       $unwind$InternalVmgExitHandleVc 000000000000b064     VmgExitLib:VmgExitVcHandler.obj
 0005:00000284       $unwind$BasePrintLibValueToString 000000000000b084     BasePrintLib:PrintLibInternal.obj
 0005:00000284       $unwind$AcquireSpinLockOrFail 000000000000b084     BaseSynchronizationLib:SynchronizationMsc.obj
 0005:00000284       $unwind$VmgExit            000000000000b084     VmgExitLib:VmgExitLib.obj
 0005:00000290       $unwind$AsciiSPrint        000000000000b090     BasePrintLib:PrintLib.obj
 0005:00000298       $unwind$BasePrintLibSPrintMarker 000000000000b098     BasePrintLib:PrintLibInternal.obj
 0005:000002b4       $unwind$BasePrintLibSPrint 000000000000b0b4     BasePrintLib:PrintLibInternal.obj
 0005:000002bc       $unwind$InternalMemEncryptSevGetAddressRangeState 000000000000b0bc     PeiMemEncryptSevLib:VirtualMemory.obj
