 Dhcp4Dxe

 Timestamp is 62c3c25e (Tue Jul  5 12:47:26 2022)

 Preferred load address is 0000000000000000

 Start         Length     Name                   Class
 0001:00000000 000001d8H .text                   CODE
 0001:000001d8 00008442H .text$mn                CODE
 0002:00000000 00001df0H .rdata                  DATA
 0002:00001df0 00000020H .rdata$voltmd           DATA
 0002:00001e10 00000134H .rdata$zzzdbg           DATA
 0003:00000000 00000da8H .data                   DATA
 0003:00000da8 00000040H .bss                    DATA
 0004:00000000 0000057cH .pdata                  DATA
 0005:00000000 00000410H .xdata                  DATA

  Address         Publics by Value              Rva+Base               Lib:Object

 0000:00000000       __x64_code_ranges_to_entry_points_count 0000000000000000     <absolute>
 0000:00000000       __guard_iat_table          0000000000000000     <absolute>
 0000:00000000       __guard_iat_count          0000000000000000     <absolute>
 0000:00000000       __guard_longjmp_table      0000000000000000     <absolute>
 0000:00000000       __guard_longjmp_count      0000000000000000     <absolute>
 0000:00000000       __x64_code_ranges_to_entry_points 0000000000000000     <absolute>
 0000:00000000       __dynamic_value_reloc_table 0000000000000000     <absolute>
 0000:00000000       __guard_fids_count         0000000000000000     <absolute>
 0000:00000000       __hybrid_auxiliary_iat     0000000000000000     <absolute>
 0000:00000000       __hybrid_auxiliary_iat_copy 0000000000000000     <absolute>
 0000:00000000       __hybrid_code_map_count    0000000000000000     <absolute>
 0000:00000000       __arm64x_redirection_metadata 0000000000000000     <absolute>
 0000:00000000       __arm64x_extra_rfe_table   0000000000000000     <absolute>
 0000:00000000       __AbsoluteZero             0000000000000000     <absolute>
 0000:00000000       __hybrid_code_map          0000000000000000     <absolute>
 0000:00000000       __arm64x_extra_rfe_table_size 0000000000000000     <absolute>
 0000:00000000       __guard_check_icall_a64n_fptr 0000000000000000     <absolute>
 0000:00000000       __guard_fids_table         0000000000000000     <absolute>
 0000:00000000       __guard_flags              0000000000000000     <absolute>
 0000:00000000       __guard_eh_cont_count      0000000000000000     <absolute>
 0000:00000000       __arm64x_redirection_metadata_count 0000000000000000     <absolute>
 0000:00000000       __enclave_config           0000000000000000     <absolute>
 0000:00000000       __arm64x_native_entrypoint 0000000000000000     <absolute>
 0000:00000000       __guard_eh_cont_table      0000000000000000     <absolute>
 0001:00000000       InternalMemCopyMem         00000000000002c0     BaseMemoryLibRepStr:CopyMem.obj
 0001:00000040       InternalMemZeroMem         0000000000000300     BaseMemoryLibRepStr:ZeroMem.obj
 0001:00000060       InternalMemCompareMem      0000000000000320     BaseMemoryLibRepStr:CompareMem.obj
 0001:00000080       InternalMemSetMem          0000000000000340     BaseMemoryLibRepStr:SetMem.obj
 0001:000000a0       InternalMemSetMem64        0000000000000360     BaseMemoryLibRepStr:SetMem64.obj
 0001:000000c0       InternalMemSetMem32        0000000000000380     BaseMemoryLibRepStr:SetMem32.obj
 0001:000000e0       CpuPause                   00000000000003a0     BaseLib:CpuPause.obj
 0001:000000f0       TdVmCall                   00000000000003b0     BaseLib:TdVmcall.obj
 0001:00000180       TdCall                     0000000000000440     BaseLib:TdCall.obj
 0001:000001d8       _DriverUnloadHandler       0000000000000498 f   UefiDriverEntryPoint:DriverEntryPoint.obj
 0001:0000035c       _ModuleEntryPoint          000000000000061c f   UefiDriverEntryPoint:DriverEntryPoint.obj
 0001:00000470       ProcessLibraryConstructorList 0000000000000730 f   Dhcp4Dxe:AutoGen.obj
 0001:00000688       Dhcp4DriverBindingSupported 0000000000000948 f   Dhcp4Dxe:Dhcp4Driver.obj
 0001:000006c0       DhcpConfigUdpIo            0000000000000980 f   Dhcp4Dxe:Dhcp4Driver.obj
 0001:00000748       Dhcp4CloseService          0000000000000a08 f   Dhcp4Dxe:Dhcp4Driver.obj
 0001:000007ac       Dhcp4CreateService         0000000000000a6c f   Dhcp4Dxe:Dhcp4Driver.obj
 0001:00000970       Dhcp4DriverBindingStart    0000000000000c30 f   Dhcp4Dxe:Dhcp4Driver.obj
 0001:00000a8c       Dhcp4DestroyChildEntry     0000000000000d4c f   Dhcp4Dxe:Dhcp4Driver.obj
 0001:00000af0       Dhcp4DriverBindingStop     0000000000000db0 f   Dhcp4Dxe:Dhcp4Driver.obj
 0001:00000cbc       DhcpInitProtocol           0000000000000f7c f   Dhcp4Dxe:Dhcp4Driver.obj
 0001:00000d68       Dhcp4ServiceBindingCreateChild 0000000000001028 f   Dhcp4Dxe:Dhcp4Driver.obj
 0001:00000ee0       Dhcp4ServiceBindingDestroyChild 00000000000011a0 f   Dhcp4Dxe:Dhcp4Driver.obj
 0001:00001104       DhcpComponentNameGetDriverName 00000000000013c4 f   Dhcp4Dxe:ComponentName.obj
 0001:00001138       DhcpComponentNameGetControllerName 00000000000013f8 f   Dhcp4Dxe:ComponentName.obj
 0001:00001310       DhcpInitRequest            00000000000015d0 f   Dhcp4Dxe:Dhcp4Io.obj
 0001:000013c8       DhcpCallUser               0000000000001688 f   Dhcp4Dxe:Dhcp4Io.obj
 0001:00001450       DhcpNotifyUser             0000000000001710 f   Dhcp4Dxe:Dhcp4Io.obj
 0001:000014c0       DhcpSetState               0000000000001780 f   Dhcp4Dxe:Dhcp4Io.obj
 0001:00001560       DhcpSetTransmitTimer       0000000000001820 f   Dhcp4Dxe:Dhcp4Io.obj
 0001:000015d4       DhcpComputeLease           0000000000001894 f   Dhcp4Dxe:Dhcp4Io.obj
 0001:00001664       DhcpConfigLeaseIoPort      0000000000001924 f   Dhcp4Dxe:Dhcp4Io.obj
 0001:000017b0       DhcpLeaseAcquired          0000000000001a70 f   Dhcp4Dxe:Dhcp4Io.obj
 0001:00001880       DhcpCleanLease             0000000000001b40 f   Dhcp4Dxe:Dhcp4Io.obj
 0001:0000194c       DhcpChooseOffer            0000000000001c0c f   Dhcp4Dxe:Dhcp4Io.obj
 0001:00001a78       DhcpEndSession             0000000000001d38 f   Dhcp4Dxe:Dhcp4Io.obj
 0001:00001acc       DhcpInput                  0000000000001d8c f   Dhcp4Dxe:Dhcp4Io.obj
 0001:00002068       DhcpOnPacketSent           0000000000002328 f   Dhcp4Dxe:Dhcp4Io.obj
 0001:00002070       DhcpSendMessage            0000000000002330 f   Dhcp4Dxe:Dhcp4Io.obj
 0001:00002548       DhcpRetransmit             0000000000002808 f   Dhcp4Dxe:Dhcp4Io.obj
 0001:000026b0       DhcpOnTimerTick            0000000000002970 f   Dhcp4Dxe:Dhcp4Io.obj
 0001:000028c8       EfiDhcp4GetModeData        0000000000002b88 f   Dhcp4Dxe:Dhcp4Impl.obj
 0001:00002a88       DhcpCleanConfigure         0000000000002d48 f   Dhcp4Dxe:Dhcp4Impl.obj
 0001:00002b00       DhcpCopyConfigure          0000000000002dc0 f   Dhcp4Dxe:Dhcp4Impl.obj
 0001:00002ccc       DhcpYieldControl           0000000000002f8c f   Dhcp4Dxe:Dhcp4Impl.obj
 0001:00002d38       EfiDhcp4Configure          0000000000002ff8 f   Dhcp4Dxe:Dhcp4Impl.obj
 0001:00002f34       EfiDhcp4Start              00000000000031f4 f   Dhcp4Dxe:Dhcp4Impl.obj
 0001:00003088       EfiDhcp4RenewRebind        0000000000003348 f   Dhcp4Dxe:Dhcp4Impl.obj
 0001:00003224       EfiDhcp4Release            00000000000034e4 f   Dhcp4Dxe:Dhcp4Impl.obj
 0001:0000330c       EfiDhcp4Stop               00000000000035cc f   Dhcp4Dxe:Dhcp4Impl.obj
 0001:00003398       EfiDhcp4Build              0000000000003658 f   Dhcp4Dxe:Dhcp4Impl.obj
 0001:00003444       Dhcp4InstanceConfigUdpIo   0000000000003704 f   Dhcp4Dxe:Dhcp4Impl.obj
 0001:000035b8       Dhcp4InstanceCreateUdpIo   0000000000003878 f   Dhcp4Dxe:Dhcp4Impl.obj
 0001:00003680       DhcpDummyExtFree           0000000000003940 f   Dhcp4Dxe:Dhcp4Impl.obj
 0001:00003684       PxeDhcpInput               0000000000003944 f   Dhcp4Dxe:Dhcp4Impl.obj
 0001:00003868       PxeDhcpDone                0000000000003b28 f   Dhcp4Dxe:Dhcp4Impl.obj
 0001:00003954       EfiDhcp4TransmitReceive    0000000000003c14 f   Dhcp4Dxe:Dhcp4Impl.obj
 0001:00003d0c       Dhcp4ParseCheckOption      0000000000003fcc f   Dhcp4Dxe:Dhcp4Impl.obj
 0001:00003d2c       EfiDhcp4Parse              0000000000003fec f   Dhcp4Dxe:Dhcp4Impl.obj
 0001:00003e00       DhcpOptionIsValid          00000000000040c0 f   Dhcp4Dxe:Dhcp4Option.obj
 0001:00003ef0       DhcpGetParameter           00000000000041b0 f   Dhcp4Dxe:Dhcp4Option.obj
 0001:00003fa8       DhcpIterateBufferOptions   0000000000004268 f   Dhcp4Dxe:Dhcp4Option.obj
 0001:0000405c       DhcpIterateOptions         000000000000431c f   Dhcp4Dxe:Dhcp4Option.obj
 0001:00004110       DhcpGetOptionLen           00000000000043d0 f   Dhcp4Dxe:Dhcp4Option.obj
 0001:00004120       DhcpFillOption             00000000000043e0 f   Dhcp4Dxe:Dhcp4Option.obj
 0001:000041ac       DhcpParseOption            000000000000446c f   Dhcp4Dxe:Dhcp4Option.obj
 0001:000042fc       DhcpValidateOptions        00000000000045bc f   Dhcp4Dxe:Dhcp4Option.obj
 0001:0000448c       DhcpAppendOption           000000000000474c f   Dhcp4Dxe:Dhcp4Option.obj
 0001:00004548       DhcpBuild                  0000000000004808 f   Dhcp4Dxe:Dhcp4Option.obj
 0001:00004758       CopyMem                    0000000000004a18 f   BaseMemoryLibRepStr:CopyMemWrapper.obj
 0001:000047f4       ZeroMem                    0000000000004ab4 f   BaseMemoryLibRepStr:ZeroMemWrapper.obj
 0001:00004864       CompareMem                 0000000000004b24 f   BaseMemoryLibRepStr:CompareMemWrapper.obj
 0001:0000493c       InternalBaseLibIsListValid 0000000000004bfc f   BaseLib:LinkedList.obj
 0001:000049a8       InsertHeadList             0000000000004c68 f   BaseLib:LinkedList.obj
 0001:000049f8       InsertTailList             0000000000004cb8 f   BaseLib:LinkedList.obj
 0001:00004a4c       IsListEmpty                0000000000004d0c f   BaseLib:LinkedList.obj
 0001:00004a84       RemoveEntryList            0000000000004d44 f   BaseLib:LinkedList.obj
 0001:00004acc       StrLen                     0000000000004d8c f   BaseLib:String.obj
 0001:00004b54       AsciiStrLen                0000000000004e14 f   BaseLib:String.obj
 0001:00004bc0       AsciiStrnCmp               0000000000004e80 f   BaseLib:String.obj
 0001:00004c8c       StrnLenS                   0000000000004f4c f   BaseLib:SafeString.obj
 0001:00004ce4       DebugPrint                 0000000000004fa4 f   BaseDebugLibSerialPort:DebugLib.obj
 0001:00004d08       DebugPrintMarker           0000000000004fc8 f   BaseDebugLibSerialPort:DebugLib.obj
 0001:00004db8       DebugAssert                0000000000005078 f   BaseDebugLibSerialPort:DebugLib.obj
 0001:00004e30       InternalAllocatePool       00000000000050f0 f   UefiMemoryAllocationLib:MemoryAllocationLib.obj
 0001:00004e60       AllocateZeroPool           0000000000005120 f   UefiMemoryAllocationLib:MemoryAllocationLib.obj
 0001:00004e88       InternalAllocateCopyPool   0000000000005148 f   UefiMemoryAllocationLib:MemoryAllocationLib.obj
 0001:00004f00       FreePool                   00000000000051c0 f   UefiMemoryAllocationLib:MemoryAllocationLib.obj
 0001:00004f44       DevicePathFromHandle       0000000000005204 f   UefiDevicePathLibDevicePathProtocol:UefiDevicePathLib.obj
 0001:00004f78       IsLanguageSupported        0000000000005238 f   UefiLib:UefiLib.obj
 0001:00005000       LookupUnicodeString2       00000000000052c0 f   UefiLib:UefiLib.obj
 0001:000050f4       AddUnicodeString2          00000000000053b4 f   UefiLib:UefiLib.obj
 0001:000052e8       FreeUnicodeStringTable     00000000000055a8 f   UefiLib:UefiLib.obj
 0001:00005358       Ip6Swap128                 0000000000005618 f   DxeNetLib:DxeNetLib.obj
 0001:00005484       NetGetUint32               0000000000005744 f   DxeNetLib:DxeNetLib.obj
 0001:000054e0       NetDestroyLinkList         00000000000057a0 f   DxeNetLib:DxeNetLib.obj
 0001:000055fc       NetLibCreateServiceChild   00000000000058bc f   DxeNetLib:DxeNetLib.obj
 0001:00005690       NetLibDestroyServiceChild  0000000000005950 f   DxeNetLib:DxeNetLib.obj
 0001:00005720       NetLibGetSnpHandle         00000000000059e0 f   DxeNetLib:DxeNetLib.obj
 0001:000057e8       NetLibDetectMedia          0000000000005aa8 f   DxeNetLib:DxeNetLib.obj
 0001:00005a10       NetLibDetectMediaWaitTimeout 0000000000005cd0 f   DxeNetLib:DxeNetLib.obj
 0001:00005c50       NetbufAllocStruct          0000000000005f10 f   DxeNetLib:NetBuffer.obj
 0001:00005d28       NetbufAlloc                0000000000005fe8 f   DxeNetLib:NetBuffer.obj
 0001:00005dd0       NetbufFreeVector           0000000000006090 f   DxeNetLib:NetBuffer.obj
 0001:00005eac       NetbufFree                 000000000000616c f   DxeNetLib:NetBuffer.obj
 0001:00005f3c       NetbufGetByte              00000000000061fc f   DxeNetLib:NetBuffer.obj
 0001:00005fe0       NetbufSetBlock             00000000000062a0 f   DxeNetLib:NetBuffer.obj
 0001:000060c4       NetbufFromExt              0000000000006384 f   DxeNetLib:NetBuffer.obj
 0001:00006320       NetbufBuildExt             00000000000065e0 f   DxeNetLib:NetBuffer.obj
 0001:00006394       NetbufAllocSpace           0000000000006654 f   DxeNetLib:NetBuffer.obj
 0001:000064b8       NetbufCopy                 0000000000006778 f   DxeNetLib:NetBuffer.obj
 0001:00006618       NetbufQueInit              00000000000068d8 f   DxeNetLib:NetBuffer.obj
 0001:00006698       NetbufQueCopy              0000000000006958 f   DxeNetLib:NetBuffer.obj
 0001:000067f8       NetbufQueFlush             0000000000006ab8 f   DxeNetLib:NetBuffer.obj
 0001:000068d4       UdpIoFreeTxToken           0000000000006b94 f   DxeUpdIoLib:DxeUdpIoLib.obj
 0001:00006924       UdpIoFreeRxToken           0000000000006be4 f   DxeUpdIoLib:DxeUdpIoLib.obj
 0001:00006974       UdpIoOnDgramSentDpc        0000000000006c34 f   DxeUpdIoLib:DxeUdpIoLib.obj
 0001:000069f0       UdpIoOnDgramSent           0000000000006cb0 f   DxeUpdIoLib:DxeUdpIoLib.obj
 0001:00006a0c       UdpIoRecycleDgram          0000000000006ccc f   DxeUpdIoLib:DxeUdpIoLib.obj
 0001:00006a60       UdpIoOnDgramRcvdDpc        0000000000006d20 f   DxeUpdIoLib:DxeUdpIoLib.obj
 0001:00006cf4       UdpIoOnDgramRcvd           0000000000006fb4 f   DxeUpdIoLib:DxeUdpIoLib.obj
 0001:00006d10       UdpIoCreateRxToken         0000000000006fd0 f   DxeUpdIoLib:DxeUdpIoLib.obj
 0001:00006de0       UdpIoCreateTxToken         00000000000070a0 f   DxeUpdIoLib:DxeUdpIoLib.obj
 0001:000070c0       UdpIoCreateIo              0000000000007380 f   DxeUpdIoLib:DxeUdpIoLib.obj
 0001:00007270       UdpIoCancelDgrams          0000000000007530 f   DxeUpdIoLib:DxeUdpIoLib.obj
 0001:000072ec       UdpIoFreeIo                00000000000075ac f   DxeUpdIoLib:DxeUdpIoLib.obj
 0001:00007408       UdpIoCleanIo               00000000000076c8 f   DxeUpdIoLib:DxeUdpIoLib.obj
 0001:0000748c       UdpIoSendDatagram          000000000000774c f   DxeUpdIoLib:DxeUdpIoLib.obj
 0001:00007560       UdpIoRecvDatagram          0000000000007820 f   DxeUpdIoLib:DxeUdpIoLib.obj
 0001:00007620       AsciiSPrint                00000000000078e0 f   BasePrintLib:PrintLib.obj
 0001:0000764c       BasePrintLibFillBuffer     000000000000790c f   BasePrintLib:PrintLibInternal.obj
 0001:00007680       BasePrintLibValueToString  0000000000007940 f   BasePrintLib:PrintLibInternal.obj
 0001:000076ec       BasePrintLibSPrintMarker   00000000000079ac f   BasePrintLib:PrintLibInternal.obj
 0001:000085f8       BasePrintLibSPrint         00000000000088b8 f   BasePrintLib:PrintLibInternal.obj
 0002:00000000       ??_C@_0CB@DMEJJJHA@?6ASSERT_EFI_ERROR?5?$CIStatus?5?$DN?5?$CFr?$CJ@ 00000000000088e0     UefiDriverEntryPoint:DriverEntryPoint.obj
 0002:00000028       ??_C@_0CH@BBNBJKHK@?$CB?$CI?$CI?$CIINTN?$CJ?$CIRETURN_STATUS?$CJ?$CIStatus@ 0000000000008908     UefiDriverEntryPoint:DriverEntryPoint.obj
 0002:00000050       ??_C@_0EG@HIPMDNNL@d?3?2myedk2?2edk2?2MdePkg?2Library?2U@ 0000000000008930     UefiDriverEntryPoint:DriverEntryPoint.obj
 0002:00000098       ??_C@_08CKEFCOML@Dhcp4Dxe@ 0000000000008978     Dhcp4Dxe:AutoGen.obj
 0002:000000b0       ??_C@_0FL@EHPHJAAO@d?3?2myedk2?2edk2?2Build?2OvmfX64?2DE@ 0000000000008990     Dhcp4Dxe:AutoGen.obj
 0002:00000110       ??_C@_0BH@NBIKCIDE@DhcpSb?5?$CB?$DN?5?$CI?$CIvoid?5?$CK?$CJ?50?$CJ@ 00000000000089f0     Dhcp4Dxe:Dhcp4Driver.obj
 0002:00000128       ??_C@_0DB@MKENDAIM@d?3?2myedk2?2edk2?2NetworkPkg?2Dhcp4@ 0000000000008a08     Dhcp4Dxe:Dhcp4Driver.obj
 0002:00000160       ??_C@_0BF@NDBIKIKC@CR?5has?5Bad?5Signature@ 0000000000008a40     Dhcp4Dxe:Dhcp4Driver.obj
 0002:00000178       ??_C@_03LKLGDMJI@eng@      0000000000008a58     Dhcp4Dxe:ComponentName.obj
 0002:0000017c       ??_C@_02LFNMGJAP@en@       0000000000008a5c     Dhcp4Dxe:ComponentName.obj
 0002:00000180       ??_C@_06DALJLGPG@eng?$DLen@ 0000000000008a60     Dhcp4Dxe:ComponentName.obj
 0002:00000188       ??_C@_1CK@HPGKMBEM@?$AAD?$AAH?$AAC?$AAP?$AA?5?$AAP?$AAr?$AAo?$AAt?$AAo?$AAc?$AAo?$AAl?$AA?5?$AAD@ 0000000000008a68     Dhcp4Dxe:ComponentName.obj
 0002:000001b8       ??_C@_1DE@IEBCOFDJ@?$AAD?$AAH?$AAC?$AAP?$AAv?$AA4?$AA?5?$AA?$CI?$AAS?$AAt?$AAa?$AAt?$AAe?$AA?$DN?$AA0@ 0000000000008a98     Dhcp4Dxe:ComponentName.obj
 0002:000001f0       ??_C@_1CO@COFKBJKK@?$AAD?$AAH?$AAC?$AAP?$AAv?$AA4?$AA?5?$AA?$CI?$AAS?$AAt?$AAa?$AAt?$AAe?$AA?$DN?$AA1@ 0000000000008ad0     Dhcp4Dxe:ComponentName.obj
 0002:00000220       ??_C@_1DI@NDBKOBAP@?$AAD?$AAH?$AAC?$AAP?$AAv?$AA4?$AA?5?$AA?$CI?$AAS?$AAt?$AAa?$AAt?$AAe?$AA?$DN?$AA2@ 0000000000008b00     Dhcp4Dxe:ComponentName.obj
 0002:00000258       ??_C@_1DK@CEPEMOEI@?$AAD?$AAH?$AAC?$AAP?$AAv?$AA4?$AA?5?$AA?$CI?$AAS?$AAt?$AAa?$AAt?$AAe?$AA?$DN?$AA3@ 0000000000008b38     Dhcp4Dxe:ComponentName.obj
 0002:00000298       ??_C@_1DA@HBIBMAOH@?$AAD?$AAH?$AAC?$AAP?$AAv?$AA4?$AA?5?$AA?$CI?$AAS?$AAt?$AAa?$AAt?$AAe?$AA?$DN?$AA4@ 0000000000008b78     Dhcp4Dxe:ComponentName.obj
 0002:000002c8       ??_C@_1DG@OMIOKDFI@?$AAD?$AAH?$AAC?$AAP?$AAv?$AA4?$AA?5?$AA?$CI?$AAS?$AAt?$AAa?$AAt?$AAe?$AA?$DN?$AA5@ 0000000000008ba8     Dhcp4Dxe:ComponentName.obj
 0002:00000300       ??_C@_1DI@MHAICNFN@?$AAD?$AAH?$AAC?$AAP?$AAv?$AA4?$AA?5?$AA?$CI?$AAS?$AAt?$AAa?$AAt?$AAe?$AA?$DN?$AA6@ 0000000000008be0     Dhcp4Dxe:ComponentName.obj
 0002:00000338       ??_C@_1DK@HDJGKEJ@?$AAD?$AAH?$AAC?$AAP?$AAv?$AA4?$AA?5?$AA?$CI?$AAS?$AAt?$AAa?$AAt?$AAe?$AA?$DN?$AA7@ 0000000000008c18     Dhcp4Dxe:ComponentName.obj
 0002:00000378       ??_C@_1DI@NJNKOJF@?$AAD?$AAH?$AAC?$AAP?$AAv?$AA4?$AA?5?$AA?$CI?$AAS?$AAt?$AAa?$AAt?$AAe?$AA?$DN?$AA8@ 0000000000008c58     Dhcp4Dxe:ComponentName.obj
 0002:000003b0       mDhcp4ControllerName       0000000000008c90     Dhcp4Dxe:ComponentName.obj
 0002:00000400       ??_C@_0EL@IMFLCNDM@?$CIDhcpSb?9?$DODhcpState?5?$DN?$DN?5Dhcp4Init@ 0000000000008ce0     Dhcp4Dxe:Dhcp4Io.obj
 0002:00000450       ??_C@_0CN@JKFMKOAF@d?3?2myedk2?2edk2?2NetworkPkg?2Dhcp4@ 0000000000008d30     Dhcp4Dxe:Dhcp4Io.obj
 0002:00000480       ??_C@_0CG@NMEIIGNO@DhcpSb?9?$DOMaxRetries?5?$DO?5DhcpSb?9?$DOCu@ 0000000000008d60     Dhcp4Dxe:Dhcp4Io.obj
 0002:000004a8       ??_C@_0BF@CFFJOIMG@Para?5?$CB?$DN?5?$CI?$CIvoid?5?$CK?$CJ?50?$CJ@ 0000000000008d88     Dhcp4Dxe:Dhcp4Io.obj
 0002:000004c0       ??_C@_0CC@NCLMIKPB@DhcpSb?9?$DOLastOffer?5?$CB?$DN?5?$CI?$CIvoid?5?$CK?$CJ?5@ 0000000000008da0     Dhcp4Dxe:Dhcp4Io.obj
 0002:000004f0       ??_C@_0EH@OMHKLGEA@?$CB?$CI?$CI?$CIDhcpSb?9?$DOPara?$CJ?5?$DN?$DN?5?$CI?$CIvoid?5?$CK?$CJ?5@ 0000000000008dd0     Dhcp4Dxe:Dhcp4Io.obj
 0002:00000538       ??_C@_0DE@DGHGICGF@Lease?5confirmed?5isn?8t?5the?5same?5@ 0000000000008e18     Dhcp4Dxe:Dhcp4Io.obj
 0002:00000570       ??_C@_0CC@KHGCMCIC@Lease?5is?5denied?5upon?5received?5A@ 0000000000008e50     Dhcp4Dxe:Dhcp4Io.obj
 0002:00000598       ??_C@_0CE@KEHNIHFP@Lease?5is?5denied?5upon?5entering?5b@ 0000000000008e78     Dhcp4Dxe:Dhcp4Io.obj
 0002:000005c0       ??_C@_0BK@NCMKJKO@UdpPacket?5?$CB?$DN?5?$CI?$CIvoid?5?$CK?$CJ?50?$CJ@ 0000000000008ea0     Dhcp4Dxe:Dhcp4Io.obj
 0002:000005e0       ??_C@_0DA@IGPOKGJP@?$CIPara?5?$CB?$DN?5?$CI?$CIvoid?5?$CK?$CJ?50?$CJ?$CJ?5?$CG?$CG?5?$CIPara@ 0000000000008ec0     Dhcp4Dxe:Dhcp4Io.obj
 0002:00000610       ??_C@_0BJ@JNAJIGNN@SeedHead?5?$CB?$DN?5?$CI?$CIvoid?5?$CK?$CJ?50?$CJ@ 0000000000008ef0     Dhcp4Dxe:Dhcp4Io.obj
 0002:00000630       ??_C@_0BG@CJCMGFLM@UdpIo?5?$CB?$DN?5?$CI?$CIvoid?5?$CK?$CJ?50?$CJ@ 0000000000008f10     Dhcp4Dxe:Dhcp4Io.obj
 0002:00000648       ??_C@_0CD@LOFPHINI@DhcpSb?9?$DOLastPacket?5?$CB?$DN?5?$CI?$CIvoid?5?$CK?$CJ@ 0000000000008f28     Dhcp4Dxe:Dhcp4Io.obj
 0002:00000670       ??_C@_0CP@KCJCHDIP@d?3?2myedk2?2edk2?2NetworkPkg?2Dhcp4@ 0000000000008f50     Dhcp4Dxe:Dhcp4Impl.obj
 0002:000006a0       ??_C@_0CG@PECIAPJI@Extra?5renew?1rebind?5by?5the?5appli@ 0000000000008f80     Dhcp4Dxe:Dhcp4Impl.obj
 0002:000006c8       ??_C@_09HOJIKACN@Class?5?$DM?55@ 0000000000008fa8     Dhcp4Dxe:Dhcp4Impl.obj
 0002:000006d8       ??_C@_0CA@FEAGJGGC@Instance?9?$DOToken?5?$CB?$DN?5?$CI?$CIvoid?5?$CK?$CJ?50?$CJ@ 0000000000008fb8     Dhcp4Dxe:Dhcp4Impl.obj
 0002:000006f8       ??_C@_0BH@CELONLOG@Packet?5?$CB?$DN?5?$CI?$CIvoid?5?$CK?$CJ?50?$CJ@ 0000000000008fd8     Dhcp4Dxe:Dhcp4Impl.obj
 0002:00000710       ??_C@_09BOCNJMPG@Unit?5?$CB?$DN?50@ 0000000000008ff0     Dhcp4Dxe:Dhcp4Option.obj
 0002:00000720       ??_C@_0DB@KOMLBEOK@d?3?2myedk2?2edk2?2NetworkPkg?2Dhcp4@ 0000000000009000     Dhcp4Dxe:Dhcp4Option.obj
 0002:00000758       ??_C@_0DJ@KABCJLM@?$CICount?5?$CB?$DN?5?$CI?$CIvoid?5?$CK?$CJ?50?$CJ?$CJ?5?$CG?$CG?5?$CIOpt@ 0000000000009038     Dhcp4Dxe:Dhcp4Option.obj
 0002:00000798       ??_C@_0BK@FNCDJPN@AllOption?5?$CB?$DN?5?$CI?$CIvoid?5?$CK?$CJ?50?$CJ@ 0000000000009078     Dhcp4Dxe:Dhcp4Option.obj
 0002:000007b8       ??_C@_0N@CLPFBGIB@DataLen?5?$CB?$DN?50@ 0000000000009098     Dhcp4Dxe:Dhcp4Option.obj
 0002:000007d0       ??_C@_0ED@MKGCMJG@?$CILength?5?9?51?$CJ?5?$DM?$DN?5?$CI0xFFFFFFFFFFFF@ 00000000000090b0     BaseMemoryLibRepStr:CopyMemWrapper.obj
 0002:00000820       ??_C@_0ED@JAIIHABO@d?3?2myedk2?2edk2?2MdePkg?2Library?2B@ 0000000000009100     BaseMemoryLibRepStr:CopyMemWrapper.obj
 0002:00000868       ??_C@_0DO@MAOBOFEG@?$CILength?5?9?51?$CJ?5?$DM?$DN?5?$CI0xFFFFFFFFFFFF@ 0000000000009148     BaseMemoryLibRepStr:CopyMemWrapper.obj
 0002:000008a8       ??_C@_0BH@IACGKAP@Buffer?5?$CB?$DN?5?$CI?$CIvoid?5?$CK?$CJ?50?$CJ@ 0000000000009188     BaseMemoryLibRepStr:ZeroMemWrapper.obj
 0002:000008c0       ??_C@_0ED@CECKBBNJ@d?3?2myedk2?2edk2?2MdePkg?2Library?2B@ 00000000000091a0     BaseMemoryLibRepStr:ZeroMemWrapper.obj
 0002:00000908       ??_C@_0DG@EEENIGGL@Length?5?$DM?$DN?5?$CI0xFFFFFFFFFFFFFFFFUL@ 00000000000091e8     BaseMemoryLibRepStr:ZeroMemWrapper.obj
 0002:00000940       ??_C@_0CC@JOEHDGKB@DestinationBuffer?5?$CB?$DN?5?$CI?$CIvoid?5?$CK?$CJ?5@ 0000000000009220     BaseMemoryLibRepStr:CompareMemWrapper.obj
 0002:00000970       ??_C@_0EG@FCOMBDPM@d?3?2myedk2?2edk2?2MdePkg?2Library?2B@ 0000000000009250     BaseMemoryLibRepStr:CompareMemWrapper.obj
 0002:000009b8       ??_C@_0BN@MDMCNBCC@SourceBuffer?5?$CB?$DN?5?$CI?$CIvoid?5?$CK?$CJ?50?$CJ@ 0000000000009298     BaseMemoryLibRepStr:CompareMemWrapper.obj
 0002:000009d8       ??_C@_0BF@NJNGJMPC@List?5?$CB?$DN?5?$CI?$CIvoid?5?$CK?$CJ?50?$CJ@ 00000000000092b8     BaseLib:LinkedList.obj
 0002:000009f0       ??_C@_0DD@DMMJEGIP@d?3?2myedk2?2edk2?2MdePkg?2Library?2B@ 00000000000092d0     BaseLib:LinkedList.obj
 0002:00000a28       ??_C@_0CC@KDLPLAED@List?9?$DOForwardLink?5?$CB?$DN?5?$CI?$CIvoid?5?$CK?$CJ?5@ 0000000000009308     BaseLib:LinkedList.obj
 0002:00000a50       ??_C@_0BP@IJJCCMAK@List?9?$DOBackLink?5?$CB?$DN?5?$CI?$CIvoid?5?$CK?$CJ?50?$CJ@ 0000000000009330     BaseLib:LinkedList.obj
 0002:00000a70       ??_C@_0BJ@NJABNCDK@ListHead?5?$CB?$DN?5?$CI?$CIvoid?5?$CK?$CJ?50?$CJ@ 0000000000009350     BaseLib:LinkedList.obj
 0002:00000a90       ??_C@_0CG@LGIALJFK@InternalBaseLibIsListValid?5?$CILis@ 0000000000009370     BaseLib:LinkedList.obj
 0002:00000ab8       ??_C@_0CC@JLDICICM@InternalBaseLibIsListValid?5?$CILis@ 0000000000009398     BaseLib:LinkedList.obj
 0002:00000ae0       ??_C@_0BF@NMBJJECB@?$CBIsListEmpty?5?$CIEntry?$CJ@ 00000000000093c0     BaseLib:LinkedList.obj
 0002:00000af8       ??_C@_0BH@MAAHKCPC@String?5?$CB?$DN?5?$CI?$CIvoid?5?$CK?$CJ?50?$CJ@ 00000000000093d8     BaseLib:String.obj
 0002:00000b10       ??_C@_0CP@DJBLNMJI@d?3?2myedk2?2edk2?2MdePkg?2Library?2B@ 00000000000093f0     BaseLib:String.obj
 0002:00000b40       ??_C@_0CC@GFNLNIOC@?$CI?$CIUINTN?$CJString?5?$CG?50x00000001?$CJ?5?$DN?$DN@ 0000000000009420     BaseLib:String.obj
 0002:00000b68       ??_C@_0DK@EOJCOAME@Length?5?$DM?5_gPcd_FixedAtBuild_Pcd@ 0000000000009448     BaseLib:String.obj
 0002:00000ba8       ??_C@_0DI@MDIKFADO@Length?5?$DM?5_gPcd_FixedAtBuild_Pcd@ 0000000000009488     BaseLib:String.obj
 0002:00000be0       ??_C@_0BL@IKFBNFIL@AsciiStrSize?5?$CIFirstString?$CJ@ 00000000000094c0     BaseLib:String.obj
 0002:00000c00       ??_C@_0BM@EDNOKLLE@AsciiStrSize?5?$CISecondString?$CJ@ 00000000000094e0     BaseLib:String.obj
 0002:00000c20       ??_C@_0DJ@JJHGIFMP@Length?5?$DM?$DN?5_gPcd_FixedAtBuild_Pc@ 0000000000009500     BaseLib:String.obj
 0002:00000c60       ??_C@_0DC@DDBICJIK@d?3?2myedk2?2edk2?2MdePkg?2Library?2B@ 0000000000009540     BaseLib:Unaligned.obj
 0002:00000c98       ??_C@_0DD@OKIGPFG@d?3?2myedk2?2edk2?2MdePkg?2Library?2B@ 0000000000009578     BaseLib:SafeString.obj
 0002:00000cd0       ??_C@_0BJ@CNKJJNE@?$CIBuffer?5?$CB?$DN?5?$CI?$CIvoid?5?$CK?$CJ?50?$CJ?$CJ@ 00000000000095b0     BaseLib:SafeString.obj
 0002:00000cf0       ??_C@_0N@KGHEHMDL@Divisor?5?$CB?$DN?50@ 00000000000095d0     BaseLib:DivU64x32.obj
 0002:00000d00       ??_C@_0BH@LKMBFCBF@Format?5?$CB?$DN?5?$CI?$CIvoid?5?$CK?$CJ?50?$CJ@ 00000000000095e0     BaseDebugLibSerialPort:DebugLib.obj
 0002:00000d20       ??_C@_0EA@MCEJFCHO@d?3?2myedk2?2edk2?2MdePkg?2Library?2B@ 0000000000009600     BaseDebugLibSerialPort:DebugLib.obj
 0002:00000d60       ??_C@_0BI@NOCKJDBJ@ASSERT?5?$FL?$CFa?$FN?5?$CFa?$CI?$CFd?$CJ?3?5?$CFa?6@ 0000000000009640     BaseDebugLibSerialPort:DebugLib.obj
 0002:00000d78       ??_C@_0BN@COECPDCC@gImageHandle?5?$CB?$DN?5?$CI?$CIvoid?5?$CK?$CJ?50?$CJ@ 0000000000009658     UefiBootServicesTableLib:UefiBootServicesTableLib.obj
 0002:00000da0       ??_C@_0FC@HJEJKBBP@d?3?2myedk2?2edk2?2MdePkg?2Library?2U@ 0000000000009680     UefiBootServicesTableLib:UefiBootServicesTableLib.obj
 0002:00000df8       ??_C@_0BE@DGNHAHIL@gST?5?$CB?$DN?5?$CI?$CIvoid?5?$CK?$CJ?50?$CJ@ 00000000000096d8     UefiBootServicesTableLib:UefiBootServicesTableLib.obj
 0002:00000e10       ??_C@_0BE@BDFJLGLN@gBS?5?$CB?$DN?5?$CI?$CIvoid?5?$CK?$CJ?50?$CJ@ 00000000000096f0     UefiBootServicesTableLib:UefiBootServicesTableLib.obj
 0002:00000e30       ??_C@_0EM@BLKCBDHP@d?3?2myedk2?2edk2?2MdePkg?2Library?2U@ 0000000000009710     UefiMemoryAllocationLib:MemoryAllocationLib.obj
 0002:00000e80       ??_C@_0DO@GEEICOOO@AllocationSize?5?$DM?$DN?5?$CI0xFFFFFFFFFF@ 0000000000009760     UefiMemoryAllocationLib:MemoryAllocationLib.obj
 0002:00000ec0       ??_C@_0FG@PKIHNGDJ@d?3?2myedk2?2edk2?2MdePkg?2Library?2U@ 00000000000097a0     UefiDevicePathLibDevicePathProtocol:UefiDevicePathLib.obj
 0002:00000f18       ??_C@_0DC@CNNBPJA@mDevicePathLibDevicePathUtiliti@ 00000000000097f8     UefiDevicePathLibDevicePathProtocol:UefiDevicePathLib.obj
 0002:00000f50       ??_C@_0BE@OBDFIHND@gRT?5?$CB?$DN?5?$CI?$CIvoid?5?$CK?$CJ?50?$CJ@ 0000000000009830     UefiRuntimeServicesTableLib:UefiRuntimeServicesTableLib.obj
 0002:00000f70       ??_C@_0FI@ELFALICJ@d?3?2myedk2?2edk2?2MdePkg?2Library?2U@ 0000000000009850     UefiRuntimeServicesTableLib:UefiRuntimeServicesTableLib.obj
 0002:00000fc8       ??_C@_0DI@BANHGNLM@d?3?2myedk2?2edk2?2MdePkg?2Library?2U@ 00000000000098a8     UefiLib:UefiDriverModel.obj
 0002:00001000       ??_C@_0DF@FLOOCGEB@d?3?2myedk2?2edk2?2NetworkPkg?2Libra@ 00000000000098e0     DxeDpcLib:DpcLib.obj
 0002:00001040       gIp4AllMasks               0000000000009920     DxeNetLib:DxeNetLib.obj
 0002:000010c8       ??_C@_0DI@FNJBLHID@d?3?2myedk2?2edk2?2NetworkPkg?2Libra@ 00000000000099a8     DxeNetLib:DxeNetLib.obj
 0002:00001100       ??_C@_0BE@FCBOEPIJ@Ip6?5?$CB?$DN?5?$CI?$CIvoid?5?$CK?$CJ?50?$CJ@ 00000000000099e0     DxeNetLib:DxeNetLib.obj
 0002:00001118       ??_C@_0BE@MKMIHFDD@Buf?5?$CB?$DN?5?$CI?$CIvoid?5?$CK?$CJ?50?$CJ@ 00000000000099f8     DxeNetLib:DxeNetLib.obj
 0002:00001130       ??_C@_0EG@FMMHPKDI@?$CIServiceBindingGuid?5?$CB?$DN?5?$CI?$CIvoid?5?$CK@ 0000000000009a10     DxeNetLib:DxeNetLib.obj
 0002:00001178       ??_C@_0CD@PCCGAHJM@ServiceBindingGuid?5?$CB?$DN?5?$CI?$CIvoid?5?$CK?$CJ@ 0000000000009a58     DxeNetLib:DxeNetLib.obj
 0002:000011a0       ??_C@_0BN@NHNKBDLL@MediaPresent?5?$CB?$DN?5?$CI?$CIvoid?5?$CK?$CJ?50?$CJ@ 0000000000009a80     DxeNetLib:DxeNetLib.obj
 0002:000011c0       ??_C@_0BM@CPKMECHF@MCastFilter?5?$CB?$DN?5?$CI?$CIvoid?5?$CK?$CJ?50?$CJ@ 0000000000009aa0     DxeNetLib:DxeNetLib.obj
 0002:000011e0       ??_C@_0BA@MDHFKOHH@BlockOpNum?5?$DO?$DN?51@ 0000000000009ac0     DxeNetLib:NetBuffer.obj
 0002:000011f0       ??_C@_0DI@EDLIOPOO@d?3?2myedk2?2edk2?2NetworkPkg?2Libra@ 0000000000009ad0     DxeNetLib:NetBuffer.obj
 0002:00001228       ??_C@_07DJKBCKNJ@Len?5?$DO?50@ 0000000000009b08     DxeNetLib:NetBuffer.obj
 0002:00001230       ??_C@_0BH@HKOFEGGJ@Vector?5?$CB?$DN?5?$CI?$CIvoid?5?$CK?$CJ?50?$CJ@ 0000000000009b10     DxeNetLib:NetBuffer.obj
 0002:00001250       ??_C@_0GP@BJHFFKHJ@?$CI?$CIVector?$CJ?5?$CB?$DN?5?$CI?$CIvoid?5?$CK?$CJ?50?$CJ?$CJ?5?$CG?$CG?5?$CI@ 0000000000009b30     DxeNetLib:NetBuffer.obj
 0002:000012c0       ??_C@_0BD@DIPGLBBO@Vector?9?$DORefCnt?5?$DO?50@ 0000000000009ba0     DxeNetLib:NetBuffer.obj
 0002:000012d8       ??_C@_0BF@LJMLDKHP@Nbuf?5?$CB?$DN?5?$CI?$CIvoid?5?$CK?$CJ?50?$CJ@ 0000000000009bb8     DxeNetLib:NetBuffer.obj
 0002:000012f0       ??_C@_0GL@IFMHLCLE@?$CI?$CINbuf?$CJ?5?$CB?$DN?5?$CI?$CIvoid?5?$CK?$CJ?50?$CJ?$CJ?5?$CG?$CG?5?$CI?$CIN@ 0000000000009bd0     DxeNetLib:NetBuffer.obj
 0002:00001360       ??_C@_0BB@DOGOGLPG@Nbuf?9?$DORefCnt?5?$DO?50@ 0000000000009c40     DxeNetLib:NetBuffer.obj
 0002:00001378       ??_C@_0BD@CJPEEIBJ@IsListEmpty?5?$CIHead?$CJ@ 0000000000009c58     DxeNetLib:NetBuffer.obj
 0002:00001390       ??_C@_0HL@FGMBHKJG@?$CI?$CINbuf?9?$DOVector?$CJ?5?$CB?$DN?5?$CI?$CIvoid?5?$CK?$CJ?50?$CJ@ 0000000000009c70     DxeNetLib:NetBuffer.obj
 0002:00001410       ??_C@_0BJ@KIFBBHL@Index?5?$DM?5Nbuf?9?$DOBlockOpNum@ 0000000000009cf0     DxeNetLib:NetBuffer.obj
 0002:00001430       ??_C@_0EL@JHACLFKC@?$CIExtFragment?5?$CB?$DN?5?$CI?$CIvoid?5?$CK?$CJ?50?$CJ?$CJ?5?$CG@ 0000000000009d10     DxeNetLib:NetBuffer.obj
 0002:0000147c       ??_C@_04IFLCJLKB@Dest@     0000000000009d5c     DxeNetLib:NetBuffer.obj
 0002:00001490       ??_C@_0HB@ILKEBNKK@?$CI?$CINbufQue?$CJ?5?$CB?$DN?5?$CI?$CIvoid?5?$CK?$CJ?50?$CJ?$CJ?5?$CG?$CG?5@ 0000000000009d70     DxeNetLib:NetBuffer.obj
 0002:00001508       ??_C@_0BF@CPBCKIGP@Dest?5?$CB?$DN?5?$CI?$CIvoid?5?$CK?$CJ?50?$CJ@ 0000000000009de8     DxeNetLib:NetBuffer.obj
 0002:00001520       ??_C@_0BC@FEDIJHFF@?$CI?$CIBOOLEAN?$CJ?$CI0?$DN?$DN1?$CJ?$CJ@ 0000000000009e00     DxeUpdIoLib:DxeUdpIoLib.obj
 0002:00001538       ??_C@_0DM@GMGMAGPF@d?3?2myedk2?2edk2?2NetworkPkg?2Libra@ 0000000000009e18     DxeUpdIoLib:DxeUdpIoLib.obj
 0002:00001580       ??_C@_0EM@EAGAKEAM@TxToken?9?$DOSignature?5?$DN?$DN?5?$CI?$CI?$CI?8U?8?$CJ?5?$HM@ 0000000000009e60     DxeUpdIoLib:DxeUdpIoLib.obj
 0002:000015d0       ??_C@_0EH@KJFEHACH@?$CITxToken?9?$DOUdpIo?9?$DOUdpVersion?5?$DN?$DN?5@ 0000000000009eb0     DxeUpdIoLib:DxeUdpIoLib.obj
 0002:00001620       ??_C@_0HK@DPEALHJD@?$CIRxToken?9?$DOSignature?5?$DN?$DN?5?$CI?$CI?$CI?8U?8?$CJ?5@ 0000000000009f00     DxeUpdIoLib:DxeUdpIoLib.obj
 0002:000016a0       ??_C@_0EH@BDFOIFDG@?$CIRxToken?9?$DOUdpIo?9?$DOUdpVersion?5?$DN?$DN?5@ 0000000000009f80     DxeUpdIoLib:DxeUdpIoLib.obj
 0002:000016e8       ??_C@_0DF@JLEKKBEN@?$CIUdpIo?9?$DOUdpVersion?5?$DN?$DN?54?$CJ?5?$HM?$HM?5?$CIUd@ 0000000000009fc8     DxeUpdIoLib:DxeUdpIoLib.obj
 0002:00001720       ??_C@_0BK@LIEJHLLP@Configure?5?$CB?$DN?5?$CI?$CIvoid?5?$CK?$CJ?50?$CJ@ 000000000000a000     DxeUpdIoLib:DxeUdpIoLib.obj
 0002:00001740       ??_C@_0DO@DLJLNPNA@d?3?2myedk2?2edk2?2MdePkg?2Library?2B@ 000000000000a020     BasePrintLib:PrintLibInternal.obj
 0002:00001780       ??_C@_0EB@HDGIDCIO@?$CIBufferSize?5?$DM?$DN?5?$CI_gPcd_FixedAtBu@ 000000000000a060     BasePrintLib:PrintLibInternal.obj
 0002:000017c8       ??_C@_0BJ@PPAKKDJG@?$CIFormat?5?$CB?$DN?5?$CI?$CIvoid?5?$CK?$CJ?50?$CJ?$CJ@ 000000000000a0a8     BasePrintLib:PrintLibInternal.obj
 0002:000017f0       ??_C@_0ED@LPDDCECB@?$CIBufferSize?5?$DM?$DN?5?$CI_gPcd_FixedAtBu@ 000000000000a0d0     BasePrintLib:PrintLibInternal.obj
 0002:00001840       ??_C@_0IM@BFJJFLGB@?$CIStrnLenS?5?$CI?$CICHAR16?5?$CK?$CJFormat?0?5?$CI_@ 000000000000a120     BasePrintLib:PrintLibInternal.obj
 0002:000018d0       ??_C@_0ID@PLGJGION@?$CIAsciiStrnLenS?5?$CIFormat?0?5?$CI_gPcd_@ 000000000000a1b0     BasePrintLib:PrintLibInternal.obj
 0002:00001958       ??_C@_0O@MLOLIMFM@?$DMnull?5string?$DO@ 000000000000a238     BasePrintLib:PrintLibInternal.obj
 0002:00001968       ??_C@_0M@BJJDNPHK@?$DMnull?5guid?$DO@ 000000000000a248     BasePrintLib:PrintLibInternal.obj
 0002:00001978       ??_C@_0DB@PMLHLBMO@?$CF08x?9?$CF04x?9?$CF04x?9?$CF02x?$CF02x?9?$CF02x?$CF02@ 000000000000a258     BasePrintLib:PrintLibInternal.obj
 0002:000019b0       ??_C@_0M@LHGBCIKM@?$DMnull?5time?$DO@ 000000000000a290     BasePrintLib:PrintLibInternal.obj
 0002:000019c0       ??_C@_0BK@FCPKCIDD@?$CF02d?1?$CF02d?1?$CF04d?5?5?$CF02d?3?$CF02d@ 000000000000a2a0     BasePrintLib:PrintLibInternal.obj
 0002:000019dc       ??_C@_04JIMNDDED@?$CF08X@  000000000000a2bc     BasePrintLib:PrintLibInternal.obj
 0002:000019e4       ??_C@_02PCIJFNDE@?$AN?6@   000000000000a2c4     BasePrintLib:PrintLibInternal.obj
 0002:000019e8       ??_C@_01LIIJDEN@?$AN@      000000000000a2c8     BasePrintLib:PrintLibInternal.obj
 0002:000019f0       mWarningString             000000000000a2d0     BasePrintLib:PrintLibInternal.obj
 0002:00001a90       mErrorString               000000000000a370     BasePrintLib:PrintLibInternal.obj
 0002:00001d50       mHexStr                    000000000000a630     BasePrintLib:PrintLibInternal.obj
 0002:00001d60       ??_C@_0DL@JEBMKBEC@d?3?2myedk2?2edk2?2MdePkg?2Library?2B@ 000000000000a640     BaseLib:DivU64x32Remainder.obj
 0002:00001df0       __volatile_metadata        000000000000a6d0     <linker-defined>
 0003:00000000       gEfiLoadedImageProtocolGuid 000000000000a840     Dhcp4Dxe:AutoGen.obj
 0003:00000010       gEfiComponentName2ProtocolGuid 000000000000a850     Dhcp4Dxe:AutoGen.obj
 0003:00000020       gEfiAdapterInformationProtocolGuid 000000000000a860     Dhcp4Dxe:AutoGen.obj
 0003:00000030       gEfiDhcp4ServiceBindingProtocolGuid 000000000000a870     Dhcp4Dxe:AutoGen.obj
 0003:00000040       gEfiDevicePathProtocolGuid 000000000000a880     Dhcp4Dxe:AutoGen.obj
 0003:00000050       gEfiSimpleNetworkProtocolGuid 000000000000a890     Dhcp4Dxe:AutoGen.obj
 0003:00000060       gEfiUdp4ServiceBindingProtocolGuid 000000000000a8a0     Dhcp4Dxe:AutoGen.obj
 0003:00000070       gEfiDevicePathUtilitiesProtocolGuid 000000000000a8b0     Dhcp4Dxe:AutoGen.obj
 0003:00000080       gEfiUdp6ProtocolGuid       000000000000a8c0     Dhcp4Dxe:AutoGen.obj
 0003:00000090       gEfiUdp6ServiceBindingProtocolGuid 000000000000a8d0     Dhcp4Dxe:AutoGen.obj
 0003:000000a0       gEfiAdapterInfoMediaStateGuid 000000000000a8e0     Dhcp4Dxe:AutoGen.obj
 0003:000000b0       gEfiDriverBindingProtocolGuid 000000000000a8f0     Dhcp4Dxe:AutoGen.obj
 0003:000000c0       gEfiUdp4ProtocolGuid       000000000000a900     Dhcp4Dxe:AutoGen.obj
 0003:000000d0       gEfiComponentNameProtocolGuid 000000000000a910     Dhcp4Dxe:AutoGen.obj
 0003:000000e0       gEfiDpcProtocolGuid        000000000000a920     Dhcp4Dxe:AutoGen.obj
 0003:000000f0       gEfiDhcp4ProtocolGuid      000000000000a930     Dhcp4Dxe:AutoGen.obj
 0003:00000100       gDhcp4DriverBinding        000000000000a940     Dhcp4Dxe:Dhcp4Driver.obj
 0003:00000130       mDhcp4ServiceBindingTemplate 000000000000a970     Dhcp4Dxe:Dhcp4Driver.obj
 0003:00000140       gDhcp4ComponentName2       000000000000a980     Dhcp4Dxe:ComponentName.obj
 0003:00000158       gDhcp4ComponentName        000000000000a998     Dhcp4Dxe:ComponentName.obj
 0003:00000170       mDhcpDriverNameTable       000000000000a9b0     Dhcp4Dxe:ComponentName.obj
 0003:00000190       mDhcp4DefaultTimeout       000000000000a9d0     Dhcp4Dxe:Dhcp4Io.obj
 0003:000001a0       mDhcp4ProtocolTemplate     000000000000a9e0     Dhcp4Dxe:Dhcp4Impl.obj
 0003:000001f0       DhcpOptionFormats          000000000000aa30     Dhcp4Dxe:Dhcp4Option.obj
 0003:00000da8       gDhcpControllerNameTable   000000000000b5e8     Dhcp4Dxe:ComponentName.obj
 0003:00000db0       gST                        000000000000b5f0     UefiBootServicesTableLib:UefiBootServicesTableLib.obj
 0003:00000db8       gBS                        000000000000b5f8     UefiBootServicesTableLib:UefiBootServicesTableLib.obj
 0003:00000dc0       gImageHandle               000000000000b600     UefiBootServicesTableLib:UefiBootServicesTableLib.obj
 0003:00000dc8       mDevicePathLibDevicePathUtilities 000000000000b608     UefiDevicePathLibDevicePathProtocol:UefiDevicePathLib.obj
 0003:00000dd0       gRT                        000000000000b610     UefiRuntimeServicesTableLib:UefiRuntimeServicesTableLib.obj
 0003:00000dd8       mZeroIp4Addr               000000000000b618     DxeNetLib:DxeNetLib.obj
 0003:00000ddc       gParity                    000000000000b61c     PcAtSerialPortLib:SerialPortLib.obj
 0003:00000ddd       gBreakSet                  000000000000b61d     PcAtSerialPortLib:SerialPortLib.obj
 0003:00000de0       mDpc                       000000000000b620     <common>

 entry point at        0001:0000035c

 Static symbols

 0001:0000001a       InternalMemCopyMem.0       00000000000002da     BaseMemoryLibRepStr:CopyMem.obj
 0001:0000002a       @CopyBackward              00000000000002ea     BaseMemoryLibRepStr:CopyMem.obj
 0001:00000033       @CopyBytes                 00000000000002f3     BaseMemoryLibRepStr:CopyMem.obj
 0001:0000014e       TdVmCall.no_return_data    000000000000040e     BaseLib:TdVmcall.obj
 0001:000001cb       TdCall.exit                000000000000048b     BaseLib:TdCall.obj
 0005:00000000       $unwind$_DriverUnloadHandler 000000000000bbc0     UefiDriverEntryPoint:DriverEntryPoint.obj
 0005:00000010       $unwind$_ModuleEntryPoint  000000000000bbd0     UefiDriverEntryPoint:DriverEntryPoint.obj
 0005:0000001c       $unwind$ProcessLibraryConstructorList 000000000000bbdc     Dhcp4Dxe:AutoGen.obj
 0005:0000001c       $unwind$DhcpSetState       000000000000bbdc     Dhcp4Dxe:Dhcp4Io.obj
 0005:0000002c       $unwind$DhcpComponentNameGetDriverName 000000000000bbec     Dhcp4Dxe:ComponentName.obj
 0005:0000002c       $unwind$Dhcp4DriverBindingSupported 000000000000bbec     Dhcp4Dxe:Dhcp4Driver.obj
 0005:00000034       $unwind$DhcpConfigUdpIo    000000000000bbf4     Dhcp4Dxe:Dhcp4Driver.obj
 0005:00000044       $unwind$InternalBaseLibIsListValid 000000000000bc04     BaseLib:LinkedList.obj
 0005:00000044       $unwind$IsListEmpty        000000000000bc04     BaseLib:LinkedList.obj
 0005:00000044       $unwind$RemoveEntryList    000000000000bc04     BaseLib:LinkedList.obj
 0005:00000044       $unwind$StrnLenS           000000000000bc04     BaseLib:SafeString.obj
 0005:00000044       $unwind$AllocateZeroPool   000000000000bc04     UefiMemoryAllocationLib:MemoryAllocationLib.obj
 0005:00000044       $unwind$Dhcp4CloseService  000000000000bc04     Dhcp4Dxe:Dhcp4Driver.obj
 0005:00000044       $unwind$DhcpYieldControl   000000000000bc04     Dhcp4Dxe:Dhcp4Impl.obj
 0005:00000044       $unwind$DhcpSetTransmitTimer 000000000000bc04     Dhcp4Dxe:Dhcp4Io.obj
 0005:00000044       $unwind$DhcpGetParameter   000000000000bc04     Dhcp4Dxe:Dhcp4Option.obj
 0005:00000044       $unwind$NetGetUint32       000000000000bc04     DxeNetLib:DxeNetLib.obj
 0005:00000044       $unwind$NetbufFree         000000000000bc04     DxeNetLib:NetBuffer.obj
 0005:00000044       $unwind$UdpIoCleanIo       000000000000bc04     DxeUpdIoLib:DxeUdpIoLib.obj
 0005:00000044       $unwind$UdpIoFreeRxToken   000000000000bc04     DxeUpdIoLib:DxeUdpIoLib.obj
 0005:00000044       $unwind$UdpIoFreeTxToken   000000000000bc04     DxeUpdIoLib:DxeUdpIoLib.obj
 0005:00000044       $unwind$UdpIoOnDgramSentDpc 000000000000bc04     DxeUpdIoLib:DxeUdpIoLib.obj
 0005:00000044       $unwind$UdpIoRecycleDgram  000000000000bc04     DxeUpdIoLib:DxeUdpIoLib.obj
 0005:0000004c       $unwind$Dhcp4CreateService 000000000000bc0c     Dhcp4Dxe:Dhcp4Driver.obj
 0005:00000060       $unwind$Dhcp4DriverBindingStart 000000000000bc20     Dhcp4Dxe:Dhcp4Driver.obj
 0005:0000006c       $unwind$InsertHeadList     000000000000bc2c     BaseLib:LinkedList.obj
 0005:0000006c       $unwind$InsertTailList     000000000000bc2c     BaseLib:LinkedList.obj
 0005:0000006c       $unwind$AsciiStrLen        000000000000bc2c     BaseLib:String.obj
 0005:0000006c       $unwind$ZeroMem            000000000000bc2c     BaseMemoryLibRepStr:ZeroMemWrapper.obj
 0005:0000006c       $unwind$InternalAllocateCopyPool 000000000000bc2c     UefiMemoryAllocationLib:MemoryAllocationLib.obj
 0005:0000006c       $unwind$Dhcp4DestroyChildEntry 000000000000bc2c     Dhcp4Dxe:Dhcp4Driver.obj
 0005:0000006c       $unwind$DhcpCleanConfigure 000000000000bc2c     Dhcp4Dxe:Dhcp4Impl.obj
 0005:0000006c       $unwind$EfiDhcp4Stop       000000000000bc2c     Dhcp4Dxe:Dhcp4Impl.obj
 0005:0000006c       $unwind$PxeDhcpDone        000000000000bc2c     Dhcp4Dxe:Dhcp4Impl.obj
 0005:0000006c       $unwind$DhcpCleanLease     000000000000bc2c     Dhcp4Dxe:Dhcp4Io.obj
 0005:0000006c       $unwind$DhcpComputeLease   000000000000bc2c     Dhcp4Dxe:Dhcp4Io.obj
 0005:0000006c       $unwind$DhcpEndSession     000000000000bc2c     Dhcp4Dxe:Dhcp4Io.obj
 0005:0000006c       $unwind$DhcpNotifyUser     000000000000bc2c     Dhcp4Dxe:Dhcp4Io.obj
 0005:0000006c       $unwind$NetbufFreeVector   000000000000bc2c     DxeNetLib:NetBuffer.obj
 0005:0000006c       $unwind$NetbufQueInit      000000000000bc2c     DxeNetLib:NetBuffer.obj
 0005:0000006c       $unwind$UdpIoFreeIo        000000000000bc2c     DxeUpdIoLib:DxeUdpIoLib.obj
 0005:00000078       $unwind$Dhcp4DriverBindingStop 000000000000bc38     Dhcp4Dxe:Dhcp4Driver.obj
 0005:00000090       $unwind$CompareMem         000000000000bc50     BaseMemoryLibRepStr:CompareMemWrapper.obj
 0005:00000090       $unwind$CopyMem            000000000000bc50     BaseMemoryLibRepStr:CopyMemWrapper.obj
 0005:00000090       $unwind$DhcpInitProtocol   000000000000bc50     Dhcp4Dxe:Dhcp4Driver.obj
 0005:00000090       $unwind$NetbufSetBlock     000000000000bc50     DxeNetLib:NetBuffer.obj
 0005:000000a4       $unwind$Dhcp4ServiceBindingCreateChild 000000000000bc64     Dhcp4Dxe:Dhcp4Driver.obj
 0005:000000b8       $unwind$Dhcp4ServiceBindingDestroyChild 000000000000bc78     Dhcp4Dxe:Dhcp4Driver.obj
 0005:000000b8       $unwind$DhcpIterateOptions 000000000000bc78     Dhcp4Dxe:Dhcp4Option.obj
 0005:000000cc       $unwind$DhcpComponentNameGetControllerName 000000000000bc8c     Dhcp4Dxe:ComponentName.obj
 0005:000000e4       $unwind$DhcpInitRequest    000000000000bca4     Dhcp4Dxe:Dhcp4Io.obj
 0005:000000e4       $unwind$NetLibGetSnpHandle 000000000000bca4     DxeNetLib:DxeNetLib.obj
 0005:000000f0       $unwind$DhcpCallUser       000000000000bcb0     Dhcp4Dxe:Dhcp4Io.obj
 0005:000000f0       $unwind$DhcpLeaseAcquired  000000000000bcb0     Dhcp4Dxe:Dhcp4Io.obj
 0005:000000f8       $unwind$DhcpConfigLeaseIoPort 000000000000bcb8     Dhcp4Dxe:Dhcp4Io.obj
 0005:00000108       $unwind$DhcpChooseOffer    000000000000bcc8     Dhcp4Dxe:Dhcp4Io.obj
 0005:00000118       $unwind$DhcpInput          000000000000bcd8     Dhcp4Dxe:Dhcp4Io.obj
 0005:00000130       $unwind$DhcpSendMessage    000000000000bcf0     Dhcp4Dxe:Dhcp4Io.obj
 0005:00000148       $unwind$DhcpRetransmit     000000000000bd08     Dhcp4Dxe:Dhcp4Io.obj
 0005:00000158       $unwind$DhcpOnTimerTick    000000000000bd18     Dhcp4Dxe:Dhcp4Io.obj
 0005:00000170       $unwind$EfiDhcp4GetModeData 000000000000bd30     Dhcp4Dxe:Dhcp4Impl.obj
 0005:00000184       $unwind$DhcpCopyConfigure  000000000000bd44     Dhcp4Dxe:Dhcp4Impl.obj
 0005:000001a0       $unwind$EfiDhcp4Configure  000000000000bd60     Dhcp4Dxe:Dhcp4Impl.obj
 0005:000001a0       $unwind$EfiDhcp4Start      000000000000bd60     Dhcp4Dxe:Dhcp4Impl.obj
 0005:000001b8       $unwind$EfiDhcp4RenewRebind 000000000000bd78     Dhcp4Dxe:Dhcp4Impl.obj
 0005:000001b8       $unwind$UdpIoCreateIo      000000000000bd78     DxeUpdIoLib:DxeUdpIoLib.obj
 0005:000001d0       $unwind$EfiDhcp4Parse      000000000000bd90     Dhcp4Dxe:Dhcp4Impl.obj
 0005:000001d0       $unwind$EfiDhcp4Release    000000000000bd90     Dhcp4Dxe:Dhcp4Impl.obj
 0005:000001e0       $unwind$EfiDhcp4Build      000000000000bda0     Dhcp4Dxe:Dhcp4Impl.obj
 0005:000001e0       $unwind$UdpIoCreateRxToken 000000000000bda0     DxeUpdIoLib:DxeUdpIoLib.obj
 0005:000001e0       $unwind$UdpIoSendDatagram  000000000000bda0     DxeUpdIoLib:DxeUdpIoLib.obj
 0005:000001f4       $unwind$Dhcp4InstanceConfigUdpIo 000000000000bdb4     Dhcp4Dxe:Dhcp4Impl.obj
 0005:00000208       $unwind$Dhcp4InstanceCreateUdpIo 000000000000bdc8     Dhcp4Dxe:Dhcp4Impl.obj
 0005:00000214       $unwind$PxeDhcpInput       000000000000bdd4     Dhcp4Dxe:Dhcp4Impl.obj
 0005:0000022c       $unwind$EfiDhcp4TransmitReceive 000000000000bdec     Dhcp4Dxe:Dhcp4Impl.obj
 0005:00000244       $unwind$DhcpFillOption     000000000000be04     Dhcp4Dxe:Dhcp4Option.obj
 0005:00000244       $unwind$DhcpOptionIsValid  000000000000be04     Dhcp4Dxe:Dhcp4Option.obj
 0005:00000244       $unwind$NetDestroyLinkList 000000000000be04     DxeNetLib:DxeNetLib.obj
 0005:00000244       $unwind$NetbufQueFlush     000000000000be04     DxeNetLib:NetBuffer.obj
 0005:0000025c       $unwind$DhcpIterateBufferOptions 000000000000be1c     Dhcp4Dxe:Dhcp4Option.obj
 0005:0000025c       $unwind$NetbufCopy         000000000000be1c     DxeNetLib:NetBuffer.obj
 0005:00000274       $unwind$DhcpParseOption    000000000000be34     Dhcp4Dxe:Dhcp4Option.obj
 0005:00000290       $unwind$DhcpValidateOptions 000000000000be50     Dhcp4Dxe:Dhcp4Option.obj
 0005:000002a4       $unwind$AddUnicodeString2  000000000000be64     UefiLib:UefiLib.obj
 0005:000002a4       $unwind$DhcpAppendOption   000000000000be64     Dhcp4Dxe:Dhcp4Option.obj
 0005:000002a4       $unwind$NetbufQueCopy      000000000000be64     DxeNetLib:NetBuffer.obj
 0005:000002c0       $unwind$DhcpBuild          000000000000be80     Dhcp4Dxe:Dhcp4Option.obj
 0005:000002dc       $unwind$AsciiStrnCmp       000000000000be9c     BaseLib:String.obj
 0005:000002dc       $unwind$StrLen             000000000000be9c     BaseLib:String.obj
 0005:000002dc       $unwind$BasePrintLibValueToString 000000000000be9c     BasePrintLib:PrintLibInternal.obj
 0005:000002dc       $unwind$FreeUnicodeStringTable 000000000000be9c     UefiLib:UefiLib.obj
 0005:000002dc       $unwind$IsLanguageSupported 000000000000be9c     UefiLib:UefiLib.obj
 0005:000002dc       $unwind$NetbufAlloc        000000000000be9c     DxeNetLib:NetBuffer.obj
 0005:000002dc       $unwind$NetbufAllocStruct  000000000000be9c     DxeNetLib:NetBuffer.obj
 0005:000002dc       $unwind$NetbufGetByte      000000000000be9c     DxeNetLib:NetBuffer.obj
 0005:000002dc       $unwind$UdpIoCancelDgrams  000000000000be9c     DxeUpdIoLib:DxeUdpIoLib.obj
 0005:000002dc       $unwind$UdpIoRecvDatagram  000000000000be9c     DxeUpdIoLib:DxeUdpIoLib.obj
 0005:000002ec       $unwind$DebugPrint         000000000000beac     BaseDebugLibSerialPort:DebugLib.obj
 0005:000002f4       $unwind$DebugPrintMarker   000000000000beb4     BaseDebugLibSerialPort:DebugLib.obj
 0005:00000308       $unwind$DebugAssert        000000000000bec8     BaseDebugLibSerialPort:DebugLib.obj
 0005:00000310       $unwind$DevicePathFromHandle 000000000000bed0     UefiDevicePathLibDevicePathProtocol:UefiDevicePathLib.obj
 0005:00000310       $unwind$FreePool           000000000000bed0     UefiMemoryAllocationLib:MemoryAllocationLib.obj
 0005:00000310       $unwind$InternalAllocatePool 000000000000bed0     UefiMemoryAllocationLib:MemoryAllocationLib.obj
 0005:00000318       $unwind$LookupUnicodeString2 000000000000bed8     UefiLib:UefiLib.obj
 0005:00000330       $unwind$Ip6Swap128         000000000000bef0     DxeNetLib:DxeNetLib.obj
 0005:00000340       $unwind$NetLibCreateServiceChild 000000000000bf00     DxeNetLib:DxeNetLib.obj
 0005:00000340       $unwind$NetLibDestroyServiceChild 000000000000bf00     DxeNetLib:DxeNetLib.obj
 0005:00000354       $unwind$NetLibDetectMedia  000000000000bf14     DxeNetLib:DxeNetLib.obj
 0005:0000036c       $unwind$NetLibDetectMediaWaitTimeout 000000000000bf2c     DxeNetLib:DxeNetLib.obj
 0005:00000384       $unwind$NetbufFromExt      000000000000bf44     DxeNetLib:NetBuffer.obj
 0005:0000039c       $unwind$NetbufBuildExt     000000000000bf5c     DxeNetLib:NetBuffer.obj
 0005:000003a4       $unwind$NetbufAllocSpace   000000000000bf64     DxeNetLib:NetBuffer.obj
 0005:000003b8       $unwind$UdpIoOnDgramRcvdDpc 000000000000bf78     DxeUpdIoLib:DxeUdpIoLib.obj
 0005:000003cc       $unwind$UdpIoCreateTxToken 000000000000bf8c     DxeUpdIoLib:DxeUdpIoLib.obj
 0005:000003e4       $unwind$AsciiSPrint        000000000000bfa4     BasePrintLib:PrintLib.obj
 0005:000003ec       $unwind$BasePrintLibSPrintMarker 000000000000bfac     BasePrintLib:PrintLibInternal.obj
 0005:00000408       $unwind$BasePrintLibSPrint 000000000000bfc8     BasePrintLib:PrintLibInternal.obj
