 PiSmmIpl

 Timestamp is 62c3c25b (Tue Jul  5 12:47:23 2022)

 Preferred load address is 0000000000000000

 Start         Length     Name                   Class
 0001:00000000 00000338H .text                   CODE
 0001:00000338 000046a7H .text$mn                CODE
 0002:00000000 000016e0H .rdata                  DATA
 0002:000016e0 00000020H .rdata$voltmd           DATA
 0002:00001700 0000013cH .rdata$zzzdbg           DATA
 0003:00000000 00000400H .data                   DATA
 0003:00000400 000000f0H .bss                    DATA
 0004:00000000 000001ecH .pdata                  DATA
 0005:00000000 000001f4H .xdata                  DATA

  Address         Publics by Value              Rva+Base               Lib:Object

 0000:00000000       __x64_code_ranges_to_entry_points_count 0000000000000000     <absolute>
 0000:00000000       __guard_iat_table          0000000000000000     <absolute>
 0000:00000000       __guard_longjmp_table      0000000000000000     <absolute>
 0000:00000000       __x64_code_ranges_to_entry_points 0000000000000000     <absolute>
 0000:00000000       __guard_iat_count          0000000000000000     <absolute>
 0000:00000000       __guard_fids_count         0000000000000000     <absolute>
 0000:00000000       __guard_longjmp_count      0000000000000000     <absolute>
 0000:00000000       __dynamic_value_reloc_table 0000000000000000     <absolute>
 0000:00000000       __arm64x_extra_rfe_table   0000000000000000     <absolute>
 0000:00000000       __hybrid_auxiliary_iat     0000000000000000     <absolute>
 0000:00000000       __hybrid_code_map_count    0000000000000000     <absolute>
 0000:00000000       __hybrid_auxiliary_iat_copy 0000000000000000     <absolute>
 0000:00000000       __arm64x_redirection_metadata 0000000000000000     <absolute>
 0000:00000000       __hybrid_code_map          0000000000000000     <absolute>
 0000:00000000       __arm64x_extra_rfe_table_size 0000000000000000     <absolute>
 0000:00000000       __AbsoluteZero             0000000000000000     <absolute>
 0000:00000000       __guard_check_icall_a64n_fptr 0000000000000000     <absolute>
 0000:00000000       __guard_fids_table         0000000000000000     <absolute>
 0000:00000000       __guard_flags              0000000000000000     <absolute>
 0000:00000000       __arm64x_native_entrypoint 0000000000000000     <absolute>
 0000:00000000       __guard_eh_cont_count      0000000000000000     <absolute>
 0000:00000000       __arm64x_redirection_metadata_count 0000000000000000     <absolute>
 0000:00000000       __guard_eh_cont_table      0000000000000000     <absolute>
 0000:00000000       __enclave_config           0000000000000000     <absolute>
 0001:00000000       InternalMemCopyMem         00000000000002c0     BaseMemoryLibRepStr:CopyMem.obj
 0001:00000040       InternalMemSetMem          0000000000000300     BaseMemoryLibRepStr:SetMem.obj
 0001:00000060       InternalMemZeroMem         0000000000000320     BaseMemoryLibRepStr:ZeroMem.obj
 0001:00000080       InternalMemSetMem64        0000000000000340     BaseMemoryLibRepStr:SetMem64.obj
 0001:000000a0       InternalMemSetMem32        0000000000000360     BaseMemoryLibRepStr:SetMem32.obj
 0001:000000c0       AsmWbinvd                  0000000000000380     BaseLib:Wbinvd.obj
 0001:000000d0       AsmFlushCacheLine          0000000000000390     BaseLib:FlushCacheLine.obj
 0001:000000e0       AsmInvd                    00000000000003a0     BaseLib:Invd.obj
 0001:000000f0       AsmCpuid                   00000000000003b0     BaseLib:CpuId.obj
 0001:00000120       CpuPause                   00000000000003e0     BaseLib:CpuPause.obj
 0001:00000130       AsmInterruptHandle         00000000000003f0     PeCoffExtraActionLib:IntHandler.obj
 0001:00000140       AsmWriteDr2                0000000000000400     BaseLib:WriteDr2.obj
 0001:00000150       AsmWriteDr3                0000000000000410     BaseLib:WriteDr3.obj
 0001:00000160       AsmWriteCr4                0000000000000420     BaseLib:WriteCr4.obj
 0001:00000170       AsmWriteDr1                0000000000000430     BaseLib:WriteDr1.obj
 0001:00000180       AsmReadDr2                 0000000000000440     BaseLib:ReadDr2.obj
 0001:00000190       AsmWriteDr7                0000000000000450     BaseLib:WriteDr7.obj
 0001:000001a0       AsmReadDr0                 0000000000000460     BaseLib:ReadDr0.obj
 0001:000001b0       AsmWriteDr0                0000000000000470     BaseLib:WriteDr0.obj
 0001:000001c0       AsmReadDr7                 0000000000000480     BaseLib:ReadDr7.obj
 0001:000001d0       AsmReadDr1                 0000000000000490     BaseLib:ReadDr1.obj
 0001:000001e0       AsmReadDr3                 00000000000004a0     BaseLib:ReadDr3.obj
 0001:000001f0       AsmReadCr4                 00000000000004b0     BaseLib:ReadCr4.obj
 0001:00000200       AsmReadCs                  00000000000004c0     BaseLib:ReadCs.obj
 0001:00000210       InternalX86ReadIdtr        00000000000004d0     BaseLib:ReadIdtr.obj
 0001:00000220       EnableInterrupts           00000000000004e0     BaseLib:EnableInterrupts.obj
 0001:00000230       DisableInterrupts          00000000000004f0     BaseLib:DisableInterrupts.obj
 0001:00000240       AsmReadEflags              0000000000000500     BaseLib:ReadEflags.obj
 0001:00000250       TdVmCall                   0000000000000510     BaseLib:TdVmcall.obj
 0001:000002e0       TdCall                     00000000000005a0     BaseLib:TdCall.obj
 0001:00000338       _ModuleEntryPoint          00000000000005f8 f   UefiDriverEntryPoint:DriverEntryPoint.obj
 0001:00000374       ProcessLibraryConstructorList 0000000000000634 f   PiSmmIpl:AutoGen.obj
 0001:0000078c       ProcessLibraryDestructorList 0000000000000a4c f   PiSmmIpl:AutoGen.obj
 0001:00000910       SmmBase2InSmram            0000000000000bd0 f   PiSmmIpl:PiSmmIpl.obj
 0001:00000930       SmmBase2GetSmstLocation    0000000000000bf0 f   PiSmmIpl:PiSmmIpl.obj
 0001:00000968       SmmCommunicationCommunicate 0000000000000c28 f   PiSmmIpl:PiSmmIpl.obj
 0001:00000aa4       SmmCommunicationMmCommunicate2 0000000000000d64 f   PiSmmIpl:PiSmmIpl.obj
 0001:00000ab4       SmmIplGuidedEventNotify    0000000000000d74 f   PiSmmIpl:PiSmmIpl.obj
 0001:00000afc       SmmIplEndOfDxeEventNotify  0000000000000dbc f   PiSmmIpl:PiSmmIpl.obj
 0001:00000b04       SmmIplDxeDispatchEventNotify 0000000000000dc4 f   PiSmmIpl:PiSmmIpl.obj
 0001:00000bb4       SmmIplSmmConfigurationEventNotify 0000000000000e74 f   PiSmmIpl:PiSmmIpl.obj
 0001:00000c44       SmmIplReadyToLockEventNotify 0000000000000f04 f   PiSmmIpl:PiSmmIpl.obj
 0001:00000d68       SmmIplSetVirtualAddressNotify 0000000000001028 f   PiSmmIpl:PiSmmIpl.obj
 0001:00000d7c       ExecuteSmmCoreFromSmram    000000000000103c f   PiSmmIpl:PiSmmIpl.obj
 0001:000010ac       SmmSplitSmramEntry         000000000000136c f   PiSmmIpl:PiSmmIpl.obj
 0001:000012a0       GetFullSmramRanges         0000000000001560 f   PiSmmIpl:PiSmmIpl.obj
 0001:00001790       SmmIplEntry                0000000000001a50 f   PiSmmIpl:PiSmmIpl.obj
 0001:00001de8       CopyGuid                   00000000000020a8 f   BaseMemoryLibRepStr:MemLibGuid.obj
 0001:00001e98       CompareGuid                0000000000002158 f   BaseMemoryLibRepStr:MemLibGuid.obj
 0001:00001f5c       CopyMem                    000000000000221c f   BaseMemoryLibRepStr:CopyMemWrapper.obj
 0001:00001ff8       DebugPrint                 00000000000022b8 f   BaseDebugLibSerialPort:DebugLib.obj
 0001:0000201c       DebugPrintMarker           00000000000022dc f   BaseDebugLibSerialPort:DebugLib.obj
 0001:000020cc       DebugAssert                000000000000238c f   BaseDebugLibSerialPort:DebugLib.obj
 0001:00002144       InternalAllocatePool       0000000000002404 f   UefiMemoryAllocationLib:MemoryAllocationLib.obj
 0001:00002174       FreePool                   0000000000002434 f   UefiMemoryAllocationLib:MemoryAllocationLib.obj
 0001:000021b8       EfiGetSystemConfigurationTable 0000000000002478 f   UefiLib:UefiLib.obj
 0001:0000227c       GetHobList                 000000000000253c f   DxeHobLib:HobLib.obj
 0001:00002300       RuntimeLibExitBootServicesEvent 00000000000025c0 f   UefiRuntimeLib:RuntimeLib.obj
 0001:00002304       RuntimeLibVirtualNotifyEvent 00000000000025c4 f   UefiRuntimeLib:RuntimeLib.obj
 0001:00002328       PeCoffLoaderGetPeHeader    00000000000025e8 f   BasePeCoffLib:BasePeCoff.obj
 0001:00002824       PeCoffLoaderGetImageInfo   0000000000002ae4 f   BasePeCoffLib:BasePeCoff.obj
 0001:00002b94       PeCoffLoaderRelocateImage  0000000000002e54 f   BasePeCoffLib:BasePeCoff.obj
 0001:00002e8c       PeCoffLoaderLoadImage      000000000000314c f   BasePeCoffLib:BasePeCoff.obj
 0001:00003464       PeCoffLoaderImageReadFromMemory 0000000000003724 f   BasePeCoffLib:BasePeCoff.obj
 0001:00003504       InternalGetSectionFromFv   00000000000037c4 f   DxeServicesLib:DxeServicesLib.obj
 0001:000035f0       InternalGetReportStatusCode 00000000000038b0 f   RuntimeDxeReportStatusCodeLib:ReportStatusCodeLib.obj
 0001:00003650       ReportStatusCodeLibVirtualAddressChange 0000000000003910 f   RuntimeDxeReportStatusCodeLib:ReportStatusCodeLib.obj
 0001:00003678       ReportStatusCodeLibExitBootServices 0000000000003938 f   RuntimeDxeReportStatusCodeLib:ReportStatusCodeLib.obj
 0001:00003690       ReportStatusCode           0000000000003950 f   RuntimeDxeReportStatusCodeLib:ReportStatusCodeLib.obj
 0001:000036d4       ZeroMem                    0000000000003994 f   BaseMemoryLibRepStr:ZeroMemWrapper.obj
 0001:00003744       AsciiStrLen                0000000000003a04 f   BaseLib:String.obj
 0001:000037b0       StrnLenS                   0000000000003a70 f   BaseLib:SafeString.obj
 0001:00003808       AsciiSPrint                0000000000003ac8 f   BasePrintLib:PrintLib.obj
 0001:00003834       BasePrintLibFillBuffer     0000000000003af4 f   BasePrintLib:PrintLibInternal.obj
 0001:00003868       BasePrintLibValueToString  0000000000003b28 f   BasePrintLib:PrintLibInternal.obj
 0001:000038d4       BasePrintLibSPrintMarker   0000000000003b94 f   BasePrintLib:PrintLibInternal.obj
 0001:000047e0       BasePrintLibSPrint         0000000000004aa0 f   BasePrintLib:PrintLibInternal.obj
 0001:00004804       PeCoffLoaderExtraActionCommon 0000000000004ac4 f   PeCoffExtraActionLib:PeCoffExtraActionLib.obj
 0002:00000000       ??_C@_0CB@DMEJJJHA@?6ASSERT_EFI_ERROR?5?$CIStatus?5?$DN?5?$CFr?$CJ@ 0000000000004ca0     UefiDriverEntryPoint:DriverEntryPoint.obj
 0002:00000028       ??_C@_0CH@BBNBJKHK@?$CB?$CI?$CI?$CIINTN?$CJ?$CIRETURN_STATUS?$CJ?$CIStatus@ 0000000000004cc8     UefiDriverEntryPoint:DriverEntryPoint.obj
 0002:00000050       ??_C@_08BIFABGKJ@PiSmmIpl@ 0000000000004cf0     PiSmmIpl:AutoGen.obj
 0002:00000060       ??_C@_0GD@CJCNIFKM@d?3?2myedk2?2edk2?2Build?2OvmfX64?2DE@ 0000000000004d00     PiSmmIpl:AutoGen.obj
 0002:000000c8       ??_C@_0DG@OGCMBELH@d?3?2myedk2?2edk2?2MdeModulePkg?2Cor@ 0000000000004d68     PiSmmIpl:PiSmmIpl.obj
 0002:00000100       ??_C@_0BN@GMOGOHHE@SMM?5IPL?5closed?5SMRAM?5window?6@ 0000000000004da0     PiSmmIpl:PiSmmIpl.obj
 0002:00000120       ??_C@_0CP@LIIOJBEF@SMM?5IPL?5registered?5SMM?5Entry?5Po@ 0000000000004dc0     PiSmmIpl:PiSmmIpl.obj
 0002:00000150       ??_C@_0FE@JOBDIPGI@SMM?5IPL?$CB?5?5DXE?5SMM?5Ready?5To?5Lock@ 0000000000004df0     PiSmmIpl:PiSmmIpl.obj
 0002:000001b0       ??_C@_0FB@JAGLEJMB@EndOfDxe?5Event?5must?5be?5signaled@ 0000000000004e50     PiSmmIpl:PiSmmIpl.obj
 0002:00000208       ??_C@_0BC@FEDIJHFF@?$CI?$CIBOOLEAN?$CJ?$CI0?$DN?$DN1?$CJ?$CJ@ 0000000000004ea8     PiSmmIpl:PiSmmIpl.obj
 0002:00000220       ??_C@_0BN@FGGBMHOD@SMM?5IPL?5locked?5SMRAM?5window?6@ 0000000000004ec0     PiSmmIpl:PiSmmIpl.obj
 0002:00000240       ??_C@_0CI@CINJKNJG@?$CISmramRange?9?$DOPhysicalSize?5?$CG?50xF@ 0000000000004ee0     PiSmmIpl:PiSmmIpl.obj
 0002:00000268       ??_C@_0CP@EHNLLAOM@SmramRange?9?$DOPhysicalSize?5?$DO?5?$CI?$CIPa@ 0000000000004f08     PiSmmIpl:PiSmmIpl.obj
 0002:00000298       ??_C@_0CO@EMNHDADA@SMM?5IPL?5loading?5SMM?5Core?5at?5SMR@ 0000000000004f38     PiSmmIpl:PiSmmIpl.obj
 0002:000002c8       ??_C@_0CO@JCEPHIBN@SMM?5IPL?5calling?5SMM?5Core?5at?5SMR@ 0000000000004f68     PiSmmIpl:PiSmmIpl.obj
 0002:000002f8       ??_C@_0BP@BPODLCMA@PiSmmCoreImageBase?5?9?50x?$CF016lx?6@ 0000000000004f98     PiSmmIpl:PiSmmIpl.obj
 0002:00000318       ??_C@_0BP@IKHFGINO@PiSmmCoreImageSize?5?9?50x?$CF016lx?6@ 0000000000004fb8     PiSmmIpl:PiSmmIpl.obj
 0002:00000338       ??_C@_0DJ@CIDFFKAG@Status?5?$DN?$DN?5?$CI?$CIRETURN_STATUS?$CJ?$CI0x80@ 0000000000004fd8     PiSmmIpl:PiSmmIpl.obj
 0002:00000378       ??_C@_0CA@KBLMJMCF@FullSmramRanges?5?$CB?$DN?5?$CI?$CIvoid?5?$CK?$CJ?50?$CJ@ 0000000000005018     PiSmmIpl:PiSmmIpl.obj
 0002:00000398       ??_C@_0CE@KJCOPJKH@SmramReservedRanges?5?$CB?$DN?5?$CI?$CIvoid?5?$CK@ 0000000000005038     PiSmmIpl:PiSmmIpl.obj
 0002:000003c0       ??_C@_0CA@CJEELLLH@TempSmramRanges?5?$CB?$DN?5?$CI?$CIvoid?5?$CK?$CJ?50?$CJ@ 0000000000005060     PiSmmIpl:PiSmmIpl.obj
 0002:000003e0       ??_C@_0BM@LOHBGJFP@SmramRanges?5?$CB?$DN?5?$CI?$CIvoid?5?$CK?$CJ?50?$CJ@ 0000000000005080     PiSmmIpl:PiSmmIpl.obj
 0002:00000400       ??_C@_0CA@FJOANGKL@TempSmramRangeCount?5?$DM?$DN?5MaxCount@ 00000000000050a0     PiSmmIpl:PiSmmIpl.obj
 0002:00000420       ??_C@_0BM@KPIEIEJO@Index?5?$DM?5TempSmramRangeCount@ 00000000000050c0     PiSmmIpl:PiSmmIpl.obj
 0002:00000440       ??_C@_0CM@JLCLBGCJ@?$CKFullSmramRangeCount?5?$DN?$DN?5TempSmr@ 00000000000050e0     PiSmmIpl:PiSmmIpl.obj
 0002:00000470       ??_C@_0BN@MIAAPEPA@SMM?5IPL?5opened?5SMRAM?5window?6@ 0000000000005110     PiSmmIpl:PiSmmIpl.obj
 0002:00000490       ??_C@_0CE@KOCOMILP@SMM?5IPL?5found?5SMRAM?5window?5?$CFp?5?9@ 0000000000005130     PiSmmIpl:PiSmmIpl.obj
 0002:000004b8       ??_C@_0DF@MOGACKDD@SMM?5IPL?5failed?5to?5set?5SMRAM?5win@ 0000000000005158     PiSmmIpl:PiSmmIpl.obj
 0002:000004f0       ??_C@_0BK@EHFJPCC@SMRAM?5attributes?3?5?$CF016lx?6@ 0000000000005190     PiSmmIpl:PiSmmIpl.obj
 0002:00000510       ??_C@_0JG@BDDPBDPK@?$CIMemDesc?4Attributes?5?$CG?5?$CI?$CI0x00000@ 00000000000051b0     PiSmmIpl:PiSmmIpl.obj
 0002:000005a8       ??_C@_0DI@MMPGPMIO@SMM?5IPL?5could?5not?5load?5and?5exec@ 0000000000005248     PiSmmIpl:PiSmmIpl.obj
 0002:000005e0       ??_C@_0DH@DJMBFIBN@SMM?5IPL?5failed?5to?5reset?5SMRAM?5w@ 0000000000005280     PiSmmIpl:PiSmmIpl.obj
 0002:00000620       ??_C@_0EF@HEDKDDNN@SMM?5IPL?5could?5not?5find?5a?5large?5@ 00000000000052c0     PiSmmIpl:PiSmmIpl.obj
 0002:00000668       ??_C@_0DG@EEENIGGL@Length?5?$DM?$DN?5?$CI0xFFFFFFFFFFFFFFFFUL@ 0000000000005308     BaseMemoryLibRepStr:MemLibGuid.obj
 0002:000006a0       ??_C@_0ED@MKGCMJG@?$CILength?5?9?51?$CJ?5?$DM?$DN?5?$CI0xFFFFFFFFFFFF@ 0000000000005340     BaseMemoryLibRepStr:CopyMemWrapper.obj
 0002:000006f0       ??_C@_0ED@JAIIHABO@d?3?2myedk2?2edk2?2MdePkg?2Library?2B@ 0000000000005390     BaseMemoryLibRepStr:CopyMemWrapper.obj
 0002:00000738       ??_C@_0DO@MAOBOFEG@?$CILength?5?9?51?$CJ?5?$DM?$DN?5?$CI0xFFFFFFFFFFFF@ 00000000000053d8     BaseMemoryLibRepStr:CopyMemWrapper.obj
 0002:00000778       ??_C@_0BH@IACGKAP@Buffer?5?$CB?$DN?5?$CI?$CIvoid?5?$CK?$CJ?50?$CJ@ 0000000000005418     BaseLib:Unaligned.obj
 0002:00000790       ??_C@_0DC@DDBICJIK@d?3?2myedk2?2edk2?2MdePkg?2Library?2B@ 0000000000005430     BaseLib:Unaligned.obj
 0002:000007c8       ??_C@_0BH@LKMBFCBF@Format?5?$CB?$DN?5?$CI?$CIvoid?5?$CK?$CJ?50?$CJ@ 0000000000005468     BaseDebugLibSerialPort:DebugLib.obj
 0002:000007e0       ??_C@_0EA@MCEJFCHO@d?3?2myedk2?2edk2?2MdePkg?2Library?2B@ 0000000000005480     BaseDebugLibSerialPort:DebugLib.obj
 0002:00000820       ??_C@_0BI@NOCKJDBJ@ASSERT?5?$FL?$CFa?$FN?5?$CFa?$CI?$CFd?$CJ?3?5?$CFa?6@ 00000000000054c0     BaseDebugLibSerialPort:DebugLib.obj
 0002:00000838       ??_C@_0BN@COECPDCC@gImageHandle?5?$CB?$DN?5?$CI?$CIvoid?5?$CK?$CJ?50?$CJ@ 00000000000054d8     UefiBootServicesTableLib:UefiBootServicesTableLib.obj
 0002:00000860       ??_C@_0FC@HJEJKBBP@d?3?2myedk2?2edk2?2MdePkg?2Library?2U@ 0000000000005500     UefiBootServicesTableLib:UefiBootServicesTableLib.obj
 0002:000008b8       ??_C@_0BE@DGNHAHIL@gST?5?$CB?$DN?5?$CI?$CIvoid?5?$CK?$CJ?50?$CJ@ 0000000000005558     UefiBootServicesTableLib:UefiBootServicesTableLib.obj
 0002:000008d0       ??_C@_0BE@BDFJLGLN@gBS?5?$CB?$DN?5?$CI?$CIvoid?5?$CK?$CJ?50?$CJ@ 0000000000005570     UefiBootServicesTableLib:UefiBootServicesTableLib.obj
 0002:000008f0       ??_C@_0EM@BLKCBDHP@d?3?2myedk2?2edk2?2MdePkg?2Library?2U@ 0000000000005590     UefiMemoryAllocationLib:MemoryAllocationLib.obj
 0002:00000940       ??_C@_0BE@OBDFIHND@gRT?5?$CB?$DN?5?$CI?$CIvoid?5?$CK?$CJ?50?$CJ@ 00000000000055e0     UefiRuntimeServicesTableLib:UefiRuntimeServicesTableLib.obj
 0002:00000960       ??_C@_0FI@ELFALICJ@d?3?2myedk2?2edk2?2MdePkg?2Library?2U@ 0000000000005600     UefiRuntimeServicesTableLib:UefiRuntimeServicesTableLib.obj
 0002:000009c0       ??_C@_0FG@PKIHNGDJ@d?3?2myedk2?2edk2?2MdePkg?2Library?2U@ 0000000000005660     UefiDevicePathLibDevicePathProtocol:UefiDevicePathLib.obj
 0002:00000a18       ??_C@_0DC@CNNBPJA@mDevicePathLibDevicePathUtiliti@ 00000000000056b8     UefiDevicePathLibDevicePathProtocol:UefiDevicePathLib.obj
 0002:00000a50       ??_C@_0BF@MBJFHGBE@Size?5?$CB?$DN?5?$CI?$CIvoid?5?$CK?$CJ?50?$CJ@ 00000000000056f0     UefiDevicePathLibDevicePathProtocol:UefiDevicePathLib.obj
 0002:00000a68       ??_C@_0BK@PPOBBAMB@TableGuid?5?$CB?$DN?5?$CI?$CIvoid?5?$CK?$CJ?50?$CJ@ 0000000000005708     UefiLib:UefiLib.obj
 0002:00000a88       ??_C@_0DA@MHLDPJPP@d?3?2myedk2?2edk2?2MdePkg?2Library?2U@ 0000000000005728     UefiLib:UefiLib.obj
 0002:00000ab8       ??_C@_0BG@JDKEGFNB@Table?5?$CB?$DN?5?$CI?$CIvoid?5?$CK?$CJ?50?$CJ@ 0000000000005758     UefiLib:UefiLib.obj
 0002:00000ad0       ??_C@_0BN@HHGHCLME@ProtocolGuid?5?$CB?$DN?5?$CI?$CIvoid?5?$CK?$CJ?50?$CJ@ 0000000000005770     UefiLib:UefiLib.obj
 0002:00000af0       ??_C@_0BP@DEIEJICI@NotifyFunction?5?$CB?$DN?5?$CI?$CIvoid?5?$CK?$CJ?50?$CJ@ 0000000000005790     UefiLib:UefiLib.obj
 0002:00000b10       ??_C@_0DB@IMLKCNBK@d?3?2myedk2?2edk2?2MdePkg?2Library?2D@ 00000000000057b0     DxeHobLib:HobLib.obj
 0002:00000b48       ??_C@_0BJ@OBFMLLDO@mHobList?5?$CB?$DN?5?$CI?$CIvoid?5?$CK?$CJ?50?$CJ@ 00000000000057e8     DxeHobLib:HobLib.obj
 0002:00000b68       ??_C@_0DK@FPGDLAKA@d?3?2myedk2?2edk2?2MdePkg?2Library?2U@ 0000000000005808     UefiRuntimeLib:RuntimeLib.obj
 0002:00000ba8       ??_C@_0BN@MJEPDGEJ@ImageContext?5?$CB?$DN?5?$CI?$CIvoid?5?$CK?$CJ?50?$CJ@ 0000000000005848     BasePeCoffLib:BasePeCoff.obj
 0002:00000bc8       ??_C@_0DJ@EGDPEGIG@d?3?2myedk2?2edk2?2MdePkg?2Library?2B@ 0000000000005868     BasePeCoffLib:BasePeCoff.obj
 0002:00000c10       ??_C@_0FB@MOCPCCHF@?$CIUINTN?$CJFixupData?5?$DM?$DN?5?$CIUINTN?$CJImag@ 00000000000058b0     BasePeCoffLib:BasePeCoff.obj
 0002:00000c68       ??_C@_0BJ@KIAHAFBF@ReadSize?5?$CB?$DN?5?$CI?$CIvoid?5?$CK?$CJ?50?$CJ@ 0000000000005908     BasePeCoffLib:BasePeCoff.obj
 0002:00000c88       ??_C@_0BL@INAOLIJI@FileHandle?5?$CB?$DN?5?$CI?$CIvoid?5?$CK?$CJ?50?$CJ@ 0000000000005928     BasePeCoffLib:BasePeCoff.obj
 0002:00000ca8       ??_C@_0DJ@EPHLDLOO@?$CILength?5?9?51?$CJ?5?$DM?$DN?5?$CI0xFFFFFFFFFFFF@ 0000000000005948     BaseCacheMaintenanceLib:X86Cache.obj
 0002:00000cf0       ??_C@_0EB@BBGPJFCK@d?3?2myedk2?2edk2?2MdePkg?2Library?2B@ 0000000000005990     BaseCacheMaintenanceLib:X86Cache.obj
 0002:00000d40       ??_C@_0EI@EGOBAHNO@d?3?2myedk2?2edk2?2MdePkg?2Library?2D@ 00000000000059e0     DxeServicesTableLib:DxeServicesTableLib.obj
 0002:00000d88       ??_C@_0BE@IOIFLNKO@gDS?5?$CB?$DN?5?$CI?$CIvoid?5?$CK?$CJ?50?$CJ@ 0000000000005a28     DxeServicesTableLib:DxeServicesTableLib.obj
 0002:00000da0       ??_C@_0DO@BIAMLLDG@d?3?2myedk2?2edk2?2MdePkg?2Library?2D@ 0000000000005a40     DxeServicesLib:DxeServicesLib.obj
 0002:00000de0       ??_C@_0BJ@GMMGGIMG@NameGuid?5?$CB?$DN?5?$CI?$CIvoid?5?$CK?$CJ?50?$CJ@ 0000000000005a80     DxeServicesLib:DxeServicesLib.obj
 0002:00000e00       ??_C@_0FI@LMFLBBBN@d?3?2myedk2?2edk2?2MdeModulePkg?2Lib@ 0000000000005aa0     RuntimeDxeReportStatusCodeLib:ReportStatusCodeLib.obj
 0002:00000e60       ??_C@_0ED@CECKBBNJ@d?3?2myedk2?2edk2?2MdePkg?2Library?2B@ 0000000000005b00     BaseMemoryLibRepStr:ZeroMemWrapper.obj
 0002:00000ea8       ??_C@_0BH@MAAHKCPC@String?5?$CB?$DN?5?$CI?$CIvoid?5?$CK?$CJ?50?$CJ@ 0000000000005b48     BaseLib:String.obj
 0002:00000ec0       ??_C@_0CP@DJBLNMJI@d?3?2myedk2?2edk2?2MdePkg?2Library?2B@ 0000000000005b60     BaseLib:String.obj
 0002:00000ef0       ??_C@_0CC@GFNLNIOC@?$CI?$CIUINTN?$CJString?5?$CG?50x00000001?$CJ?5?$DN?$DN@ 0000000000005b90     BaseLib:String.obj
 0002:00000f18       ??_C@_0DI@MDIKFADO@Length?5?$DM?5_gPcd_FixedAtBuild_Pcd@ 0000000000005bb8     BaseLib:String.obj
 0002:00000f50       ??_C@_0DD@OKIGPFG@d?3?2myedk2?2edk2?2MdePkg?2Library?2B@ 0000000000005bf0     BaseLib:SafeString.obj
 0002:00000f88       ??_C@_0BJ@CNKJJNE@?$CIBuffer?5?$CB?$DN?5?$CI?$CIvoid?5?$CK?$CJ?50?$CJ?$CJ@ 0000000000005c28     BaseLib:SafeString.obj
 0002:00000fa8       ??_C@_0N@KGHEHMDL@Divisor?5?$CB?$DN?50@ 0000000000005c48     BaseLib:DivU64x32.obj
 0002:00000fb8       ??_C@_0DO@DLJLNPNA@d?3?2myedk2?2edk2?2MdePkg?2Library?2B@ 0000000000005c58     BasePrintLib:PrintLibInternal.obj
 0002:00001000       ??_C@_0EB@HDGIDCIO@?$CIBufferSize?5?$DM?$DN?5?$CI_gPcd_FixedAtBu@ 0000000000005ca0     BasePrintLib:PrintLibInternal.obj
 0002:00001048       ??_C@_0BJ@PPAKKDJG@?$CIFormat?5?$CB?$DN?5?$CI?$CIvoid?5?$CK?$CJ?50?$CJ?$CJ@ 0000000000005ce8     BasePrintLib:PrintLibInternal.obj
 0002:00001070       ??_C@_0ED@LPDDCECB@?$CIBufferSize?5?$DM?$DN?5?$CI_gPcd_FixedAtBu@ 0000000000005d10     BasePrintLib:PrintLibInternal.obj
 0002:000010c0       ??_C@_0IM@BFJJFLGB@?$CIStrnLenS?5?$CI?$CICHAR16?5?$CK?$CJFormat?0?5?$CI_@ 0000000000005d60     BasePrintLib:PrintLibInternal.obj
 0002:00001150       ??_C@_0ID@PLGJGION@?$CIAsciiStrnLenS?5?$CIFormat?0?5?$CI_gPcd_@ 0000000000005df0     BasePrintLib:PrintLibInternal.obj
 0002:000011d8       ??_C@_0O@MLOLIMFM@?$DMnull?5string?$DO@ 0000000000005e78     BasePrintLib:PrintLibInternal.obj
 0002:000011e8       ??_C@_0M@BJJDNPHK@?$DMnull?5guid?$DO@ 0000000000005e88     BasePrintLib:PrintLibInternal.obj
 0002:000011f8       ??_C@_0DB@PMLHLBMO@?$CF08x?9?$CF04x?9?$CF04x?9?$CF02x?$CF02x?9?$CF02x?$CF02@ 0000000000005e98     BasePrintLib:PrintLibInternal.obj
 0002:00001230       ??_C@_0M@LHGBCIKM@?$DMnull?5time?$DO@ 0000000000005ed0     BasePrintLib:PrintLibInternal.obj
 0002:00001240       ??_C@_0BK@FCPKCIDD@?$CF02d?1?$CF02d?1?$CF04d?5?5?$CF02d?3?$CF02d@ 0000000000005ee0     BasePrintLib:PrintLibInternal.obj
 0002:0000125c       ??_C@_04JIMNDDED@?$CF08X@  0000000000005efc     BasePrintLib:PrintLibInternal.obj
 0002:00001264       ??_C@_02PCIJFNDE@?$AN?6@   0000000000005f04     BasePrintLib:PrintLibInternal.obj
 0002:00001268       ??_C@_01LIIJDEN@?$AN@      0000000000005f08     BasePrintLib:PrintLibInternal.obj
 0002:00001270       mWarningString             0000000000005f10     BasePrintLib:PrintLibInternal.obj
 0002:00001310       mErrorString               0000000000005fb0     BasePrintLib:PrintLibInternal.obj
 0002:000015d0       mHexStr                    0000000000006270     BasePrintLib:PrintLibInternal.obj
 0002:000015e0       ??_C@_0FM@HHOODKFE@d?3?2myedk2?2edk2?2SourceLevelDebug@ 0000000000006280     PeCoffExtraActionLib:PeCoffExtraActionLib.obj
 0002:00001640       ??_C@_0O@NKPOEJD@?5?5?5?5PDB?5?$DN?5?$CFa?6@ 00000000000062e0     PeCoffExtraActionLib:PeCoffExtraActionLib.obj
 0002:00001650       ??_C@_0DL@JEBMKBEC@d?3?2myedk2?2edk2?2MdePkg?2Library?2B@ 00000000000062f0     BaseLib:DivU64x32Remainder.obj
 0002:000016e0       __volatile_metadata        0000000000006380     <linker-defined>
 0003:00000000       gEfiSmmCommunicationProtocolGuid 00000000000064e0     PiSmmIpl:AutoGen.obj
 0003:00000010       gEfiStatusCodeRuntimeProtocolGuid 00000000000064f0     PiSmmIpl:AutoGen.obj
 0003:00000020       gEfiEventReadyToBootGuid   0000000000006500     PiSmmIpl:AutoGen.obj
 0003:00000030       gEfiEventLegacyBootGuid    0000000000006510     PiSmmIpl:AutoGen.obj
 0003:00000040       gEfiDxeSmmReadyToLockProtocolGuid 0000000000006520     PiSmmIpl:AutoGen.obj
 0003:00000050       gEfiFirmwareVolume2ProtocolGuid 0000000000006530     PiSmmIpl:AutoGen.obj
 0003:00000060       gEfiCpuArchProtocolGuid    0000000000006540     PiSmmIpl:AutoGen.obj
 0003:00000070       gEfiSmmControl2ProtocolGuid 0000000000006550     PiSmmIpl:AutoGen.obj
 0003:00000080       gEfiDevicePathUtilitiesProtocolGuid 0000000000006560     PiSmmIpl:AutoGen.obj
 0003:00000090       gEfiEventDxeDispatchGuid   0000000000006570     PiSmmIpl:AutoGen.obj
 0003:000000a0       gEfiHobListGuid            0000000000006580     PiSmmIpl:AutoGen.obj
 0003:000000b0       gEfiEventExitBootServicesGuid 0000000000006590     PiSmmIpl:AutoGen.obj
 0003:000000c0       gEfiEndOfDxeEventGroupGuid 00000000000065a0     PiSmmIpl:AutoGen.obj
 0003:000000d0       gEfiSmmBase2ProtocolGuid   00000000000065b0     PiSmmIpl:AutoGen.obj
 0003:000000e0       gEfiEventVirtualAddressChangeGuid 00000000000065c0     PiSmmIpl:AutoGen.obj
 0003:000000f0       gEfiDxeServicesTableGuid   00000000000065d0     PiSmmIpl:AutoGen.obj
 0003:00000100       gEfiCallerIdGuid           00000000000065e0     PiSmmIpl:AutoGen.obj
 0003:00000110       gEfiSmmAccess2ProtocolGuid 00000000000065f0     PiSmmIpl:AutoGen.obj
 0003:00000120       gEfiSmmConfigurationProtocolGuid 0000000000006600     PiSmmIpl:AutoGen.obj
 0003:00000130       gEfiMmCommunication2ProtocolGuid 0000000000006610     PiSmmIpl:AutoGen.obj
 0003:00000140       gSmmCorePrivate            0000000000006620     PiSmmIpl:PiSmmIpl.obj
 0003:00000150       mSmmCorePrivateData        0000000000006630     PiSmmIpl:PiSmmIpl.obj
 0003:000001b8       mSmmCommunication          0000000000006698     PiSmmIpl:PiSmmIpl.obj
 0003:000001c0       mMmCommunication2          00000000000066a0     PiSmmIpl:PiSmmIpl.obj
 0003:000001d0       mSmmIplEvents              00000000000066b0     PiSmmIpl:PiSmmIpl.obj
 0003:000003e0       mSmmBase2                  00000000000068c0     PiSmmIpl:PiSmmIpl.obj
 0003:00000400       mSmmIplHandle              00000000000068e0     PiSmmIpl:PiSmmIpl.obj
 0003:00000408       mEndOfDxe                  00000000000068e8     PiSmmIpl:PiSmmIpl.obj
 0003:00000409       mSmmLocked                 00000000000068e9     PiSmmIpl:PiSmmIpl.obj
 0003:00000410       gST                        00000000000068f0     UefiBootServicesTableLib:UefiBootServicesTableLib.obj
 0003:00000418       gBS                        00000000000068f8     UefiBootServicesTableLib:UefiBootServicesTableLib.obj
 0003:00000420       gImageHandle               0000000000006900     UefiBootServicesTableLib:UefiBootServicesTableLib.obj
 0003:00000428       gRT                        0000000000006908     UefiRuntimeServicesTableLib:UefiRuntimeServicesTableLib.obj
 0003:00000430       mDevicePathLibDevicePathUtilities 0000000000006910     UefiDevicePathLibDevicePathProtocol:UefiDevicePathLib.obj
 0003:00000438       mHobList                   0000000000006918     DxeHobLib:HobLib.obj
 0003:00000440       mEfiGoneVirtual            0000000000006920     UefiRuntimeLib:RuntimeLib.obj
 0003:00000448       gDS                        0000000000006928     DxeServicesTableLib:DxeServicesTableLib.obj
 0003:00000450       mHaveExitedBootServices    0000000000006930     RuntimeDxeReportStatusCodeLib:ReportStatusCodeLib.obj
 0003:00000458       mReportStatusCodeLibStatusCodeProtocol 0000000000006938     RuntimeDxeReportStatusCodeLib:ReportStatusCodeLib.obj
 0003:00000460       gParity                    0000000000006940     PcAtSerialPortLib:SerialPortLib.obj
 0003:00000461       gBreakSet                  0000000000006941     PcAtSerialPortLib:SerialPortLib.obj
 0003:00000468       mReportStatusCodeLibVirtualAddressChangeEvent 0000000000006948     <common>
 0003:00000470       mReportStatusCodeLibExitBootServicesEvent 0000000000006950     <common>
 0003:00000478       mEfiVirtualNotifyEvent     0000000000006958     <common>
 0003:00000480       mInternalRT                0000000000006960     <common>
 0003:00000488       mEfiExitBootServicesEvent  0000000000006968     <common>
 0003:00000490       mSmmAccess                 0000000000006970     <common>
 0003:00000498       mCurrentSmramRange         0000000000006978     <common>
 0003:000004a0       mSmmControl2               0000000000006980     <common>
 0003:000004c0       mCommunicateHeader         00000000000069a0     <common>
 0003:000004e0       mSmramCacheBase            00000000000069c0     <common>
 0003:000004e8       mSmramCacheSize            00000000000069c8     <common>

 entry point at        0001:00000338

 Static symbols

 0001:0000001a       InternalMemCopyMem.0       00000000000002da     BaseMemoryLibRepStr:CopyMem.obj
 0001:0000002a       @CopyBackward              00000000000002ea     BaseMemoryLibRepStr:CopyMem.obj
 0001:00000033       @CopyBytes                 00000000000002f3     BaseMemoryLibRepStr:CopyMem.obj
 0001:000000ff       AsmCpuid.0                 00000000000003bf     BaseLib:CpuId.obj
 0001:00000104       AsmCpuid.1                 00000000000003c4     BaseLib:CpuId.obj
 0001:0000010b       AsmCpuid.2                 00000000000003cb     BaseLib:CpuId.obj
 0001:00000114       AsmCpuid.3                 00000000000003d4     BaseLib:CpuId.obj
 0001:000002ae       TdVmCall.no_return_data    000000000000056e     BaseLib:TdVmcall.obj
 0001:0000032b       TdCall.exit                00000000000005eb     BaseLib:TdCall.obj
 0005:00000000       $unwind$AsciiStrLen        0000000000006be0     BaseLib:String.obj
 0005:00000000       $unwind$ZeroMem            0000000000006be0     BaseMemoryLibRepStr:ZeroMemWrapper.obj
 0005:00000000       $unwind$_ModuleEntryPoint  0000000000006be0     UefiDriverEntryPoint:DriverEntryPoint.obj
 0005:0000000c       $unwind$ProcessLibraryConstructorList 0000000000006bec     PiSmmIpl:AutoGen.obj
 0005:00000024       $unwind$ProcessLibraryDestructorList 0000000000006c04     PiSmmIpl:AutoGen.obj
 0005:00000024       $unwind$CopyMem            0000000000006c04     BaseMemoryLibRepStr:CopyMemWrapper.obj
 0005:00000024       $unwind$PeCoffLoaderImageReadFromMemory 0000000000006c04     BasePeCoffLib:BasePeCoff.obj
 0005:00000038       $unwind$SmmCommunicationCommunicate 0000000000006c18     PiSmmIpl:PiSmmIpl.obj
 0005:00000044       $unwind$SmmIplGuidedEventNotify 0000000000006c24     PiSmmIpl:PiSmmIpl.obj
 0005:00000044       $unwind$SmmIplSmmConfigurationEventNotify 0000000000006c24     PiSmmIpl:PiSmmIpl.obj
 0005:00000044       $unwind$ReportStatusCodeLibExitBootServices 0000000000006c24     RuntimeDxeReportStatusCodeLib:ReportStatusCodeLib.obj
 0005:00000044       $unwind$ReportStatusCodeLibVirtualAddressChange 0000000000006c24     RuntimeDxeReportStatusCodeLib:ReportStatusCodeLib.obj
 0005:00000044       $unwind$GetHobList         0000000000006c24     DxeHobLib:HobLib.obj
 0005:00000044       $unwind$FreePool           0000000000006c24     UefiMemoryAllocationLib:MemoryAllocationLib.obj
 0005:00000044       $unwind$InternalAllocatePool 0000000000006c24     UefiMemoryAllocationLib:MemoryAllocationLib.obj
 0005:00000044       $unwind$RuntimeLibVirtualNotifyEvent 0000000000006c24     UefiRuntimeLib:RuntimeLib.obj
 0005:0000004c       $unwind$SmmIplDxeDispatchEventNotify 0000000000006c2c     PiSmmIpl:PiSmmIpl.obj
 0005:0000004c       $unwind$InternalGetReportStatusCode 0000000000006c2c     RuntimeDxeReportStatusCodeLib:ReportStatusCodeLib.obj
 0005:0000004c       $unwind$StrnLenS           0000000000006c2c     BaseLib:SafeString.obj
 0005:00000054       $unwind$SmmIplReadyToLockEventNotify 0000000000006c34     PiSmmIpl:PiSmmIpl.obj
 0005:00000064       $unwind$ExecuteSmmCoreFromSmram 0000000000006c44     PiSmmIpl:PiSmmIpl.obj
 0005:0000007c       $unwind$SmmSplitSmramEntry 0000000000006c5c     PiSmmIpl:PiSmmIpl.obj
 0005:00000094       $unwind$GetFullSmramRanges 0000000000006c74     PiSmmIpl:PiSmmIpl.obj
 0005:000000ac       $unwind$SmmIplEntry        0000000000006c8c     PiSmmIpl:PiSmmIpl.obj
 0005:000000c0       $unwind$CopyGuid           0000000000006ca0     BaseMemoryLibRepStr:MemLibGuid.obj
 0005:000000c0       $unwind$BasePrintLibValueToString 0000000000006ca0     BasePrintLib:PrintLibInternal.obj
 0005:000000d0       $unwind$CompareGuid        0000000000006cb0     BaseMemoryLibRepStr:MemLibGuid.obj
 0005:000000e8       $unwind$DebugPrint         0000000000006cc8     BaseDebugLibSerialPort:DebugLib.obj
 0005:000000f0       $unwind$DebugPrintMarker   0000000000006cd0     BaseDebugLibSerialPort:DebugLib.obj
 0005:00000104       $unwind$DebugAssert        0000000000006ce4     BaseDebugLibSerialPort:DebugLib.obj
 0005:0000010c       $unwind$EfiGetSystemConfigurationTable 0000000000006cec     UefiLib:UefiLib.obj
 0005:00000124       $unwind$PeCoffLoaderGetPeHeader 0000000000006d04     BasePeCoffLib:BasePeCoff.obj
 0005:00000140       $unwind$PeCoffLoaderGetImageInfo 0000000000006d20     BasePeCoffLib:BasePeCoff.obj
 0005:00000160       $unwind$PeCoffLoaderRelocateImage 0000000000006d40     BasePeCoffLib:BasePeCoff.obj
 0005:0000017c       $unwind$PeCoffLoaderLoadImage 0000000000006d5c     BasePeCoffLib:BasePeCoff.obj
 0005:00000194       $unwind$InternalGetSectionFromFv 0000000000006d74     DxeServicesLib:DxeServicesLib.obj
 0005:000001a4       $unwind$ReportStatusCode   0000000000006d84     RuntimeDxeReportStatusCodeLib:ReportStatusCodeLib.obj
 0005:000001ac       $unwind$AsciiSPrint        0000000000006d8c     BasePrintLib:PrintLib.obj
 0005:000001b4       $unwind$BasePrintLibSPrintMarker 0000000000006d94     BasePrintLib:PrintLibInternal.obj
 0005:000001d0       $unwind$BasePrintLibSPrint 0000000000006db0     BasePrintLib:PrintLibInternal.obj
 0005:000001d8       $unwind$PeCoffLoaderExtraActionCommon 0000000000006db8     PeCoffExtraActionLib:PeCoffExtraActionLib.obj
