 NullMemoryTestDxe

 Timestamp is 62c3c252 (Tue Jul  5 12:47:14 2022)

 Preferred load address is 0000000000000000

 Start         Length     Name                   Class
 0001:00000000 000001b8H .text                   CODE
 0001:000001b8 00001846H .text$mn                CODE
 0002:00000000 00000c50H .rdata                  DATA
 0002:00000c50 00000020H .rdata$voltmd           DATA
 0002:00000c70 00000164H .rdata$zzzdbg           DATA
 0003:00000000 00000050H .data                   DATA
 0003:00000050 00000050H .bss                    DATA
 0004:00000000 000000c0H .pdata                  DATA
 0005:00000000 000000ccH .xdata                  DATA

  Address         Publics by Value              Rva+Base               Lib:Object

 0000:00000000       __guard_longjmp_table      0000000000000000     <absolute>
 0000:00000000       __guard_fids_count         0000000000000000     <absolute>
 0000:00000000       __x64_code_ranges_to_entry_points_count 0000000000000000     <absolute>
 0000:00000000       __arm64x_extra_rfe_table   0000000000000000     <absolute>
 0000:00000000       __arm64x_redirection_metadata 0000000000000000     <absolute>
 0000:00000000       __hybrid_code_map_count    0000000000000000     <absolute>
 0000:00000000       __hybrid_code_map          0000000000000000     <absolute>
 0000:00000000       __guard_iat_table          0000000000000000     <absolute>
 0000:00000000       __arm64x_extra_rfe_table_size 0000000000000000     <absolute>
 0000:00000000       __guard_iat_count          0000000000000000     <absolute>
 0000:00000000       __x64_code_ranges_to_entry_points 0000000000000000     <absolute>
 0000:00000000       __guard_longjmp_count      0000000000000000     <absolute>
 0000:00000000       __dynamic_value_reloc_table 0000000000000000     <absolute>
 0000:00000000       __hybrid_auxiliary_iat     0000000000000000     <absolute>
 0000:00000000       __arm64x_native_entrypoint 0000000000000000     <absolute>
 0000:00000000       __hybrid_auxiliary_iat_copy 0000000000000000     <absolute>
 0000:00000000       __guard_flags              0000000000000000     <absolute>
 0000:00000000       __guard_eh_cont_table      0000000000000000     <absolute>
 0000:00000000       __guard_eh_cont_count      0000000000000000     <absolute>
 0000:00000000       __AbsoluteZero             0000000000000000     <absolute>
 0000:00000000       __guard_check_icall_a64n_fptr 0000000000000000     <absolute>
 0000:00000000       __enclave_config           0000000000000000     <absolute>
 0000:00000000       __guard_fids_table         0000000000000000     <absolute>
 0000:00000000       __arm64x_redirection_metadata_count 0000000000000000     <absolute>
 0001:00000000       CpuPause                   00000000000002c0     BaseLib:CpuPause.obj
 0001:00000010       InternalMemSetMem          00000000000002d0     BaseMemoryLibRepStr:SetMem.obj
 0001:00000030       InternalMemCopyMem         00000000000002f0     BaseMemoryLibRepStr:CopyMem.obj
 0001:00000070       InternalMemZeroMem         0000000000000330     BaseMemoryLibRepStr:ZeroMem.obj
 0001:00000090       InternalMemSetMem64        0000000000000350     BaseMemoryLibRepStr:SetMem64.obj
 0001:000000b0       InternalMemSetMem32        0000000000000370     BaseMemoryLibRepStr:SetMem32.obj
 0001:000000d0       TdVmCall                   0000000000000390     BaseLib:TdVmcall.obj
 0001:00000160       TdCall                     0000000000000420     BaseLib:TdCall.obj
 0001:000001b8       _ModuleEntryPoint          0000000000000478 f   UefiDriverEntryPoint:DriverEntryPoint.obj
 0001:00000220       ProcessLibraryConstructorList 00000000000004e0 f   NullMemoryTestDxe:AutoGen.obj
 0001:000004a4       ConvertToTestedMemory      0000000000000764 f   NullMemoryTestDxe:NullMemoryTest.obj
 0001:0000050c       InitializeMemoryTest       00000000000007cc f   NullMemoryTestDxe:NullMemoryTest.obj
 0001:00000624       GenPerformMemoryTest       00000000000008e4 f   NullMemoryTestDxe:NullMemoryTest.obj
 0001:00000648       GenMemoryTestFinished      0000000000000908 f   NullMemoryTestDxe:NullMemoryTest.obj
 0001:0000064c       GenCompatibleRangeTest     000000000000090c f   NullMemoryTestDxe:NullMemoryTest.obj
 0001:0000071c       DebugPrint                 00000000000009dc f   BaseDebugLibSerialPort:DebugLib.obj
 0001:00000740       DebugPrintMarker           0000000000000a00 f   BaseDebugLibSerialPort:DebugLib.obj
 0001:000007f0       DebugAssert                0000000000000ab0 f   BaseDebugLibSerialPort:DebugLib.obj
 0001:00000868       FreePool                   0000000000000b28 f   UefiMemoryAllocationLib:MemoryAllocationLib.obj
 0001:000008ac       AsciiStrLen                0000000000000b6c f   BaseLib:String.obj
 0001:00000918       StrnLenS                   0000000000000bd8 f   BaseLib:SafeString.obj
 0001:00000970       CompareGuid                0000000000000c30 f   BaseMemoryLibRepStr:MemLibGuid.obj
 0001:00000a04       AsciiSPrint                0000000000000cc4 f   BasePrintLib:PrintLib.obj
 0001:00000a30       BasePrintLibFillBuffer     0000000000000cf0 f   BasePrintLib:PrintLibInternal.obj
 0001:00000a64       BasePrintLibValueToString  0000000000000d24 f   BasePrintLib:PrintLibInternal.obj
 0001:00000ad0       BasePrintLibSPrintMarker   0000000000000d90 f   BasePrintLib:PrintLibInternal.obj
 0001:000019dc       BasePrintLibSPrint         0000000000001c9c f   BasePrintLib:PrintLibInternal.obj
 0002:00000000       ??_C@_0CB@DMEJJJHA@?6ASSERT_EFI_ERROR?5?$CIStatus?5?$DN?5?$CFr?$CJ@ 0000000000001cc0     UefiDriverEntryPoint:DriverEntryPoint.obj
 0002:00000028       ??_C@_0CH@BBNBJKHK@?$CB?$CI?$CI?$CIINTN?$CJ?$CIRETURN_STATUS?$CJ?$CIStatus@ 0000000000001ce8     UefiDriverEntryPoint:DriverEntryPoint.obj
 0002:00000050       ??_C@_0BC@NDBMMNEG@NullMemoryTestDxe@ 0000000000001d10     NullMemoryTestDxe:AutoGen.obj
 0002:00000070       ??_C@_0IE@GILCAHAD@d?3?2myedk2?2edk2?2Build?2OvmfX64?2DE@ 0000000000001d30     NullMemoryTestDxe:AutoGen.obj
 0002:00000100       ??_C@_0FE@HNOMELLL@d?3?2myedk2?2edk2?2MdeModulePkg?2Uni@ 0000000000001dc0     NullMemoryTestDxe:NullMemoryTest.obj
 0002:00000158       ??_C@_0BH@LKMBFCBF@Format?5?$CB?$DN?5?$CI?$CIvoid?5?$CK?$CJ?50?$CJ@ 0000000000001e18     BaseDebugLibSerialPort:DebugLib.obj
 0002:00000170       ??_C@_0EA@MCEJFCHO@d?3?2myedk2?2edk2?2MdePkg?2Library?2B@ 0000000000001e30     BaseDebugLibSerialPort:DebugLib.obj
 0002:000001b0       ??_C@_0BI@NOCKJDBJ@ASSERT?5?$FL?$CFa?$FN?5?$CFa?$CI?$CFd?$CJ?3?5?$CFa?6@ 0000000000001e70     BaseDebugLibSerialPort:DebugLib.obj
 0002:000001c8       ??_C@_0BH@IACGKAP@Buffer?5?$CB?$DN?5?$CI?$CIvoid?5?$CK?$CJ?50?$CJ@ 0000000000001e88     BaseDebugLibSerialPort:DebugLib.obj
 0002:000001e0       ??_C@_0BN@COECPDCC@gImageHandle?5?$CB?$DN?5?$CI?$CIvoid?5?$CK?$CJ?50?$CJ@ 0000000000001ea0     UefiBootServicesTableLib:UefiBootServicesTableLib.obj
 0002:00000200       ??_C@_0FC@HJEJKBBP@d?3?2myedk2?2edk2?2MdePkg?2Library?2U@ 0000000000001ec0     UefiBootServicesTableLib:UefiBootServicesTableLib.obj
 0002:00000258       ??_C@_0BE@DGNHAHIL@gST?5?$CB?$DN?5?$CI?$CIvoid?5?$CK?$CJ?50?$CJ@ 0000000000001f18     UefiBootServicesTableLib:UefiBootServicesTableLib.obj
 0002:00000270       ??_C@_0BE@BDFJLGLN@gBS?5?$CB?$DN?5?$CI?$CIvoid?5?$CK?$CJ?50?$CJ@ 0000000000001f30     UefiBootServicesTableLib:UefiBootServicesTableLib.obj
 0002:00000290       ??_C@_0EM@BLKCBDHP@d?3?2myedk2?2edk2?2MdePkg?2Library?2U@ 0000000000001f50     UefiMemoryAllocationLib:MemoryAllocationLib.obj
 0002:000002e0       ??_C@_0BE@OBDFIHND@gRT?5?$CB?$DN?5?$CI?$CIvoid?5?$CK?$CJ?50?$CJ@ 0000000000001fa0     UefiRuntimeServicesTableLib:UefiRuntimeServicesTableLib.obj
 0002:00000300       ??_C@_0FI@ELFALICJ@d?3?2myedk2?2edk2?2MdePkg?2Library?2U@ 0000000000001fc0     UefiRuntimeServicesTableLib:UefiRuntimeServicesTableLib.obj
 0002:00000360       ??_C@_0FG@PKIHNGDJ@d?3?2myedk2?2edk2?2MdePkg?2Library?2U@ 0000000000002020     UefiDevicePathLibDevicePathProtocol:UefiDevicePathLib.obj
 0002:000003b8       ??_C@_0DC@CNNBPJA@mDevicePathLibDevicePathUtiliti@ 0000000000002078     UefiDevicePathLibDevicePathProtocol:UefiDevicePathLib.obj
 0002:000003f0       ??_C@_0EI@EGOBAHNO@d?3?2myedk2?2edk2?2MdePkg?2Library?2D@ 00000000000020b0     DxeServicesTableLib:DxeServicesTableLib.obj
 0002:00000438       ??_C@_0BE@IOIFLNKO@gDS?5?$CB?$DN?5?$CI?$CIvoid?5?$CK?$CJ?50?$CJ@ 00000000000020f8     DxeServicesTableLib:DxeServicesTableLib.obj
 0002:00000450       ??_C@_0BH@MAAHKCPC@String?5?$CB?$DN?5?$CI?$CIvoid?5?$CK?$CJ?50?$CJ@ 0000000000002110     BaseLib:String.obj
 0002:00000468       ??_C@_0CP@DJBLNMJI@d?3?2myedk2?2edk2?2MdePkg?2Library?2B@ 0000000000002128     BaseLib:String.obj
 0002:00000498       ??_C@_0CC@GFNLNIOC@?$CI?$CIUINTN?$CJString?5?$CG?50x00000001?$CJ?5?$DN?$DN@ 0000000000002158     BaseLib:String.obj
 0002:000004c0       ??_C@_0DI@MDIKFADO@Length?5?$DM?5_gPcd_FixedAtBuild_Pcd@ 0000000000002180     BaseLib:String.obj
 0002:000004f8       ??_C@_0DC@DDBICJIK@d?3?2myedk2?2edk2?2MdePkg?2Library?2B@ 00000000000021b8     BaseLib:Unaligned.obj
 0002:00000530       ??_C@_0DD@OKIGPFG@d?3?2myedk2?2edk2?2MdePkg?2Library?2B@ 00000000000021f0     BaseLib:SafeString.obj
 0002:00000568       ??_C@_0BJ@CNKJJNE@?$CIBuffer?5?$CB?$DN?5?$CI?$CIvoid?5?$CK?$CJ?50?$CJ?$CJ@ 0000000000002228     BaseLib:SafeString.obj
 0002:00000588       ??_C@_0N@KGHEHMDL@Divisor?5?$CB?$DN?50@ 0000000000002248     BaseLib:DivU64x32.obj
 0002:00000598       ??_C@_0DO@DLJLNPNA@d?3?2myedk2?2edk2?2MdePkg?2Library?2B@ 0000000000002258     BasePrintLib:PrintLibInternal.obj
 0002:000005e0       ??_C@_0EB@HDGIDCIO@?$CIBufferSize?5?$DM?$DN?5?$CI_gPcd_FixedAtBu@ 00000000000022a0     BasePrintLib:PrintLibInternal.obj
 0002:00000628       ??_C@_0BJ@PPAKKDJG@?$CIFormat?5?$CB?$DN?5?$CI?$CIvoid?5?$CK?$CJ?50?$CJ?$CJ@ 00000000000022e8     BasePrintLib:PrintLibInternal.obj
 0002:00000650       ??_C@_0ED@LPDDCECB@?$CIBufferSize?5?$DM?$DN?5?$CI_gPcd_FixedAtBu@ 0000000000002310     BasePrintLib:PrintLibInternal.obj
 0002:000006a0       ??_C@_0IM@BFJJFLGB@?$CIStrnLenS?5?$CI?$CICHAR16?5?$CK?$CJFormat?0?5?$CI_@ 0000000000002360     BasePrintLib:PrintLibInternal.obj
 0002:00000730       ??_C@_0ID@PLGJGION@?$CIAsciiStrnLenS?5?$CIFormat?0?5?$CI_gPcd_@ 00000000000023f0     BasePrintLib:PrintLibInternal.obj
 0002:000007b8       ??_C@_0O@MLOLIMFM@?$DMnull?5string?$DO@ 0000000000002478     BasePrintLib:PrintLibInternal.obj
 0002:000007c8       ??_C@_0M@BJJDNPHK@?$DMnull?5guid?$DO@ 0000000000002488     BasePrintLib:PrintLibInternal.obj
 0002:000007d8       ??_C@_0DB@PMLHLBMO@?$CF08x?9?$CF04x?9?$CF04x?9?$CF02x?$CF02x?9?$CF02x?$CF02@ 0000000000002498     BasePrintLib:PrintLibInternal.obj
 0002:00000810       ??_C@_0M@LHGBCIKM@?$DMnull?5time?$DO@ 00000000000024d0     BasePrintLib:PrintLibInternal.obj
 0002:00000820       ??_C@_0BK@FCPKCIDD@?$CF02d?1?$CF02d?1?$CF04d?5?5?$CF02d?3?$CF02d@ 00000000000024e0     BasePrintLib:PrintLibInternal.obj
 0002:0000083c       ??_C@_04JIMNDDED@?$CF08X@  00000000000024fc     BasePrintLib:PrintLibInternal.obj
 0002:00000844       ??_C@_02PCIJFNDE@?$AN?6@   0000000000002504     BasePrintLib:PrintLibInternal.obj
 0002:00000848       ??_C@_01LIIJDEN@?$AN@      0000000000002508     BasePrintLib:PrintLibInternal.obj
 0002:00000850       mWarningString             0000000000002510     BasePrintLib:PrintLibInternal.obj
 0002:000008f0       mErrorString               00000000000025b0     BasePrintLib:PrintLibInternal.obj
 0002:00000bb0       mHexStr                    0000000000002870     BasePrintLib:PrintLibInternal.obj
 0002:00000bc0       ??_C@_0DL@JEBMKBEC@d?3?2myedk2?2edk2?2MdePkg?2Library?2B@ 0000000000002880     BaseLib:DivU64x32Remainder.obj
 0002:00000c50       __volatile_metadata        0000000000002910     <linker-defined>
 0003:00000000       gEfiDevicePathUtilitiesProtocolGuid 0000000000002aa0     NullMemoryTestDxe:AutoGen.obj
 0003:00000010       gEfiGenericMemTestProtocolGuid 0000000000002ab0     NullMemoryTestDxe:AutoGen.obj
 0003:00000020       gEfiDxeServicesTableGuid   0000000000002ac0     NullMemoryTestDxe:AutoGen.obj
 0003:00000030       mGenericMemoryTest         0000000000002ad0     NullMemoryTestDxe:NullMemoryTest.obj
 0003:00000050       mTotalSystemMemory         0000000000002af0     NullMemoryTestDxe:NullMemoryTest.obj
 0003:00000058       mTestedSystemMemory        0000000000002af8     NullMemoryTestDxe:NullMemoryTest.obj
 0003:00000060       gST                        0000000000002b00     UefiBootServicesTableLib:UefiBootServicesTableLib.obj
 0003:00000068       gBS                        0000000000002b08     UefiBootServicesTableLib:UefiBootServicesTableLib.obj
 0003:00000070       gImageHandle               0000000000002b10     UefiBootServicesTableLib:UefiBootServicesTableLib.obj
 0003:00000078       gRT                        0000000000002b18     UefiRuntimeServicesTableLib:UefiRuntimeServicesTableLib.obj
 0003:00000080       mDevicePathLibDevicePathUtilities 0000000000002b20     UefiDevicePathLibDevicePathProtocol:UefiDevicePathLib.obj
 0003:00000088       gDS                        0000000000002b28     DxeServicesTableLib:DxeServicesTableLib.obj
 0003:00000090       gParity                    0000000000002b30     PcAtSerialPortLib:SerialPortLib.obj
 0003:00000091       gBreakSet                  0000000000002b31     PcAtSerialPortLib:SerialPortLib.obj
 0003:00000098       mGenericMemoryTestHandle   0000000000002b38     <common>

 entry point at        0001:000001b8

 Static symbols

 0001:0000004a       InternalMemCopyMem.0       000000000000030a     BaseMemoryLibRepStr:CopyMem.obj
 0001:0000005a       @CopyBackward              000000000000031a     BaseMemoryLibRepStr:CopyMem.obj
 0001:00000063       @CopyBytes                 0000000000000323     BaseMemoryLibRepStr:CopyMem.obj
 0001:0000012e       TdVmCall.no_return_data    00000000000003ee     BaseLib:TdVmcall.obj
 0001:000001ab       TdCall.exit                000000000000046b     BaseLib:TdCall.obj
 0005:00000000       $unwind$_ModuleEntryPoint  0000000000002c00     UefiDriverEntryPoint:DriverEntryPoint.obj
 0005:00000000       $unwind$FreePool           0000000000002c00     UefiMemoryAllocationLib:MemoryAllocationLib.obj
 0005:00000008       $unwind$ProcessLibraryConstructorList 0000000000002c08     NullMemoryTestDxe:AutoGen.obj
 0005:0000001c       $unwind$ConvertToTestedMemory 0000000000002c1c     NullMemoryTestDxe:NullMemoryTest.obj
 0005:0000001c       $unwind$BasePrintLibValueToString 0000000000002c1c     BasePrintLib:PrintLibInternal.obj
 0005:0000002c       $unwind$InitializeMemoryTest 0000000000002c2c     NullMemoryTestDxe:NullMemoryTest.obj
 0005:0000003c       $unwind$GenCompatibleRangeTest 0000000000002c3c     NullMemoryTestDxe:NullMemoryTest.obj
 0005:00000050       $unwind$DebugPrint         0000000000002c50     BaseDebugLibSerialPort:DebugLib.obj
 0005:00000058       $unwind$DebugPrintMarker   0000000000002c58     BaseDebugLibSerialPort:DebugLib.obj
 0005:0000006c       $unwind$DebugAssert        0000000000002c6c     BaseDebugLibSerialPort:DebugLib.obj
 0005:00000074       $unwind$AsciiStrLen        0000000000002c74     BaseLib:String.obj
 0005:00000080       $unwind$StrnLenS           0000000000002c80     BaseLib:SafeString.obj
 0005:00000088       $unwind$CompareGuid        0000000000002c88     BaseMemoryLibRepStr:MemLibGuid.obj
 0005:000000a0       $unwind$AsciiSPrint        0000000000002ca0     BasePrintLib:PrintLib.obj
 0005:000000a8       $unwind$BasePrintLibSPrintMarker 0000000000002ca8     BasePrintLib:PrintLibInternal.obj
 0005:000000c4       $unwind$BasePrintLibSPrint 0000000000002cc4     BasePrintLib:PrintLibInternal.obj
